libkjsembed.so.4 libkjsembed4 #MINVER#
* Build-Depends-Package: kdelibs5-dev
 _Z13qvariant_castI26QUiTranslatableStringValueET_RK8QVariant@Base 4:4.7.90
 _Z13qvariant_castI5QIconET_RK8QVariant@Base 4:4.7.90
 _Z21qMetaTypeDeleteHelperI26QUiTranslatableStringValueEvPT_@Base 4:4.7.90
 _Z21qMetaTypeDeleteHelperI5QListIP7QWidgetEEvPT_@Base 4:4.7.90
 _Z24qMetaTypeConstructHelperI26QUiTranslatableStringValueEPvPKT_@Base 4:4.7.90
 _Z24qMetaTypeConstructHelperI5QListIP7QWidgetEEPvPKT_@Base 4:4.7.90
 _ZN11QStringListC1ERKS_@Base 4:4.7.90
 _ZN11QStringListC2ERKS_@Base 4:4.7.90
 _ZN11QStringListD1Ev@Base 4:4.7.90
 _ZN11QStringListD2Ev@Base 4:4.7.90
 _ZN13QFormInternal10DomInclude4readER16QXmlStreamReader@Base 4:4.7.90
 _ZN13QFormInternal10DomInclude5clearEb@Base 4:4.7.90
 _ZN13QFormInternal10DomIncludeC1Ev@Base 4:4.7.90
 _ZN13QFormInternal10DomIncludeC2Ev@Base 4:4.7.90
 _ZN13QFormInternal10DomIncludeD1Ev@Base 4:4.7.90
 _ZN13QFormInternal10DomIncludeD2Ev@Base 4:4.7.90
 _ZN13QFormInternal10DomPalette16setElementActiveEPNS_13DomColorGroupE@Base 4:4.7.90
 _ZN13QFormInternal10DomPalette17takeElementActiveEv@Base 4:4.7.90
 _ZN13QFormInternal10DomPalette18clearElementActiveEv@Base 4:4.7.90
 _ZN13QFormInternal10DomPalette18setElementDisabledEPNS_13DomColorGroupE@Base 4:4.7.90
 _ZN13QFormInternal10DomPalette18setElementInactiveEPNS_13DomColorGroupE@Base 4:4.7.90
 _ZN13QFormInternal10DomPalette19takeElementDisabledEv@Base 4:4.7.90
 _ZN13QFormInternal10DomPalette19takeElementInactiveEv@Base 4:4.7.90
 _ZN13QFormInternal10DomPalette20clearElementDisabledEv@Base 4:4.7.90
 _ZN13QFormInternal10DomPalette20clearElementInactiveEv@Base 4:4.7.90
 _ZN13QFormInternal10DomPalette4readER16QXmlStreamReader@Base 4:4.7.90
 _ZN13QFormInternal10DomPalette5clearEb@Base 4:4.7.90
 _ZN13QFormInternal10DomPaletteC1Ev@Base 4:4.7.90
 _ZN13QFormInternal10DomPaletteC2Ev@Base 4:4.7.90
 _ZN13QFormInternal10DomPaletteD1Ev@Base 4:4.7.90
 _ZN13QFormInternal10DomPaletteD2Ev@Base 4:4.7.90
 _ZN13QFormInternal11DomDateTime13setElementDayEi@Base 4:4.7.90
 _ZN13QFormInternal11DomDateTime14setElementHourEi@Base 4:4.7.90
 _ZN13QFormInternal11DomDateTime14setElementYearEi@Base 4:4.7.90
 _ZN13QFormInternal11DomDateTime15clearElementDayEv@Base 4:4.7.90
 _ZN13QFormInternal11DomDateTime15setElementMonthEi@Base 4:4.7.90
 _ZN13QFormInternal11DomDateTime16clearElementHourEv@Base 4:4.7.90
 _ZN13QFormInternal11DomDateTime16clearElementYearEv@Base 4:4.7.90
 _ZN13QFormInternal11DomDateTime16setElementMinuteEi@Base 4:4.7.90
 _ZN13QFormInternal11DomDateTime16setElementSecondEi@Base 4:4.7.90
 _ZN13QFormInternal11DomDateTime17clearElementMonthEv@Base 4:4.7.90
 _ZN13QFormInternal11DomDateTime18clearElementMinuteEv@Base 4:4.7.90
 _ZN13QFormInternal11DomDateTime18clearElementSecondEv@Base 4:4.7.90
 _ZN13QFormInternal11DomDateTime4readER16QXmlStreamReader@Base 4:4.7.90
 _ZN13QFormInternal11DomDateTime5clearEb@Base 4:4.7.90
 _ZN13QFormInternal11DomDateTimeC1Ev@Base 4:4.7.90
 _ZN13QFormInternal11DomDateTimeC2Ev@Base 4:4.7.90
 _ZN13QFormInternal11DomDateTimeD1Ev@Base 4:4.7.90
 _ZN13QFormInternal11DomDateTimeD2Ev@Base 4:4.7.90
 _ZN13QFormInternal11DomGradient22setElementGradientStopERK5QListIPNS_15DomGradientStopEE@Base 4:4.7.90
 _ZN13QFormInternal11DomGradient4readER16QXmlStreamReader@Base 4:4.7.90
 _ZN13QFormInternal11DomGradient5clearEb@Base 4:4.7.90
 _ZN13QFormInternal11DomGradientC1Ev@Base 4:4.7.90
 _ZN13QFormInternal11DomGradientC2Ev@Base 4:4.7.90
 _ZN13QFormInternal11DomGradientD1Ev@Base 4:4.7.90
 _ZN13QFormInternal11DomGradientD2Ev@Base 4:4.7.90
 _ZN13QFormInternal11DomIncludes17setElementIncludeERK5QListIPNS_10DomIncludeEE@Base 4:4.7.90
 _ZN13QFormInternal11DomIncludes4readER16QXmlStreamReader@Base 4:4.7.90
 _ZN13QFormInternal11DomIncludes5clearEb@Base 4:4.7.90
 _ZN13QFormInternal11DomIncludesC1Ev@Base 4:4.7.90
 _ZN13QFormInternal11DomIncludesC2Ev@Base 4:4.7.90
 _ZN13QFormInternal11DomIncludesD1Ev@Base 4:4.7.90
 _ZN13QFormInternal11DomIncludesD2Ev@Base 4:4.7.90
 _ZN13QFormInternal11DomProperty13setElementSetERK7QString@Base 4:4.7.90
 _ZN13QFormInternal11DomProperty13setElementUrlEPNS_6DomUrlE@Base 4:4.7.90
 _ZN13QFormInternal11DomProperty14setElementBoolERK7QString@Base 4:4.7.90
 _ZN13QFormInternal11DomProperty14setElementCharEPNS_7DomCharE@Base 4:4.7.90
 _ZN13QFormInternal11DomProperty14setElementDateEPNS_7DomDateE@Base 4:4.7.90
 _ZN13QFormInternal11DomProperty14setElementEnumERK7QString@Base 4:4.7.90
 _ZN13QFormInternal11DomProperty14setElementFontEPNS_7DomFontE@Base 4:4.7.90
 _ZN13QFormInternal11DomProperty14setElementRectEPNS_7DomRectE@Base 4:4.7.90
 _ZN13QFormInternal11DomProperty14setElementSizeEPNS_7DomSizeE@Base 4:4.7.90
 _ZN13QFormInternal11DomProperty14setElementTimeEPNS_7DomTimeE@Base 4:4.7.90
 _ZN13QFormInternal11DomProperty14setElementUIntEj@Base 4:4.7.90
 _ZN13QFormInternal11DomProperty14takeElementUrlEv@Base 4:4.7.90
 _ZN13QFormInternal11DomProperty15setElementBrushEPNS_8DomBrushE@Base 4:4.7.90
 _ZN13QFormInternal11DomProperty15setElementColorEPNS_8DomColorE@Base 4:4.7.90
 _ZN13QFormInternal11DomProperty15setElementFloatEf@Base 4:4.7.90
 _ZN13QFormInternal11DomProperty15setElementPointEPNS_8DomPointE@Base 4:4.7.90
 _ZN13QFormInternal11DomProperty15setElementRectFEPNS_8DomRectFE@Base 4:4.7.90
 _ZN13QFormInternal11DomProperty15setElementSizeFEPNS_8DomSizeFE@Base 4:4.7.90
 _ZN13QFormInternal11DomProperty15takeElementCharEv@Base 4:4.7.90
 _ZN13QFormInternal11DomProperty15takeElementDateEv@Base 4:4.7.90
 _ZN13QFormInternal11DomProperty15takeElementFontEv@Base 4:4.7.90
 _ZN13QFormInternal11DomProperty15takeElementRectEv@Base 4:4.7.90
 _ZN13QFormInternal11DomProperty15takeElementSizeEv@Base 4:4.7.90
 _ZN13QFormInternal11DomProperty15takeElementTimeEv@Base 4:4.7.90
 _ZN13QFormInternal11DomProperty16setElementCursorEi@Base 4:4.7.90
 _ZN13QFormInternal11DomProperty16setElementDoubleEd@Base 4:4.7.90
 _ZN13QFormInternal11DomProperty16setElementLocaleEPNS_9DomLocaleE@Base 4:4.7.90
 _ZN13QFormInternal11DomProperty16setElementNumberEi@Base 4:4.7.90
 _ZN13QFormInternal11DomProperty16setElementPixmapEPNS_17DomResourcePixmapE@Base 4:4.7.90
 _ZN13QFormInternal11DomProperty16setElementPointFEPNS_9DomPointFE@Base 4:4.7.90
 _ZN13QFormInternal11DomProperty16setElementStringEPNS_9DomStringE@Base 4:4.7.90
 _ZN13QFormInternal11DomProperty16takeElementBrushEv@Base 4:4.7.90
 _ZN13QFormInternal11DomProperty16takeElementColorEv@Base 4:4.7.90
 _ZN13QFormInternal11DomProperty16takeElementPointEv@Base 4:4.7.90
 _ZN13QFormInternal11DomProperty16takeElementRectFEv@Base 4:4.7.90
 _ZN13QFormInternal11DomProperty16takeElementSizeFEv@Base 4:4.7.90
 _ZN13QFormInternal11DomProperty17setElementCstringERK7QString@Base 4:4.7.90
 _ZN13QFormInternal11DomProperty17setElementIconSetEPNS_15DomResourceIconE@Base 4:4.7.90
 _ZN13QFormInternal11DomProperty17setElementPaletteEPNS_10DomPaletteE@Base 4:4.7.90
 _ZN13QFormInternal11DomProperty17takeElementLocaleEv@Base 4:4.7.90
 _ZN13QFormInternal11DomProperty17takeElementPixmapEv@Base 4:4.7.90
 _ZN13QFormInternal11DomProperty17takeElementPointFEv@Base 4:4.7.90
 _ZN13QFormInternal11DomProperty17takeElementStringEv@Base 4:4.7.90
 _ZN13QFormInternal11DomProperty18setElementDateTimeEPNS_11DomDateTimeE@Base 4:4.7.90
 _ZN13QFormInternal11DomProperty18setElementLongLongEx@Base 4:4.7.90
 _ZN13QFormInternal11DomProperty18takeElementIconSetEv@Base 4:4.7.90
 _ZN13QFormInternal11DomProperty18takeElementPaletteEv@Base 4:4.7.90
 _ZN13QFormInternal11DomProperty19setElementULongLongEy@Base 4:4.7.90
 _ZN13QFormInternal11DomProperty19takeElementDateTimeEv@Base 4:4.7.90
 _ZN13QFormInternal11DomProperty20setElementSizePolicyEPNS_13DomSizePolicyE@Base 4:4.7.90
 _ZN13QFormInternal11DomProperty20setElementStringListEPNS_13DomStringListE@Base 4:4.7.90
 _ZN13QFormInternal11DomProperty21setElementCursorShapeERK7QString@Base 4:4.7.90
 _ZN13QFormInternal11DomProperty21takeElementSizePolicyEv@Base 4:4.7.90
 _ZN13QFormInternal11DomProperty21takeElementStringListEv@Base 4:4.7.90
 _ZN13QFormInternal11DomProperty4readER16QXmlStreamReader@Base 4:4.7.90
 _ZN13QFormInternal11DomProperty5clearEb@Base 4:4.7.90
 _ZN13QFormInternal11DomPropertyC1Ev@Base 4:4.7.90
 _ZN13QFormInternal11DomPropertyC2Ev@Base 4:4.7.90
 _ZN13QFormInternal11DomPropertyD1Ev@Base 4:4.7.90
 _ZN13QFormInternal11DomPropertyD2Ev@Base 4:4.7.90
 _ZN13QFormInternal11DomResource4readER16QXmlStreamReader@Base 4:4.7.90
 _ZN13QFormInternal11DomResource5clearEb@Base 4:4.7.90
 _ZN13QFormInternal11DomResourceC1Ev@Base 4:4.7.90
 _ZN13QFormInternal11DomResourceC2Ev@Base 4:4.7.90
 _ZN13QFormInternal11DomResourceD1Ev@Base 4:4.7.90
 _ZN13QFormInternal11DomResourceD2Ev@Base 4:4.7.90
 _ZN13QFormInternal11DomTabStops17setElementTabStopERK11QStringList@Base 4:4.7.90
 _ZN13QFormInternal11DomTabStops4readER16QXmlStreamReader@Base 4:4.7.90
 _ZN13QFormInternal11DomTabStops5clearEb@Base 4:4.7.90
 _ZN13QFormInternal11DomTabStopsC1Ev@Base 4:4.7.90
 _ZN13QFormInternal11DomTabStopsC2Ev@Base 4:4.7.90
 _ZN13QFormInternal11DomTabStopsD1Ev@Base 4:4.7.90
 _ZN13QFormInternal11DomTabStopsD2Ev@Base 4:4.7.90
 _ZN13QFormInternal12DomActionRef4readER16QXmlStreamReader@Base 4:4.7.90
 _ZN13QFormInternal12DomActionRef5clearEb@Base 4:4.7.90
 _ZN13QFormInternal12DomActionRefC1Ev@Base 4:4.7.90
 _ZN13QFormInternal12DomActionRefC2Ev@Base 4:4.7.90
 _ZN13QFormInternal12DomActionRefD1Ev@Base 4:4.7.90
 _ZN13QFormInternal12DomActionRefD2Ev@Base 4:4.7.90
 _ZN13QFormInternal12DomColorRole15setElementBrushEPNS_8DomBrushE@Base 4:4.7.90
 _ZN13QFormInternal12DomColorRole16takeElementBrushEv@Base 4:4.7.90
 _ZN13QFormInternal12DomColorRole17clearElementBrushEv@Base 4:4.7.90
 _ZN13QFormInternal12DomColorRole4readER16QXmlStreamReader@Base 4:4.7.90
 _ZN13QFormInternal12DomColorRole5clearEb@Base 4:4.7.90
 _ZN13QFormInternal12DomColorRoleC1Ev@Base 4:4.7.90
 _ZN13QFormInternal12DomColorRoleC2Ev@Base 4:4.7.90
 _ZN13QFormInternal12DomColorRoleD1Ev@Base 4:4.7.90
 _ZN13QFormInternal12DomColorRoleD2Ev@Base 4:4.7.90
 _ZN13QFormInternal12DomImageData4readER16QXmlStreamReader@Base 4:4.7.90
 _ZN13QFormInternal12DomImageData5clearEb@Base 4:4.7.90
 _ZN13QFormInternal12DomImageDataC1Ev@Base 4:4.7.90
 _ZN13QFormInternal12DomImageDataC2Ev@Base 4:4.7.90
 _ZN13QFormInternal12DomImageDataD1Ev@Base 4:4.7.90
 _ZN13QFormInternal12DomImageDataD2Ev@Base 4:4.7.90
 _ZN13QFormInternal12DomResources17setElementIncludeERK5QListIPNS_11DomResourceEE@Base 4:4.7.90
 _ZN13QFormInternal12DomResources4readER16QXmlStreamReader@Base 4:4.7.90
 _ZN13QFormInternal12DomResources5clearEb@Base 4:4.7.90
 _ZN13QFormInternal12DomResourcesC1Ev@Base 4:4.7.90
 _ZN13QFormInternal12DomResourcesC2Ev@Base 4:4.7.90
 _ZN13QFormInternal12DomResourcesD1Ev@Base 4:4.7.90
 _ZN13QFormInternal12DomResourcesD2Ev@Base 4:4.7.90
 _ZN13QFormInternal12QFormBuilder12createLayoutERK7QStringP7QObjectS3_@Base 4:4.7.90
 _ZN13QFormInternal12QFormBuilder12createWidgetERK7QStringP7QWidgetS3_@Base 4:4.7.90
 _ZN13QFormInternal12QFormBuilder12widgetByNameEP7QWidgetRK7QString@Base 4:4.7.90
 _ZN13QFormInternal12QFormBuilder13addPluginPathERK7QString@Base 4:4.7.90
 _ZN13QFormInternal12QFormBuilder13setPluginPathERK11QStringList@Base 4:4.7.90
 _ZN13QFormInternal12QFormBuilder15applyPropertiesEP7QObjectRK5QListIPNS_11DomPropertyEE@Base 4:4.7.90
 _ZN13QFormInternal12QFormBuilder16clearPluginPathsEv@Base 4:4.7.90
 _ZN13QFormInternal12QFormBuilder17createConnectionsEPNS_14DomConnectionsEP7QWidget@Base 4:4.7.90
 _ZN13QFormInternal12QFormBuilder19updateCustomWidgetsEv@Base 4:4.7.90
 _ZN13QFormInternal12QFormBuilder6createEPNS_13DomLayoutItemEP7QLayoutP7QWidget@Base 4:4.7.90
 _ZN13QFormInternal12QFormBuilder6createEPNS_14DomActionGroupEP7QObject@Base 4:4.7.90
 _ZN13QFormInternal12QFormBuilder6createEPNS_5DomUIEP7QWidget@Base 4:4.7.90
 _ZN13QFormInternal12QFormBuilder6createEPNS_9DomActionEP7QObject@Base 4:4.7.90
 _ZN13QFormInternal12QFormBuilder6createEPNS_9DomLayoutEP7QLayoutP7QWidget@Base 4:4.7.90
 _ZN13QFormInternal12QFormBuilder6createEPNS_9DomWidgetEP7QWidget@Base 4:4.7.90
 _ZN13QFormInternal12QFormBuilder7addItemEPNS_13DomLayoutItemEP11QLayoutItemP7QLayout@Base 4:4.7.90
 _ZN13QFormInternal12QFormBuilder7addItemEPNS_9DomWidgetEP7QWidgetS4_@Base 4:4.7.90
 _ZN13QFormInternal12QFormBuilderC1Ev@Base 4:4.7.90
 _ZN13QFormInternal12QFormBuilderC2Ev@Base 4:4.7.90
 _ZN13QFormInternal12QFormBuilderD0Ev@Base 4:4.7.90
 _ZN13QFormInternal12QFormBuilderD1Ev@Base 4:4.7.90
 _ZN13QFormInternal12QFormBuilderD2Ev@Base 4:4.7.90
 _ZN13QFormInternal12QTextBuilderC1Ev@Base 4:4.7.90
 _ZN13QFormInternal12QTextBuilderC2Ev@Base 4:4.7.90
 _ZN13QFormInternal12QTextBuilderD0Ev@Base 4:4.7.90
 _ZN13QFormInternal12QTextBuilderD1Ev@Base 4:4.7.90
 _ZN13QFormInternal12QTextBuilderD2Ev@Base 4:4.7.90
 _ZN13QFormInternal12qUiItemRolesE@Base 4:4.7.90
 _ZN13QFormInternal12uiLibWarningERK7QString@Base 4:4.7.90
 _ZN13QFormInternal13DomColorGroup15setElementColorERK5QListIPNS_8DomColorEE@Base 4:4.7.90
 _ZN13QFormInternal13DomColorGroup19setElementColorRoleERK5QListIPNS_12DomColorRoleEE@Base 4:4.7.90
 _ZN13QFormInternal13DomColorGroup4readER16QXmlStreamReader@Base 4:4.7.90
 _ZN13QFormInternal13DomColorGroup5clearEb@Base 4:4.7.90
 _ZN13QFormInternal13DomColorGroupC1Ev@Base 4:4.7.90
 _ZN13QFormInternal13DomColorGroupC2Ev@Base 4:4.7.90
 _ZN13QFormInternal13DomColorGroupD1Ev@Base 4:4.7.90
 _ZN13QFormInternal13DomColorGroupD2Ev@Base 4:4.7.90
 _ZN13QFormInternal13DomConnection14setElementSlotERK7QString@Base 4:4.7.90
 _ZN13QFormInternal13DomConnection15setElementHintsEPNS_18DomConnectionHintsE@Base 4:4.7.90
 _ZN13QFormInternal13DomConnection16clearElementSlotEv@Base 4:4.7.90
 _ZN13QFormInternal13DomConnection16setElementSenderERK7QString@Base 4:4.7.90
 _ZN13QFormInternal13DomConnection16setElementSignalERK7QString@Base 4:4.7.90
 _ZN13QFormInternal13DomConnection16takeElementHintsEv@Base 4:4.7.90
 _ZN13QFormInternal13DomConnection17clearElementHintsEv@Base 4:4.7.90
 _ZN13QFormInternal13DomConnection18clearElementSenderEv@Base 4:4.7.90
 _ZN13QFormInternal13DomConnection18clearElementSignalEv@Base 4:4.7.90
 _ZN13QFormInternal13DomConnection18setElementReceiverERK7QString@Base 4:4.7.90
 _ZN13QFormInternal13DomConnection20clearElementReceiverEv@Base 4:4.7.90
 _ZN13QFormInternal13DomConnection4readER16QXmlStreamReader@Base 4:4.7.90
 _ZN13QFormInternal13DomConnection5clearEb@Base 4:4.7.90
 _ZN13QFormInternal13DomConnectionC1Ev@Base 4:4.7.90
 _ZN13QFormInternal13DomConnectionC2Ev@Base 4:4.7.90
 _ZN13QFormInternal13DomConnectionD1Ev@Base 4:4.7.90
 _ZN13QFormInternal13DomConnectionD2Ev@Base 4:4.7.90
 _ZN13QFormInternal13DomLayoutItem16setElementLayoutEPNS_9DomLayoutE@Base 4:4.7.90
 _ZN13QFormInternal13DomLayoutItem16setElementSpacerEPNS_9DomSpacerE@Base 4:4.7.90
 _ZN13QFormInternal13DomLayoutItem16setElementWidgetEPNS_9DomWidgetE@Base 4:4.7.90
 _ZN13QFormInternal13DomLayoutItem17takeElementLayoutEv@Base 4:4.7.90
 _ZN13QFormInternal13DomLayoutItem17takeElementSpacerEv@Base 4:4.7.90
 _ZN13QFormInternal13DomLayoutItem17takeElementWidgetEv@Base 4:4.7.90
 _ZN13QFormInternal13DomLayoutItem4readER16QXmlStreamReader@Base 4:4.7.90
 _ZN13QFormInternal13DomLayoutItem5clearEb@Base 4:4.7.90
 _ZN13QFormInternal13DomLayoutItemC1Ev@Base 4:4.7.90
 _ZN13QFormInternal13DomLayoutItemC2Ev@Base 4:4.7.90
 _ZN13QFormInternal13DomLayoutItemD1Ev@Base 4:4.7.90
 _ZN13QFormInternal13DomLayoutItemD2Ev@Base 4:4.7.90
 _ZN13QFormInternal13DomProperties18setElementPropertyERK5QListIPNS_15DomPropertyDataEE@Base 4:4.7.90
 _ZN13QFormInternal13DomProperties4readER16QXmlStreamReader@Base 4:4.7.90
 _ZN13QFormInternal13DomProperties5clearEb@Base 4:4.7.90
 _ZN13QFormInternal13DomPropertiesC1Ev@Base 4:4.7.90
 _ZN13QFormInternal13DomPropertiesC2Ev@Base 4:4.7.90
 _ZN13QFormInternal13DomPropertiesD1Ev@Base 4:4.7.90
 _ZN13QFormInternal13DomPropertiesD2Ev@Base 4:4.7.90
 _ZN13QFormInternal13DomSizePolicy19setElementHSizeTypeEi@Base 4:4.7.90
 _ZN13QFormInternal13DomSizePolicy19setElementVSizeTypeEi@Base 4:4.7.90
 _ZN13QFormInternal13DomSizePolicy20setElementHorStretchEi@Base 4:4.7.90
 _ZN13QFormInternal13DomSizePolicy20setElementVerStretchEi@Base 4:4.7.90
 _ZN13QFormInternal13DomSizePolicy21clearElementHSizeTypeEv@Base 4:4.7.90
 _ZN13QFormInternal13DomSizePolicy21clearElementVSizeTypeEv@Base 4:4.7.90
 _ZN13QFormInternal13DomSizePolicy22clearElementHorStretchEv@Base 4:4.7.90
 _ZN13QFormInternal13DomSizePolicy22clearElementVerStretchEv@Base 4:4.7.90
 _ZN13QFormInternal13DomSizePolicy4readER16QXmlStreamReader@Base 4:4.7.90
 _ZN13QFormInternal13DomSizePolicy5clearEb@Base 4:4.7.90
 _ZN13QFormInternal13DomSizePolicyC1Ev@Base 4:4.7.90
 _ZN13QFormInternal13DomSizePolicyC2Ev@Base 4:4.7.90
 _ZN13QFormInternal13DomSizePolicyD1Ev@Base 4:4.7.90
 _ZN13QFormInternal13DomSizePolicyD2Ev@Base 4:4.7.90
 _ZN13QFormInternal13DomStringList16setElementStringERK11QStringList@Base 4:4.7.90
 _ZN13QFormInternal13DomStringList4readER16QXmlStreamReader@Base 4:4.7.90
 _ZN13QFormInternal13DomStringList5clearEb@Base 4:4.7.90
 _ZN13QFormInternal13DomStringListC1Ev@Base 4:4.7.90
 _ZN13QFormInternal13DomStringListC2Ev@Base 4:4.7.90
 _ZN13QFormInternal13DomStringListD1Ev@Base 4:4.7.90
 _ZN13QFormInternal13DomStringListD2Ev@Base 4:4.7.90
 _ZN13QFormInternal13DomWidgetData18setElementPropertyERK5QListIPNS_11DomPropertyEE@Base 4:4.7.90
 _ZN13QFormInternal13DomWidgetData4readER16QXmlStreamReader@Base 4:4.7.90
 _ZN13QFormInternal13DomWidgetData5clearEb@Base 4:4.7.90
 _ZN13QFormInternal13DomWidgetDataC1Ev@Base 4:4.7.90
 _ZN13QFormInternal13DomWidgetDataC2Ev@Base 4:4.7.90
 _ZN13QFormInternal13DomWidgetDataD1Ev@Base 4:4.7.90
 _ZN13QFormInternal13DomWidgetDataD2Ev@Base 4:4.7.90
 _ZN13QFormInternal14DomActionGroup16setElementActionERK5QListIPNS_9DomActionEE@Base 4:4.7.90
 _ZN13QFormInternal14DomActionGroup18setElementPropertyERK5QListIPNS_11DomPropertyEE@Base 4:4.7.90
 _ZN13QFormInternal14DomActionGroup19setElementAttributeERK5QListIPNS_11DomPropertyEE@Base 4:4.7.90
 _ZN13QFormInternal14DomActionGroup21setElementActionGroupERK5QListIPS0_E@Base 4:4.7.90
 _ZN13QFormInternal14DomActionGroup4readER16QXmlStreamReader@Base 4:4.7.90
 _ZN13QFormInternal14DomActionGroup5clearEb@Base 4:4.7.90
 _ZN13QFormInternal14DomActionGroupC1Ev@Base 4:4.7.90
 _ZN13QFormInternal14DomActionGroupC2Ev@Base 4:4.7.90
 _ZN13QFormInternal14DomActionGroupD1Ev@Base 4:4.7.90
 _ZN13QFormInternal14DomActionGroupD2Ev@Base 4:4.7.90
 _ZN13QFormInternal14DomButtonGroup18setElementPropertyERK5QListIPNS_11DomPropertyEE@Base 4:4.7.90
 _ZN13QFormInternal14DomButtonGroup19setElementAttributeERK5QListIPNS_11DomPropertyEE@Base 4:4.7.90
 _ZN13QFormInternal14DomButtonGroup4readER16QXmlStreamReader@Base 4:4.7.90
 _ZN13QFormInternal14DomButtonGroup5clearEb@Base 4:4.7.90
 _ZN13QFormInternal14DomButtonGroupC1Ev@Base 4:4.7.90
 _ZN13QFormInternal14DomButtonGroupC2Ev@Base 4:4.7.90
 _ZN13QFormInternal14DomButtonGroupD1Ev@Base 4:4.7.90
 _ZN13QFormInternal14DomButtonGroupD2Ev@Base 4:4.7.90
 _ZN13QFormInternal14DomConnections20setElementConnectionERK5QListIPNS_13DomConnectionEE@Base 4:4.7.90
 _ZN13QFormInternal14DomConnections4readER16QXmlStreamReader@Base 4:4.7.90
 _ZN13QFormInternal14DomConnections5clearEb@Base 4:4.7.90
 _ZN13QFormInternal14DomConnectionsC1Ev@Base 4:4.7.90
 _ZN13QFormInternal14DomConnectionsC2Ev@Base 4:4.7.90
 _ZN13QFormInternal14DomConnectionsD1Ev@Base 4:4.7.90
 _ZN13QFormInternal14DomConnectionsD2Ev@Base 4:4.7.90
 _ZN13QFormInternal15DomButtonGroups21setElementButtonGroupERK5QListIPNS_14DomButtonGroupEE@Base 4:4.7.90
 _ZN13QFormInternal15DomButtonGroups4readER16QXmlStreamReader@Base 4:4.7.90
 _ZN13QFormInternal15DomButtonGroups5clearEb@Base 4:4.7.90
 _ZN13QFormInternal15DomButtonGroupsC1Ev@Base 4:4.7.90
 _ZN13QFormInternal15DomButtonGroupsC2Ev@Base 4:4.7.90
 _ZN13QFormInternal15DomButtonGroupsD1Ev@Base 4:4.7.90
 _ZN13QFormInternal15DomButtonGroupsD2Ev@Base 4:4.7.90
 _ZN13QFormInternal15DomCustomWidget15setElementClassERK7QString@Base 4:4.7.90
 _ZN13QFormInternal15DomCustomWidget15setElementSlotsEPNS_8DomSlotsE@Base 4:4.7.90
 _ZN13QFormInternal15DomCustomWidget16setElementHeaderEPNS_9DomHeaderE@Base 4:4.7.90
 _ZN13QFormInternal15DomCustomWidget16setElementPixmapERK7QString@Base 4:4.7.90
 _ZN13QFormInternal15DomCustomWidget16setElementScriptEPNS_9DomScriptE@Base 4:4.7.90
 _ZN13QFormInternal15DomCustomWidget16takeElementSlotsEv@Base 4:4.7.90
 _ZN13QFormInternal15DomCustomWidget17clearElementClassEv@Base 4:4.7.90
 _ZN13QFormInternal15DomCustomWidget17clearElementSlotsEv@Base 4:4.7.90
 _ZN13QFormInternal15DomCustomWidget17setElementExtendsERK7QString@Base 4:4.7.90
 _ZN13QFormInternal15DomCustomWidget17takeElementHeaderEv@Base 4:4.7.90
 _ZN13QFormInternal15DomCustomWidget17takeElementScriptEv@Base 4:4.7.90
 _ZN13QFormInternal15DomCustomWidget18clearElementHeaderEv@Base 4:4.7.90
 _ZN13QFormInternal15DomCustomWidget18clearElementPixmapEv@Base 4:4.7.90
 _ZN13QFormInternal15DomCustomWidget18clearElementScriptEv@Base 4:4.7.90
 _ZN13QFormInternal15DomCustomWidget18setElementSizeHintEPNS_7DomSizeE@Base 4:4.7.90
 _ZN13QFormInternal15DomCustomWidget19clearElementExtendsEv@Base 4:4.7.90
 _ZN13QFormInternal15DomCustomWidget19setElementContainerEi@Base 4:4.7.90
 _ZN13QFormInternal15DomCustomWidget19takeElementSizeHintEv@Base 4:4.7.90
 _ZN13QFormInternal15DomCustomWidget20clearElementSizeHintEv@Base 4:4.7.90
 _ZN13QFormInternal15DomCustomWidget20setElementPropertiesEPNS_13DomPropertiesE@Base 4:4.7.90
 _ZN13QFormInternal15DomCustomWidget20setElementSizePolicyEPNS_17DomSizePolicyDataE@Base 4:4.7.90
 _ZN13QFormInternal15DomCustomWidget21clearElementContainerEv@Base 4:4.7.90
 _ZN13QFormInternal15DomCustomWidget21takeElementPropertiesEv@Base 4:4.7.90
 _ZN13QFormInternal15DomCustomWidget21takeElementSizePolicyEv@Base 4:4.7.90
 _ZN13QFormInternal15DomCustomWidget22clearElementPropertiesEv@Base 4:4.7.90
 _ZN13QFormInternal15DomCustomWidget22clearElementSizePolicyEv@Base 4:4.7.90
 _ZN13QFormInternal15DomCustomWidget23setElementAddPageMethodERK7QString@Base 4:4.7.90
 _ZN13QFormInternal15DomCustomWidget25clearElementAddPageMethodEv@Base 4:4.7.90
 _ZN13QFormInternal15DomCustomWidget32setElementPropertyspecificationsEPNS_25DomPropertySpecificationsE@Base 4:4.7.90
 _ZN13QFormInternal15DomCustomWidget33takeElementPropertyspecificationsEv@Base 4:4.7.90
 _ZN13QFormInternal15DomCustomWidget34clearElementPropertyspecificationsEv@Base 4:4.7.90
 _ZN13QFormInternal15DomCustomWidget4readER16QXmlStreamReader@Base 4:4.7.90
 _ZN13QFormInternal15DomCustomWidget5clearEb@Base 4:4.7.90
 _ZN13QFormInternal15DomCustomWidgetC1Ev@Base 4:4.7.90
 _ZN13QFormInternal15DomCustomWidgetC2Ev@Base 4:4.7.90
 _ZN13QFormInternal15DomCustomWidgetD1Ev@Base 4:4.7.90
 _ZN13QFormInternal15DomCustomWidgetD2Ev@Base 4:4.7.90
 _ZN13QFormInternal15DomDesignerData18setElementPropertyERK5QListIPNS_11DomPropertyEE@Base 4:4.7.90
 _ZN13QFormInternal15DomDesignerData4readER16QXmlStreamReader@Base 4:4.7.90
 _ZN13QFormInternal15DomDesignerData5clearEb@Base 4:4.7.90
 _ZN13QFormInternal15DomDesignerDataC1Ev@Base 4:4.7.90
 _ZN13QFormInternal15DomDesignerDataC2Ev@Base 4:4.7.90
 _ZN13QFormInternal15DomDesignerDataD1Ev@Base 4:4.7.90
 _ZN13QFormInternal15DomDesignerDataD2Ev@Base 4:4.7.90
 _ZN13QFormInternal15DomGradientStop15setElementColorEPNS_8DomColorE@Base 4:4.7.90
 _ZN13QFormInternal15DomGradientStop16takeElementColorEv@Base 4:4.7.90
 _ZN13QFormInternal15DomGradientStop17clearElementColorEv@Base 4:4.7.90
 _ZN13QFormInternal15DomGradientStop4readER16QXmlStreamReader@Base 4:4.7.90
 _ZN13QFormInternal15DomGradientStop5clearEb@Base 4:4.7.90
 _ZN13QFormInternal15DomGradientStopC1Ev@Base 4:4.7.90
 _ZN13QFormInternal15DomGradientStopC2Ev@Base 4:4.7.90
 _ZN13QFormInternal15DomGradientStopD1Ev@Base 4:4.7.90
 _ZN13QFormInternal15DomGradientStopD2Ev@Base 4:4.7.90
 _ZN13QFormInternal15DomPropertyData4readER16QXmlStreamReader@Base 4:4.7.90
 _ZN13QFormInternal15DomPropertyData5clearEb@Base 4:4.7.90
 _ZN13QFormInternal15DomPropertyDataC1Ev@Base 4:4.7.90
 _ZN13QFormInternal15DomPropertyDataC2Ev@Base 4:4.7.90
 _ZN13QFormInternal15DomPropertyDataD1Ev@Base 4:4.7.90
 _ZN13QFormInternal15DomPropertyDataD2Ev@Base 4:4.7.90
 _ZN13QFormInternal15DomResourceIcon18setElementActiveOnEPNS_17DomResourcePixmapE@Base 4:4.7.90
 _ZN13QFormInternal15DomResourceIcon18setElementNormalOnEPNS_17DomResourcePixmapE@Base 4:4.7.90
 _ZN13QFormInternal15DomResourceIcon19setElementActiveOffEPNS_17DomResourcePixmapE@Base 4:4.7.90
 _ZN13QFormInternal15DomResourceIcon19setElementNormalOffEPNS_17DomResourcePixmapE@Base 4:4.7.90
 _ZN13QFormInternal15DomResourceIcon19takeElementActiveOnEv@Base 4:4.7.90
 _ZN13QFormInternal15DomResourceIcon19takeElementNormalOnEv@Base 4:4.7.90
 _ZN13QFormInternal15DomResourceIcon20clearElementActiveOnEv@Base 4:4.7.90
 _ZN13QFormInternal15DomResourceIcon20clearElementNormalOnEv@Base 4:4.7.90
 _ZN13QFormInternal15DomResourceIcon20setElementDisabledOnEPNS_17DomResourcePixmapE@Base 4:4.7.90
 _ZN13QFormInternal15DomResourceIcon20setElementSelectedOnEPNS_17DomResourcePixmapE@Base 4:4.7.90
 _ZN13QFormInternal15DomResourceIcon20takeElementActiveOffEv@Base 4:4.7.90
 _ZN13QFormInternal15DomResourceIcon20takeElementNormalOffEv@Base 4:4.7.90
 _ZN13QFormInternal15DomResourceIcon21clearElementActiveOffEv@Base 4:4.7.90
 _ZN13QFormInternal15DomResourceIcon21clearElementNormalOffEv@Base 4:4.7.90
 _ZN13QFormInternal15DomResourceIcon21setElementDisabledOffEPNS_17DomResourcePixmapE@Base 4:4.7.90
 _ZN13QFormInternal15DomResourceIcon21setElementSelectedOffEPNS_17DomResourcePixmapE@Base 4:4.7.90
 _ZN13QFormInternal15DomResourceIcon21takeElementDisabledOnEv@Base 4:4.7.90
 _ZN13QFormInternal15DomResourceIcon21takeElementSelectedOnEv@Base 4:4.7.90
 _ZN13QFormInternal15DomResourceIcon22clearElementDisabledOnEv@Base 4:4.7.90
 _ZN13QFormInternal15DomResourceIcon22clearElementSelectedOnEv@Base 4:4.7.90
 _ZN13QFormInternal15DomResourceIcon22takeElementDisabledOffEv@Base 4:4.7.90
 _ZN13QFormInternal15DomResourceIcon22takeElementSelectedOffEv@Base 4:4.7.90
 _ZN13QFormInternal15DomResourceIcon23clearElementDisabledOffEv@Base 4:4.7.90
 _ZN13QFormInternal15DomResourceIcon23clearElementSelectedOffEv@Base 4:4.7.90
 _ZN13QFormInternal15DomResourceIcon4readER16QXmlStreamReader@Base 4:4.7.90
 _ZN13QFormInternal15DomResourceIcon5clearEb@Base 4:4.7.90
 _ZN13QFormInternal15DomResourceIconC1Ev@Base 4:4.7.90
 _ZN13QFormInternal15DomResourceIconC2Ev@Base 4:4.7.90
 _ZN13QFormInternal15DomResourceIconD1Ev@Base 4:4.7.90
 _ZN13QFormInternal15DomResourceIconD2Ev@Base 4:4.7.90
 _ZN13QFormInternal16DomCustomWidgets22setElementCustomWidgetERK5QListIPNS_15DomCustomWidgetEE@Base 4:4.7.90
 _ZN13QFormInternal16DomCustomWidgets4readER16QXmlStreamReader@Base 4:4.7.90
 _ZN13QFormInternal16DomCustomWidgets5clearEb@Base 4:4.7.90
 _ZN13QFormInternal16DomCustomWidgetsC1Ev@Base 4:4.7.90
 _ZN13QFormInternal16DomCustomWidgetsC2Ev@Base 4:4.7.90
 _ZN13QFormInternal16DomCustomWidgetsD1Ev@Base 4:4.7.90
 _ZN13QFormInternal16DomCustomWidgetsD2Ev@Base 4:4.7.90
 _ZN13QFormInternal16DomLayoutDefault4readER16QXmlStreamReader@Base 4:4.7.90
 _ZN13QFormInternal16DomLayoutDefault5clearEb@Base 4:4.7.90
 _ZN13QFormInternal16DomLayoutDefaultC1Ev@Base 4:4.7.90
 _ZN13QFormInternal16DomLayoutDefaultC2Ev@Base 4:4.7.90
 _ZN13QFormInternal16DomLayoutDefaultD1Ev@Base 4:4.7.90
 _ZN13QFormInternal16DomLayoutDefaultD2Ev@Base 4:4.7.90
 _ZN13QFormInternal16QResourceBuilder14iconStateFlagsEPKNS_15DomResourceIconE@Base 4:4.7.90
 _ZN13QFormInternal16QResourceBuilderC1Ev@Base 4:4.7.90
 _ZN13QFormInternal16QResourceBuilderC2Ev@Base 4:4.7.90
 _ZN13QFormInternal16QResourceBuilderD0Ev@Base 4:4.7.90
 _ZN13QFormInternal16QResourceBuilderD1Ev@Base 4:4.7.90
 _ZN13QFormInternal16QResourceBuilderD2Ev@Base 4:4.7.90
 _ZN13QFormInternal17DomConnectionHint11setElementXEi@Base 4:4.7.90
 _ZN13QFormInternal17DomConnectionHint11setElementYEi@Base 4:4.7.90
 _ZN13QFormInternal17DomConnectionHint13clearElementXEv@Base 4:4.7.90
 _ZN13QFormInternal17DomConnectionHint13clearElementYEv@Base 4:4.7.90
 _ZN13QFormInternal17DomConnectionHint4readER16QXmlStreamReader@Base 4:4.7.90
 _ZN13QFormInternal17DomConnectionHint5clearEb@Base 4:4.7.90
 _ZN13QFormInternal17DomConnectionHintC1Ev@Base 4:4.7.90
 _ZN13QFormInternal17DomConnectionHintC2Ev@Base 4:4.7.90
 _ZN13QFormInternal17DomConnectionHintD1Ev@Base 4:4.7.90
 _ZN13QFormInternal17DomConnectionHintD2Ev@Base 4:4.7.90
 _ZN13QFormInternal17DomLayoutFunction4readER16QXmlStreamReader@Base 4:4.7.90
 _ZN13QFormInternal17DomLayoutFunction5clearEb@Base 4:4.7.90
 _ZN13QFormInternal17DomLayoutFunctionC1Ev@Base 4:4.7.90
 _ZN13QFormInternal17DomLayoutFunctionC2Ev@Base 4:4.7.90
 _ZN13QFormInternal17DomLayoutFunctionD1Ev@Base 4:4.7.90
 _ZN13QFormInternal17DomLayoutFunctionD2Ev@Base 4:4.7.90
 _ZN13QFormInternal17DomResourcePixmap4readER16QXmlStreamReader@Base 4:4.7.90
 _ZN13QFormInternal17DomResourcePixmap5clearEb@Base 4:4.7.90
 _ZN13QFormInternal17DomResourcePixmapC1Ev@Base 4:4.7.90
 _ZN13QFormInternal17DomResourcePixmapC2Ev@Base 4:4.7.90
 _ZN13QFormInternal17DomResourcePixmapD1Ev@Base 4:4.7.90
 _ZN13QFormInternal17DomResourcePixmapD2Ev@Base 4:4.7.90
 _ZN13QFormInternal17DomSizePolicyData17setElementHorDataEi@Base 4:4.7.90
 _ZN13QFormInternal17DomSizePolicyData17setElementVerDataEi@Base 4:4.7.90
 _ZN13QFormInternal17DomSizePolicyData19clearElementHorDataEv@Base 4:4.7.90
 _ZN13QFormInternal17DomSizePolicyData19clearElementVerDataEv@Base 4:4.7.90
 _ZN13QFormInternal17DomSizePolicyData4readER16QXmlStreamReader@Base 4:4.7.90
 _ZN13QFormInternal17DomSizePolicyData5clearEb@Base 4:4.7.90
 _ZN13QFormInternal17DomSizePolicyDataC1Ev@Base 4:4.7.90
 _ZN13QFormInternal17DomSizePolicyDataC2Ev@Base 4:4.7.90
 _ZN13QFormInternal17DomSizePolicyDataD1Ev@Base 4:4.7.90
 _ZN13QFormInternal17DomSizePolicyDataD2Ev@Base 4:4.7.90
 _ZN13QFormInternal17QFormBuilderExtra10applyBuddyERK7QStringNS0_9BuddyModeEP6QLabel@Base 4:4.7.90
 _ZN13QFormInternal17QFormBuilderExtra14removeInstanceEPKNS_20QAbstractFormBuilderE@Base 4:4.7.90
 _ZN13QFormInternal17QFormBuilderExtra14setTextBuilderEPNS_12QTextBuilderE@Base 4:4.7.90
 _ZN13QFormInternal17QFormBuilderExtra15setParentWidgetERK8QPointerI7QWidgetE@Base 4:4.7.90
 _ZN13QFormInternal17QFormBuilderExtra16CustomWidgetDataC1EPKNS_15DomCustomWidgetE@Base 4:4.7.90
 _ZN13QFormInternal17QFormBuilderExtra16CustomWidgetDataC1Ev@Base 4:4.7.90
 _ZN13QFormInternal17QFormBuilderExtra16CustomWidgetDataC2EPKNS_15DomCustomWidgetE@Base 4:4.7.90
 _ZN13QFormInternal17QFormBuilderExtra16CustomWidgetDataC2Ev@Base 4:4.7.90
 _ZN13QFormInternal17QFormBuilderExtra16CustomWidgetDataD1Ev@Base 4:4.7.90
 _ZN13QFormInternal17QFormBuilderExtra16CustomWidgetDataD2Ev@Base 4:4.7.90
 _ZN13QFormInternal17QFormBuilderExtra16boxLayoutStretchEPK10QBoxLayout@Base 4:4.7.90
 _ZN13QFormInternal17QFormBuilderExtra16clearTextBuilderEv@Base 4:4.7.90
 _ZN13QFormInternal17QFormBuilderExtra18setResourceBuilderEPNS_16QResourceBuilderE@Base 4:4.7.90
 _ZN13QFormInternal17QFormBuilderExtra19setBoxLayoutStretchERK7QStringP10QBoxLayout@Base 4:4.7.90
 _ZN13QFormInternal17QFormBuilderExtra20clearResourceBuilderEv@Base 4:4.7.90
 _ZN13QFormInternal17QFormBuilderExtra20gridLayoutRowStretchEPK11QGridLayout@Base 4:4.7.90
 _ZN13QFormInternal17QFormBuilderExtra20registerButtonGroupsEPKNS_15DomButtonGroupsE@Base 4:4.7.90
 _ZN13QFormInternal17QFormBuilderExtra21clearBoxLayoutStretchEP10QBoxLayout@Base 4:4.7.90
 _ZN13QFormInternal17QFormBuilderExtra21storeCustomWidgetDataERK7QStringPKNS_15DomCustomWidgetE@Base 4:4.7.90
 _ZN13QFormInternal17QFormBuilderExtra23applyPropertyInternallyEP7QObjectRK7QStringRK8QVariant@Base 4:4.7.90
 _ZN13QFormInternal17QFormBuilderExtra23gridLayoutColumnStretchEPK11QGridLayout@Base 4:4.7.90
 _ZN13QFormInternal17QFormBuilderExtra23setGridLayoutRowStretchERK7QStringP11QGridLayout@Base 4:4.7.90
 _ZN13QFormInternal17QFormBuilderExtra25clearGridLayoutRowStretchEP11QGridLayout@Base 4:4.7.90
 _ZN13QFormInternal17QFormBuilderExtra25setProcessingLayoutWidgetEb@Base 4:4.7.90
 _ZN13QFormInternal17QFormBuilderExtra26gridLayoutRowMinimumHeightEPK11QGridLayout@Base 4:4.7.90
 _ZN13QFormInternal17QFormBuilderExtra26setGridLayoutColumnStretchERK7QStringP11QGridLayout@Base 4:4.7.90
 _ZN13QFormInternal17QFormBuilderExtra28clearGridLayoutColumnStretchEP11QGridLayout@Base 4:4.7.90
 _ZN13QFormInternal17QFormBuilderExtra28gridLayoutColumnMinimumWidthEPK11QGridLayout@Base 4:4.7.90
 _ZN13QFormInternal17QFormBuilderExtra29setGridLayoutRowMinimumHeightERK7QStringP11QGridLayout@Base 4:4.7.90
 _ZN13QFormInternal17QFormBuilderExtra31clearGridLayoutRowMinimumHeightEP11QGridLayout@Base 4:4.7.90
 _ZN13QFormInternal17QFormBuilderExtra31setGridLayoutColumnMinimumWidthERK7QStringP11QGridLayout@Base 4:4.7.90
 _ZN13QFormInternal17QFormBuilderExtra33clearGridLayoutColumnMinimumWidthEP11QGridLayout@Base 4:4.7.90
 _ZN13QFormInternal17QFormBuilderExtra5clearEv@Base 4:4.7.90
 _ZN13QFormInternal17QFormBuilderExtra8instanceEPKNS_20QAbstractFormBuilderE@Base 4:4.7.90
 _ZN13QFormInternal17QFormBuilderExtraC1Ev@Base 4:4.7.90
 _ZN13QFormInternal17QFormBuilderExtraC2Ev@Base 4:4.7.90
 _ZN13QFormInternal17QFormBuilderExtraD1Ev@Base 4:4.7.90
 _ZN13QFormInternal17QFormBuilderExtraD2Ev@Base 4:4.7.90
 _ZN13QFormInternal18DomConnectionHints14setElementHintERK5QListIPNS_17DomConnectionHintEE@Base 4:4.7.90
 _ZN13QFormInternal18DomConnectionHints4readER16QXmlStreamReader@Base 4:4.7.90
 _ZN13QFormInternal18DomConnectionHints5clearEb@Base 4:4.7.90
 _ZN13QFormInternal18DomConnectionHintsC1Ev@Base 4:4.7.90
 _ZN13QFormInternal18DomConnectionHintsC2Ev@Base 4:4.7.90
 _ZN13QFormInternal18DomConnectionHintsD1Ev@Base 4:4.7.90
 _ZN13QFormInternal18DomConnectionHintsD2Ev@Base 4:4.7.90
 _ZN13QFormInternal18FormBuilderPrivate12createActionEP7QObjectRK7QString@Base 4:4.7.90
 _ZN13QFormInternal18FormBuilderPrivate12createLayoutERK7QStringP7QObjectS3_@Base 4:4.7.90
 _ZN13QFormInternal18FormBuilderPrivate12createWidgetERK7QStringP7QWidgetS3_@Base 4:4.7.90
 _ZN13QFormInternal18FormBuilderPrivate15applyPropertiesEP7QObjectRK5QListIPNS_11DomPropertyEE@Base 4:4.7.90
 _ZN13QFormInternal18FormBuilderPrivate17createActionGroupEP7QObjectRK7QString@Base 4:4.7.90
 _ZN13QFormInternal18FormBuilderPrivate6createEPNS_5DomUIEP7QWidget@Base 4:4.7.90
 _ZN13QFormInternal18FormBuilderPrivate6createEPNS_9DomWidgetEP7QWidget@Base 4:4.7.90
 _ZN13QFormInternal18FormBuilderPrivate7addItemEPNS_9DomWidgetEP7QWidgetS4_@Base 4:4.7.90
 _ZN13QFormInternal18FormBuilderPrivateD0Ev@Base 4:4.7.90
 _ZN13QFormInternal18FormBuilderPrivateD1Ev@Base 4:4.7.90
 _ZN13QFormInternal18FormBuilderPrivateD2Ev@Base 4:4.7.90
 _ZN13QFormInternal18TranslationWatcher11eventFilterEP7QObjectP6QEvent@Base 4:4.7.90
 _ZN13QFormInternal18TranslationWatcher11qt_metacallEN11QMetaObject4CallEiPPv@Base 4:4.7.90
 _ZN13QFormInternal18TranslationWatcher11qt_metacastEPKc@Base 4:4.7.90
 _ZN13QFormInternal18TranslationWatcher16staticMetaObjectE@Base 4:4.7.90
 _ZN13QFormInternal18TranslationWatcherD0Ev@Base 4:4.7.90
 _ZN13QFormInternal18TranslationWatcherD1Ev@Base 4:4.7.90
 _ZN13QFormInternal18TranslationWatcherD2Ev@Base 4:4.7.90
 _ZN13QFormInternal19QFormBuilderStrings8instanceEv@Base 4:4.7.90
 _ZN13QFormInternal19QFormBuilderStringsC1Ev@Base 4:4.7.90
 _ZN13QFormInternal19QFormBuilderStringsC2Ev@Base 4:4.7.90
 _ZN13QFormInternal19QFormBuilderStringsD1Ev@Base 4:4.7.90
 _ZN13QFormInternal19QFormBuilderStringsD2Ev@Base 4:4.7.90
 _ZN13QFormInternal20QAbstractFormBuilder10initializeEPKNS_5DomUIE@Base 4:4.7.90
 _ZN13QFormInternal20QAbstractFormBuilder10layoutInfoEPNS_9DomLayoutEP7QObjectPiS5_@Base 4:4.7.90
 _ZN13QFormInternal20QAbstractFormBuilder10nameToIconERK7QStringS3_@Base 4:4.7.90
 _ZN13QFormInternal20QAbstractFormBuilder10setupBrushEPNS_8DomBrushE@Base 4:4.7.90
 _ZN13QFormInternal20QAbstractFormBuilder11propertyMapERK5QListIPNS_11DomPropertyEE@Base 4:4.7.90
 _ZN13QFormInternal20QAbstractFormBuilder12createActionEP7QObjectRK7QString@Base 4:4.7.90
 _ZN13QFormInternal20QAbstractFormBuilder12createLayoutERK7QStringP7QObjectS3_@Base 4:4.7.90
 _ZN13QFormInternal20QAbstractFormBuilder12createWidgetERK7QStringP7QWidgetS3_@Base 4:4.7.90
 _ZN13QFormInternal20QAbstractFormBuilder12nameToPixmapERK7QStringS3_@Base 4:4.7.90
 _ZN13QFormInternal20QAbstractFormBuilder12saveTabStopsEv@Base 4:4.7.90
 _ZN13QFormInternal20QAbstractFormBuilder13addMenuActionEP7QAction@Base 4:4.7.90
 _ZN13QFormInternal20QAbstractFormBuilder13applyTabStopsEP7QWidgetPNS_11DomTabStopsE@Base 4:4.7.90
 _ZN13QFormInternal20QAbstractFormBuilder13loadExtraInfoEPNS_9DomWidgetEP7QWidgetS4_@Base 4:4.7.90
 _ZN13QFormInternal20QAbstractFormBuilder13saveExtraInfoEP7QWidgetPNS_9DomWidgetES4_@Base 4:4.7.90
 _ZN13QFormInternal20QAbstractFormBuilder13saveResourcesEv@Base 4:4.7.90
 _ZN13QFormInternal20QAbstractFormBuilder14createPropertyEP7QObjectRK7QStringRK8QVariant@Base 4:4.7.90
 _ZN13QFormInternal20QAbstractFormBuilder14saveColorGroupERK8QPalette@Base 4:4.7.90
 _ZN13QFormInternal20QAbstractFormBuilder14setTextBuilderEPNS_12QTextBuilderE@Base 4:4.7.90
 _ZN13QFormInternal20QAbstractFormBuilder15applyPropertiesEP7QObjectRK5QListIPNS_11DomPropertyEE@Base 4:4.7.90
 _ZN13QFormInternal20QAbstractFormBuilder15createResourcesEPNS_12DomResourcesE@Base 4:4.7.90
 _ZN13QFormInternal20QAbstractFormBuilder15saveConnectionsEv@Base 4:4.7.90
 _ZN13QFormInternal20QAbstractFormBuilder15setupColorGroupER8QPaletteNS1_10ColorGroupEPNS_13DomColorGroupE@Base 4:4.7.90
 _ZN13QFormInternal20QAbstractFormBuilder16saveButtonGroupsEPK7QWidget@Base 4:4.7.90
 _ZN13QFormInternal20QAbstractFormBuilder17computePropertiesEP7QObject@Base 4:4.7.90
 _ZN13QFormInternal20QAbstractFormBuilder17createActionGroupEP7QObjectRK7QString@Base 4:4.7.90
 _ZN13QFormInternal20QAbstractFormBuilder17createConnectionsEPNS_14DomConnectionsEP7QWidget@Base 4:4.7.90
 _ZN13QFormInternal20QAbstractFormBuilder17domPropertyToIconEPKNS_11DomPropertyE@Base 4:4.7.90
 _ZN13QFormInternal20QAbstractFormBuilder17domPropertyToIconEPKNS_17DomResourcePixmapE@Base 4:4.7.90
 _ZN13QFormInternal20QAbstractFormBuilder17saveCustomWidgetsEv@Base 4:4.7.90
 _ZN13QFormInternal20QAbstractFormBuilder18createActionRefDomEP7QAction@Base 4:4.7.90
 _ZN13QFormInternal20QAbstractFormBuilder18setResourceBuilderEPNS_16QResourceBuilderE@Base 4:4.7.90
 _ZN13QFormInternal20QAbstractFormBuilder19createCustomWidgetsEPNS_16DomCustomWidgetsE@Base 4:4.7.90
 _ZN13QFormInternal20QAbstractFormBuilder19domPropertyToPixmapEPKNS_11DomPropertyE@Base 4:4.7.90
 _ZN13QFormInternal20QAbstractFormBuilder19domPropertyToPixmapEPKNS_17DomResourcePixmapE@Base 4:4.7.90
 _ZN13QFormInternal20QAbstractFormBuilder19loadButtonExtraInfoEPKNS_9DomWidgetEP15QAbstractButtonP7QWidget@Base 4:4.7.90
 _ZN13QFormInternal20QAbstractFormBuilder19saveButtonExtraInfoEPK15QAbstractButtonPNS_9DomWidgetES5_@Base 4:4.7.90
 _ZN13QFormInternal20QAbstractFormBuilder19setScriptingEnabledEb@Base 4:4.7.90
 _ZN13QFormInternal20QAbstractFormBuilder19setWorkingDirectoryERK4QDir@Base 4:4.7.90
 _ZN13QFormInternal20QAbstractFormBuilder19toolBarAreaMetaEnumEv@Base 4:4.7.90
 _ZN13QFormInternal20QAbstractFormBuilder21loadComboBoxExtraInfoEPNS_9DomWidgetEP9QComboBoxP7QWidget@Base 4:4.7.90
 _ZN13QFormInternal20QAbstractFormBuilder21loadItemViewExtraInfoEPNS_9DomWidgetEP17QAbstractItemViewP7QWidget@Base 4:4.7.90
 _ZN13QFormInternal20QAbstractFormBuilder21saveComboBoxExtraInfoEP9QComboBoxPNS_9DomWidgetES4_@Base 4:4.7.90
 _ZN13QFormInternal20QAbstractFormBuilder21saveItemViewExtraInfoEPK17QAbstractItemViewPNS_9DomWidgetES5_@Base 4:4.7.90
 _ZN13QFormInternal20QAbstractFormBuilder23applyPropertyInternallyEP7QObjectRK7QStringRK8QVariant@Base 4:4.7.90
 _ZN13QFormInternal20QAbstractFormBuilder23loadListWidgetExtraInfoEPNS_9DomWidgetEP11QListWidgetP7QWidget@Base 4:4.7.90
 _ZN13QFormInternal20QAbstractFormBuilder23loadTreeWidgetExtraInfoEPNS_9DomWidgetEP11QTreeWidgetP7QWidget@Base 4:4.7.90
 _ZN13QFormInternal20QAbstractFormBuilder23saveListWidgetExtraInfoEP11QListWidgetPNS_9DomWidgetES4_@Base 4:4.7.90
 _ZN13QFormInternal20QAbstractFormBuilder23saveTreeWidgetExtraInfoEP11QTreeWidgetPNS_9DomWidgetES4_@Base 4:4.7.90
 _ZN13QFormInternal20QAbstractFormBuilder24loadTableWidgetExtraInfoEPNS_9DomWidgetEP12QTableWidgetP7QWidget@Base 4:4.7.90
 _ZN13QFormInternal20QAbstractFormBuilder24saveTableWidgetExtraInfoEP12QTableWidgetPNS_9DomWidgetES4_@Base 4:4.7.90
 _ZN13QFormInternal20QAbstractFormBuilder28toolbarAreaFromDOMAttributesERK5QHashI7QStringPNS_11DomPropertyEE@Base 4:4.7.90
 _ZN13QFormInternal20QAbstractFormBuilder4loadEP9QIODeviceP7QWidget@Base 4:4.7.90
 _ZN13QFormInternal20QAbstractFormBuilder4saveEP9QIODeviceP7QWidget@Base 4:4.7.90
 _ZN13QFormInternal20QAbstractFormBuilder5resetEv@Base 4:4.7.90
 _ZN13QFormInternal20QAbstractFormBuilder6createEPNS_13DomLayoutItemEP7QLayoutP7QWidget@Base 4:4.7.90
 _ZN13QFormInternal20QAbstractFormBuilder6createEPNS_14DomActionGroupEP7QObject@Base 4:4.7.90
 _ZN13QFormInternal20QAbstractFormBuilder6createEPNS_5DomUIEP7QWidget@Base 4:4.7.90
 _ZN13QFormInternal20QAbstractFormBuilder6createEPNS_9DomActionEP7QObject@Base 4:4.7.90
 _ZN13QFormInternal20QAbstractFormBuilder6createEPNS_9DomLayoutEP7QLayoutP7QWidget@Base 4:4.7.90
 _ZN13QFormInternal20QAbstractFormBuilder6createEPNS_9DomWidgetEP7QWidget@Base 4:4.7.90
 _ZN13QFormInternal20QAbstractFormBuilder7addItemEPNS_13DomLayoutItemEP11QLayoutItemP7QLayout@Base 4:4.7.90
 _ZN13QFormInternal20QAbstractFormBuilder7addItemEPNS_9DomWidgetEP7QWidgetS4_@Base 4:4.7.90
 _ZN13QFormInternal20QAbstractFormBuilder7saveDomEPNS_5DomUIEP7QWidget@Base 4:4.7.90
 _ZN13QFormInternal20QAbstractFormBuilder8toStringEPKNS_9DomStringE@Base 4:4.7.90
 _ZN13QFormInternal20QAbstractFormBuilder9createDomEP11QLayoutItemPNS_9DomLayoutEPNS_9DomWidgetE@Base 4:4.7.90
 _ZN13QFormInternal20QAbstractFormBuilder9createDomEP11QSpacerItemPNS_9DomLayoutEPNS_9DomWidgetE@Base 4:4.7.90
 _ZN13QFormInternal20QAbstractFormBuilder9createDomEP12QActionGroup@Base 4:4.7.90
 _ZN13QFormInternal20QAbstractFormBuilder9createDomEP12QButtonGroup@Base 4:4.7.90
 _ZN13QFormInternal20QAbstractFormBuilder9createDomEP7QAction@Base 4:4.7.90
 _ZN13QFormInternal20QAbstractFormBuilder9createDomEP7QLayoutPNS_9DomLayoutEPNS_9DomWidgetE@Base 4:4.7.90
 _ZN13QFormInternal20QAbstractFormBuilder9createDomEP7QWidgetPNS_9DomWidgetEb@Base 4:4.7.90
 _ZN13QFormInternal20QAbstractFormBuilder9domPixmapEPKNS_11DomPropertyE@Base 4:4.7.90
 _ZN13QFormInternal20QAbstractFormBuilder9saveBrushERK6QBrush@Base 4:4.7.90
 _ZN13QFormInternal20QAbstractFormBuilder9toVariantEPK11QMetaObjectPNS_11DomPropertyE@Base 4:4.7.90
 _ZN13QFormInternal20QAbstractFormBuilderC1Ev@Base 4:4.7.90
 _ZN13QFormInternal20QAbstractFormBuilderC2Ev@Base 4:4.7.90
 _ZN13QFormInternal20QAbstractFormBuilderD0Ev@Base 4:4.7.90
 _ZN13QFormInternal20QAbstractFormBuilderD1Ev@Base 4:4.7.90
 _ZN13QFormInternal20QAbstractFormBuilderD2Ev@Base 4:4.7.90
 _ZN13QFormInternal20domPropertyToVariantEPKNS_11DomPropertyE@Base 4:4.7.90
 _ZN13QFormInternal20domPropertyToVariantEPNS_20QAbstractFormBuilderEPK11QMetaObjectPKNS_11DomPropertyE@Base 4:4.7.90
 _ZN13QFormInternal20variantToDomPropertyEPNS_20QAbstractFormBuilderEPK11QMetaObjectRK7QStringRK8QVariant@Base 4:4.7.90
 _ZN13QFormInternal22TranslatingTextBuilderD0Ev@Base 4:4.7.90
 _ZN13QFormInternal22TranslatingTextBuilderD1Ev@Base 4:4.7.90
 _ZN13QFormInternal22TranslatingTextBuilderD2Ev@Base 4:4.7.90
 _ZN13QFormInternal25DomPropertySpecifications37setElementStringpropertyspecificationERK5QListIPNS_30DomStringPropertySpecificationEE@Base 4:4.7.90
 _ZN13QFormInternal25DomPropertySpecifications4readER16QXmlStreamReader@Base 4:4.7.90
 _ZN13QFormInternal25DomPropertySpecifications5clearEb@Base 4:4.7.90
 _ZN13QFormInternal25DomPropertySpecificationsC1Ev@Base 4:4.7.90
 _ZN13QFormInternal25DomPropertySpecificationsC2Ev@Base 4:4.7.90
 _ZN13QFormInternal25DomPropertySpecificationsD1Ev@Base 4:4.7.90
 _ZN13QFormInternal25DomPropertySpecificationsD2Ev@Base 4:4.7.90
 _ZN13QFormInternal26QAbstractFormBuilderGadget11qt_metacallEN11QMetaObject4CallEiPPv@Base 4:4.7.90
 _ZN13QFormInternal26QAbstractFormBuilderGadget11qt_metacastEPKc@Base 4:4.7.90
 _ZN13QFormInternal26QAbstractFormBuilderGadget16staticMetaObjectE@Base 4:4.7.90
 _ZN13QFormInternal26QAbstractFormBuilderGadgetD0Ev@Base 4:4.7.90
 _ZN13QFormInternal26QAbstractFormBuilderGadgetD1Ev@Base 4:4.7.90
 _ZN13QFormInternal26QAbstractFormBuilderGadgetD2Ev@Base 4:4.7.90
 _ZN13QFormInternal30DomStringPropertySpecification4readER16QXmlStreamReader@Base 4:4.7.90
 _ZN13QFormInternal30DomStringPropertySpecification5clearEb@Base 4:4.7.90
 _ZN13QFormInternal30DomStringPropertySpecificationC1Ev@Base 4:4.7.90
 _ZN13QFormInternal30DomStringPropertySpecificationC2Ev@Base 4:4.7.90
 _ZN13QFormInternal30DomStringPropertySpecificationD1Ev@Base 4:4.7.90
 _ZN13QFormInternal30DomStringPropertySpecificationD2Ev@Base 4:4.7.90
 _ZN13QFormInternal5DomUI15setElementClassERK7QString@Base 4:4.7.90
 _ZN13QFormInternal5DomUI15setElementSlotsEPNS_8DomSlotsE@Base 4:4.7.90
 _ZN13QFormInternal5DomUI16setElementAuthorERK7QString@Base 4:4.7.90
 _ZN13QFormInternal5DomUI16setElementImagesEPNS_9DomImagesE@Base 4:4.7.90
 _ZN13QFormInternal5DomUI16setElementWidgetEPNS_9DomWidgetE@Base 4:4.7.90
 _ZN13QFormInternal5DomUI16takeElementSlotsEv@Base 4:4.7.90
 _ZN13QFormInternal5DomUI17clearElementClassEv@Base 4:4.7.90
 _ZN13QFormInternal5DomUI17clearElementSlotsEv@Base 4:4.7.90
 _ZN13QFormInternal5DomUI17setElementCommentERK7QString@Base 4:4.7.90
 _ZN13QFormInternal5DomUI17takeElementImagesEv@Base 4:4.7.90
 _ZN13QFormInternal5DomUI17takeElementWidgetEv@Base 4:4.7.90
 _ZN13QFormInternal5DomUI18clearElementAuthorEv@Base 4:4.7.90
 _ZN13QFormInternal5DomUI18clearElementImagesEv@Base 4:4.7.90
 _ZN13QFormInternal5DomUI18clearElementWidgetEv@Base 4:4.7.90
 _ZN13QFormInternal5DomUI18setElementIncludesEPNS_11DomIncludesE@Base 4:4.7.90
 _ZN13QFormInternal5DomUI18setElementTabStopsEPNS_11DomTabStopsE@Base 4:4.7.90
 _ZN13QFormInternal5DomUI19clearElementCommentEv@Base 4:4.7.90
 _ZN13QFormInternal5DomUI19setElementResourcesEPNS_12DomResourcesE@Base 4:4.7.90
 _ZN13QFormInternal5DomUI19takeElementIncludesEv@Base 4:4.7.90
 _ZN13QFormInternal5DomUI19takeElementTabStopsEv@Base 4:4.7.90
 _ZN13QFormInternal5DomUI20clearElementIncludesEv@Base 4:4.7.90
 _ZN13QFormInternal5DomUI20clearElementTabStopsEv@Base 4:4.7.90
 _ZN13QFormInternal5DomUI20takeElementResourcesEv@Base 4:4.7.90
 _ZN13QFormInternal5DomUI21clearElementResourcesEv@Base 4:4.7.90
 _ZN13QFormInternal5DomUI21setElementConnectionsEPNS_14DomConnectionsE@Base 4:4.7.90
 _ZN13QFormInternal5DomUI21setElementExportMacroERK7QString@Base 4:4.7.90
 _ZN13QFormInternal5DomUI22setElementButtonGroupsEPNS_15DomButtonGroupsE@Base 4:4.7.90
 _ZN13QFormInternal5DomUI22setElementDesignerdataEPNS_15DomDesignerDataE@Base 4:4.7.90
 _ZN13QFormInternal5DomUI22takeElementConnectionsEv@Base 4:4.7.90
 _ZN13QFormInternal5DomUI23clearElementConnectionsEv@Base 4:4.7.90
 _ZN13QFormInternal5DomUI23clearElementExportMacroEv@Base 4:4.7.90
 _ZN13QFormInternal5DomUI23setElementCustomWidgetsEPNS_16DomCustomWidgetsE@Base 4:4.7.90
 _ZN13QFormInternal5DomUI23setElementLayoutDefaultEPNS_16DomLayoutDefaultE@Base 4:4.7.90
 _ZN13QFormInternal5DomUI23takeElementButtonGroupsEv@Base 4:4.7.90
 _ZN13QFormInternal5DomUI23takeElementDesignerdataEv@Base 4:4.7.90
 _ZN13QFormInternal5DomUI24clearElementButtonGroupsEv@Base 4:4.7.90
 _ZN13QFormInternal5DomUI24clearElementDesignerdataEv@Base 4:4.7.90
 _ZN13QFormInternal5DomUI24setElementLayoutFunctionEPNS_17DomLayoutFunctionE@Base 4:4.7.90
 _ZN13QFormInternal5DomUI24setElementPixmapFunctionERK7QString@Base 4:4.7.90
 _ZN13QFormInternal5DomUI24takeElementCustomWidgetsEv@Base 4:4.7.90
 _ZN13QFormInternal5DomUI24takeElementLayoutDefaultEv@Base 4:4.7.90
 _ZN13QFormInternal5DomUI25clearElementCustomWidgetsEv@Base 4:4.7.90
 _ZN13QFormInternal5DomUI25clearElementLayoutDefaultEv@Base 4:4.7.90
 _ZN13QFormInternal5DomUI25takeElementLayoutFunctionEv@Base 4:4.7.90
 _ZN13QFormInternal5DomUI26clearElementLayoutFunctionEv@Base 4:4.7.90
 _ZN13QFormInternal5DomUI26clearElementPixmapFunctionEv@Base 4:4.7.90
 _ZN13QFormInternal5DomUI4readER16QXmlStreamReader@Base 4:4.7.90
 _ZN13QFormInternal5DomUI5clearEb@Base 4:4.7.90
 _ZN13QFormInternal5DomUIC1Ev@Base 4:4.7.90
 _ZN13QFormInternal5DomUIC2Ev@Base 4:4.7.90
 _ZN13QFormInternal5DomUID1Ev@Base 4:4.7.90
 _ZN13QFormInternal5DomUID2Ev@Base 4:4.7.90
 _ZN13QFormInternal6DomRow18setElementPropertyERK5QListIPNS_11DomPropertyEE@Base 4:4.7.90
 _ZN13QFormInternal6DomRow4readER16QXmlStreamReader@Base 4:4.7.90
 _ZN13QFormInternal6DomRow5clearEb@Base 4:4.7.90
 _ZN13QFormInternal6DomRowC1Ev@Base 4:4.7.90
 _ZN13QFormInternal6DomRowC2Ev@Base 4:4.7.90
 _ZN13QFormInternal6DomRowD1Ev@Base 4:4.7.90
 _ZN13QFormInternal6DomRowD2Ev@Base 4:4.7.90
 _ZN13QFormInternal6DomUrl16setElementStringEPNS_9DomStringE@Base 4:4.7.90
 _ZN13QFormInternal6DomUrl17takeElementStringEv@Base 4:4.7.90
 _ZN13QFormInternal6DomUrl18clearElementStringEv@Base 4:4.7.90
 _ZN13QFormInternal6DomUrl4readER16QXmlStreamReader@Base 4:4.7.90
 _ZN13QFormInternal6DomUrl5clearEb@Base 4:4.7.90
 _ZN13QFormInternal6DomUrlC1Ev@Base 4:4.7.90
 _ZN13QFormInternal6DomUrlC2Ev@Base 4:4.7.90
 _ZN13QFormInternal6DomUrlD1Ev@Base 4:4.7.90
 _ZN13QFormInternal6DomUrlD2Ev@Base 4:4.7.90
 _ZN13QFormInternal7DomChar17setElementUnicodeEi@Base 4:4.7.90
 _ZN13QFormInternal7DomChar19clearElementUnicodeEv@Base 4:4.7.90
 _ZN13QFormInternal7DomChar4readER16QXmlStreamReader@Base 4:4.7.90
 _ZN13QFormInternal7DomChar5clearEb@Base 4:4.7.90
 _ZN13QFormInternal7DomCharC1Ev@Base 4:4.7.90
 _ZN13QFormInternal7DomCharC2Ev@Base 4:4.7.90
 _ZN13QFormInternal7DomCharD1Ev@Base 4:4.7.90
 _ZN13QFormInternal7DomCharD2Ev@Base 4:4.7.90
 _ZN13QFormInternal7DomDate13setElementDayEi@Base 4:4.7.90
 _ZN13QFormInternal7DomDate14setElementYearEi@Base 4:4.7.90
 _ZN13QFormInternal7DomDate15clearElementDayEv@Base 4:4.7.90
 _ZN13QFormInternal7DomDate15setElementMonthEi@Base 4:4.7.90
 _ZN13QFormInternal7DomDate16clearElementYearEv@Base 4:4.7.90
 _ZN13QFormInternal7DomDate17clearElementMonthEv@Base 4:4.7.90
 _ZN13QFormInternal7DomDate4readER16QXmlStreamReader@Base 4:4.7.90
 _ZN13QFormInternal7DomDate5clearEb@Base 4:4.7.90
 _ZN13QFormInternal7DomDateC1Ev@Base 4:4.7.90
 _ZN13QFormInternal7DomDateC2Ev@Base 4:4.7.90
 _ZN13QFormInternal7DomDateD1Ev@Base 4:4.7.90
 _ZN13QFormInternal7DomDateD2Ev@Base 4:4.7.90
 _ZN13QFormInternal7DomFont14setElementBoldEb@Base 4:4.7.90
 _ZN13QFormInternal7DomFont16clearElementBoldEv@Base 4:4.7.90
 _ZN13QFormInternal7DomFont16setElementFamilyERK7QString@Base 4:4.7.90
 _ZN13QFormInternal7DomFont16setElementItalicEb@Base 4:4.7.90
 _ZN13QFormInternal7DomFont16setElementWeightEi@Base 4:4.7.90
 _ZN13QFormInternal7DomFont17setElementKerningEb@Base 4:4.7.90
 _ZN13QFormInternal7DomFont18clearElementFamilyEv@Base 4:4.7.90
 _ZN13QFormInternal7DomFont18clearElementItalicEv@Base 4:4.7.90
 _ZN13QFormInternal7DomFont18clearElementWeightEv@Base 4:4.7.90
 _ZN13QFormInternal7DomFont19clearElementKerningEv@Base 4:4.7.90
 _ZN13QFormInternal7DomFont19setElementPointSizeEi@Base 4:4.7.90
 _ZN13QFormInternal7DomFont19setElementStrikeOutEb@Base 4:4.7.90
 _ZN13QFormInternal7DomFont19setElementUnderlineEb@Base 4:4.7.90
 _ZN13QFormInternal7DomFont21clearElementPointSizeEv@Base 4:4.7.90
 _ZN13QFormInternal7DomFont21clearElementStrikeOutEv@Base 4:4.7.90
 _ZN13QFormInternal7DomFont21clearElementUnderlineEv@Base 4:4.7.90
 _ZN13QFormInternal7DomFont22setElementAntialiasingEb@Base 4:4.7.90
 _ZN13QFormInternal7DomFont23setElementStyleStrategyERK7QString@Base 4:4.7.90
 _ZN13QFormInternal7DomFont24clearElementAntialiasingEv@Base 4:4.7.90
 _ZN13QFormInternal7DomFont25clearElementStyleStrategyEv@Base 4:4.7.90
 _ZN13QFormInternal7DomFont4readER16QXmlStreamReader@Base 4:4.7.90
 _ZN13QFormInternal7DomFont5clearEb@Base 4:4.7.90
 _ZN13QFormInternal7DomFontC1Ev@Base 4:4.7.90
 _ZN13QFormInternal7DomFontC2Ev@Base 4:4.7.90
 _ZN13QFormInternal7DomFontD1Ev@Base 4:4.7.90
 _ZN13QFormInternal7DomFontD2Ev@Base 4:4.7.90
 _ZN13QFormInternal7DomItem14setElementItemERK5QListIPS0_E@Base 4:4.7.90
 _ZN13QFormInternal7DomItem18setElementPropertyERK5QListIPNS_11DomPropertyEE@Base 4:4.7.90
 _ZN13QFormInternal7DomItem4readER16QXmlStreamReader@Base 4:4.7.90
 _ZN13QFormInternal7DomItem5clearEb@Base 4:4.7.90
 _ZN13QFormInternal7DomItemC1Ev@Base 4:4.7.90
 _ZN13QFormInternal7DomItemC2Ev@Base 4:4.7.90
 _ZN13QFormInternal7DomItemD1Ev@Base 4:4.7.90
 _ZN13QFormInternal7DomItemD2Ev@Base 4:4.7.90
 _ZN13QFormInternal7DomRect11setElementXEi@Base 4:4.7.90
 _ZN13QFormInternal7DomRect11setElementYEi@Base 4:4.7.90
 _ZN13QFormInternal7DomRect13clearElementXEv@Base 4:4.7.90
 _ZN13QFormInternal7DomRect13clearElementYEv@Base 4:4.7.90
 _ZN13QFormInternal7DomRect15setElementWidthEi@Base 4:4.7.90
 _ZN13QFormInternal7DomRect16setElementHeightEi@Base 4:4.7.90
 _ZN13QFormInternal7DomRect17clearElementWidthEv@Base 4:4.7.90
 _ZN13QFormInternal7DomRect18clearElementHeightEv@Base 4:4.7.90
 _ZN13QFormInternal7DomRect4readER16QXmlStreamReader@Base 4:4.7.90
 _ZN13QFormInternal7DomRect5clearEb@Base 4:4.7.90
 _ZN13QFormInternal7DomRectC1Ev@Base 4:4.7.90
 _ZN13QFormInternal7DomRectC2Ev@Base 4:4.7.90
 _ZN13QFormInternal7DomRectD1Ev@Base 4:4.7.90
 _ZN13QFormInternal7DomRectD2Ev@Base 4:4.7.90
 _ZN13QFormInternal7DomSize15setElementWidthEi@Base 4:4.7.90
 _ZN13QFormInternal7DomSize16setElementHeightEi@Base 4:4.7.90
 _ZN13QFormInternal7DomSize17clearElementWidthEv@Base 4:4.7.90
 _ZN13QFormInternal7DomSize18clearElementHeightEv@Base 4:4.7.90
 _ZN13QFormInternal7DomSize4readER16QXmlStreamReader@Base 4:4.7.90
 _ZN13QFormInternal7DomSize5clearEb@Base 4:4.7.90
 _ZN13QFormInternal7DomSizeC1Ev@Base 4:4.7.90
 _ZN13QFormInternal7DomSizeC2Ev@Base 4:4.7.90
 _ZN13QFormInternal7DomSizeD1Ev@Base 4:4.7.90
 _ZN13QFormInternal7DomSizeD2Ev@Base 4:4.7.90
 _ZN13QFormInternal7DomTime14setElementHourEi@Base 4:4.7.90
 _ZN13QFormInternal7DomTime16clearElementHourEv@Base 4:4.7.90
 _ZN13QFormInternal7DomTime16setElementMinuteEi@Base 4:4.7.90
 _ZN13QFormInternal7DomTime16setElementSecondEi@Base 4:4.7.90
 _ZN13QFormInternal7DomTime18clearElementMinuteEv@Base 4:4.7.90
 _ZN13QFormInternal7DomTime18clearElementSecondEv@Base 4:4.7.90
 _ZN13QFormInternal7DomTime4readER16QXmlStreamReader@Base 4:4.7.90
 _ZN13QFormInternal7DomTime5clearEb@Base 4:4.7.90
 _ZN13QFormInternal7DomTimeC1Ev@Base 4:4.7.90
 _ZN13QFormInternal7DomTimeC2Ev@Base 4:4.7.90
 _ZN13QFormInternal7DomTimeD1Ev@Base 4:4.7.90
 _ZN13QFormInternal7DomTimeD2Ev@Base 4:4.7.90
 _ZN13QFormInternal8DomBrush15setElementColorEPNS_8DomColorE@Base 4:4.7.90
 _ZN13QFormInternal8DomBrush16takeElementColorEv@Base 4:4.7.90
 _ZN13QFormInternal8DomBrush17setElementTextureEPNS_11DomPropertyE@Base 4:4.7.90
 _ZN13QFormInternal8DomBrush18setElementGradientEPNS_11DomGradientE@Base 4:4.7.90
 _ZN13QFormInternal8DomBrush18takeElementTextureEv@Base 4:4.7.90
 _ZN13QFormInternal8DomBrush19takeElementGradientEv@Base 4:4.7.90
 _ZN13QFormInternal8DomBrush4readER16QXmlStreamReader@Base 4:4.7.90
 _ZN13QFormInternal8DomBrush5clearEb@Base 4:4.7.90
 _ZN13QFormInternal8DomBrushC1Ev@Base 4:4.7.90
 _ZN13QFormInternal8DomBrushC2Ev@Base 4:4.7.90
 _ZN13QFormInternal8DomBrushD1Ev@Base 4:4.7.90
 _ZN13QFormInternal8DomBrushD2Ev@Base 4:4.7.90
 _ZN13QFormInternal8DomColor13setElementRedEi@Base 4:4.7.90
 _ZN13QFormInternal8DomColor14setElementBlueEi@Base 4:4.7.90
 _ZN13QFormInternal8DomColor15clearElementRedEv@Base 4:4.7.90
 _ZN13QFormInternal8DomColor15setElementGreenEi@Base 4:4.7.90
 _ZN13QFormInternal8DomColor16clearElementBlueEv@Base 4:4.7.90
 _ZN13QFormInternal8DomColor17clearElementGreenEv@Base 4:4.7.90
 _ZN13QFormInternal8DomColor4readER16QXmlStreamReader@Base 4:4.7.90
 _ZN13QFormInternal8DomColor5clearEb@Base 4:4.7.90
 _ZN13QFormInternal8DomColorC1Ev@Base 4:4.7.90
 _ZN13QFormInternal8DomColorC2Ev@Base 4:4.7.90
 _ZN13QFormInternal8DomColorD1Ev@Base 4:4.7.90
 _ZN13QFormInternal8DomColorD2Ev@Base 4:4.7.90
 _ZN13QFormInternal8DomImage14setElementDataEPNS_12DomImageDataE@Base 4:4.7.90
 _ZN13QFormInternal8DomImage15takeElementDataEv@Base 4:4.7.90
 _ZN13QFormInternal8DomImage16clearElementDataEv@Base 4:4.7.90
 _ZN13QFormInternal8DomImage4readER16QXmlStreamReader@Base 4:4.7.90
 _ZN13QFormInternal8DomImage5clearEb@Base 4:4.7.90
 _ZN13QFormInternal8DomImageC1Ev@Base 4:4.7.90
 _ZN13QFormInternal8DomImageC2Ev@Base 4:4.7.90
 _ZN13QFormInternal8DomImageD1Ev@Base 4:4.7.90
 _ZN13QFormInternal8DomImageD2Ev@Base 4:4.7.90
 _ZN13QFormInternal8DomPoint11setElementXEi@Base 4:4.7.90
 _ZN13QFormInternal8DomPoint11setElementYEi@Base 4:4.7.90
 _ZN13QFormInternal8DomPoint13clearElementXEv@Base 4:4.7.90
 _ZN13QFormInternal8DomPoint13clearElementYEv@Base 4:4.7.90
 _ZN13QFormInternal8DomPoint4readER16QXmlStreamReader@Base 4:4.7.90
 _ZN13QFormInternal8DomPoint5clearEb@Base 4:4.7.90
 _ZN13QFormInternal8DomPointC1Ev@Base 4:4.7.90
 _ZN13QFormInternal8DomPointC2Ev@Base 4:4.7.90
 _ZN13QFormInternal8DomPointD1Ev@Base 4:4.7.90
 _ZN13QFormInternal8DomPointD2Ev@Base 4:4.7.90
 _ZN13QFormInternal8DomRectF11setElementXEd@Base 4:4.7.90
 _ZN13QFormInternal8DomRectF11setElementYEd@Base 4:4.7.90
 _ZN13QFormInternal8DomRectF13clearElementXEv@Base 4:4.7.90
 _ZN13QFormInternal8DomRectF13clearElementYEv@Base 4:4.7.90
 _ZN13QFormInternal8DomRectF15setElementWidthEd@Base 4:4.7.90
 _ZN13QFormInternal8DomRectF16setElementHeightEd@Base 4:4.7.90
 _ZN13QFormInternal8DomRectF17clearElementWidthEv@Base 4:4.7.90
 _ZN13QFormInternal8DomRectF18clearElementHeightEv@Base 4:4.7.90
 _ZN13QFormInternal8DomRectF4readER16QXmlStreamReader@Base 4:4.7.90
 _ZN13QFormInternal8DomRectF5clearEb@Base 4:4.7.90
 _ZN13QFormInternal8DomRectFC1Ev@Base 4:4.7.90
 _ZN13QFormInternal8DomRectFC2Ev@Base 4:4.7.90
 _ZN13QFormInternal8DomRectFD1Ev@Base 4:4.7.90
 _ZN13QFormInternal8DomRectFD2Ev@Base 4:4.7.90
 _ZN13QFormInternal8DomSizeF15setElementWidthEd@Base 4:4.7.90
 _ZN13QFormInternal8DomSizeF16setElementHeightEd@Base 4:4.7.90
 _ZN13QFormInternal8DomSizeF17clearElementWidthEv@Base 4:4.7.90
 _ZN13QFormInternal8DomSizeF18clearElementHeightEv@Base 4:4.7.90
 _ZN13QFormInternal8DomSizeF4readER16QXmlStreamReader@Base 4:4.7.90
 _ZN13QFormInternal8DomSizeF5clearEb@Base 4:4.7.90
 _ZN13QFormInternal8DomSizeFC1Ev@Base 4:4.7.90
 _ZN13QFormInternal8DomSizeFC2Ev@Base 4:4.7.90
 _ZN13QFormInternal8DomSizeFD1Ev@Base 4:4.7.90
 _ZN13QFormInternal8DomSizeFD2Ev@Base 4:4.7.90
 _ZN13QFormInternal8DomSlots14setElementSlotERK11QStringList@Base 4:4.7.90
 _ZN13QFormInternal8DomSlots16setElementSignalERK11QStringList@Base 4:4.7.90
 _ZN13QFormInternal8DomSlots4readER16QXmlStreamReader@Base 4:4.7.90
 _ZN13QFormInternal8DomSlots5clearEb@Base 4:4.7.90
 _ZN13QFormInternal8DomSlotsC1Ev@Base 4:4.7.90
 _ZN13QFormInternal8DomSlotsC2Ev@Base 4:4.7.90
 _ZN13QFormInternal8DomSlotsD1Ev@Base 4:4.7.90
 _ZN13QFormInternal8DomSlotsD2Ev@Base 4:4.7.90
 _ZN13QFormInternal9DomAction18setElementPropertyERK5QListIPNS_11DomPropertyEE@Base 4:4.7.90
 _ZN13QFormInternal9DomAction19setElementAttributeERK5QListIPNS_11DomPropertyEE@Base 4:4.7.90
 _ZN13QFormInternal9DomAction4readER16QXmlStreamReader@Base 4:4.7.90
 _ZN13QFormInternal9DomAction5clearEb@Base 4:4.7.90
 _ZN13QFormInternal9DomActionC1Ev@Base 4:4.7.90
 _ZN13QFormInternal9DomActionC2Ev@Base 4:4.7.90
 _ZN13QFormInternal9DomActionD1Ev@Base 4:4.7.90
 _ZN13QFormInternal9DomActionD2Ev@Base 4:4.7.90
 _ZN13QFormInternal9DomColumn18setElementPropertyERK5QListIPNS_11DomPropertyEE@Base 4:4.7.90
 _ZN13QFormInternal9DomColumn4readER16QXmlStreamReader@Base 4:4.7.90
 _ZN13QFormInternal9DomColumn5clearEb@Base 4:4.7.90
 _ZN13QFormInternal9DomColumnC1Ev@Base 4:4.7.90
 _ZN13QFormInternal9DomColumnC2Ev@Base 4:4.7.90
 _ZN13QFormInternal9DomColumnD1Ev@Base 4:4.7.90
 _ZN13QFormInternal9DomColumnD2Ev@Base 4:4.7.90
 _ZN13QFormInternal9DomHeader4readER16QXmlStreamReader@Base 4:4.7.90
 _ZN13QFormInternal9DomHeader5clearEb@Base 4:4.7.90
 _ZN13QFormInternal9DomHeaderC1Ev@Base 4:4.7.90
 _ZN13QFormInternal9DomHeaderC2Ev@Base 4:4.7.90
 _ZN13QFormInternal9DomHeaderD1Ev@Base 4:4.7.90
 _ZN13QFormInternal9DomHeaderD2Ev@Base 4:4.7.90
 _ZN13QFormInternal9DomImages15setElementImageERK5QListIPNS_8DomImageEE@Base 4:4.7.90
 _ZN13QFormInternal9DomImages4readER16QXmlStreamReader@Base 4:4.7.90
 _ZN13QFormInternal9DomImages5clearEb@Base 4:4.7.90
 _ZN13QFormInternal9DomImagesC1Ev@Base 4:4.7.90
 _ZN13QFormInternal9DomImagesC2Ev@Base 4:4.7.90
 _ZN13QFormInternal9DomImagesD1Ev@Base 4:4.7.90
 _ZN13QFormInternal9DomImagesD2Ev@Base 4:4.7.90
 _ZN13QFormInternal9DomLayout14setElementItemERK5QListIPNS_13DomLayoutItemEE@Base 4:4.7.90
 _ZN13QFormInternal9DomLayout18setElementPropertyERK5QListIPNS_11DomPropertyEE@Base 4:4.7.90
 _ZN13QFormInternal9DomLayout19setElementAttributeERK5QListIPNS_11DomPropertyEE@Base 4:4.7.90
 _ZN13QFormInternal9DomLayout4readER16QXmlStreamReader@Base 4:4.7.90
 _ZN13QFormInternal9DomLayout5clearEb@Base 4:4.7.90
 _ZN13QFormInternal9DomLayoutC1Ev@Base 4:4.7.90
 _ZN13QFormInternal9DomLayoutC2Ev@Base 4:4.7.90
 _ZN13QFormInternal9DomLayoutD1Ev@Base 4:4.7.90
 _ZN13QFormInternal9DomLayoutD2Ev@Base 4:4.7.90
 _ZN13QFormInternal9DomLocale4readER16QXmlStreamReader@Base 4:4.7.90
 _ZN13QFormInternal9DomLocale5clearEb@Base 4:4.7.90
 _ZN13QFormInternal9DomLocaleC1Ev@Base 4:4.7.90
 _ZN13QFormInternal9DomLocaleC2Ev@Base 4:4.7.90
 _ZN13QFormInternal9DomLocaleD1Ev@Base 4:4.7.90
 _ZN13QFormInternal9DomLocaleD2Ev@Base 4:4.7.90
 _ZN13QFormInternal9DomPointF11setElementXEd@Base 4:4.7.90
 _ZN13QFormInternal9DomPointF11setElementYEd@Base 4:4.7.90
 _ZN13QFormInternal9DomPointF13clearElementXEv@Base 4:4.7.90
 _ZN13QFormInternal9DomPointF13clearElementYEv@Base 4:4.7.90
 _ZN13QFormInternal9DomPointF4readER16QXmlStreamReader@Base 4:4.7.90
 _ZN13QFormInternal9DomPointF5clearEb@Base 4:4.7.90
 _ZN13QFormInternal9DomPointFC1Ev@Base 4:4.7.90
 _ZN13QFormInternal9DomPointFC2Ev@Base 4:4.7.90
 _ZN13QFormInternal9DomPointFD1Ev@Base 4:4.7.90
 _ZN13QFormInternal9DomPointFD2Ev@Base 4:4.7.90
 _ZN13QFormInternal9DomScript4readER16QXmlStreamReader@Base 4:4.7.90
 _ZN13QFormInternal9DomScript5clearEb@Base 4:4.7.90
 _ZN13QFormInternal9DomScriptC1Ev@Base 4:4.7.90
 _ZN13QFormInternal9DomScriptC2Ev@Base 4:4.7.90
 _ZN13QFormInternal9DomScriptD1Ev@Base 4:4.7.90
 _ZN13QFormInternal9DomScriptD2Ev@Base 4:4.7.90
 _ZN13QFormInternal9DomSpacer18setElementPropertyERK5QListIPNS_11DomPropertyEE@Base 4:4.7.90
 _ZN13QFormInternal9DomSpacer4readER16QXmlStreamReader@Base 4:4.7.90
 _ZN13QFormInternal9DomSpacer5clearEb@Base 4:4.7.90
 _ZN13QFormInternal9DomSpacerC1Ev@Base 4:4.7.90
 _ZN13QFormInternal9DomSpacerC2Ev@Base 4:4.7.90
 _ZN13QFormInternal9DomSpacerD1Ev@Base 4:4.7.90
 _ZN13QFormInternal9DomSpacerD2Ev@Base 4:4.7.90
 _ZN13QFormInternal9DomString4readER16QXmlStreamReader@Base 4:4.7.90
 _ZN13QFormInternal9DomString5clearEb@Base 4:4.7.90
 _ZN13QFormInternal9DomStringC1Ev@Base 4:4.7.90
 _ZN13QFormInternal9DomStringC2Ev@Base 4:4.7.90
 _ZN13QFormInternal9DomStringD1Ev@Base 4:4.7.90
 _ZN13QFormInternal9DomStringD2Ev@Base 4:4.7.90
 _ZN13QFormInternal9DomWidget13setElementRowERK5QListIPNS_6DomRowEE@Base 4:4.7.90
 _ZN13QFormInternal9DomWidget14setElementItemERK5QListIPNS_7DomItemEE@Base 4:4.7.90
 _ZN13QFormInternal9DomWidget15setElementClassERK11QStringList@Base 4:4.7.90
 _ZN13QFormInternal9DomWidget16setElementActionERK5QListIPNS_9DomActionEE@Base 4:4.7.90
 _ZN13QFormInternal9DomWidget16setElementColumnERK5QListIPNS_9DomColumnEE@Base 4:4.7.90
 _ZN13QFormInternal9DomWidget16setElementLayoutERK5QListIPNS_9DomLayoutEE@Base 4:4.7.90
 _ZN13QFormInternal9DomWidget16setElementScriptERK5QListIPNS_9DomScriptEE@Base 4:4.7.90
 _ZN13QFormInternal9DomWidget16setElementWidgetERK5QListIPS0_E@Base 4:4.7.90
 _ZN13QFormInternal9DomWidget16setElementZOrderERK11QStringList@Base 4:4.7.90
 _ZN13QFormInternal9DomWidget18setElementPropertyERK5QListIPNS_11DomPropertyEE@Base 4:4.7.90
 _ZN13QFormInternal9DomWidget19setElementAddActionERK5QListIPNS_12DomActionRefEE@Base 4:4.7.90
 _ZN13QFormInternal9DomWidget19setElementAttributeERK5QListIPNS_11DomPropertyEE@Base 4:4.7.90
 _ZN13QFormInternal9DomWidget20setElementWidgetDataERK5QListIPNS_13DomWidgetDataEE@Base 4:4.7.90
 _ZN13QFormInternal9DomWidget21setElementActionGroupERK5QListIPNS_14DomActionGroupEE@Base 4:4.7.90
 _ZN13QFormInternal9DomWidget4readER16QXmlStreamReader@Base 4:4.7.90
 _ZN13QFormInternal9DomWidget5clearEb@Base 4:4.7.90
 _ZN13QFormInternal9DomWidgetC1Ev@Base 4:4.7.90
 _ZN13QFormInternal9DomWidgetC2Ev@Base 4:4.7.90
 _ZN13QFormInternal9DomWidgetD1Ev@Base 4:4.7.90
 _ZN13QFormInternal9DomWidgetD2Ev@Base 4:4.7.90
 _ZN17QForeachContainerI11QStringListEC1ERKS0_@Base 4:4.7.90
 _ZN17QForeachContainerI11QStringListEC2ERKS0_@Base 4:4.7.90
 _ZN20QGlobalStaticDeleterI4QMapI7QStringbEED1Ev@Base 4:4.7.90
 _ZN20QGlobalStaticDeleterI4QMapI7QStringbEED2Ev@Base 4:4.7.90
 _ZN20QGlobalStaticDeleterI5QHashIPKN13QFormInternal20QAbstractFormBuilderEPNS1_17QFormBuilderExtraEEED1Ev@Base 4:4.7.90
 _ZN20QGlobalStaticDeleterI5QHashIPKN13QFormInternal20QAbstractFormBuilderEPNS1_17QFormBuilderExtraEEED2Ev@Base 4:4.7.90
 _ZN26FormBuilderSaveLayoutEntry12setAlignmentE6QFlagsIN2Qt13AlignmentFlagEE@Base 4:4.8.0
 _ZN26QUiTranslatableStringValueD1Ev@Base 4:4.7.90
 _ZN26QUiTranslatableStringValueD2Ev@Base 4:4.7.90
 _ZN3KJS10IdentifierD1Ev@Base 4:4.6.90
 _ZN3KJS10IdentifierD2Ev@Base 4:4.6.90
 _ZN3KJS7JSValueD0Ev@Base 4:4.3.4
 _ZN3KJS7JSValueD1Ev@Base 4:4.3.4
 _ZN3KJS7JSValueD2Ev@Base 4:4.6.3
 _ZN3KJS7UStringC1ERK7QString@Base 4:4.3.4
 _ZN3KJS7UStringC2ERK7QString@Base 4:4.3.4
 _ZN4QMapI7QStringP30QDesignerCustomWidgetInterfaceE13detach_helperEv@Base 4:4.7.90
 _ZN4QMapI7QStringbE13detach_helperEv@Base 4:4.7.90
 _ZN4QMapI7QStringbE6insertERKS0_RKb@Base 4:4.7.90
 _ZN5QHashI10QByteArraybE11deleteNode2EPN9QHashData4NodeE@Base 4:4.7.90
 _ZN5QHashI10QByteArraybE13duplicateNodeEPN9QHashData4NodeEPv@Base 4:4.7.90
 _ZN5QHashI7QString5QPairIN2Qt12ItemDataRoleES3_EE11deleteNode2EPN9QHashData4NodeE@Base 4:4.7.90
 _ZN5QHashI7QString5QPairIN2Qt12ItemDataRoleES3_EE13duplicateNodeEPN9QHashData4NodeEPv@Base 4:4.7.90
 _ZN5QHashI7QString5QPairIPN13QFormInternal14DomButtonGroupEP12QButtonGroupEE11deleteNode2EPN9QHashData4NodeE@Base 4:4.7.90
 _ZN5QHashI7QString5QPairIPN13QFormInternal14DomButtonGroupEP12QButtonGroupEE13detach_helperEv@Base 4:4.7.90
 _ZN5QHashI7QString5QPairIPN13QFormInternal14DomButtonGroupEP12QButtonGroupEE13duplicateNodeEPN9QHashData4NodeEPv@Base 4:4.7.90
 _ZN5QHashI7QString5QPairIPN13QFormInternal14DomButtonGroupEP12QButtonGroupEED1Ev@Base 4:4.7.90
 _ZN5QHashI7QString5QPairIPN13QFormInternal14DomButtonGroupEP12QButtonGroupEED2Ev@Base 4:4.7.90
 _ZN5QHashI7QStringN13QFormInternal17QFormBuilderExtra16CustomWidgetDataEE11deleteNode2EPN9QHashData4NodeE@Base 4:4.7.90
 _ZN5QHashI7QStringN13QFormInternal17QFormBuilderExtra16CustomWidgetDataEE13detach_helperEv@Base 4:4.7.90
 _ZN5QHashI7QStringN13QFormInternal17QFormBuilderExtra16CustomWidgetDataEE13duplicateNodeEPN9QHashData4NodeEPv@Base 4:4.7.90
 _ZN5QHashI7QStringN13QFormInternal17QFormBuilderExtra16CustomWidgetDataEED1Ev@Base 4:4.7.90
 _ZN5QHashI7QStringN13QFormInternal17QFormBuilderExtra16CustomWidgetDataEED2Ev@Base 4:4.7.90
 _ZN5QHashI7QStringN2Qt12ItemDataRoleEE11deleteNode2EPN9QHashData4NodeE@Base 4:4.7.90
 _ZN5QHashI7QStringN2Qt12ItemDataRoleEE13duplicateNodeEPN9QHashData4NodeEPv@Base 4:4.7.90
 _ZN5QHashI7QStringN2Qt12ItemDataRoleEED1Ev@Base 4:4.7.90
 _ZN5QHashI7QStringN2Qt12ItemDataRoleEED2Ev@Base 4:4.7.90
 _ZN5QHashI7QStringP12QActionGroupE11deleteNode2EPN9QHashData4NodeE@Base 4:4.7.90
 _ZN5QHashI7QStringP12QActionGroupE13detach_helperEv@Base 4:4.7.90
 _ZN5QHashI7QStringP12QActionGroupE13duplicateNodeEPN9QHashData4NodeEPv@Base 4:4.7.90
 _ZN5QHashI7QStringP12QActionGroupED1Ev@Base 4:4.7.90
 _ZN5QHashI7QStringP12QActionGroupED2Ev@Base 4:4.7.90
 _ZN5QHashI7QStringP7QActionE11deleteNode2EPN9QHashData4NodeE@Base 4:4.7.90
 _ZN5QHashI7QStringP7QActionE13detach_helperEv@Base 4:4.7.90
 _ZN5QHashI7QStringP7QActionE13duplicateNodeEPN9QHashData4NodeEPv@Base 4:4.7.90
 _ZN5QHashI7QStringP7QActionED1Ev@Base 4:4.7.90
 _ZN5QHashI7QStringP7QActionED2Ev@Base 4:4.7.90
 _ZN5QHashI7QStringPN13QFormInternal11DomPropertyEE11deleteNode2EPN9QHashData4NodeE@Base 4:4.7.90
 _ZN5QHashI7QStringPN13QFormInternal11DomPropertyEE13duplicateNodeEPN9QHashData4NodeEPv@Base 4:4.7.90
 _ZN5QHashI7QStringPN13QFormInternal11DomPropertyEED1Ev@Base 4:4.7.90
 _ZN5QHashI7QStringPN13QFormInternal11DomPropertyEED2Ev@Base 4:4.7.90
 _ZN5QHashIP6QLabel7QStringE11deleteNode2EPN9QHashData4NodeE@Base 4:4.7.90
 _ZN5QHashIP6QLabel7QStringE13detach_helperEv@Base 4:4.7.90
 _ZN5QHashIP6QLabel7QStringE13duplicateNodeEPN9QHashData4NodeEPv@Base 4:4.7.90
 _ZN5QHashIP6QLabel7QStringED1Ev@Base 4:4.7.90
 _ZN5QHashIP6QLabel7QStringED2Ev@Base 4:4.7.90
 _ZN5QHashIP7QObjectbE11deleteNode2EPN9QHashData4NodeE@Base 4:4.7.90
 _ZN5QHashIP7QObjectbE13detach_helperEv@Base 4:4.7.90
 _ZN5QHashIP7QObjectbE13duplicateNodeEPN9QHashData4NodeEPv@Base 4:4.7.90
 _ZN5QHashIP7QObjectbED1Ev@Base 4:4.7.90
 _ZN5QHashIP7QObjectbED2Ev@Base 4:4.7.90
 _ZN5QHashIPKN13QFormInternal20QAbstractFormBuilderEPNS0_17QFormBuilderExtraEE11deleteNode2EPN9QHashData4NodeE@Base 4:4.7.90
 _ZN5QHashIPKN13QFormInternal20QAbstractFormBuilderEPNS0_17QFormBuilderExtraEE13duplicateNodeEPN9QHashData4NodeEPv@Base 4:4.7.90
 _ZN5QListI10QByteArrayE18detach_helper_growEii@Base 4:4.7.90
 _ZN5QListI10QByteArrayE6appendERKS0_@Base 4:4.7.90
 _ZN5QListI10QByteArrayE7reserveEi@Base 4:4.7.90
 _ZN5QListI26FormBuilderSaveLayoutEntryE13detach_helperEi@Base 4:4.8.0
 _ZN5QListI26FormBuilderSaveLayoutEntryE18detach_helper_growEii@Base 4:4.8.0
 _ZN5QListI26FormBuilderSaveLayoutEntryE6appendERKS0_@Base 4:4.8.0
 _ZN5QListI26FormBuilderSaveLayoutEntryE7reserveEi@Base 4:4.8.0
 _ZN5QListI26FormBuilderSaveLayoutEntryED1Ev@Base 4:4.8.0
 _ZN5QListI26FormBuilderSaveLayoutEntryED2Ev@Base 4:4.8.0
 _ZN5QListI5QPairIN2Qt12ItemDataRoleE7QStringEE13detach_helperEi@Base 4:4.7.90
 _ZN5QListI5QPairIN2Qt12ItemDataRoleE7QStringEE18detach_helper_growEii@Base 4:4.7.90
 _ZN5QListI5QPairIN2Qt12ItemDataRoleE7QStringEE6appendERKS4_@Base 4:4.7.90
 _ZN5QListI5QPairIN2Qt12ItemDataRoleE7QStringEED1Ev@Base 4:4.7.90
 _ZN5QListI5QPairIN2Qt12ItemDataRoleE7QStringEED2Ev@Base 4:4.7.90
 _ZN5QListI5QPairIP15QTreeWidgetItemPN13QFormInternal7DomItemEEE13detach_helperEi@Base 4:4.7.90
 _ZN5QListI5QPairIP15QTreeWidgetItemPN13QFormInternal7DomItemEEE18detach_helper_growEii@Base 4:4.7.90
 _ZN5QListI5QPairIP15QTreeWidgetItemPN13QFormInternal7DomItemEEE6appendERKS6_@Base 4:4.7.90
 _ZN5QListI5QPairIPN13QFormInternal7DomItemEP15QTreeWidgetItemEE13detach_helperEi@Base 4:4.7.90
 _ZN5QListI5QPairIPN13QFormInternal7DomItemEP15QTreeWidgetItemEE18detach_helper_growEii@Base 4:4.7.90
 _ZN5QListI5QPairIPN13QFormInternal7DomItemEP15QTreeWidgetItemEE6appendERKS6_@Base 4:4.7.90
 _ZN5QListI5QPairIS0_IN2Qt12ItemDataRoleES2_E7QStringEE13detach_helperEi@Base 4:4.7.90
 _ZN5QListI5QPairIS0_IN2Qt12ItemDataRoleES2_E7QStringEE18detach_helper_growEii@Base 4:4.7.90
 _ZN5QListI5QPairIS0_IN2Qt12ItemDataRoleES2_E7QStringEE6appendERKS5_@Base 4:4.7.90
 _ZN5QListI5QPairIS0_IN2Qt12ItemDataRoleES2_E7QStringEED1Ev@Base 4:4.7.90
 _ZN5QListI5QPairIS0_IN2Qt12ItemDataRoleES2_E7QStringEED2Ev@Base 4:4.7.90
 _ZN5QListI7QStringE5clearEv@Base 4:4.7.90
 _ZN5QListI7QStringED1Ev@Base 4:4.7.90
 _ZN5QListI7QStringED2Ev@Base 4:4.7.90
 _ZN5QListIP30QDesignerCustomWidgetInterfaceE13detach_helperEi@Base 4:4.7.90
 _ZN5QListIP30QDesignerCustomWidgetInterfaceE18detach_helper_growEii@Base 4:4.7.90
 _ZN5QListIP30QDesignerCustomWidgetInterfaceE6appendERKS1_@Base 4:4.7.90
 _ZN5QListIP30QDesignerCustomWidgetInterfaceED1Ev@Base 4:4.7.90
 _ZN5QListIP30QDesignerCustomWidgetInterfaceED2Ev@Base 4:4.7.90
 _ZN5QListIP7QActionE13detach_helperEi@Base 4:4.7.90
 _ZN5QListIP7QActionED1Ev@Base 4:4.7.90
 _ZN5QListIP7QActionED2Ev@Base 4:4.7.90
 _ZN5QListIP7QObjectE13detach_helperEv@Base 4:4.7.90
 _ZN5QListIP7QObjectE18detach_helper_growEii@Base 4:4.7.90
 _ZN5QListIP7QObjectE6appendERKS1_@Base 4:4.7.90
 _ZN5QListIP7QObjectE9removeAllERKS1_@Base 4:4.8.0
 _ZN5QListIP7QObjectED1Ev@Base 4:4.7.90
 _ZN5QListIP7QObjectED2Ev@Base 4:4.7.90
 _ZN5QListIP7QObjectEpLERKS2_@Base 4:4.7.90
 _ZN5QListIP7QWidgetE13detach_helperEv@Base 4:4.7.90
 _ZN5QListIP7QWidgetE18detach_helper_growEii@Base 4:4.7.90
 _ZN5QListIP7QWidgetE6appendERKS1_@Base 4:4.7.90
 _ZN5QListIP7QWidgetE9removeAllERKS1_@Base 4:4.8.0
 _ZN5QListIP7QWidgetED1Ev@Base 4:4.7.90
 _ZN5QListIP7QWidgetED2Ev@Base 4:4.7.90
 _ZN5QListIPN13QFormInternal10DomIncludeEE18detach_helper_growEii@Base 4:4.7.90
 _ZN5QListIPN13QFormInternal10DomIncludeEE5clearEv@Base 4:4.7.90
 _ZN5QListIPN13QFormInternal10DomIncludeEE6appendERKS2_@Base 4:4.7.90
 _ZN5QListIPN13QFormInternal10DomIncludeEED1Ev@Base 4:4.7.90
 _ZN5QListIPN13QFormInternal10DomIncludeEED2Ev@Base 4:4.7.90
 _ZN5QListIPN13QFormInternal11DomPropertyEE13detach_helperEi@Base 4:4.7.90
 _ZN5QListIPN13QFormInternal11DomPropertyEE13detach_helperEv@Base 4:4.7.90
 _ZN5QListIPN13QFormInternal11DomPropertyEE18detach_helper_growEii@Base 4:4.7.90
 _ZN5QListIPN13QFormInternal11DomPropertyEE5clearEv@Base 4:4.7.90
 _ZN5QListIPN13QFormInternal11DomPropertyEE6appendERKS2_@Base 4:4.7.90
 _ZN5QListIPN13QFormInternal11DomPropertyEEC1ERKS3_@Base 4:4.7.90
 _ZN5QListIPN13QFormInternal11DomPropertyEEC2ERKS3_@Base 4:4.7.90
 _ZN5QListIPN13QFormInternal11DomPropertyEED1Ev@Base 4:4.7.90
 _ZN5QListIPN13QFormInternal11DomPropertyEED2Ev@Base 4:4.7.90
 _ZN5QListIPN13QFormInternal11DomResourceEE18detach_helper_growEii@Base 4:4.7.90
 _ZN5QListIPN13QFormInternal11DomResourceEE5clearEv@Base 4:4.7.90
 _ZN5QListIPN13QFormInternal11DomResourceEE6appendERKS2_@Base 4:4.7.90
 _ZN5QListIPN13QFormInternal11DomResourceEED1Ev@Base 4:4.7.90
 _ZN5QListIPN13QFormInternal11DomResourceEED2Ev@Base 4:4.7.90
 _ZN5QListIPN13QFormInternal12DomActionRefEE18detach_helper_growEii@Base 4:4.7.90
 _ZN5QListIPN13QFormInternal12DomActionRefEE5clearEv@Base 4:4.7.90
 _ZN5QListIPN13QFormInternal12DomActionRefEE6appendERKS2_@Base 4:4.7.90
 _ZN5QListIPN13QFormInternal12DomActionRefEED1Ev@Base 4:4.7.90
 _ZN5QListIPN13QFormInternal12DomActionRefEED2Ev@Base 4:4.7.90
 _ZN5QListIPN13QFormInternal12DomColorRoleEE18detach_helper_growEii@Base 4:4.7.90
 _ZN5QListIPN13QFormInternal12DomColorRoleEE5clearEv@Base 4:4.7.90
 _ZN5QListIPN13QFormInternal12DomColorRoleEE6appendERKS2_@Base 4:4.7.90
 _ZN5QListIPN13QFormInternal12DomColorRoleEED1Ev@Base 4:4.7.90
 _ZN5QListIPN13QFormInternal12DomColorRoleEED2Ev@Base 4:4.7.90
 _ZN5QListIPN13QFormInternal13DomConnectionEE13detach_helperEi@Base 4:4.7.90
 _ZN5QListIPN13QFormInternal13DomConnectionEE18detach_helper_growEii@Base 4:4.7.90
 _ZN5QListIPN13QFormInternal13DomConnectionEE5clearEv@Base 4:4.7.90
 _ZN5QListIPN13QFormInternal13DomConnectionEE6appendERKS2_@Base 4:4.7.90
 _ZN5QListIPN13QFormInternal13DomConnectionEED1Ev@Base 4:4.7.90
 _ZN5QListIPN13QFormInternal13DomConnectionEED2Ev@Base 4:4.7.90
 _ZN5QListIPN13QFormInternal13DomLayoutItemEE18detach_helper_growEii@Base 4:4.7.90
 _ZN5QListIPN13QFormInternal13DomLayoutItemEE5clearEv@Base 4:4.7.90
 _ZN5QListIPN13QFormInternal13DomLayoutItemEE6appendERKS2_@Base 4:4.7.90
 _ZN5QListIPN13QFormInternal13DomLayoutItemEED1Ev@Base 4:4.7.90
 _ZN5QListIPN13QFormInternal13DomLayoutItemEED2Ev@Base 4:4.7.90
 _ZN5QListIPN13QFormInternal13DomWidgetDataEE18detach_helper_growEii@Base 4:4.7.90
 _ZN5QListIPN13QFormInternal13DomWidgetDataEE5clearEv@Base 4:4.7.90
 _ZN5QListIPN13QFormInternal13DomWidgetDataEE6appendERKS2_@Base 4:4.7.90
 _ZN5QListIPN13QFormInternal13DomWidgetDataEED1Ev@Base 4:4.7.90
 _ZN5QListIPN13QFormInternal13DomWidgetDataEED2Ev@Base 4:4.7.90
 _ZN5QListIPN13QFormInternal14DomActionGroupEE18detach_helper_growEii@Base 4:4.7.90
 _ZN5QListIPN13QFormInternal14DomActionGroupEE5clearEv@Base 4:4.7.90
 _ZN5QListIPN13QFormInternal14DomActionGroupEE6appendERKS2_@Base 4:4.7.90
 _ZN5QListIPN13QFormInternal14DomActionGroupEED1Ev@Base 4:4.7.90
 _ZN5QListIPN13QFormInternal14DomActionGroupEED2Ev@Base 4:4.7.90
 _ZN5QListIPN13QFormInternal14DomButtonGroupEE13detach_helperEi@Base 4:4.7.90
 _ZN5QListIPN13QFormInternal14DomButtonGroupEE18detach_helper_growEii@Base 4:4.7.90
 _ZN5QListIPN13QFormInternal14DomButtonGroupEE5clearEv@Base 4:4.7.90
 _ZN5QListIPN13QFormInternal14DomButtonGroupEE6appendERKS2_@Base 4:4.7.90
 _ZN5QListIPN13QFormInternal14DomButtonGroupEED1Ev@Base 4:4.7.90
 _ZN5QListIPN13QFormInternal14DomButtonGroupEED2Ev@Base 4:4.7.90
 _ZN5QListIPN13QFormInternal15DomCustomWidgetEE13detach_helperEi@Base 4:4.7.90
 _ZN5QListIPN13QFormInternal15DomCustomWidgetEE18detach_helper_growEii@Base 4:4.7.90
 _ZN5QListIPN13QFormInternal15DomCustomWidgetEE5clearEv@Base 4:4.7.90
 _ZN5QListIPN13QFormInternal15DomCustomWidgetEE6appendERKS2_@Base 4:4.7.90
 _ZN5QListIPN13QFormInternal15DomCustomWidgetEED1Ev@Base 4:4.7.90
 _ZN5QListIPN13QFormInternal15DomCustomWidgetEED2Ev@Base 4:4.7.90
 _ZN5QListIPN13QFormInternal15DomGradientStopEE18detach_helper_growEii@Base 4:4.7.90
 _ZN5QListIPN13QFormInternal15DomGradientStopEE5clearEv@Base 4:4.7.90
 _ZN5QListIPN13QFormInternal15DomGradientStopEE6appendERKS2_@Base 4:4.7.90
 _ZN5QListIPN13QFormInternal15DomGradientStopEED1Ev@Base 4:4.7.90
 _ZN5QListIPN13QFormInternal15DomGradientStopEED2Ev@Base 4:4.7.90
 _ZN5QListIPN13QFormInternal15DomPropertyDataEE18detach_helper_growEii@Base 4:4.7.90
 _ZN5QListIPN13QFormInternal15DomPropertyDataEE5clearEv@Base 4:4.7.90
 _ZN5QListIPN13QFormInternal15DomPropertyDataEE6appendERKS2_@Base 4:4.7.90
 _ZN5QListIPN13QFormInternal15DomPropertyDataEED1Ev@Base 4:4.7.90
 _ZN5QListIPN13QFormInternal15DomPropertyDataEED2Ev@Base 4:4.7.90
 _ZN5QListIPN13QFormInternal17DomConnectionHintEE18detach_helper_growEii@Base 4:4.7.90
 _ZN5QListIPN13QFormInternal17DomConnectionHintEE5clearEv@Base 4:4.7.90
 _ZN5QListIPN13QFormInternal17DomConnectionHintEE6appendERKS2_@Base 4:4.7.90
 _ZN5QListIPN13QFormInternal17DomConnectionHintEED1Ev@Base 4:4.7.90
 _ZN5QListIPN13QFormInternal17DomConnectionHintEED2Ev@Base 4:4.7.90
 _ZN5QListIPN13QFormInternal30DomStringPropertySpecificationEE18detach_helper_growEii@Base 4:4.7.90
 _ZN5QListIPN13QFormInternal30DomStringPropertySpecificationEE5clearEv@Base 4:4.7.90
 _ZN5QListIPN13QFormInternal30DomStringPropertySpecificationEE6appendERKS2_@Base 4:4.7.90
 _ZN5QListIPN13QFormInternal30DomStringPropertySpecificationEED1Ev@Base 4:4.7.90
 _ZN5QListIPN13QFormInternal30DomStringPropertySpecificationEED2Ev@Base 4:4.7.90
 _ZN5QListIPN13QFormInternal6DomRowEE18detach_helper_growEii@Base 4:4.7.90
 _ZN5QListIPN13QFormInternal6DomRowEE5clearEv@Base 4:4.7.90
 _ZN5QListIPN13QFormInternal6DomRowEE6appendERKS2_@Base 4:4.7.90
 _ZN5QListIPN13QFormInternal6DomRowEED1Ev@Base 4:4.7.90
 _ZN5QListIPN13QFormInternal6DomRowEED2Ev@Base 4:4.7.90
 _ZN5QListIPN13QFormInternal7DomItemEE18detach_helper_growEii@Base 4:4.7.90
 _ZN5QListIPN13QFormInternal7DomItemEE5clearEv@Base 4:4.7.90
 _ZN5QListIPN13QFormInternal7DomItemEE6appendERKS2_@Base 4:4.7.90
 _ZN5QListIPN13QFormInternal7DomItemEED1Ev@Base 4:4.7.90
 _ZN5QListIPN13QFormInternal7DomItemEED2Ev@Base 4:4.7.90
 _ZN5QListIPN13QFormInternal8DomColorEE13detach_helperEi@Base 4:4.7.90
 _ZN5QListIPN13QFormInternal8DomColorEE18detach_helper_growEii@Base 4:4.7.90
 _ZN5QListIPN13QFormInternal8DomColorEE5clearEv@Base 4:4.7.90
 _ZN5QListIPN13QFormInternal8DomColorEE6appendERKS2_@Base 4:4.7.90
 _ZN5QListIPN13QFormInternal8DomColorEED1Ev@Base 4:4.7.90
 _ZN5QListIPN13QFormInternal8DomColorEED2Ev@Base 4:4.7.90
 _ZN5QListIPN13QFormInternal8DomImageEE18detach_helper_growEii@Base 4:4.7.90
 _ZN5QListIPN13QFormInternal8DomImageEE5clearEv@Base 4:4.7.90
 _ZN5QListIPN13QFormInternal8DomImageEE6appendERKS2_@Base 4:4.7.90
 _ZN5QListIPN13QFormInternal8DomImageEED1Ev@Base 4:4.7.90
 _ZN5QListIPN13QFormInternal8DomImageEED2Ev@Base 4:4.7.90
 _ZN5QListIPN13QFormInternal9DomActionEE18detach_helper_growEii@Base 4:4.7.90
 _ZN5QListIPN13QFormInternal9DomActionEE5clearEv@Base 4:4.7.90
 _ZN5QListIPN13QFormInternal9DomActionEE6appendERKS2_@Base 4:4.7.90
 _ZN5QListIPN13QFormInternal9DomActionEED1Ev@Base 4:4.7.90
 _ZN5QListIPN13QFormInternal9DomActionEED2Ev@Base 4:4.7.90
 _ZN5QListIPN13QFormInternal9DomColumnEE18detach_helper_growEii@Base 4:4.7.90
 _ZN5QListIPN13QFormInternal9DomColumnEE5clearEv@Base 4:4.7.90
 _ZN5QListIPN13QFormInternal9DomColumnEE6appendERKS2_@Base 4:4.7.90
 _ZN5QListIPN13QFormInternal9DomColumnEED1Ev@Base 4:4.7.90
 _ZN5QListIPN13QFormInternal9DomColumnEED2Ev@Base 4:4.7.90
 _ZN5QListIPN13QFormInternal9DomLayoutEE18detach_helper_growEii@Base 4:4.7.90
 _ZN5QListIPN13QFormInternal9DomLayoutEE5clearEv@Base 4:4.7.90
 _ZN5QListIPN13QFormInternal9DomLayoutEE6appendERKS2_@Base 4:4.7.90
 _ZN5QListIPN13QFormInternal9DomLayoutEED1Ev@Base 4:4.7.90
 _ZN5QListIPN13QFormInternal9DomLayoutEED2Ev@Base 4:4.7.90
 _ZN5QListIPN13QFormInternal9DomScriptEE18detach_helper_growEii@Base 4:4.7.90
 _ZN5QListIPN13QFormInternal9DomScriptEE5clearEv@Base 4:4.7.90
 _ZN5QListIPN13QFormInternal9DomScriptEE6appendERKS2_@Base 4:4.7.90
 _ZN5QListIPN13QFormInternal9DomScriptEED1Ev@Base 4:4.7.90
 _ZN5QListIPN13QFormInternal9DomScriptEED2Ev@Base 4:4.7.90
 _ZN5QListIPN13QFormInternal9DomWidgetEE18detach_helper_growEii@Base 4:4.7.90
 _ZN5QListIPN13QFormInternal9DomWidgetEE5clearEv@Base 4:4.7.90
 _ZN5QListIPN13QFormInternal9DomWidgetEE6appendERKS2_@Base 4:4.7.90
 _ZN5QListIPN13QFormInternal9DomWidgetEED1Ev@Base 4:4.7.90
 _ZN5QListIPN13QFormInternal9DomWidgetEED2Ev@Base 4:4.7.90
 _ZN6QDebugD1Ev@Base 4:4.7.90
 _ZN6QDebugD2Ev@Base 4:4.7.90
 _ZN7QStringC1ERK13QLatin1String@Base 4:4.7.90
 _ZN7QStringC2ERK13QLatin1String@Base 4:4.7.90
 _ZN7QVectorI19QXmlStreamAttributeE7reallocEii@Base 4:4.7.90
 _ZN7QVectorI5QPairIf6QColorEED1Ev@Base 4:4.7.90
 _ZN7QVectorI5QPairIf6QColorEED2Ev@Base 4:4.7.90
 _ZN8KJSEmbed10extractIntEPN3KJS9ExecStateEPNS0_7JSValueEi@Base 4:4.3.4
 _ZN8KJSEmbed10extractIntEPN3KJS9ExecStateERKNS0_4ListEii@Base 4:4.3.4
 _ZN8KJSEmbed11ActionGroup10bindMethodEPN3KJS9ExecStateER11PointerBase@Base 4:4.3.4
 _ZN8KJSEmbed11ActionGroup10ctorMethodEPN3KJS9ExecStateERKNS1_4ListE@Base 4:4.3.4
 _ZN8KJSEmbed11ActionGroup13p_constructorE@Base 4:4.3.4
 _ZN8KJSEmbed11ActionGroup7p_enumsE@Base 4:4.3.4
 _ZN8KJSEmbed11ActionGroup9p_methodsE@Base 4:4.3.4
 _ZN8KJSEmbed11ActionGroup9p_staticsE@Base 4:4.3.4
 _ZN8KJSEmbed11ActionGroupC1EPN3KJS9ExecStateEP12QActionGroup@Base 4:4.3.4
 _ZN8KJSEmbed11ActionGroupC2EPN3KJS9ExecStateEP12QActionGroup@Base 4:4.3.4
 _ZN8KJSEmbed11ActionGroupD0Ev@Base 4:4.6.90
 _ZN8KJSEmbed11ActionGroupD1Ev@Base 4:4.6.90
 _ZN8KJSEmbed11ActionGroupD2Ev@Base 4:4.6.90
 _ZN8KJSEmbed11SlotBinding14callAsFunctionEPN3KJS9ExecStateEPNS1_8JSObjectERKNS1_4ListE@Base 4:4.3.4
 _ZN8KJSEmbed11SlotBindingC1EPN3KJS9ExecStateERK11QMetaMethod@Base 4:4.3.4
 _ZN8KJSEmbed11SlotBindingC2EPN3KJS9ExecStateERK11QMetaMethod@Base 4:4.3.4
 _ZN8KJSEmbed11SlotBindingD0Ev@Base 4:4.6.90
 _ZN8KJSEmbed11SlotBindingD1Ev@Base 4:4.6.90
 _ZN8KJSEmbed11SlotBindingD2Ev@Base 4:4.6.90
 _ZN8KJSEmbed11SvgRenderer10bindMethodEPN3KJS9ExecStateER11PointerBase@Base 4:4.3.4
 _ZN8KJSEmbed11SvgRenderer10ctorMethodEPN3KJS9ExecStateERKNS1_4ListE@Base 4:4.3.4
 _ZN8KJSEmbed11SvgRenderer13p_constructorE@Base 4:4.3.4
 _ZN8KJSEmbed11SvgRenderer7p_enumsE@Base 4:4.3.4
 _ZN8KJSEmbed11SvgRenderer9p_methodsE@Base 4:4.3.4
 _ZN8KJSEmbed11SvgRenderer9p_staticsE@Base 4:4.3.4
 _ZN8KJSEmbed11SvgRendererC1EPN3KJS9ExecStateEP12QSvgRenderer@Base 4:4.3.4
 _ZN8KJSEmbed11SvgRendererC2EPN3KJS9ExecStateEP12QSvgRenderer@Base 4:4.3.4
 _ZN8KJSEmbed11SvgRendererD0Ev@Base 4:4.6.90
 _ZN8KJSEmbed11SvgRendererD1Ev@Base 4:4.6.90
 _ZN8KJSEmbed11SvgRendererD2Ev@Base 4:4.6.90
 _ZN8KJSEmbed11extractBoolEPN3KJS9ExecStateERKNS0_4ListEib@Base 4:4.3.4
 _ZN8KJSEmbed12ProxyBindingC1EPN3KJS9ExecStateE@Base 4:4.3.4
 _ZN8KJSEmbed12ProxyBindingC2EPN3KJS9ExecStateE@Base 4:4.3.4
 _ZN8KJSEmbed12extractFloatEPN3KJS9ExecStateEPNS0_7JSValueEf@Base 4:4.3.4
 _ZN8KJSEmbed12extractFloatEPN3KJS9ExecStateERKNS0_4ListEif@Base 4:4.3.4
 _ZN8KJSEmbed12extractQDateEPN3KJS9ExecStateEPNS0_7JSValueERK5QDate@Base 4:4.3.4
 _ZN8KJSEmbed12extractQDateEPN3KJS9ExecStateERKNS0_4ListEiRK5QDate@Base 4:4.3.4
 _ZN8KJSEmbed12extractQTimeEPN3KJS9ExecStateEPNS0_7JSValueERK5QTime@Base 4:4.3.4
 _ZN8KJSEmbed12extractQTimeEPN3KJS9ExecStateERKNS0_4ListEiRK5QTime@Base 4:4.3.4
 _ZN8KJSEmbed13ObjectBinding12setOwnershipENS0_9OwnershipE@Base 4:4.3.4
 _ZN8KJSEmbed13ObjectBinding4infoE@Base 4:4.3.4
 _ZN8KJSEmbed13ObjectBindingD0Ev@Base 4:4.3.4
 _ZN8KJSEmbed13ObjectBindingD1Ev@Base 4:4.3.4
 _ZN8KJSEmbed13ObjectBindingD2Ev@Base 4:4.3.4
 _ZN8KJSEmbed13ObjectFactory13ObjectMethodsE@Base 4:4.3.4
 _ZN8KJSEmbed13StaticBinding14callAsFunctionEPN3KJS9ExecStateEPNS1_8JSObjectERKNS1_4ListE@Base 4:4.3.4
 _ZN8KJSEmbed13StaticBinding7publishEPN3KJS9ExecStateEPNS1_8JSObjectEPKNS_6MethodE@Base 4:4.3.4
 _ZN8KJSEmbed13StaticBindingC1EPN3KJS9ExecStateEPKNS_6MethodE@Base 4:4.3.4
 _ZN8KJSEmbed13StaticBindingC2EPN3KJS9ExecStateEPKNS_6MethodE@Base 4:4.3.4
 _ZN8KJSEmbed13StaticBindingD0Ev@Base 4:4.6.90
 _ZN8KJSEmbed13StaticBindingD1Ev@Base 4:4.6.90
 _ZN8KJSEmbed13StaticBindingD2Ev@Base 4:4.6.90
 _ZN8KJSEmbed13createQObjectEPN3KJS9ExecStateEP7QObjectNS_13ObjectBinding9OwnershipE@Base 4:4.3.4
 _ZN8KJSEmbed13extractDoubleEPN3KJS9ExecStateEPNS0_7JSValueEd@Base 4:4.3.4
 _ZN8KJSEmbed13extractDoubleEPN3KJS9ExecStateERKNS0_4ListEid@Base 4:4.3.4
 _ZN8KJSEmbed14QObjectBinding11watchObjectEP7QObject@Base 4:4.3.4
 _ZN8KJSEmbed14QObjectBinding14propertyGetterEPN3KJS9ExecStateEPNS1_8JSObjectERKNS1_10IdentifierERKNS1_12PropertySlotE@Base 4:4.3.4
 _ZN8KJSEmbed14QObjectBinding14publishQObjectEPN3KJS9ExecStateEPNS1_8JSObjectEP7QObject@Base 4:4.3.4
 _ZN8KJSEmbed14QObjectBinding18getOwnPropertySlotEPN3KJS9ExecStateERKNS1_10IdentifierERNS1_12PropertySlotE@Base 4:4.3.4
 _ZN8KJSEmbed14QObjectBinding3putEPN3KJS9ExecStateERKNS1_10IdentifierEPNS1_7JSValueEi@Base 4:4.3.4
 _ZN8KJSEmbed14QObjectBinding9setAccessE6QFlagsINS0_6AccessEE@Base 4:4.3.4
 _ZN8KJSEmbed14QObjectBindingC1EPN3KJS9ExecStateEP7QObject@Base 4:4.3.4
 _ZN8KJSEmbed14QObjectBindingC2EPN3KJS9ExecStateEP7QObject@Base 4:4.3.4
 _ZN8KJSEmbed14QObjectBindingD0Ev@Base 4:4.3.4
 _ZN8KJSEmbed14QObjectBindingD1Ev@Base 4:4.3.4
 _ZN8KJSEmbed14QObjectBindingD2Ev@Base 4:4.3.4
 _ZN8KJSEmbed14QWidgetBinding10bindMethodEPN3KJS9ExecStateER11PointerBase@Base 4:4.3.4
 _ZN8KJSEmbed14QWidgetBinding10ctorMethodEPN3KJS9ExecStateERKNS1_4ListE@Base 4:4.3.4
 _ZN8KJSEmbed14QWidgetBinding13p_constructorE@Base 4:4.3.4
 _ZN8KJSEmbed14QWidgetBinding7p_enumsE@Base 4:4.3.4
 _ZN8KJSEmbed14QWidgetBinding9p_methodsE@Base 4:4.3.4
 _ZN8KJSEmbed14QWidgetBinding9p_staticsE@Base 4:4.3.4
 _ZN8KJSEmbed14QWidgetBindingC1EPN3KJS9ExecStateEP7QWidget@Base 4:4.3.4
 _ZN8KJSEmbed14QWidgetBindingC2EPN3KJS9ExecStateEP7QWidget@Base 4:4.3.4
 _ZN8KJSEmbed14QWidgetBindingD0Ev@Base 4:4.6.90
 _ZN8KJSEmbed14QWidgetBindingD1Ev@Base 4:4.6.90
 _ZN8KJSEmbed14QWidgetBindingD2Ev@Base 4:4.6.90
 _ZN8KJSEmbed14VariantBinding4infoE@Base 4:4.3.4
 _ZN8KJSEmbed14VariantBinding7pointerEv@Base 4:4.3.4
 _ZN8KJSEmbed14VariantBinding8setValueERK8QVariant@Base 4:4.3.4
 _ZN8KJSEmbed14VariantBindingC1EPN3KJS9ExecStateERK8QVariant@Base 4:4.3.4
 _ZN8KJSEmbed14VariantBindingC2EPN3KJS9ExecStateERK8QVariant@Base 4:4.3.4
 _ZN8KJSEmbed14VariantFactory14VariantMethodsE@Base 4:4.3.4
 _ZN8KJSEmbed14convertToValueEPN3KJS9ExecStateERK8QVariant@Base 4:4.3.4
 _ZN8KJSEmbed14extractQStringEPN3KJS9ExecStateEPNS0_7JSValueE7QString@Base 4:4.3.4
 _ZN8KJSEmbed14extractQStringEPN3KJS9ExecStateERKNS0_4ListEi7QString@Base 4:4.3.4
 _ZN8KJSEmbed14extractVariantEPN3KJS9ExecStateEPNS0_7JSValueE@Base 4:4.3.4
 _ZN8KJSEmbed15SettingsBinding10bindMethodEPN3KJS9ExecStateER11PointerBase@Base 4:4.3.4
 _ZN8KJSEmbed15SettingsBinding10ctorMethodEPN3KJS9ExecStateERKNS1_4ListE@Base 4:4.3.4
 _ZN8KJSEmbed15SettingsBinding13p_constructorE@Base 4:4.3.4
 _ZN8KJSEmbed15SettingsBinding7p_enumsE@Base 4:4.3.4
 _ZN8KJSEmbed15SettingsBinding9p_methodsE@Base 4:4.3.4
 _ZN8KJSEmbed15SettingsBinding9p_staticsE@Base 4:4.3.4
 _ZN8KJSEmbed15SettingsBindingC1EPN3KJS9ExecStateEP9QSettings@Base 4:4.3.4
 _ZN8KJSEmbed15SettingsBindingC2EPN3KJS9ExecStateEP9QSettings@Base 4:4.3.4
 _ZN8KJSEmbed15SettingsBindingD0Ev@Base 4:4.6.90
 _ZN8KJSEmbed15SettingsBindingD1Ev@Base 4:4.6.90
 _ZN8KJSEmbed15SettingsBindingD2Ev@Base 4:4.6.90
 _ZN8KJSEmbed15UiLoaderBinding10bindMethodEPN3KJS9ExecStateER11PointerBase@Base 4:4.3.4
 _ZN8KJSEmbed15UiLoaderBinding10ctorMethodEPN3KJS9ExecStateERKNS1_4ListE@Base 4:4.3.4
 _ZN8KJSEmbed15UiLoaderBinding13p_constructorE@Base 4:4.3.4
 _ZN8KJSEmbed15UiLoaderBinding7p_enumsE@Base 4:4.3.4
 _ZN8KJSEmbed15UiLoaderBinding9p_methodsE@Base 4:4.3.4
 _ZN8KJSEmbed15UiLoaderBinding9p_staticsE@Base 4:4.3.4
 _ZN8KJSEmbed15UiLoaderBindingC1EPN3KJS9ExecStateEP9QUiLoader@Base 4:4.3.4
 _ZN8KJSEmbed15UiLoaderBindingC2EPN3KJS9ExecStateEP9QUiLoader@Base 4:4.3.4
 _ZN8KJSEmbed15UiLoaderBindingD0Ev@Base 4:4.6.90
 _ZN8KJSEmbed15UiLoaderBindingD1Ev@Base 4:4.6.90
 _ZN8KJSEmbed15UiLoaderBindingD2Ev@Base 4:4.6.90
 _ZN8KJSEmbed16convertToVariantEPN3KJS9ExecStateEPNS0_7JSValueE@Base 4:4.3.4
 _ZN8KJSEmbed16extractQDateTimeEPN3KJS9ExecStateEPNS0_7JSValueERK9QDateTime@Base 4:4.3.4
 _ZN8KJSEmbed16extractQDateTimeEPN3KJS9ExecStateERKNS0_4ListEiRK9QDateTime@Base 4:4.3.4
 _ZN8KJSEmbed17StaticConstructor11constructorERKN3KJS7UStringE@Base 4:4.3.4
 _ZN8KJSEmbed17StaticConstructor15setDefaultValueEPN3KJS7JSValueE@Base 4:4.3.4
 _ZN8KJSEmbed17StaticConstructor3addEPN3KJS9ExecStateEPNS1_8JSObjectEPKNS_11ConstructorE@Base 4:4.3.4
 _ZN8KJSEmbed17StaticConstructor4bindEPN3KJS9ExecStateERK7QStringR11PointerBase@Base 4:4.3.4
 _ZN8KJSEmbed17StaticConstructor7methodsERKN3KJS7UStringE@Base 4:4.3.4
 _ZN8KJSEmbed17StaticConstructor9constructEPN3KJS9ExecStateEPNS1_8JSObjectERKNS1_7UStringERKNS1_4ListE@Base 4:4.3.4
 _ZN8KJSEmbed17StaticConstructor9constructEPN3KJS9ExecStateERKNS1_4ListE@Base 4:4.3.4
 _ZN8KJSEmbed17StaticConstructorC1EPN3KJS9ExecStateEPKNS_11ConstructorE@Base 4:4.3.4
 _ZN8KJSEmbed17StaticConstructorC2EPN3KJS9ExecStateEPKNS_11ConstructorE@Base 4:4.3.4
 _ZN8KJSEmbed17StaticConstructorD0Ev@Base 4:4.6.90
 _ZN8KJSEmbed17StaticConstructorD1Ev@Base 4:4.6.90
 _ZN8KJSEmbed17StaticConstructorD2Ev@Base 4:4.6.90
 _ZN8KJSEmbed17convertArrayToMapEPN3KJS9ExecStateEPNS0_7JSValueE@Base 4:4.3.4
 _ZN8KJSEmbed17extractQByteArrayEPN3KJS9ExecStateEPNS0_7JSValueERK10QByteArray@Base 4:4.3.4
 _ZN8KJSEmbed17extractQByteArrayEPN3KJS9ExecStateERKNS0_4ListEiRK10QByteArray@Base 4:4.3.4
 _ZN8KJSEmbed18ApplicationBinding10bindMethodEPN3KJS9ExecStateER11PointerBase@Base 4:4.3.4
 _ZN8KJSEmbed18ApplicationBinding10ctorMethodEPN3KJS9ExecStateERKNS1_4ListE@Base 4:4.3.4
 _ZN8KJSEmbed18ApplicationBinding13p_constructorE@Base 4:4.3.4
 _ZN8KJSEmbed18ApplicationBinding7p_enumsE@Base 4:4.3.4
 _ZN8KJSEmbed18ApplicationBinding9p_methodsE@Base 4:4.3.4
 _ZN8KJSEmbed18ApplicationBinding9p_staticsE@Base 4:4.3.4
 _ZN8KJSEmbed18ApplicationBindingC1EPN3KJS9ExecStateEP12QApplication@Base 4:4.3.4
 _ZN8KJSEmbed18ApplicationBindingC2EPN3KJS9ExecStateEP12QApplication@Base 4:4.3.4
 _ZN8KJSEmbed18ApplicationBindingD0Ev@Base 4:4.6.90
 _ZN8KJSEmbed18ApplicationBindingD1Ev@Base 4:4.6.90
 _ZN8KJSEmbed18ApplicationBindingD2Ev@Base 4:4.6.90
 _ZN8KJSEmbed18convertArrayToListEPN3KJS9ExecStateEPNS0_7JSValueE@Base 4:4.3.4
 _ZN8KJSEmbed18extractQStringListEPN3KJS9ExecStateEPNS0_7JSValueERK11QStringList@Base 4:4.3.4
 _ZN8KJSEmbed18extractQStringListEPN3KJS9ExecStateERKNS0_4ListEiRK11QStringList@Base 4:4.3.4
 _ZN8KJSEmbed22CoreApplicationBinding10bindMethodEPN3KJS9ExecStateER11PointerBase@Base 4:4.3.4
 _ZN8KJSEmbed22CoreApplicationBinding10ctorMethodEPN3KJS9ExecStateERKNS1_4ListE@Base 4:4.3.4
 _ZN8KJSEmbed22CoreApplicationBinding13p_constructorE@Base 4:4.3.4
 _ZN8KJSEmbed22CoreApplicationBinding7p_enumsE@Base 4:4.3.4
 _ZN8KJSEmbed22CoreApplicationBinding9p_methodsE@Base 4:4.3.4
 _ZN8KJSEmbed22CoreApplicationBinding9p_staticsE@Base 4:4.3.4
 _ZN8KJSEmbed22CoreApplicationBindingC1EPN3KJS9ExecStateEP16QCoreApplication@Base 4:4.3.4
 _ZN8KJSEmbed22CoreApplicationBindingC2EPN3KJS9ExecStateEP16QCoreApplication@Base 4:4.3.4
 _ZN8KJSEmbed22CoreApplicationBindingD0Ev@Base 4:4.6.90
 _ZN8KJSEmbed22CoreApplicationBindingD1Ev@Base 4:4.6.90
 _ZN8KJSEmbed22CoreApplicationBindingD2Ev@Base 4:4.6.90
 _ZN8KJSEmbed24convertArrayToStringListEPN3KJS9ExecStateEPNS0_7JSValueE@Base 4:4.3.4
 _ZN8KJSEmbed5coninEv@Base 4:4.3.4
 _ZN8KJSEmbed6Action10bindMethodEPN3KJS9ExecStateER11PointerBase@Base 4:4.3.4
 _ZN8KJSEmbed6Action10ctorMethodEPN3KJS9ExecStateERKNS1_4ListE@Base 4:4.3.4
 _ZN8KJSEmbed6Action13p_constructorE@Base 4:4.3.4
 _ZN8KJSEmbed6Action7p_enumsE@Base 4:4.3.4
 _ZN8KJSEmbed6Action9p_methodsE@Base 4:4.3.4
 _ZN8KJSEmbed6Action9p_staticsE@Base 4:4.3.4
 _ZN8KJSEmbed6ActionC1EPN3KJS9ExecStateEP7QAction@Base 4:4.3.4
 _ZN8KJSEmbed6ActionC2EPN3KJS9ExecStateEP7QAction@Base 4:4.3.4
 _ZN8KJSEmbed6ActionD0Ev@Base 4:4.6.90
 _ZN8KJSEmbed6ActionD1Ev@Base 4:4.6.90
 _ZN8KJSEmbed6ActionD2Ev@Base 4:4.6.90
 _ZN8KJSEmbed6Engine10callMethodEPN3KJS8JSObjectERKNS1_7UStringERKNS1_4ListE@Base 4:4.3.4
 _ZN8KJSEmbed6Engine10callMethodERKN3KJS7UStringERKNS1_4ListE@Base 4:4.3.4
 _ZN8KJSEmbed6Engine7executeERKN3KJS7UStringE@Base 4:4.3.4
 _ZN8KJSEmbed6Engine7runFileEPN3KJS11InterpreterERKNS1_7UStringE@Base 4:4.3.4
 _ZN8KJSEmbed6Engine7runFileERKN3KJS7UStringE@Base 4:4.3.4
 _ZN8KJSEmbed6EngineC1Eb@Base 4:4.3.4
 _ZN8KJSEmbed6EngineC2Eb@Base 4:4.3.4
 _ZN8KJSEmbed6EngineD0Ev@Base 4:4.3.4
 _ZN8KJSEmbed6EngineD1Ev@Base 4:4.3.4
 _ZN8KJSEmbed6EngineD2Ev@Base 4:4.3.4
 _ZN8KJSEmbed6Layout10bindMethodEPN3KJS9ExecStateER11PointerBase@Base 4:4.3.4
 _ZN8KJSEmbed6Layout10ctorMethodEPN3KJS9ExecStateERKNS1_4ListE@Base 4:4.3.4
 _ZN8KJSEmbed6Layout13p_constructorE@Base 4:4.3.4
 _ZN8KJSEmbed6Layout7p_enumsE@Base 4:4.3.4
 _ZN8KJSEmbed6Layout9p_methodsE@Base 4:4.3.4
 _ZN8KJSEmbed6Layout9p_staticsE@Base 4:4.3.4
 _ZN8KJSEmbed6LayoutC1EPN3KJS9ExecStateEP7QLayout@Base 4:4.3.4
 _ZN8KJSEmbed6LayoutC2EPN3KJS9ExecStateEP7QLayout@Base 4:4.3.4
 _ZN8KJSEmbed6LayoutD0Ev@Base 4:4.6.90
 _ZN8KJSEmbed6LayoutD1Ev@Base 4:4.6.90
 _ZN8KJSEmbed6LayoutD2Ev@Base 4:4.6.90
 _ZN8KJSEmbed6conerrEv@Base 4:4.3.4
 _ZN8KJSEmbed6conoutEv@Base 4:4.3.4
 _ZN8KJSEmbed9SlotProxy10callMethodERK10QByteArrayPPv@Base 4:4.3.4
 _ZN8KJSEmbed9SlotProxy11qt_metacallEN11QMetaObject4CallEiPPv@Base 4:4.3.4
 _ZN8KJSEmbed9SlotProxy11qt_metacastEPKc@Base 4:4.3.4
 _ZN8KJSEmbed9SlotProxy16convertArgumentsEPN3KJS9ExecStateEPPv@Base 4:4.3.4
 _ZN8KJSEmbed9SlotProxyC1EPN3KJS8JSObjectEPNS1_11InterpreterEP7QObjectRK10QByteArray@Base 4:4.3.4
 _ZN8KJSEmbed9SlotProxyC2EPN3KJS8JSObjectEPNS1_11InterpreterEP7QObjectRK10QByteArray@Base 4:4.3.4
 _ZN8KJSEmbed9SlotProxyD0Ev@Base 4:4.3.4
 _ZN8KJSEmbed9SlotProxyD1Ev@Base 4:4.3.4
 _ZN8KJSEmbed9SlotProxyD2Ev@Base 4:4.3.4
 _ZN8KJSEmbed9SvgWidget10bindMethodEPN3KJS9ExecStateER11PointerBase@Base 4:4.3.4
 _ZN8KJSEmbed9SvgWidget10ctorMethodEPN3KJS9ExecStateERKNS1_4ListE@Base 4:4.3.4
 _ZN8KJSEmbed9SvgWidget13p_constructorE@Base 4:4.3.4
 _ZN8KJSEmbed9SvgWidget7p_enumsE@Base 4:4.3.4
 _ZN8KJSEmbed9SvgWidget9p_methodsE@Base 4:4.3.4
 _ZN8KJSEmbed9SvgWidget9p_staticsE@Base 4:4.3.4
 _ZN8KJSEmbed9SvgWidgetC1EPN3KJS9ExecStateEP10QSvgWidget@Base 4:4.3.4
 _ZN8KJSEmbed9SvgWidgetC2EPN3KJS9ExecStateEP10QSvgWidget@Base 4:4.3.4
 _ZN8KJSEmbed9SvgWidgetD0Ev@Base 4:4.6.90
 _ZN8KJSEmbed9SvgWidgetD1Ev@Base 4:4.6.90
 _ZN8KJSEmbed9SvgWidgetD2Ev@Base 4:4.6.90
 _ZN9QUiLoader11qt_metacallEN11QMetaObject4CallEiPPv@Base 4:4.7.90
 _ZN9QUiLoader11qt_metacastEPKc@Base 4:4.7.90
 _ZN9QUiLoader12createActionEP7QObjectRK7QString@Base 4:4.7.90
 _ZN9QUiLoader12createLayoutERK7QStringP7QObjectS2_@Base 4:4.7.90
 _ZN9QUiLoader12createWidgetERK7QStringP7QWidgetS2_@Base 4:4.7.90
 _ZN9QUiLoader13addPluginPathERK7QString@Base 4:4.7.90
 _ZN9QUiLoader16clearPluginPathsEv@Base 4:4.7.90
 _ZN9QUiLoader16staticMetaObjectE@Base 4:4.7.90
 _ZN9QUiLoader17createActionGroupEP7QObjectRK7QString@Base 4:4.7.90
 _ZN9QUiLoader19setScriptingEnabledEb@Base 4:4.7.90
 _ZN9QUiLoader19setWorkingDirectoryERK4QDir@Base 4:4.7.90
 _ZN9QUiLoader21setTranslationEnabledEb@Base 4:4.7.90
 _ZN9QUiLoader24setLanguageChangeEnabledEb@Base 4:4.7.90
 _ZN9QUiLoader4loadEP9QIODeviceP7QWidget@Base 4:4.7.90
 _ZN9QUiLoaderC1EP7QObject@Base 4:4.7.90
 _ZN9QUiLoaderC2EP7QObject@Base 4:4.7.90
 _ZN9QUiLoaderD0Ev@Base 4:4.7.90
 _ZN9QUiLoaderD1Ev@Base 4:4.7.90
 _ZN9QUiLoaderD2Ev@Base 4:4.7.90
 _ZNK11QDockWidget13isAreaAllowedEN2Qt14DockWidgetAreaE@Base 4:4.7.90
 _ZNK13QFormInternal10DomInclude5writeER16QXmlStreamWriterRK7QString@Base 4:4.7.90
 _ZNK13QFormInternal10DomPalette5writeER16QXmlStreamWriterRK7QString@Base 4:4.7.90
 _ZNK13QFormInternal11DomDateTime5writeER16QXmlStreamWriterRK7QString@Base 4:4.7.90
 _ZNK13QFormInternal11DomGradient5writeER16QXmlStreamWriterRK7QString@Base 4:4.7.90
 _ZNK13QFormInternal11DomIncludes5writeER16QXmlStreamWriterRK7QString@Base 4:4.7.90
 _ZNK13QFormInternal11DomProperty5writeER16QXmlStreamWriterRK7QString@Base 4:4.7.90
 _ZNK13QFormInternal11DomResource5writeER16QXmlStreamWriterRK7QString@Base 4:4.7.90
 _ZNK13QFormInternal11DomTabStops5writeER16QXmlStreamWriterRK7QString@Base 4:4.7.90
 _ZNK13QFormInternal12DomActionRef5writeER16QXmlStreamWriterRK7QString@Base 4:4.7.90
 _ZNK13QFormInternal12DomColorRole5writeER16QXmlStreamWriterRK7QString@Base 4:4.7.90
 _ZNK13QFormInternal12DomImageData5writeER16QXmlStreamWriterRK7QString@Base 4:4.7.90
 _ZNK13QFormInternal12DomResources5writeER16QXmlStreamWriterRK7QString@Base 4:4.7.90
 _ZNK13QFormInternal12QFormBuilder11pluginPathsEv@Base 4:4.7.90
 _ZNK13QFormInternal12QFormBuilder13customWidgetsEv@Base 4:4.7.90
 _ZNK13QFormInternal12QTextBuilder13toNativeValueERK8QVariant@Base 4:4.7.90
 _ZNK13QFormInternal12QTextBuilder8loadTextEPKNS_11DomPropertyE@Base 4:4.7.90
 _ZNK13QFormInternal12QTextBuilder8saveTextERK8QVariant@Base 4:4.7.90
 _ZNK13QFormInternal13DomColorGroup5writeER16QXmlStreamWriterRK7QString@Base 4:4.7.90
 _ZNK13QFormInternal13DomConnection5writeER16QXmlStreamWriterRK7QString@Base 4:4.7.90
 _ZNK13QFormInternal13DomLayoutItem5writeER16QXmlStreamWriterRK7QString@Base 4:4.7.90
 _ZNK13QFormInternal13DomProperties5writeER16QXmlStreamWriterRK7QString@Base 4:4.7.90
 _ZNK13QFormInternal13DomSizePolicy5writeER16QXmlStreamWriterRK7QString@Base 4:4.7.90
 _ZNK13QFormInternal13DomStringList5writeER16QXmlStreamWriterRK7QString@Base 4:4.7.90
 _ZNK13QFormInternal13DomWidgetData5writeER16QXmlStreamWriterRK7QString@Base 4:4.7.90
 _ZNK13QFormInternal14DomActionGroup5writeER16QXmlStreamWriterRK7QString@Base 4:4.7.90
 _ZNK13QFormInternal14DomButtonGroup5writeER16QXmlStreamWriterRK7QString@Base 4:4.7.90
 _ZNK13QFormInternal14DomConnections5writeER16QXmlStreamWriterRK7QString@Base 4:4.7.90
 _ZNK13QFormInternal15DomButtonGroups5writeER16QXmlStreamWriterRK7QString@Base 4:4.7.90
 _ZNK13QFormInternal15DomCustomWidget5writeER16QXmlStreamWriterRK7QString@Base 4:4.7.90
 _ZNK13QFormInternal15DomDesignerData5writeER16QXmlStreamWriterRK7QString@Base 4:4.7.90
 _ZNK13QFormInternal15DomGradientStop5writeER16QXmlStreamWriterRK7QString@Base 4:4.7.90
 _ZNK13QFormInternal15DomPropertyData5writeER16QXmlStreamWriterRK7QString@Base 4:4.7.90
 _ZNK13QFormInternal15DomResourceIcon5writeER16QXmlStreamWriterRK7QString@Base 4:4.7.90
 _ZNK13QFormInternal16DomCustomWidgets5writeER16QXmlStreamWriterRK7QString@Base 4:4.7.90
 _ZNK13QFormInternal16DomLayoutDefault5writeER16QXmlStreamWriterRK7QString@Base 4:4.7.90
 _ZNK13QFormInternal16QResourceBuilder12loadResourceERK4QDirPKNS_11DomPropertyE@Base 4:4.7.90
 _ZNK13QFormInternal16QResourceBuilder12saveResourceERK4QDirRK8QVariant@Base 4:4.7.90
 _ZNK13QFormInternal16QResourceBuilder13toNativeValueERK8QVariant@Base 4:4.7.90
 _ZNK13QFormInternal16QResourceBuilder14isResourceTypeERK8QVariant@Base 4:4.7.90
 _ZNK13QFormInternal16QResourceBuilder18isResourcePropertyEPKNS_11DomPropertyE@Base 4:4.7.90
 _ZNK13QFormInternal17DomConnectionHint5writeER16QXmlStreamWriterRK7QString@Base 4:4.7.90
 _ZNK13QFormInternal17DomLayoutFunction5writeER16QXmlStreamWriterRK7QString@Base 4:4.7.90
 _ZNK13QFormInternal17DomResourcePixmap5writeER16QXmlStreamWriterRK7QString@Base 4:4.7.90
 _ZNK13QFormInternal17DomSizePolicyData5writeER16QXmlStreamWriterRK7QString@Base 4:4.7.90
 _ZNK13QFormInternal17QFormBuilderExtra11textBuilderEv@Base 4:4.7.90
 _ZNK13QFormInternal17QFormBuilderExtra12parentWidgetEv@Base 4:4.7.90
 _ZNK13QFormInternal17QFormBuilderExtra15resourceBuilderEv@Base 4:4.7.90
 _ZNK13QFormInternal17QFormBuilderExtra17parentWidgetIsSetEv@Base 4:4.7.90
 _ZNK13QFormInternal17QFormBuilderExtra21customWidgetBaseClassERK7QString@Base 4:4.7.90
 _ZNK13QFormInternal17QFormBuilderExtra22processingLayoutWidgetEv@Base 4:4.7.90
 _ZNK13QFormInternal17QFormBuilderExtra23applyInternalPropertiesEv@Base 4:4.7.90
 _ZNK13QFormInternal17QFormBuilderExtra23isCustomWidgetContainerERK7QString@Base 4:4.7.90
 _ZNK13QFormInternal17QFormBuilderExtra25customWidgetAddPageMethodERK7QString@Base 4:4.7.90
 _ZNK13QFormInternal18DomConnectionHints5writeER16QXmlStreamWriterRK7QString@Base 4:4.7.90
 _ZNK13QFormInternal18TranslationWatcher10metaObjectEv@Base 4:4.7.90
 _ZNK13QFormInternal20QAbstractFormBuilder11pixmapPathsERK7QPixmap@Base 4:4.7.90
 _ZNK13QFormInternal20QAbstractFormBuilder11textBuilderEv@Base 4:4.7.90
 _ZNK13QFormInternal20QAbstractFormBuilder12saveResourceERK8QVariant@Base 4:4.7.90
 _ZNK13QFormInternal20QAbstractFormBuilder13checkPropertyEP7QObjectRK7QString@Base 4:4.7.90
 _ZNK13QFormInternal20QAbstractFormBuilder13iconToQrcPathERK5QIcon@Base 4:4.7.90
 _ZNK13QFormInternal20QAbstractFormBuilder14iconToFilePathERK5QIcon@Base 4:4.7.90
 _ZNK13QFormInternal20QAbstractFormBuilder15pixmapToQrcPathERK7QPixmap@Base 4:4.7.90
 _ZNK13QFormInternal20QAbstractFormBuilder15resourceBuilderEv@Base 4:4.7.90
 _ZNK13QFormInternal20QAbstractFormBuilder15setIconPropertyERNS_11DomPropertyERK5QPairI7QStringS4_E@Base 4:4.7.90
 _ZNK13QFormInternal20QAbstractFormBuilder16pixmapToFilePathERK7QPixmap@Base 4:4.7.90
 _ZNK13QFormInternal20QAbstractFormBuilder16workingDirectoryEv@Base 4:4.7.90
 _ZNK13QFormInternal20QAbstractFormBuilder17iconToDomPropertyERK5QIcon@Base 4:4.7.90
 _ZNK13QFormInternal20QAbstractFormBuilder17setPixmapPropertyERNS_11DomPropertyERK5QPairI7QStringS4_E@Base 4:4.7.90
 _ZNK13QFormInternal20QAbstractFormBuilder18isScriptingEnabledEv@Base 4:4.7.90
 _ZNK13QFormInternal20QAbstractFormBuilder8saveTextERK7QStringRK8QVariant@Base 4:4.7.90
 _ZNK13QFormInternal20QAbstractFormBuilder9iconPathsERK5QIcon@Base 4:4.7.90
 _ZNK13QFormInternal22TranslatingTextBuilder13toNativeValueERK8QVariant@Base 4:4.7.90
 _ZNK13QFormInternal22TranslatingTextBuilder8loadTextEPKNS_11DomPropertyE@Base 4:4.7.90
 _ZNK13QFormInternal25DomPropertySpecifications5writeER16QXmlStreamWriterRK7QString@Base 4:4.7.90
 _ZNK13QFormInternal26QAbstractFormBuilderGadget10metaObjectEv@Base 4:4.7.90
 _ZNK13QFormInternal30DomStringPropertySpecification5writeER16QXmlStreamWriterRK7QString@Base 4:4.7.90
 _ZNK13QFormInternal5DomUI5writeER16QXmlStreamWriterRK7QString@Base 4:4.7.90
 _ZNK13QFormInternal6DomRow5writeER16QXmlStreamWriterRK7QString@Base 4:4.7.90
 _ZNK13QFormInternal6DomUrl5writeER16QXmlStreamWriterRK7QString@Base 4:4.7.90
 _ZNK13QFormInternal7DomChar5writeER16QXmlStreamWriterRK7QString@Base 4:4.7.90
 _ZNK13QFormInternal7DomDate5writeER16QXmlStreamWriterRK7QString@Base 4:4.7.90
 _ZNK13QFormInternal7DomFont5writeER16QXmlStreamWriterRK7QString@Base 4:4.7.90
 _ZNK13QFormInternal7DomItem5writeER16QXmlStreamWriterRK7QString@Base 4:4.7.90
 _ZNK13QFormInternal7DomRect5writeER16QXmlStreamWriterRK7QString@Base 4:4.7.90
 _ZNK13QFormInternal7DomSize5writeER16QXmlStreamWriterRK7QString@Base 4:4.7.90
 _ZNK13QFormInternal7DomTime5writeER16QXmlStreamWriterRK7QString@Base 4:4.7.90
 _ZNK13QFormInternal8DomBrush5writeER16QXmlStreamWriterRK7QString@Base 4:4.7.90
 _ZNK13QFormInternal8DomColor5writeER16QXmlStreamWriterRK7QString@Base 4:4.7.90
 _ZNK13QFormInternal8DomImage5writeER16QXmlStreamWriterRK7QString@Base 4:4.7.90
 _ZNK13QFormInternal8DomPoint5writeER16QXmlStreamWriterRK7QString@Base 4:4.7.90
 _ZNK13QFormInternal8DomRectF5writeER16QXmlStreamWriterRK7QString@Base 4:4.7.90
 _ZNK13QFormInternal8DomSizeF5writeER16QXmlStreamWriterRK7QString@Base 4:4.7.90
 _ZNK13QFormInternal8DomSlots5writeER16QXmlStreamWriterRK7QString@Base 4:4.7.90
 _ZNK13QFormInternal9DomAction5writeER16QXmlStreamWriterRK7QString@Base 4:4.7.90
 _ZNK13QFormInternal9DomColumn5writeER16QXmlStreamWriterRK7QString@Base 4:4.7.90
 _ZNK13QFormInternal9DomHeader5writeER16QXmlStreamWriterRK7QString@Base 4:4.7.90
 _ZNK13QFormInternal9DomImages5writeER16QXmlStreamWriterRK7QString@Base 4:4.7.90
 _ZNK13QFormInternal9DomLayout5writeER16QXmlStreamWriterRK7QString@Base 4:4.7.90
 _ZNK13QFormInternal9DomLocale5writeER16QXmlStreamWriterRK7QString@Base 4:4.7.90
 _ZNK13QFormInternal9DomPointF5writeER16QXmlStreamWriterRK7QString@Base 4:4.7.90
 _ZNK13QFormInternal9DomScript5writeER16QXmlStreamWriterRK7QString@Base 4:4.7.90
 _ZNK13QFormInternal9DomSpacer5writeER16QXmlStreamWriterRK7QString@Base 4:4.7.90
 _ZNK13QFormInternal9DomString5writeER16QXmlStreamWriterRK7QString@Base 4:4.7.90
 _ZNK13QFormInternal9DomWidget5writeER16QXmlStreamWriterRK7QString@Base 4:4.7.90
 _ZNK16QUiLoaderPrivate14setupWidgetMapEv@Base 4:4.7.90
 _ZNK3KJS10Identifier7qstringEv@Base 4:4.3.4
 _ZNK3KJS7UString7qstringEv@Base 4:4.3.4
 _ZNK3KJS8JSObject11toPrimitiveEPNS_9ExecStateENS_6JSTypeE@Base 4:4.3.4
 _ZNK4QMapI7QStringP30QDesignerCustomWidgetInterfaceE6valuesEv@Base 4:4.7.90
 _ZNK4QMapI7QStringbE4keysEv@Base 4:4.7.90
 _ZNK5QHashI10QByteArraybE4keysEv@Base 4:4.7.90
 _ZNK5QHashI10QByteArraybE8findNodeERKS0_Pj@Base 4:4.7.90
 _ZNK5QHashI7QString5QPairIN2Qt12ItemDataRoleES3_EE8findNodeERKS0_Pj@Base 4:4.7.90
 _ZNK5QHashI7QString5QPairIPN13QFormInternal14DomButtonGroupEP12QButtonGroupEE8findNodeERKS0_Pj@Base 4:4.7.90
 _ZNK5QHashI7QStringN13QFormInternal17QFormBuilderExtra16CustomWidgetDataEE8findNodeERKS0_Pj@Base 4:4.7.90
 _ZNK5QHashI7QStringN2Qt12ItemDataRoleEE8findNodeERKS0_Pj@Base 4:4.7.90
 _ZNK5QHashI7QStringP12QActionGroupE8findNodeERKS0_Pj@Base 4:4.7.90
 _ZNK5QHashI7QStringP7QActionE8findNodeERKS0_Pj@Base 4:4.7.90
 _ZNK5QHashI7QStringPN13QFormInternal11DomPropertyEE5valueERKS0_@Base 4:4.7.90
 _ZNK5QHashI7QStringPN13QFormInternal11DomPropertyEE8findNodeERKS0_Pj@Base 4:4.7.90
 _ZNK5QListIP7QObjectE7indexOfERKS1_i@Base 4:4.8.0
 _ZNK5QListIP7QWidgetE7indexOfERKS1_i@Base 4:4.8.0
 _ZNK8KJSEmbed13ObjectBinding4typeEv@Base 4:4.3.4
 _ZNK8KJSEmbed13ObjectBinding8toStringEPN3KJS9ExecStateE@Base 4:4.3.4
 _ZNK8KJSEmbed13ObjectBinding8typeNameEv@Base 4:4.3.4
 _ZNK8KJSEmbed13ObjectBinding9classNameEv@Base 4:4.3.4
 _ZNK8KJSEmbed13ObjectBinding9ownershipEv@Base 4:4.3.4
 _ZNK8KJSEmbed14QObjectBinding6accessEv@Base 4:4.3.4
 _ZNK8KJSEmbed14QObjectBinding6canPutEPN3KJS9ExecStateERKNS1_10IdentifierE@Base 4:4.3.4
 _ZNK8KJSEmbed14QObjectBinding8toStringEPN3KJS9ExecStateE@Base 4:4.3.4
 _ZNK8KJSEmbed14QObjectBinding9classNameEv@Base 4:4.3.4
 _ZNK8KJSEmbed14VariantBinding3argEPKc@Base 4:4.3.4
 _ZNK8KJSEmbed14VariantBinding7variantEv@Base 4:4.3.4
 _ZNK8KJSEmbed14VariantBinding8toStringEPN3KJS9ExecStateE@Base 4:4.3.4
 _ZNK8KJSEmbed14VariantBinding9classNameEv@Base 4:4.3.4
 _ZNK8KJSEmbed17StaticConstructor12defaultValueEPN3KJS9ExecStateENS1_6JSTypeE@Base 4:4.3.4
 _ZNK8KJSEmbed6Engine10completionEv@Base 4:4.3.4
 _ZNK8KJSEmbed6Engine11interpreterEv@Base 4:4.3.4
 _ZNK8KJSEmbed6Engine17isBindingsEnabledEv@Base 4:4.3.4
 _ZNK8KJSEmbed6Engine9addObjectEP7QObjectPN3KJS8JSObjectERKNS3_7UStringE@Base 4:4.3.4
 _ZNK8KJSEmbed6Engine9addObjectEP7QObjectRKN3KJS7UStringE@Base 4:4.3.4
 _ZNK8KJSEmbed6Engine9constructERKN3KJS7UStringERKNS1_4ListE@Base 4:4.3.4
 _ZNK8KJSEmbed9SlotProxy10metaObjectEv@Base 4:4.3.4
 _ZNK9QUiLoader10metaObjectEv@Base 4:4.7.90
 _ZNK9QUiLoader11pluginPathsEv@Base 4:4.7.90
 _ZNK9QUiLoader16availableLayoutsEv@Base 4:4.7.90
 _ZNK9QUiLoader16availableWidgetsEv@Base 4:4.7.90
 _ZNK9QUiLoader16workingDirectoryEv@Base 4:4.7.90
 _ZNK9QUiLoader18isScriptingEnabledEv@Base 4:4.7.90
 _ZNK9QUiLoader20isTranslationEnabledEv@Base 4:4.7.90
 _ZNK9QUiLoader23isLanguageChangeEnabledEv@Base 4:4.7.90
 _ZTI9QUiLoader@Base 4:4.7.90
 _ZTIN13QFormInternal12QFormBuilderE@Base 4:4.7.90
 _ZTIN13QFormInternal12QTextBuilderE@Base 4:4.7.90
 _ZTIN13QFormInternal16QResourceBuilderE@Base 4:4.7.90
 _ZTIN13QFormInternal18FormBuilderPrivateE@Base 4:4.7.90
 _ZTIN13QFormInternal18TranslationWatcherE@Base 4:4.7.90
 _ZTIN13QFormInternal20QAbstractFormBuilderE@Base 4:4.7.90
 _ZTIN13QFormInternal22TranslatingTextBuilderE@Base 4:4.7.90
 _ZTIN13QFormInternal26QAbstractFormBuilderGadgetE@Base 4:4.7.90
 _ZTIN14WTFNoncopyable11NoncopyableE@Base 4:4.3.4
 _ZTIN3KJS7JSValueE@Base 4:4.3.4
 _ZTIN8KJSEmbed11ActionGroupE@Base 4:4.3.4
 _ZTIN8KJSEmbed11SlotBindingE@Base 4:4.3.4
 _ZTIN8KJSEmbed11SvgRendererE@Base 4:4.3.4
 _ZTIN8KJSEmbed12ProxyBindingE@Base 4:4.3.4
 _ZTIN8KJSEmbed13ObjectBindingE@Base 4:4.3.4
 _ZTIN8KJSEmbed13StaticBindingE@Base 4:4.3.4
 _ZTIN8KJSEmbed14QObjectBindingE@Base 4:4.3.4
 _ZTIN8KJSEmbed14QWidgetBindingE@Base 4:4.3.4
 _ZTIN8KJSEmbed14VariantBindingE@Base 4:4.3.4
 _ZTIN8KJSEmbed15SettingsBindingE@Base 4:4.3.4
 _ZTIN8KJSEmbed15UiLoaderBindingE@Base 4:4.3.4
 _ZTIN8KJSEmbed17StaticConstructorE@Base 4:4.3.4
 _ZTIN8KJSEmbed18ApplicationBindingE@Base 4:4.3.4
 _ZTIN8KJSEmbed22CoreApplicationBindingE@Base 4:4.3.4
 _ZTIN8KJSEmbed6ActionE@Base 4:4.3.4
 _ZTIN8KJSEmbed6EngineE@Base 4:4.3.4
 _ZTIN8KJSEmbed6LayoutE@Base 4:4.3.4
 _ZTIN8KJSEmbed9SlotProxyE@Base 4:4.3.4
 _ZTIN8KJSEmbed9SvgWidgetE@Base 4:4.3.4
 _ZTS9QUiLoader@Base 4:4.7.90
 _ZTSN13QFormInternal12QFormBuilderE@Base 4:4.7.90
 _ZTSN13QFormInternal12QTextBuilderE@Base 4:4.7.90
 _ZTSN13QFormInternal16QResourceBuilderE@Base 4:4.7.90
 _ZTSN13QFormInternal18FormBuilderPrivateE@Base 4:4.7.90
 _ZTSN13QFormInternal18TranslationWatcherE@Base 4:4.7.90
 _ZTSN13QFormInternal20QAbstractFormBuilderE@Base 4:4.7.90
 _ZTSN13QFormInternal22TranslatingTextBuilderE@Base 4:4.7.90
 _ZTSN13QFormInternal26QAbstractFormBuilderGadgetE@Base 4:4.7.90
 _ZTSN14WTFNoncopyable11NoncopyableE@Base 4:4.3.4
 _ZTSN3KJS7JSValueE@Base 4:4.3.4
 _ZTSN8KJSEmbed11ActionGroupE@Base 4:4.3.4
 _ZTSN8KJSEmbed11SlotBindingE@Base 4:4.3.4
 _ZTSN8KJSEmbed11SvgRendererE@Base 4:4.3.4
 _ZTSN8KJSEmbed12ProxyBindingE@Base 4:4.3.4
 _ZTSN8KJSEmbed13ObjectBindingE@Base 4:4.3.4
 _ZTSN8KJSEmbed13StaticBindingE@Base 4:4.3.4
 _ZTSN8KJSEmbed14QObjectBindingE@Base 4:4.3.4
 _ZTSN8KJSEmbed14QWidgetBindingE@Base 4:4.3.4
 _ZTSN8KJSEmbed14VariantBindingE@Base 4:4.3.4
 _ZTSN8KJSEmbed15SettingsBindingE@Base 4:4.3.4
 _ZTSN8KJSEmbed15UiLoaderBindingE@Base 4:4.3.4
 _ZTSN8KJSEmbed17StaticConstructorE@Base 4:4.3.4
 _ZTSN8KJSEmbed18ApplicationBindingE@Base 4:4.3.4
 _ZTSN8KJSEmbed22CoreApplicationBindingE@Base 4:4.3.4
 _ZTSN8KJSEmbed6ActionE@Base 4:4.3.4
 _ZTSN8KJSEmbed6EngineE@Base 4:4.3.4
 _ZTSN8KJSEmbed6LayoutE@Base 4:4.3.4
 _ZTSN8KJSEmbed9SlotProxyE@Base 4:4.3.4
 _ZTSN8KJSEmbed9SvgWidgetE@Base 4:4.3.4
 _ZTV9QUiLoader@Base 4:4.7.90
 _ZTVN13QFormInternal12QFormBuilderE@Base 4:4.7.90
 _ZTVN13QFormInternal12QTextBuilderE@Base 4:4.7.90
 _ZTVN13QFormInternal16QResourceBuilderE@Base 4:4.7.90
 _ZTVN13QFormInternal18FormBuilderPrivateE@Base 4:4.7.90
 _ZTVN13QFormInternal18TranslationWatcherE@Base 4:4.7.90
 _ZTVN13QFormInternal20QAbstractFormBuilderE@Base 4:4.7.90
 _ZTVN13QFormInternal22TranslatingTextBuilderE@Base 4:4.7.90
 _ZTVN13QFormInternal26QAbstractFormBuilderGadgetE@Base 4:4.7.90
 _ZTVN3KJS7JSValueE@Base 4:4.3.4
 _ZTVN8KJSEmbed11ActionGroupE@Base 4:4.3.4
 _ZTVN8KJSEmbed11SlotBindingE@Base 4:4.3.4
 _ZTVN8KJSEmbed11SvgRendererE@Base 4:4.3.4
 _ZTVN8KJSEmbed12ProxyBindingE@Base 4:4.3.4
 _ZTVN8KJSEmbed13ObjectBindingE@Base 4:4.3.4
 _ZTVN8KJSEmbed13StaticBindingE@Base 4:4.3.4
 _ZTVN8KJSEmbed14QObjectBindingE@Base 4:4.3.4
 _ZTVN8KJSEmbed14QWidgetBindingE@Base 4:4.3.4
 _ZTVN8KJSEmbed14VariantBindingE@Base 4:4.3.4
 _ZTVN8KJSEmbed15SettingsBindingE@Base 4:4.3.4
 _ZTVN8KJSEmbed15UiLoaderBindingE@Base 4:4.3.4
 _ZTVN8KJSEmbed17StaticConstructorE@Base 4:4.3.4
 _ZTVN8KJSEmbed18ApplicationBindingE@Base 4:4.3.4
 _ZTVN8KJSEmbed22CoreApplicationBindingE@Base 4:4.3.4
 _ZTVN8KJSEmbed6ActionE@Base 4:4.3.4
 _ZTVN8KJSEmbed6EngineE@Base 4:4.3.4
 _ZTVN8KJSEmbed6LayoutE@Base 4:4.3.4
 _ZTVN8KJSEmbed9SlotProxyE@Base 4:4.3.4
 _ZTVN8KJSEmbed9SvgWidgetE@Base 4:4.3.4
 _ZThn8_N13QFormInternal26QAbstractFormBuilderGadgetD0Ev@Base 4:4.7.90
 _ZThn8_N13QFormInternal26QAbstractFormBuilderGadgetD1Ev@Base 4:4.7.90
 _ZZN11QMetaTypeIdI26QUiTranslatableStringValueE14qt_metatype_idEvE11metatype_id@Base 4:4.7.90
 _ZZN11QMetaTypeIdI5QListIP7QWidgetEE14qt_metatype_idEvE11metatype_id@Base 4:4.7.90
