libnepomuksync.so.4 libnepomuksync4 #MINVER#
 _ZN7Nepomuk4Sync12ResourceHash17fromStatementListERK5QListIN7Soprano9StatementEE@Base 4:4.8.1
 _ZN7Nepomuk4Sync12ResourceHash9fromGraphERKN7Soprano5GraphE@Base 4:4.8.1
 _ZN7Nepomuk4Sync12SyncResource12removeObjectERK4KUrl@Base 4:4.8.1
 _ZN7Nepomuk4Sync12SyncResource6setUriERKN7Soprano4NodeE@Base 4:4.8.1
 _ZN7Nepomuk4Sync12SyncResourceC1ERK4KUrl@Base 4:4.8.1
 _ZN7Nepomuk4Sync12SyncResourceC1ERKS1_@Base 4:4.8.1
 _ZN7Nepomuk4Sync12SyncResourceC1Ev@Base 4:4.8.1
 _ZN7Nepomuk4Sync12SyncResourceC2ERK4KUrl@Base 4:4.8.1
 _ZN7Nepomuk4Sync12SyncResourceC2ERKS1_@Base 4:4.8.1
 _ZN7Nepomuk4Sync12SyncResourceC2Ev@Base 4:4.8.1
 _ZN7Nepomuk4Sync12SyncResourceD0Ev@Base 4:4.8.1
 _ZN7Nepomuk4Sync12SyncResourceD1Ev@Base 4:4.8.1
 _ZN7Nepomuk4Sync12SyncResourceD2Ev@Base 4:4.8.1
 _ZN7Nepomuk4Sync12SyncResourceaSERKS1_@Base 4:4.8.1
 _ZN7Nepomuk4Sync14ResourceMerger11createGraphEv@Base 4:4.8.1
 _ZN7Nepomuk4Sync14ResourceMerger11setMappingsERK5QHashI4KUrlS3_E@Base 4:4.8.1
 _ZN7Nepomuk4Sync14ResourceMerger12addStatementERKN7Soprano4NodeES5_S5_S5_@Base 4:4.8.1
 _ZN7Nepomuk4Sync14ResourceMerger12addStatementERKN7Soprano9StatementE@Base 4:4.8.1
 _ZN7Nepomuk4Sync14ResourceMerger14createGraphUriEv@Base 4:4.8.1
 _ZN7Nepomuk4Sync14ResourceMerger14mergeStatementERKN7Soprano9StatementE@Base 4:4.8.1
 _ZN7Nepomuk4Sync14ResourceMerger16resolveDuplicateERKN7Soprano9StatementE@Base 4:4.8.1
 _ZN7Nepomuk4Sync14ResourceMerger16resolveStatementERN7Soprano9StatementE@Base 4:4.8.1
 _ZN7Nepomuk4Sync14ResourceMerger17createResourceUriEv@Base 4:4.8.1
 _ZN7Nepomuk4Sync14ResourceMerger26setAdditionalGraphMetadataERK10QMultiHashI4QUrlN7Soprano4NodeEE@Base 4:4.8.1
 _ZN7Nepomuk4Sync14ResourceMerger27resolveUnidentifiedResourceERK4KUrl@Base 4:4.8.1
 _ZN7Nepomuk4Sync14ResourceMerger4pushERKN7Soprano9StatementE@Base 4:4.8.1
 _ZN7Nepomuk4Sync14ResourceMerger5graphEv@Base 4:4.8.1
 _ZN7Nepomuk4Sync14ResourceMerger5mergeERKN7Soprano5GraphE@Base 4:4.8.1
 _ZN7Nepomuk4Sync14ResourceMerger7Private4pushERKN7Soprano9StatementE@Base 4:4.8.1
 _ZN7Nepomuk4Sync14ResourceMerger7Private7resolveERKN7Soprano4NodeE@Base 4:4.8.1
 _ZN7Nepomuk4Sync14ResourceMerger7PrivateC1EPS1_@Base 4:4.8.1
 _ZN7Nepomuk4Sync14ResourceMerger7PrivateC2EPS1_@Base 4:4.8.1
 _ZN7Nepomuk4Sync14ResourceMerger8setModelEPN7Soprano5ModelE@Base 4:4.8.1
 _ZN7Nepomuk4Sync14ResourceMergerC1EPN7Soprano5ModelERK5QHashI4KUrlS6_E@Base 4:4.8.1
 _ZN7Nepomuk4Sync14ResourceMergerC2EPN7Soprano5ModelERK5QHashI4KUrlS6_E@Base 4:4.8.1
 _ZN7Nepomuk4Sync14ResourceMergerD0Ev@Base 4:4.8.1
 _ZN7Nepomuk4Sync14ResourceMergerD1Ev@Base 4:4.8.1
 _ZN7Nepomuk4Sync14ResourceMergerD2Ev@Base 4:4.8.1
 _ZN7Nepomuk4Sync18ResourceIdentifier10statementsERK4KUrl@Base 4:4.8.1
 _ZN7Nepomuk4Sync18ResourceIdentifier11identifyAllEv@Base 4:4.8.1
 _ZN7Nepomuk4Sync18ResourceIdentifier12addStatementERKN7Soprano9StatementE@Base 4:4.8.1
 _ZN7Nepomuk4Sync18ResourceIdentifier13addStatementsERK5QListIN7Soprano9StatementEE@Base 4:4.8.1
 _ZN7Nepomuk4Sync18ResourceIdentifier13addStatementsERKN7Soprano5GraphE@Base 4:4.8.1
 _ZN7Nepomuk4Sync18ResourceIdentifier13forceResourceERK4KUrlRKNS_8ResourceE@Base 4:4.8.1
 _ZN7Nepomuk4Sync18ResourceIdentifier14duplicateMatchERK4KUrlRK4QSetIS2_E@Base 4:4.8.1
 _ZN7Nepomuk4Sync18ResourceIdentifier14simpleResourceERK4KUrl@Base 4:4.8.1
 _ZN7Nepomuk4Sync18ResourceIdentifier15addSyncResourceERKNS0_12SyncResourceE@Base 4:4.8.1
 _ZN7Nepomuk4Sync18ResourceIdentifier17runIdentificationERK4KUrl@Base 4:4.8.1
 _ZN7Nepomuk4Sync18ResourceIdentifier19addOptionalPropertyERK4QUrl@Base 4:4.8.1
 _ZN7Nepomuk4Sync18ResourceIdentifier20manualIdentificationERK4KUrlS4_@Base 4:4.8.1
 _ZN7Nepomuk4Sync18ResourceIdentifier21isIdentifyingPropertyERK4QUrl@Base 4:4.8.1
 _ZN7Nepomuk4Sync18ResourceIdentifier23clearOptionalPropertiesEv@Base 4:4.8.1
 _ZN7Nepomuk4Sync18ResourceIdentifier27createIdentifyingStatementsERKN4KUrl4ListE@Base 4:4.8.1
 _ZN7Nepomuk4Sync18ResourceIdentifier5modelEv@Base 4:4.8.1
 _ZN7Nepomuk4Sync18ResourceIdentifier6ignoreERK4KUrlb@Base 4:4.8.1
 _ZN7Nepomuk4Sync18ResourceIdentifier7PrivateC1EPS1_@Base 4:4.8.1
 _ZN7Nepomuk4Sync18ResourceIdentifier7PrivateC2EPS1_@Base 4:4.8.1
 _ZN7Nepomuk4Sync18ResourceIdentifier8identifyERK4KUrl@Base 4:4.8.1
 _ZN7Nepomuk4Sync18ResourceIdentifier8identifyERKN4KUrl4ListE@Base 4:4.8.1
 _ZN7Nepomuk4Sync18ResourceIdentifier8setModelEPN7Soprano5ModelE@Base 4:4.8.1
 _ZN7Nepomuk4Sync18ResourceIdentifierC1EPN7Soprano5ModelE@Base 4:4.8.1
 _ZN7Nepomuk4Sync18ResourceIdentifierC2EPN7Soprano5ModelE@Base 4:4.8.1
 _ZN7Nepomuk4Sync18ResourceIdentifierD0Ev@Base 4:4.8.1
 _ZN7Nepomuk4Sync18ResourceIdentifierD1Ev@Base 4:4.8.1
 _ZN7Nepomuk4Sync18ResourceIdentifierD2Ev@Base 4:4.8.1
 _ZN7Nepomuk4Sync5qHashERKNS0_12SyncResourceE@Base 4:4.8.1
 _ZNK7Nepomuk4Sync12ResourceHash15toStatementListEv@Base 4:4.8.1
 _ZNK7Nepomuk4Sync12SyncResource15toStatementListEv@Base 4:4.8.1
 _ZNK7Nepomuk4Sync12SyncResource16isFileDataObjectEv@Base 4:4.8.1
 _ZNK7Nepomuk4Sync12SyncResource3uriEv@Base 4:4.8.1
 _ZNK7Nepomuk4Sync12SyncResource6nieUrlEv@Base 4:4.8.1
 _ZNK7Nepomuk4Sync12SyncResource7isValidEv@Base 4:4.8.1
 _ZNK7Nepomuk4Sync12SyncResource8isFolderEv@Base 4:4.8.1
 _ZNK7Nepomuk4Sync12SyncResource8propertyERK4KUrl@Base 4:4.8.1
 _ZNK7Nepomuk4Sync12SyncResourceeqERKS1_@Base 4:4.8.1
 _ZNK7Nepomuk4Sync14ResourceMerger18additionalMetadataEv@Base 4:4.8.1
 _ZNK7Nepomuk4Sync14ResourceMerger5modelEv@Base 4:4.8.1
 _ZNK7Nepomuk4Sync14ResourceMerger8mappingsEv@Base 4:4.8.1
 _ZNK7Nepomuk4Sync18ResourceIdentifier10identifiedEv@Base 4:4.8.1
 _ZNK7Nepomuk4Sync18ResourceIdentifier10mappedUrisEv@Base 4:4.8.1
 _ZNK7Nepomuk4Sync18ResourceIdentifier12unidentifiedEv@Base 4:4.8.1
 _ZNK7Nepomuk4Sync18ResourceIdentifier13allIdentifiedEv@Base 4:4.8.1
 _ZNK7Nepomuk4Sync18ResourceIdentifier18optionalPropertiesEv@Base 4:4.8.1
 _ZNK7Nepomuk4Sync18ResourceIdentifier21identifyingStatementsEv@Base 4:4.8.1
 _ZNK7Nepomuk4Sync18ResourceIdentifier8mappingsEv@Base 4:4.8.1
 _ZNK7Nepomuk4Sync18ResourceIdentifier9mappedUriERK4KUrl@Base 4:4.8.1
 _ZTIN7Nepomuk4Sync14ResourceMergerE@Base 4:4.8.1
 _ZTIN7Nepomuk4Sync18ResourceIdentifierE@Base 4:4.8.1
 _ZTSN7Nepomuk4Sync14ResourceMergerE@Base 4:4.8.1
 _ZTSN7Nepomuk4Sync18ResourceIdentifierE@Base 4:4.8.1
 _ZTVN7Nepomuk4Sync14ResourceMergerE@Base 4:4.8.1
 _ZTVN7Nepomuk4Sync18ResourceIdentifierE@Base 4:4.8.1
