libnepomukdatamanagement.so.4 libnepomukdatamanagement4 #MINVER#
 _ZN7Nepomuk11addPropertyERK5QListI4QUrlERKS1_RKS0_I8QVariantERK14KComponentData@Base 4:4.8.1
 _ZN7Nepomuk11setPropertyERK5QListI4QUrlERKS1_RKS0_I8QVariantERK14KComponentData@Base 4:4.8.1
 _ZN7Nepomuk14SimpleResource11addPropertyERK4QUrlRK8QVariant@Base 4:4.8.1
 _ZN7Nepomuk14SimpleResource11addPropertyERK4QUrlRKS0_@Base 4:4.8.1
 _ZN7Nepomuk14SimpleResource11setPropertyERK4QUrlRK5QListI8QVariantE@Base 4:4.8.1
 _ZN7Nepomuk14SimpleResource11setPropertyERK4QUrlRK8QVariant@Base 4:4.8.1
 _ZN7Nepomuk14SimpleResource11setPropertyERK4QUrlRKS0_@Base 4:4.8.1
 _ZN7Nepomuk14SimpleResource13addPropertiesERK10QMultiHashI4QUrl8QVariantE@Base 4:4.8.1
 _ZN7Nepomuk14SimpleResource13setPropertiesERK10QMultiHashI4QUrl8QVariantE@Base 4:4.8.1
 _ZN7Nepomuk14SimpleResource15addPropertyNodeERK4QUrlRKN7Soprano4NodeE@Base 4:4.8.1
 _ZN7Nepomuk14SimpleResource15setPropertyNodeERK4QUrlRKN7Soprano4NodeE@Base 4:4.8.1
 _ZN7Nepomuk14SimpleResource5clearEv@Base 4:4.8.1
 _ZN7Nepomuk14SimpleResource6removeERK4QUrl@Base 4:4.8.1
 _ZN7Nepomuk14SimpleResource6removeERK4QUrlRK8QVariant@Base 4:4.8.1
 _ZN7Nepomuk14SimpleResource6setUriERK4QUrl@Base 4:4.8.1
 _ZN7Nepomuk14SimpleResource7addTypeERK4QUrl@Base 4:4.8.1
 _ZN7Nepomuk14SimpleResource8setTypesERK5QListI4QUrlE@Base 4:4.8.1
 _ZN7Nepomuk14SimpleResource9removeAllERK4QUrlRK8QVariant@Base 4:4.8.1
 _ZN7Nepomuk14SimpleResourceC1ERK10QMultiHashI4QUrl8QVariantE@Base 4:4.8.1
 _ZN7Nepomuk14SimpleResourceC1ERK4QUrl@Base 4:4.8.1
 _ZN7Nepomuk14SimpleResourceC1ERKS0_@Base 4:4.8.1
 _ZN7Nepomuk14SimpleResourceC2ERK10QMultiHashI4QUrl8QVariantE@Base 4:4.8.1
 _ZN7Nepomuk14SimpleResourceC2ERK4QUrl@Base 4:4.8.1
 _ZN7Nepomuk14SimpleResourceC2ERKS0_@Base 4:4.8.1
 _ZN7Nepomuk14SimpleResourceD0Ev@Base 4:4.8.1
 _ZN7Nepomuk14SimpleResourceD1Ev@Base 4:4.8.1
 _ZN7Nepomuk14SimpleResourceD2Ev@Base 4:4.8.1
 _ZN7Nepomuk14SimpleResourceaSERKS0_@Base 4:4.8.1
 _ZN7Nepomuk14createResourceERK5QListI4QUrlERK7QStringS7_RK14KComponentData@Base 4:4.8.1
 _ZN7Nepomuk14mergeResourcesERK4QUrlS2_RK14KComponentData@Base 4:4.8.1
 _ZN7Nepomuk14removePropertyERK5QListI4QUrlERKS1_RKS0_I8QVariantERK14KComponentData@Base 4:4.8.1
 _ZN7Nepomuk14storeResourcesERKNS_19SimpleResourceGraphENS_23StoreIdentificationModeE6QFlagsINS_18StoreResourcesFlagEERK5QHashI4QUrl8QVariantERK14KComponentData@Base 4:4.8.1
 _ZN7Nepomuk15ResourceWatcher11addPropertyERKNS_5Types8PropertyE@Base 4:4.8.1
 _ZN7Nepomuk15ResourceWatcher11addResourceERKNS_8ResourceE@Base 4:4.8.1
 _ZN7Nepomuk15ResourceWatcher11qt_metacallEN11QMetaObject4CallEiPPv@Base 4:4.8.1
 _ZN7Nepomuk15ResourceWatcher11qt_metacastEPKc@Base 4:4.8.1
 _ZN7Nepomuk15ResourceWatcher12setResourcesERK5QListINS_8ResourceEE@Base 4:4.8.1
 _ZN7Nepomuk15ResourceWatcher13propertyAddedERKNS_8ResourceERKNS_5Types8PropertyERK8QVariant@Base 4:4.8.1
 _ZN7Nepomuk15ResourceWatcher13setPropertiesERK5QListINS_5Types8PropertyEE@Base 4:4.8.1
 _ZN7Nepomuk15ResourceWatcher15propertyRemovedERKNS_8ResourceERKNS_5Types8PropertyERK8QVariant@Base 4:4.8.1
 _ZN7Nepomuk15ResourceWatcher15resourceCreatedERKNS_8ResourceERK5QListI4QUrlE@Base 4:4.8.1
 _ZN7Nepomuk15ResourceWatcher15resourceRemovedERK4QUrlRK5QListIS1_E@Base 4:4.8.1
 _ZN7Nepomuk15ResourceWatcher16staticMetaObjectE@Base 4:4.8.1
 _ZN7Nepomuk15ResourceWatcher17resourceTypeAddedERKNS_8ResourceERKNS_5Types5ClassE@Base 4:4.8.1
 _ZN7Nepomuk15ResourceWatcher17slotPropertyAddedERK7QStringS3_RK12QDBusVariant@Base 4:4.8.1
 _ZN7Nepomuk15ResourceWatcher19resourceTypeRemovedERKNS_8ResourceERKNS_5Types5ClassE@Base 4:4.8.1
 _ZN7Nepomuk15ResourceWatcher19slotPropertyRemovedERK7QStringS3_RK12QDBusVariant@Base 4:4.8.1
 _ZN7Nepomuk15ResourceWatcher19slotResourceCreatedERK7QStringRK11QStringList@Base 4:4.8.1
 _ZN7Nepomuk15ResourceWatcher19slotResourceRemovedERK7QStringRK11QStringList@Base 4:4.8.1
 _ZN7Nepomuk15ResourceWatcher21slotResourceTypeAddedERK7QStringS3_@Base 4:4.8.1
 _ZN7Nepomuk15ResourceWatcher23slotResourceTypeRemovedERK7QStringS3_@Base 4:4.8.1
 _ZN7Nepomuk15ResourceWatcher4stopEv@Base 4:4.8.1
 _ZN7Nepomuk15ResourceWatcher5startEv@Base 4:4.8.1
 _ZN7Nepomuk15ResourceWatcher7addTypeERKNS_5Types5ClassE@Base 4:4.8.1
 _ZN7Nepomuk15ResourceWatcher8setTypesERK5QListINS_5Types5ClassEE@Base 4:4.8.1
 _ZN7Nepomuk15ResourceWatcherC1EP7QObject@Base 4:4.8.1
 _ZN7Nepomuk15ResourceWatcherC2EP7QObject@Base 4:4.8.1
 _ZN7Nepomuk15ResourceWatcherD0Ev@Base 4:4.8.1
 _ZN7Nepomuk15ResourceWatcherD1Ev@Base 4:4.8.1
 _ZN7Nepomuk15ResourceWatcherD2Ev@Base 4:4.8.1
 _ZN7Nepomuk15importResourcesERK4KUrlN7Soprano16RdfSerializationERK7QStringNS_23StoreIdentificationModeE6QFlagsINS_18StoreResourcesFlagEERK5QHashI4QUrl8QVariantERK14KComponentData@Base 4:4.8.1
 _ZN7Nepomuk15removeResourcesERK5QListI4QUrlE6QFlagsINS_11RemovalFlagEERK14KComponentData@Base 4:4.8.1
 _ZN7Nepomuk16removePropertiesERK5QListI4QUrlES4_RK14KComponentData@Base 4:4.8.1
 _ZN7Nepomuk17CreateResourceJob11qt_metacallEN11QMetaObject4CallEiPPv@Base 4:4.8.1
 _ZN7Nepomuk17CreateResourceJob11qt_metacastEPKc@Base 4:4.8.1
 _ZN7Nepomuk17CreateResourceJob16staticMetaObjectE@Base 4:4.8.1
 _ZN7Nepomuk17CreateResourceJob20slotDBusCallFinishedEP23QDBusPendingCallWatcher@Base 4:4.8.1
 _ZN7Nepomuk17CreateResourceJob5startEv@Base 4:4.8.1
 _ZN7Nepomuk17CreateResourceJobC1ERK5QListI4QUrlERK7QStringS8_RK14KComponentData@Base 4:4.8.1
 _ZN7Nepomuk17CreateResourceJobC2ERK5QListI4QUrlERK7QStringS8_RK14KComponentData@Base 4:4.8.1
 _ZN7Nepomuk17CreateResourceJobD0Ev@Base 4:4.8.1
 _ZN7Nepomuk17CreateResourceJobD1Ev@Base 4:4.8.1
 _ZN7Nepomuk17CreateResourceJobD2Ev@Base 4:4.8.1
 _ZN7Nepomuk17StoreResourcesJob11qt_metacallEN11QMetaObject4CallEiPPv@Base 4:4.8.1
 _ZN7Nepomuk17StoreResourcesJob11qt_metacastEPKc@Base 4:4.8.1
 _ZN7Nepomuk17StoreResourcesJob16staticMetaObjectE@Base 4:4.8.1
 _ZN7Nepomuk17StoreResourcesJob5startEv@Base 4:4.8.1
 _ZN7Nepomuk17StoreResourcesJob7Private23_k_slotDBusCallFinishedEP23QDBusPendingCallWatcher@Base 4:4.8.1
 _ZN7Nepomuk17StoreResourcesJobC1ERKNS_19SimpleResourceGraphENS_23StoreIdentificationModeE6QFlagsINS_18StoreResourcesFlagEERK5QHashI4QUrl8QVariantERK14KComponentData@Base 4:4.8.1
 _ZN7Nepomuk17StoreResourcesJobC2ERKNS_19SimpleResourceGraphENS_23StoreIdentificationModeE6QFlagsINS_18StoreResourcesFlagEERK5QHashI4QUrl8QVariantERK14KComponentData@Base 4:4.8.1
 _ZN7Nepomuk17StoreResourcesJobD0Ev@Base 4:4.8.1
 _ZN7Nepomuk17StoreResourcesJobD1Ev@Base 4:4.8.1
 _ZN7Nepomuk17StoreResourcesJobD2Ev@Base 4:4.8.1
 _ZN7Nepomuk17describeResourcesERK5QListI4QUrlE6QFlagsINS_21DescribeResourcesFlagEES4_@Base 4:4.8.1
 _ZN7Nepomuk19SimpleResourceGraph12addStatementERKN7Soprano4NodeES4_S4_@Base 4:4.8.1
 _ZN7Nepomuk19SimpleResourceGraph12addStatementERKN7Soprano9StatementE@Base 4:4.8.1
 _ZN7Nepomuk19SimpleResourceGraph3addERK4QUrlS3_RK8QVariant@Base 4:4.8.1
 _ZN7Nepomuk19SimpleResourceGraph3setERK4QUrlS3_RK8QVariant@Base 4:4.8.1
 _ZN7Nepomuk19SimpleResourceGraph5clearEv@Base 4:4.8.1
 _ZN7Nepomuk19SimpleResourceGraph6insertERKNS_14SimpleResourceE@Base 4:4.8.1
 _ZN7Nepomuk19SimpleResourceGraph6removeERK4QUrl@Base 4:4.8.1
 _ZN7Nepomuk19SimpleResourceGraph6removeERK4QUrlS3_RK8QVariant@Base 4:4.8.1
 _ZN7Nepomuk19SimpleResourceGraph6removeERKNS_14SimpleResourceE@Base 4:4.8.1
 _ZN7Nepomuk19SimpleResourceGraph9removeAllERK4QUrlS3_RK8QVariant@Base 4:4.8.1
 _ZN7Nepomuk19SimpleResourceGraphC1ERK4QSetINS_14SimpleResourceEE@Base 4:4.8.1
 _ZN7Nepomuk19SimpleResourceGraphC1ERK5QListINS_14SimpleResourceEE@Base 4:4.8.1
 _ZN7Nepomuk19SimpleResourceGraphC1ERKNS_14SimpleResourceE@Base 4:4.8.1
 _ZN7Nepomuk19SimpleResourceGraphC1ERKS0_@Base 4:4.8.1
 _ZN7Nepomuk19SimpleResourceGraphC1Ev@Base 4:4.8.1
 _ZN7Nepomuk19SimpleResourceGraphC2ERK4QSetINS_14SimpleResourceEE@Base 4:4.8.1
 _ZN7Nepomuk19SimpleResourceGraphC2ERK5QListINS_14SimpleResourceEE@Base 4:4.8.1
 _ZN7Nepomuk19SimpleResourceGraphC2ERKNS_14SimpleResourceE@Base 4:4.8.1
 _ZN7Nepomuk19SimpleResourceGraphC2ERKS0_@Base 4:4.8.1
 _ZN7Nepomuk19SimpleResourceGraphC2Ev@Base 4:4.8.1
 _ZN7Nepomuk19SimpleResourceGraphD1Ev@Base 4:4.8.1
 _ZN7Nepomuk19SimpleResourceGraphD2Ev@Base 4:4.8.1
 _ZN7Nepomuk19SimpleResourceGraphaSERKS0_@Base 4:4.8.1
 _ZN7Nepomuk19SimpleResourceGraphixERK4QUrl@Base 4:4.8.1
 _ZN7Nepomuk19SimpleResourceGraphlsERKNS_14SimpleResourceE@Base 4:4.8.1
 _ZN7Nepomuk19SimpleResourceGraphpLERKS0_@Base 4:4.8.1
 _ZN7Nepomuk20DescribeResourcesJob11qt_metacallEN11QMetaObject4CallEiPPv@Base 4:4.8.1
 _ZN7Nepomuk20DescribeResourcesJob11qt_metacastEPKc@Base 4:4.8.1
 _ZN7Nepomuk20DescribeResourcesJob16staticMetaObjectE@Base 4:4.8.1
 _ZN7Nepomuk20DescribeResourcesJob20slotDBusCallFinishedEP23QDBusPendingCallWatcher@Base 4:4.8.1
 _ZN7Nepomuk20DescribeResourcesJob5startEv@Base 4:4.8.1
 _ZN7Nepomuk20DescribeResourcesJobC1ERK5QListI4QUrlE6QFlagsINS_21DescribeResourcesFlagEES5_@Base 4:4.8.1
 _ZN7Nepomuk20DescribeResourcesJobC2ERK5QListI4QUrlE6QFlagsINS_21DescribeResourcesFlagEES5_@Base 4:4.8.1
 _ZN7Nepomuk20DescribeResourcesJobD0Ev@Base 4:4.8.1
 _ZN7Nepomuk20DescribeResourcesJobD1Ev@Base 4:4.8.1
 _ZN7Nepomuk20DescribeResourcesJobD2Ev@Base 4:4.8.1
 _ZN7Nepomuk23removeDataByApplicationE6QFlagsINS_11RemovalFlagEERK14KComponentData@Base 4:4.8.1
 _ZN7Nepomuk23removeDataByApplicationERK5QListI4QUrlE6QFlagsINS_11RemovalFlagEERK14KComponentData@Base 4:4.8.1
 _ZN7Nepomuk5qHashERKNS_14SimpleResourceE@Base 4:4.8.1
 _ZN7NepomuklsE6QDebugRKNS_14SimpleResourceE@Base 4:4.8.1
 _ZN7NepomuklsE6QDebugRKNS_19SimpleResourceGraphE@Base 4:4.8.1
 _ZN7NepomuklsER11QDataStreamRKNS_14SimpleResourceE@Base 4:4.8.1
 _ZN7NepomuklsER11QDataStreamRKNS_19SimpleResourceGraphE@Base 4:4.8.1
 _ZN7NepomukrsER11QDataStreamRNS_14SimpleResourceE@Base 4:4.8.1
 _ZN7NepomukrsER11QDataStreamRNS_19SimpleResourceGraphE@Base 4:4.8.1
 _ZNK7Nepomuk14SimpleResource10propertiesEv@Base 4:4.8.1
 _ZNK7Nepomuk14SimpleResource12containsNodeERK4QUrlRKN7Soprano4NodeE@Base 4:4.8.1
 _ZNK7Nepomuk14SimpleResource15toStatementListEv@Base 4:4.8.1
 _ZNK7Nepomuk14SimpleResource3uriEv@Base 4:4.8.1
 _ZNK7Nepomuk14SimpleResource7isValidEv@Base 4:4.8.1
 _ZNK7Nepomuk14SimpleResource8containsERK4QUrl@Base 4:4.8.1
 _ZNK7Nepomuk14SimpleResource8containsERK4QUrlRK8QVariant@Base 4:4.8.1
 _ZNK7Nepomuk14SimpleResource8propertyERK4QUrl@Base 4:4.8.1
 _ZNK7Nepomuk14SimpleResourceeqERKS0_@Base 4:4.8.1
 _ZNK7Nepomuk15ResourceWatcher10metaObjectEv@Base 4:4.8.1
 _ZNK7Nepomuk15ResourceWatcher10propertiesEv@Base 4:4.8.1
 _ZNK7Nepomuk15ResourceWatcher5typesEv@Base 4:4.8.1
 _ZNK7Nepomuk15ResourceWatcher9resourcesEv@Base 4:4.8.1
 _ZNK7Nepomuk17CreateResourceJob10metaObjectEv@Base 4:4.8.1
 _ZNK7Nepomuk17CreateResourceJob11resourceUriEv@Base 4:4.8.1
 _ZNK7Nepomuk17StoreResourcesJob10metaObjectEv@Base 4:4.8.1
 _ZNK7Nepomuk17StoreResourcesJob8mappingsEv@Base 4:4.8.1
 _ZNK7Nepomuk19SimpleResourceGraph11containsAnyERK4QUrlS3_@Base 4:4.8.1
 _ZNK7Nepomuk19SimpleResourceGraph15allResourceUrisEv@Base 4:4.8.1
 _ZNK7Nepomuk19SimpleResourceGraph4saveERK14KComponentData@Base 4:4.8.1
 _ZNK7Nepomuk19SimpleResourceGraph5countEv@Base 4:4.8.1
 _ZNK7Nepomuk19SimpleResourceGraph5toSetEv@Base 4:4.8.1
 _ZNK7Nepomuk19SimpleResourceGraph6toListEv@Base 4:4.8.1
 _ZNK7Nepomuk19SimpleResourceGraph7isEmptyEv@Base 4:4.8.1
 _ZNK7Nepomuk19SimpleResourceGraph8containsERK4QUrl@Base 4:4.8.1
 _ZNK7Nepomuk19SimpleResourceGraph8containsERKNS_14SimpleResourceE@Base 4:4.8.1
 _ZNK7Nepomuk19SimpleResourceGrapheqERKS0_@Base 4:4.8.1
 _ZNK7Nepomuk19SimpleResourceGraphixERK4QUrl@Base 4:4.8.1
 _ZNK7Nepomuk19SimpleResourceGraphneERKS0_@Base 4:4.8.1
 _ZNK7Nepomuk20DescribeResourcesJob10metaObjectEv@Base 4:4.8.1
 _ZNK7Nepomuk20DescribeResourcesJob9resourcesEv@Base 4:4.8.1
 _ZTIN7Nepomuk14SimpleResourceE@Base 4:4.8.1
 _ZTIN7Nepomuk15ResourceWatcherE@Base 4:4.8.1
 _ZTIN7Nepomuk17CreateResourceJobE@Base 4:4.8.1
 _ZTIN7Nepomuk17StoreResourcesJobE@Base 4:4.8.1
 _ZTIN7Nepomuk20DescribeResourcesJobE@Base 4:4.8.1
 _ZTSN7Nepomuk14SimpleResourceE@Base 4:4.8.1
 _ZTSN7Nepomuk15ResourceWatcherE@Base 4:4.8.1
 _ZTSN7Nepomuk17CreateResourceJobE@Base 4:4.8.1
 _ZTSN7Nepomuk17StoreResourcesJobE@Base 4:4.8.1
 _ZTSN7Nepomuk20DescribeResourcesJobE@Base 4:4.8.1
 _ZTVN7Nepomuk14SimpleResourceE@Base 4:4.8.1
 _ZTVN7Nepomuk15ResourceWatcherE@Base 4:4.8.1
 _ZTVN7Nepomuk17CreateResourceJobE@Base 4:4.8.1
 _ZTVN7Nepomuk17StoreResourcesJobE@Base 4:4.8.1
 _ZTVN7Nepomuk20DescribeResourcesJobE@Base 4:4.8.1
