libQtWebKit.so.4 libqtwebkit4 #MINVER#
* Build-Depends-Package: libqtwebkit-dev
 JSClassCreate@Base 2.2~2011week36
 JSClassRelease@Base 2.2~2011week36
 JSClassRetain@Base 2.2~2011week36
 JSObjectCallAsConstructor@Base 2.2~2011week36
 JSObjectCallAsFunction@Base 2.2~2011week36
 JSObjectCopyPropertyNames@Base 2.2~2011week36
 JSObjectDeletePrivateProperty@Base 2.2~2011week36
 JSObjectDeleteProperty@Base 2.2~2011week36
 JSObjectGetPrivate@Base 2.2~2011week36
 JSObjectGetPrivateProperty@Base 2.2~2011week36
 JSObjectGetProperty@Base 2.2~2011week36
 JSObjectGetPropertyAtIndex@Base 2.2~2011week36
 JSObjectGetPrototype@Base 2.2~2011week36
 JSObjectHasProperty@Base 2.2~2011week36
 JSObjectIsConstructor@Base 2.2~2011week36
 JSObjectIsFunction@Base 2.2~2011week36
 JSObjectMake@Base 2.2~2011week36
 JSObjectMakeArray@Base 2.2~2011week36
 JSObjectMakeConstructor@Base 2.2~2011week36
 JSObjectMakeDate@Base 2.2~2011week36
 JSObjectMakeError@Base 2.2~2011week36
 JSObjectMakeFunction@Base 2.2~2011week36
 JSObjectMakeFunctionWithCallback@Base 2.2~2011week36
 JSObjectMakeRegExp@Base 2.2~2011week36
 JSObjectSetPrivate@Base 2.2~2011week36
 JSObjectSetPrivateProperty@Base 2.2~2011week36
 JSObjectSetProperty@Base 2.2~2011week36
 JSObjectSetPropertyAtIndex@Base 2.2~2011week36
 JSObjectSetPrototype@Base 2.2~2011week36
 JSPropertyNameAccumulatorAddName@Base 2.2~2011week36
 JSPropertyNameArrayGetCount@Base 2.2~2011week36
 JSPropertyNameArrayGetNameAtIndex@Base 2.2~2011week36
 JSPropertyNameArrayRelease@Base 2.2~2011week36
 JSPropertyNameArrayRetain@Base 2.2~2011week36
 JSStringCreateWithCharacters@Base 2.2~2011week36
 JSStringCreateWithUTF8CString@Base 2.2~2011week36
 JSStringGetCharactersPtr@Base 2.2~2011week36
 JSStringGetLength@Base 2.2~2011week36
 JSStringGetMaximumUTF8CStringSize@Base 2.2~2011week36
 JSStringGetUTF8CString@Base 2.2~2011week36
 JSStringIsEqual@Base 2.2~2011week36
 JSStringIsEqualToUTF8CString@Base 2.2~2011week36
 JSStringRelease@Base 2.2~2011week36
 JSStringRetain@Base 2.2~2011week36
 JSValueCreateJSONString@Base 2.2~2011week36
 JSValueGetType@Base 2.2~2011week36
 JSValueIsBoolean@Base 2.2~2011week36
 JSValueIsEqual@Base 2.2~2011week36
 JSValueIsInstanceOfConstructor@Base 2.2~2011week36
 JSValueIsNull@Base 2.2~2011week36
 JSValueIsNumber@Base 2.2~2011week36
 JSValueIsObject@Base 2.2~2011week36
 JSValueIsObjectOfClass@Base 2.2~2011week36
 JSValueIsStrictEqual@Base 2.2~2011week36
 JSValueIsString@Base 2.2~2011week36
 JSValueIsUndefined@Base 2.2~2011week36
 JSValueMakeBoolean@Base 2.2~2011week36
 JSValueMakeFromJSONString@Base 2.2~2011week36
 JSValueMakeNull@Base 2.2~2011week36
 JSValueMakeNumber@Base 2.2~2011week36
 JSValueMakeString@Base 2.2~2011week36
 JSValueMakeUndefined@Base 2.2~2011week36
 JSValueProtect@Base 2.2~2011week36
 JSValueToBoolean@Base 2.2~2011week36
 JSValueToNumber@Base 2.2~2011week36
 JSValueToObject@Base 2.2~2011week36
 JSValueToStringCopy@Base 2.2~2011week36
 JSValueUnprotect@Base 2.2~2011week36
 _Z10cssyyparsePv@Base 2.2.1
 _Z10qt_drt_runb@Base 2.2~2011week36
 _Z11qMetaTypeIdI11QTextFormatEiPT_@Base 2.2.1
 _Z12qToBigEndianIiEvT_Ph@Base 2.2.1
 _Z12qobject_castIP15QGraphicsObjectET_P7QObject@Base 2.2.1
 _Z12qobject_castIP16QGraphicsWebViewET_P7QObject@Base 2.2.1
 _Z12qobject_castIP18QStandardItemModelET_P7QObject@Base 2.2.1
 _Z12qobject_castIP21QWebKitPlatformPluginET_P7QObject@Base 2.2.1
 _Z12qobject_castIP7QActionET_P7QObject@Base 2.2.1
 _Z12qobject_castIP7QObjectET_S1_@Base 2.2.1
 _Z12qobject_castIP8QWebViewET_P7QObject@Base 2.2.1
 _Z12qobject_castIP9QWebFrameET_P7QObject@Base 2.2.1
 _Z12qobject_castIPN7WebCore18QtFallbackWebPopupEET_P7QObject@Base 2.2.1
 _Z12qobject_castIPN7WebCore21RemoteFrontendChannelEET_P7QObject@Base 2.2.1
 _Z12xpathyyparsePv@Base 2.2.1
 _Z13qbswap_helperPKhPhi@Base 2.2.1
 _Z13qvariant_castI11QTextFormatET_RK8QVariant@Base 2.2.1
 _Z14qWebKitVersionv@Base 2.2~2011week36
 _Z15qMapLessThanKeyIiEbRKT_S2_@Base 2.2.1
 _Z15qMapLessThanKeyImEbRKT_S2_@Base 2.2.1
 _Z16qVariantSetValueI7QStringEvR8QVariantRKT_@Base 2.2.1
 _Z19qWebKitMajorVersionv@Base 2.2~2011week36
 _Z19qWebKitMinorVersionv@Base 2.2~2011week36
 _Z20qt_dump_frame_loaderb@Base 2.2~2011week36
 _Z20qt_webpage_groupNameP8QWebPage@Base 2.2~2011week36
 _Z21qInitResources_WebKitv@Base 2.2.1
 _Z21qt_drt_clearFrameNameP9QWebFrame@Base 2.2~2011week36
 _Z21qt_drt_pauseAnimationP9QWebFrameRK7QStringdS3_@Base 2.2~2011week36
 _Z22qInitResources_WebCorev@Base 2.2.1
 _Z23qt_networkAccessAllowedb@Base 2.2~2011week36
 _Z23qt_webpage_setGroupNameP8QWebPageRK7QString@Base 2.2~2011week36
 _Z24qCleanupResources_WebKitv@Base 2.2.1
 _Z25qCleanupResources_WebCorev@Base 2.2.1
 _Z25qt_dump_editing_callbacksb@Base 2.2~2011week36
 _Z25qt_resumeActiveDOMObjectsP9QWebFrame@Base 2.2~2011week36
 _Z26qt_suspendActiveDOMObjectsP9QWebFrame@Base 2.2~2011week36
 _Z27qYouForgotTheQ_OBJECT_MacroIPK15QGraphicsObjectEiT_S3_@Base 2.2.1
 _Z27qYouForgotTheQ_OBJECT_MacroIPK16QGraphicsWebViewEiT_S3_@Base 2.2.1
 _Z27qYouForgotTheQ_OBJECT_MacroIPK18QStandardItemModelEiT_S3_@Base 2.2.1
 _Z27qYouForgotTheQ_OBJECT_MacroIPK7QActionEiT_S3_@Base 2.2.1
 _Z27qYouForgotTheQ_OBJECT_MacroIPK7QObjectEiT_S3_@Base 2.2.1
 _Z27qYouForgotTheQ_OBJECT_MacroIPK8QWebViewEiT_S3_@Base 2.2.1
 _Z27qYouForgotTheQ_OBJECT_MacroIPK9QWebFrameEiT_S3_@Base 2.2.1
 _Z27qYouForgotTheQ_OBJECT_MacroIPKN7WebCore18QtFallbackWebPopupEEiT_S4_@Base 2.2.1
 _Z27qYouForgotTheQ_OBJECT_MacroIPKN7WebCore21RemoteFrontendChannelEEiT_S4_@Base 2.2.1
 _Z27qt_dump_set_accepts_editingb@Base 2.2~2011week36
 _Z29qt_drt_javaScriptObjectsCountv@Base 2.2~2011week36
 _Z31qt_drt_garbageCollector_collectv@Base 2.2~2011week36
 _Z31qt_drt_numberOfActiveAnimationsP9QWebFrame@Base 2.2~2011week36
 _Z31qt_dump_resource_load_callbacksb@Base 2.2~2011week36
 _Z32qt_drt_pauseTransitionOfPropertyP9QWebFrameRK7QStringdS3_@Base 2.2~2011week36
 _Z32qt_drt_whiteListAccessFromOriginRK7QStringS1_S1_b@Base 2.2~2011week36
 _Z32qtwebkit_webframe_scrollOverflowP9QWebFrameiiRK6QPoint@Base 2.2~2011week36
 _Z33qt_drt_overwritePluginDirectoriesv@Base 2.2~2011week36
 _Z34qt_drt_resetOriginAccessWhiteListsv@Base 2.2~2011week36
 _Z35qInitResources_InspectorBackendStubv@Base 2.2.1
 _Z35qtwebkit_webframe_scrollRecursivelyP9QWebFrameiiRK6QPoint@Base 2.2~2011week36
 _Z36qt_drt_setJavaScriptProfilingEnabledP9QWebFrameb@Base 2.2~2011week36
 _Z38qCleanupResources_InspectorBackendStubv@Base 2.2.1
 _Z48qt_drt_garbageCollector_collectOnAlternateThreadb@Base 2.2~2011week36
 _Z4qRedj@Base 2.2.1
 _Z5qBluej@Base 2.2.1
 _Z5qHashIN7WebCore12NotificationEEjPKT_@Base 2.2.1
 _Z5qHashIN7WebCore22ScriptExecutionContextEEjPKT_@Base 2.2.1
 _Z5qRgbaiiii@Base 2.2.1
 _Z6qAlphaj@Base 2.2.1
 _Z6qDebugv@Base 2.2.1
 _Z6qGreenj@Base 2.2.1
 _Z6qbswapIiEvT_Ph@Base 2.2.1
 _Z8qWarningv@Base 2.2.1
 _Z9qCriticalv@Base 2.2.1
 _ZGVZN7WebCore12wrapperOwnerEPNS_15DOMWrapperWorldEPNS_10FileReaderEE17jsFileReaderOwner@Base 2.2.1
 _ZGVZN7WebCore12wrapperOwnerEPNS_15DOMWrapperWorldEPNS_10StyleMediaEE17jsStyleMediaOwner@Base 2.2.1
 _ZGVZN7WebCore12wrapperOwnerEPNS_15DOMWrapperWorldEPNS_11ArrayBufferEE18jsArrayBufferOwner@Base 2.2.1
 _ZGVZN7WebCore12wrapperOwnerEPNS_15DOMWrapperWorldEPNS_11CSSRuleListEE18jsCSSRuleListOwner@Base 2.2.1
 _ZGVZN7WebCore12wrapperOwnerEPNS_15DOMWrapperWorldEPNS_11EventSourceEE18jsEventSourceOwner@Base 2.2.1
 _ZGVZN7WebCore12wrapperOwnerEPNS_15DOMWrapperWorldEPNS_11MessagePortEE18jsMessagePortOwner@Base 2.2.1
 _ZGVZN7WebCore12wrapperOwnerEPNS_15DOMWrapperWorldEPNS_12DOMSelectionEE19jsDOMSelectionOwner@Base 2.2.1
 _ZGVZN7WebCore12wrapperOwnerEPNS_15DOMWrapperWorldEPNS_12DOMStringMapEE19jsDOMStringMapOwner@Base 2.2.1
 _ZGVZN7WebCore12wrapperOwnerEPNS_15DOMWrapperWorldEPNS_12DOMTokenListEE19jsDOMTokenListOwner@Base 2.2.1
 _ZGVZN7WebCore12wrapperOwnerEPNS_15DOMWrapperWorldEPNS_12NamedNodeMapEE19jsNamedNodeMapOwner@Base 2.2.1
 _ZGVZN7WebCore12wrapperOwnerEPNS_15DOMWrapperWorldEPNS_12NotificationEE19jsNotificationOwner@Base 2.2.1
 _ZGVZN7WebCore12wrapperOwnerEPNS_15DOMWrapperWorldEPNS_12SharedWorkerEE19jsSharedWorkerOwner@Base 2.2.1
 _ZGVZN7WebCore12wrapperOwnerEPNS_15DOMWrapperWorldEPNS_14DOMPluginArrayEE21jsDOMPluginArrayOwner@Base 2.2.1
 _ZGVZN7WebCore12wrapperOwnerEPNS_15DOMWrapperWorldEPNS_14StyleSheetListEE21jsStyleSheetListOwner@Base 2.2.1
 _ZGVZN7WebCore12wrapperOwnerEPNS_15DOMWrapperWorldEPNS_14WorkerLocationEE21jsWorkerLocationOwner@Base 2.2.1
 _ZGVZN7WebCore12wrapperOwnerEPNS_15DOMWrapperWorldEPNS_15WorkerNavigatorEE22jsWorkerNavigatorOwner@Base 2.2.1
 _ZGVZN7WebCore12wrapperOwnerEPNS_15DOMWrapperWorldEPNS_16DOMMimeTypeArrayEE23jsDOMMimeTypeArrayOwner@Base 2.2.1
 _ZGVZN7WebCore12wrapperOwnerEPNS_15DOMWrapperWorldEPNS_17DOMImplementationEE24jsDOMImplementationOwner@Base 2.2.1
 _ZGVZN7WebCore12wrapperOwnerEPNS_15DOMWrapperWorldEPNS_18NotificationCenterEE25jsNotificationCenterOwner@Base 2.2.1
 _ZGVZN7WebCore12wrapperOwnerEPNS_15DOMWrapperWorldEPNS_19CSSStyleDeclarationEE26jsCSSStyleDeclarationOwner@Base 2.2.1
 _ZGVZN7WebCore12wrapperOwnerEPNS_15DOMWrapperWorldEPNS_19DOMApplicationCacheEE26jsDOMApplicationCacheOwner@Base 2.2.1
 _ZGVZN7WebCore12wrapperOwnerEPNS_15DOMWrapperWorldEPNS_20XMLHttpRequestUploadEE27jsXMLHttpRequestUploadOwner@Base 2.2.1
 _ZGVZN7WebCore12wrapperOwnerEPNS_15DOMWrapperWorldEPNS_4BlobEE11jsBlobOwner@Base 2.2.1
 _ZGVZN7WebCore12wrapperOwnerEPNS_15DOMWrapperWorldEPNS_6ScreenEE13jsScreenOwner@Base 2.2.1
 _ZGVZN7WebCore12wrapperOwnerEPNS_15DOMWrapperWorldEPNS_6WorkerEE13jsWorkerOwner@Base 2.2.1
 _ZGVZN7WebCore12wrapperOwnerEPNS_15DOMWrapperWorldEPNS_7BarInfoEE14jsBarInfoOwner@Base 2.2.1
 _ZGVZN7WebCore12wrapperOwnerEPNS_15DOMWrapperWorldEPNS_7ConsoleEE14jsConsoleOwner@Base 2.2.1
 _ZGVZN7WebCore12wrapperOwnerEPNS_15DOMWrapperWorldEPNS_7StorageEE14jsStorageOwner@Base 2.2.1
 _ZGVZN7WebCore12wrapperOwnerEPNS_15DOMWrapperWorldEPNS_8NodeListEE15jsNodeListOwner@Base 2.2.1
 _ZGVZN7WebCore12wrapperOwnerEPNS_15DOMWrapperWorldEPNS_9MediaListEE16jsMediaListOwner@Base 2.2.1
 _ZGVZN7WebCore12wrapperOwnerEPNS_15DOMWrapperWorldEPNS_9NavigatorEE16jsNavigatorOwner@Base 2.2.1
 _ZN10QAtomicIntC1Ei@Base 2.2.1
 _ZN10QAtomicIntC2Ei@Base 2.2.1
 _ZN10QByteArray4dataEv@Base 2.2.1
 _ZN10QByteArray7replaceEcPKc@Base 2.2.1
 _ZN10QByteArrayixEi@Base 2.2.1
 _ZN10QDropEvent20acceptProposedActionEv@Base 2.2.1
 _ZN10QTransformC1ERKS_@Base 2.2.1
 _ZN10QTransformC2ERKS_@Base 2.2.1
 _ZN10SelectDataC1ERPN7WebCore15PopupMenuClientE@Base 2.2.1
 _ZN10SelectDataC2ERPN7WebCore15PopupMenuClientE@Base 2.2.1
 _ZN10SelectDataD0Ev@Base 2.2.1
 _ZN10SelectDataD1Ev@Base 2.2.1
 _ZN10SelectDataD2Ev@Base 2.2.1
 _ZN11QMessageBox11informationEP7QWidgetRK7QStringS4_NS_14StandardButtonES5_@Base 2.2.1
 _ZN11QMetaMethodC1Ev@Base 2.2.1
 _ZN11QMetaMethodC2Ev@Base 2.2.1
 _ZN11QSharedDataC1ERKS_@Base 2.2.1
 _ZN11QSharedDataC1Ev@Base 2.2.1
 _ZN11QSharedDataC2ERKS_@Base 2.2.1
 _ZN11QSharedDataC2Ev@Base 2.2.1
 _ZN11QStringList16removeDuplicatesEv@Base 2.2.1
 _ZN11QStringListaSERKS_@Base 2.2.1
 _ZN11QStringListlsERK7QString@Base 2.2.1
 _ZN11QStringListlsERKS_@Base 2.2.1
 _ZN11QWebElement11encloseWithERK7QString@Base 2.2~2011week36
 _ZN11QWebElement11encloseWithERKS_@Base 2.2~2011week36
 _ZN11QWebElement11removeClassERK7QString@Base 2.2~2011week36
 _ZN11QWebElement11setInnerXmlERK7QString@Base 2.2~2011week36
 _ZN11QWebElement11setOuterXmlERK7QString@Base 2.2~2011week36
 _ZN11QWebElement11toggleClassERK7QString@Base 2.2~2011week36
 _ZN11QWebElement12appendInsideERK7QString@Base 2.2~2011week36
 _ZN11QWebElement12appendInsideERKS_@Base 2.2~2011week36
 _ZN11QWebElement12setAttributeERK7QStringS2_@Base 2.2~2011week36
 _ZN11QWebElement12setPlainTextERK7QString@Base 2.2~2011week36
 _ZN11QWebElement13appendOutsideERK7QString@Base 2.2~2011week36
 _ZN11QWebElement13appendOutsideERKS_@Base 2.2~2011week36
 _ZN11QWebElement13prependInsideERK7QString@Base 2.2~2011week36
 _ZN11QWebElement13prependInsideERKS_@Base 2.2~2011week36
 _ZN11QWebElement14prependOutsideERK7QString@Base 2.2~2011week36
 _ZN11QWebElement14prependOutsideERKS_@Base 2.2~2011week36
 _ZN11QWebElement14setAttributeNSERK7QStringS2_S2_@Base 2.2~2011week36
 _ZN11QWebElement15removeAttributeERK7QString@Base 2.2~2011week36
 _ZN11QWebElement16enclosingElementEPN7WebCore4NodeE@Base 2.2~2011week36
 _ZN11QWebElement16setStylePropertyERK7QStringS2_@Base 2.2~2011week36
 _ZN11QWebElement16takeFromDocumentEv@Base 2.2~2011week36
 _ZN11QWebElement17removeAllChildrenEv@Base 2.2~2011week36
 _ZN11QWebElement17removeAttributeNSERK7QStringS2_@Base 2.2~2011week36
 _ZN11QWebElement18evaluateJavaScriptERK7QString@Base 2.2~2011week36
 _ZN11QWebElement18removeFromDocumentEv@Base 2.2~2011week36
 _ZN11QWebElement19encloseContentsWithERK7QString@Base 2.2~2011week36
 _ZN11QWebElement19encloseContentsWithERKS_@Base 2.2~2011week36
 _ZN11QWebElement6renderEP8QPainter@Base 2.2~2011week36
 _ZN11QWebElement6renderEP8QPainterRK5QRect@Base 2.2~2011week36
 _ZN11QWebElement7replaceERK7QString@Base 2.2~2011week36
 _ZN11QWebElement7replaceERKS_@Base 2.2~2011week36
 _ZN11QWebElement8addClassERK7QString@Base 2.2~2011week36
 _ZN11QWebElement8setFocusEv@Base 2.2~2011week36
 _ZN11QWebElementC1EPN7WebCore4NodeE@Base 2.2~2011week36
 _ZN11QWebElementC1EPN7WebCore7ElementE@Base 2.2~2011week36
 _ZN11QWebElementC1ERKS_@Base 2.2~2011week36
 _ZN11QWebElementC1Ev@Base 2.2~2011week36
 _ZN11QWebElementC2EPN7WebCore4NodeE@Base 2.2~2011week36
 _ZN11QWebElementC2EPN7WebCore7ElementE@Base 2.2~2011week36
 _ZN11QWebElementC2ERKS_@Base 2.2~2011week36
 _ZN11QWebElementC2Ev@Base 2.2~2011week36
 _ZN11QWebElementD1Ev@Base 2.2~2011week36
 _ZN11QWebElementD2Ev@Base 2.2~2011week36
 _ZN11QWebElementaSERKS_@Base 2.2~2011week36
 _ZN11QWebHistory19setMaximumItemCountEi@Base 2.2~2011week36
 _ZN11QWebHistory4backEv@Base 2.2~2011week36
 _ZN11QWebHistory5clearEv@Base 2.2~2011week36
 _ZN11QWebHistory7forwardEv@Base 2.2~2011week36
 _ZN11QWebHistory8goToItemERK15QWebHistoryItem@Base 2.2~2011week36
 _ZN11QWebHistoryC1Ev@Base 2.2~2011week36
 _ZN11QWebHistoryC2Ev@Base 2.2~2011week36
 _ZN11QWebHistoryD1Ev@Base 2.2~2011week36
 _ZN11QWebHistoryD2Ev@Base 2.2~2011week36
 _ZN12QMetaTypeId2I11QTextFormatE14qt_metatype_idEv@Base 2.2.1
 _ZN12QWeakPointerI7QWidgetE11internalSetEPN15QtSharedPointer20ExternalRefCountDataEPS0_@Base 2.2.1
 _ZN12QWeakPointerI7QWidgetE5clearEv@Base 2.2.1
 _ZN12QWeakPointerI7QWidgetEC1Ev@Base 2.2.1
 _ZN12QWeakPointerI7QWidgetEC1IS0_EEPT_@Base 2.2.1
 _ZN12QWeakPointerI7QWidgetEC2Ev@Base 2.2.1
 _ZN12QWeakPointerI7QWidgetEC2IS0_EEPT_@Base 2.2.1
 _ZN12QWeakPointerI7QWidgetED1Ev@Base 2.2.1
 _ZN12QWeakPointerI7QWidgetED2Ev@Base 2.2.1
 _ZN12QWeakPointerI7QWidgetEaSERKS1_@Base 2.2.1
 _ZN12QWeakPointerI7QWidgetEaSIS0_EERS1_PT_@Base 2.2.1
 _ZN12QWebDatabase14removeDatabaseERKS_@Base 2.2~2011week36
 _ZN12QWebDatabase18removeAllDatabasesEv@Base 2.2~2011week36
 _ZN12QWebDatabaseC1EP19QWebDatabasePrivate@Base 2.2~2011week36
 _ZN12QWebDatabaseC1ERKS_@Base 2.2~2011week36
 _ZN12QWebDatabaseC2EP19QWebDatabasePrivate@Base 2.2~2011week36
 _ZN12QWebDatabaseC2ERKS_@Base 2.2~2011week36
 _ZN12QWebDatabaseD1Ev@Base 2.2~2011week36
 _ZN12QWebDatabaseD2Ev@Base 2.2~2011week36
 _ZN12QWebDatabaseaSERKS_@Base 2.2~2011week36
 _ZN12QWebSettings10iconForUrlERK4QUrl@Base 2.2~2011week36
 _ZN12QWebSettings10webGraphicENS_10WebGraphicE@Base 2.2~2011week36
 _ZN12QWebSettings11setFontSizeENS_8FontSizeEi@Base 2.2~2011week36
 _ZN12QWebSettings12setAttributeENS_12WebAttributeEb@Base 2.2~2011week36
 _ZN12QWebSettings13resetFontSizeENS_8FontSizeE@Base 2.2~2011week36
 _ZN12QWebSettings13setFontFamilyENS_10FontFamilyERK7QString@Base 2.2~2011week36
 _ZN12QWebSettings13setWebGraphicENS_10WebGraphicERK7QPixmap@Base 2.2~2011week36
 _ZN12QWebSettings14globalSettingsEv@Base 2.2~2011week36
 _ZN12QWebSettings14resetAttributeENS_12WebAttributeE@Base 2.2~2011week36
 _ZN12QWebSettings15resetFontFamilyENS_10FontFamilyE@Base 2.2~2011week36
 _ZN12QWebSettings16iconDatabasePathEv@Base 2.2~2011week36
 _ZN12QWebSettings17clearIconDatabaseEv@Base 2.2~2011week36
 _ZN12QWebSettings17clearMemoryCachesEv@Base 2.2~2011week36
 _ZN12QWebSettings18offlineStoragePathEv@Base 2.2~2011week36
 _ZN12QWebSettings19maximumPagesInCacheEv@Base 2.2~2011week36
 _ZN12QWebSettings19setIconDatabasePathERK7QString@Base 2.2~2011week36
 _ZN12QWebSettings19setLocalStoragePathERK7QString@Base 2.2~2011week36
 _ZN12QWebSettings20setUserStyleSheetUrlERK4QUrl@Base 2.2~2011week36
 _ZN12QWebSettings21setOfflineStoragePathERK7QString@Base 2.2~2011week36
 _ZN12QWebSettings22setDefaultTextEncodingERK7QString@Base 2.2~2011week36
 _ZN12QWebSettings22setMaximumPagesInCacheEi@Base 2.2~2011week36
 _ZN12QWebSettings23enablePersistentStorageERK7QString@Base 2.2~2011week36
 _ZN12QWebSettings24setObjectCacheCapacitiesEiii@Base 2.2~2011week36
 _ZN12QWebSettings26offlineStorageDefaultQuotaEv@Base 2.2~2011week36
 _ZN12QWebSettings29setOfflineStorageDefaultQuotaEx@Base 2.2~2011week36
 _ZN12QWebSettings30offlineWebApplicationCachePathEv@Base 2.2~2011week36
 _ZN12QWebSettings31offlineWebApplicationCacheQuotaEv@Base 2.2~2011week36
 _ZN12QWebSettings33setOfflineWebApplicationCachePathERK7QString@Base 2.2~2011week36
 _ZN12QWebSettings34setOfflineWebApplicationCacheQuotaEx@Base 2.2~2011week36
 _ZN12QWebSettingsC1EPN7WebCore8SettingsE@Base 2.2~2011week36
 _ZN12QWebSettingsC1Ev@Base 2.2~2011week36
 _ZN12QWebSettingsC2EPN7WebCore8SettingsE@Base 2.2~2011week36
 _ZN12QWebSettingsC2Ev@Base 2.2~2011week36
 _ZN12QWebSettingsD1Ev@Base 2.2~2011week36
 _ZN12QWebSettingsD2Ev@Base 2.2~2011week36
 _ZN13EditCommandQt4redoEv@Base 2.2.1
 _ZN13EditCommandQt4undoEv@Base 2.2.1
 _ZN13EditCommandQtC1EN3WTF6RefPtrIN7WebCore11EditCommandEEEP12QUndoCommand@Base 2.2.1
 _ZN13EditCommandQtC2EN3WTF6RefPtrIN7WebCore11EditCommandEEEP12QUndoCommand@Base 2.2.1
 _ZN13EditCommandQtD0Ev@Base 2.2.1
 _ZN13EditCommandQtD1Ev@Base 2.2.1
 _ZN13EditCommandQtD2Ev@Base 2.2.1
 _ZN13QGraphicsItem4hideEv@Base 2.2.1
 _ZN13QGraphicsItem4showEv@Base 2.2.1
 _ZN13QGraphicsItem6setPosEff@Base 2.2.1
 _ZN13QListIteratorIP9QWebFrameE4nextEv@Base 2.2.1
 _ZN13QListIteratorIP9QWebFrameEC1ERK5QListIS1_E@Base 2.2.1
 _ZN13QListIteratorIP9QWebFrameEC2ERK5QListIS1_E@Base 2.2.1
 _ZN13QListIteratorIP9QWebFrameED1Ev@Base 2.2.1
 _ZN13QListIteratorIP9QWebFrameED2Ev@Base 2.2.1
 _ZN13QStandardItem10setToolTipERK7QString@Base 2.2.1
 _ZN13QStandardItem13setBackgroundERK6QBrush@Base 2.2.1
 _ZN13QStandardItem13setForegroundERK6QBrush@Base 2.2.1
 _ZN13QWebFrameDataC1EPN7WebCore4PageEPNS0_5FrameEPNS0_21HTMLFrameOwnerElementERKN3WTF6StringE@Base 2.2.1
 _ZN13QWebFrameDataC2EPN7WebCore4PageEPNS0_5FrameEPNS0_21HTMLFrameOwnerElementERKN3WTF6StringE@Base 2.2.1
 _ZN13QWebFrameDataD1Ev@Base 2.2.1
 _ZN13QWebFrameDataD2Ev@Base 2.2.1
 _ZN13QWebInspector10closeEventEP11QCloseEvent@Base 2.2~2011week36
 _ZN13QWebInspector11qt_metacallEN11QMetaObject4CallEiPPv@Base 2.2~2011week36
 _ZN13QWebInspector11qt_metacastEPKc@Base 2.2~2011week36
 _ZN13QWebInspector11resizeEventEP12QResizeEvent@Base 2.2~2011week36
 _ZN13QWebInspector16staticMetaObjectE@Base 2.2~2011week36
 _ZN13QWebInspector5eventEP6QEvent@Base 2.2~2011week36
 _ZN13QWebInspector7setPageEP8QWebPage@Base 2.2~2011week36
 _ZN13QWebInspector9hideEventEP10QHideEvent@Base 2.2~2011week36
 _ZN13QWebInspector9showEventEP10QShowEvent@Base 2.2~2011week36
 _ZN13QWebInspectorC1EP7QWidget@Base 2.2~2011week36
 _ZN13QWebInspectorC2EP7QWidget@Base 2.2~2011week36
 _ZN13QWebInspectorD0Ev@Base 2.2~2011week36
 _ZN13QWebInspectorD1Ev@Base 2.2~2011week36
 _ZN13QWebInspectorD2Ev@Base 2.2~2011week36
 _ZN14QDragMoveEvent6acceptEv@Base 2.2.1
 _ZN14QWebPageClient11markForSyncEb@Base 2.2.1
 _ZN14QWebPageClient11resetCursorEv@Base 2.2.1
 _ZN14QWebPageClient20setRootGraphicsLayerEP15QGraphicsObject@Base 2.2.1
 _ZN14QWebPageClient9setCursorERK7QCursor@Base 2.2.1
 _ZN14QWebPageClientC1Ev@Base 2.2.1
 _ZN14QWebPageClientC2Ev@Base 2.2.1
 _ZN14QWebPageClientD0Ev@Base 2.2.1
 _ZN14QWebPageClientD1Ev@Base 2.2.1
 _ZN14QWebPageClientD2Ev@Base 2.2.1
 _ZN14QWebPluginInfo10setEnabledEb@Base 2.2~2011week36
 _ZN14QWebPluginInfoC1EPN7WebCore13PluginPackageE@Base 2.2~2011week36
 _ZN14QWebPluginInfoC1ERKS_@Base 2.2~2011week36
 _ZN14QWebPluginInfoC1Ev@Base 2.2~2011week36
 _ZN14QWebPluginInfoC2EPN7WebCore13PluginPackageE@Base 2.2~2011week36
 _ZN14QWebPluginInfoC2ERKS_@Base 2.2~2011week36
 _ZN14QWebPluginInfoC2Ev@Base 2.2~2011week36
 _ZN14QWebPluginInfoD1Ev@Base 2.2~2011week36
 _ZN14QWebPluginInfoD2Ev@Base 2.2~2011week36
 _ZN14QWebPluginInfoaSERKS_@Base 2.2~2011week36
 _ZN14QWebSelectDataC1Ev@Base 2.2.1
 _ZN14QWebSelectDataC2Ev@Base 2.2.1
 _ZN14QWebSelectDataD0Ev@Base 2.2.1
 _ZN14QWebSelectDataD1Ev@Base 2.2.1
 _ZN14QWebSelectDataD2Ev@Base 2.2.1
 _ZN15QBasicAtomicInt3refEv@Base 2.2.1
 _ZN15QBasicAtomicInt5derefEv@Base 2.2.1
 _ZN15QBasicAtomicIntC1Ev@Base 2.2.1
 _ZN15QBasicAtomicIntC2Ev@Base 2.2.1
 _ZN15QGraphicsObjectD0Ev@Base 2.2~2011week36
 _ZN15QGraphicsObjectD1Ev@Base 2.2~2011week36
 _ZN15QGraphicsObjectD2Ev@Base 2.2~2011week36
 _ZN15QReturnArgumentIbEC1EPKcRb@Base 2.2.1
 _ZN15QReturnArgumentIbEC2EPKcRb@Base 2.2.1
 _ZN15QSystemTrayIcon4showEv@Base 2.2.1
 _ZN15QTextCharFormatD1Ev@Base 2.2.1
 _ZN15QTextCharFormatD2Ev@Base 2.2.1
 _ZN15QWebHistoryItem11setUserDataERK8QVariant@Base 2.2~2011week36
 _ZN15QWebHistoryItemC1EP22QWebHistoryItemPrivate@Base 2.2~2011week36
 _ZN15QWebHistoryItemC1ERKS_@Base 2.2~2011week36
 _ZN15QWebHistoryItemC2EP22QWebHistoryItemPrivate@Base 2.2~2011week36
 _ZN15QWebHistoryItemC2ERKS_@Base 2.2~2011week36
 _ZN15QWebHistoryItemD1Ev@Base 2.2~2011week36
 _ZN15QWebHistoryItemD2Ev@Base 2.2~2011week36
 _ZN15QWebHistoryItemaSERKS_@Base 2.2~2011week36
 _ZN15QWebPagePrivate10leaveEventEP6QEvent@Base 2.2.1
 _ZN15QWebPagePrivate10timerEventEP11QTimerEvent@Base 2.2.1
 _ZN15QWebPagePrivate10touchEventEP11QTouchEvent@Base 2.2.1
 _ZN15QWebPagePrivate10wheelEventI11QWheelEventEEvPT_@Base 2.2.1
 _ZN15QWebPagePrivate10wheelEventI24QGraphicsSceneWheelEventEEvPT_@Base 2.2.1
 _ZN15QWebPagePrivate12focusInEventEP11QFocusEvent@Base 2.2.1
 _ZN15QWebPagePrivate12setInspectorEP13QWebInspector@Base 2.2.1
 _ZN15QWebPagePrivate12updateActionEN8QWebPage9WebActionE@Base 2.2.1
 _ZN15QWebPagePrivate13TouchAdjusterC1Ejjjj@Base 2.2.1
 _ZN15QWebPagePrivate13TouchAdjusterC2Ejjjj@Base 2.2.1
 _ZN15QWebPagePrivate13dragMoveEventI14QDragMoveEventEEvPT_@Base 2.2.1
 _ZN15QWebPagePrivate13dragMoveEventI27QGraphicsSceneDragDropEventEEvPT_@Base 2.2.1
 _ZN15QWebPagePrivate13focusOutEventEP11QFocusEvent@Base 2.2.1
 _ZN15QWebPagePrivate13keyPressEventEP9QKeyEvent@Base 2.2.1
 _ZN15QWebPagePrivate14dragEnterEventI15QDragEnterEventEEvPT_@Base 2.2.1
 _ZN15QWebPagePrivate14dragEnterEventI27QGraphicsSceneDragDropEventEEvPT_@Base 2.2.1
 _ZN15QWebPagePrivate14dragLeaveEventI15QDragLeaveEventEEvPT_@Base 2.2.1
 _ZN15QWebPagePrivate14dragLeaveEventI27QGraphicsSceneDragDropEventEEvPT_@Base 2.2.1
 _ZN15QWebPagePrivate14mouseMoveEventI11QMouseEventEEvPT_@Base 2.2.1
 _ZN15QWebPagePrivate14mouseMoveEventI24QGraphicsSceneMouseEventEEvPT_@Base 2.2.1
 _ZN15QWebPagePrivate15createMainFrameEv@Base 2.2.1
 _ZN15QWebPagePrivate15handleClipboardEP6QEventN2Qt11MouseButtonE@Base 2.2.1
 _ZN15QWebPagePrivate15handleScrollingEP9QKeyEventPN7WebCore5FrameE@Base 2.2.1
 _ZN15QWebPagePrivate15keyReleaseEventEP9QKeyEvent@Base 2.2.1
 _ZN15QWebPagePrivate15mousePressEventI11QMouseEventEEvPT_@Base 2.2.1
 _ZN15QWebPagePrivate15mousePressEventI24QGraphicsSceneMouseEventEEvPT_@Base 2.2.1
 _ZN15QWebPagePrivate16contextMenuEventERK6QPoint@Base 2.2.1
 _ZN15QWebPagePrivate16inputMethodEventEP17QInputMethodEvent@Base 2.2.1
 _ZN15QWebPagePrivate17createContextMenuEPKN7WebCore11ContextMenuEPK5QListINS0_15ContextMenuItemEEP9QBitArray@Base 2.2.1
 _ZN15QWebPagePrivate17mouseReleaseEventI11QMouseEventEEvPT_@Base 2.2.1
 _ZN15QWebPagePrivate17mouseReleaseEventI24QGraphicsSceneMouseEventEEvPT_@Base 2.2.1
 _ZN15QWebPagePrivate17viewportArgumentsEv@Base 2.2.1
 _ZN15QWebPagePrivate19inspectorControllerEv@Base 2.2.1
 _ZN15QWebPagePrivate19inspectorServerPortEv@Base 2.2.1
 _ZN15QWebPagePrivate19updateEditorActionsEv@Base 2.2.1
 _ZN15QWebPagePrivate20getOrCreateInspectorEv@Base 2.2.1
 _ZN15QWebPagePrivate21_q_webActionTriggeredEb@Base 2.2.1
 _ZN15QWebPagePrivate21mouseDoubleClickEventI11QMouseEventEEvPT_@Base 2.2.1
 _ZN15QWebPagePrivate21mouseDoubleClickEventI24QGraphicsSceneMouseEventEEvPT_@Base 2.2.1
 _ZN15QWebPagePrivate21mouseTripleClickEventI11QMouseEventEEvPT_@Base 2.2.1
 _ZN15QWebPagePrivate21mouseTripleClickEventI24QGraphicsSceneMouseEventEEvPT_@Base 2.2.1
 _ZN15QWebPagePrivate21shortcutOverrideEventEP9QKeyEvent@Base 2.2.1
 _ZN15QWebPagePrivate22_q_cleanupLeakMessagesEv@Base 2.2.1
 _ZN15QWebPagePrivate22adjustPointForClickingEP11QMouseEvent@Base 2.2.1
 _ZN15QWebPagePrivate22adjustPointForClickingEP24QGraphicsSceneMouseEvent@Base 2.2.1
 _ZN15QWebPagePrivate23acceptNavigationRequestEP9QWebFrameRK15QNetworkRequestN8QWebPage14NavigationTypeE@Base 2.2.1
 _ZN15QWebPagePrivate23editorActionForKeyEventEP9QKeyEvent@Base 2.2.1
 _ZN15QWebPagePrivate23updateNavigationActionsEv@Base 2.2.1
 _ZN15QWebPagePrivate24_q_onLoadProgressChangedEi@Base 2.2.1
 _ZN15QWebPagePrivate24handleSoftwareInputPanelEN2Qt11MouseButtonERK6QPoint@Base 2.2.1
 _ZN15QWebPagePrivate26dynamicPropertyChangeEventEP27QDynamicPropertyChangeEvent@Base 2.2.1
 _ZN15QWebPagePrivate26editorCommandForWebActionsEN8QWebPage9WebActionE@Base 2.2.1
 _ZN15QWebPagePrivate4coreEPK8QWebPage@Base 2.2.1
 _ZN15QWebPagePrivate4privEP8QWebPage@Base 2.2.1
 _ZN15QWebPagePrivate6drtRunE@Base 2.2.1
 _ZN15QWebPagePrivate9dropEventI10QDropEventEEvPT_@Base 2.2.1
 _ZN15QWebPagePrivate9dropEventI27QGraphicsSceneDragDropEventEEvPT_@Base 2.2.1
 _ZN15QWebPagePrivateC1EP8QWebPage@Base 2.2.1
 _ZN15QWebPagePrivateC2EP8QWebPage@Base 2.2.1
 _ZN15QWebPagePrivateD1Ev@Base 2.2.1
 _ZN15QWebPagePrivateD2Ev@Base 2.2.1
 _ZN15QWebScriptWorldC1ERKS_@Base 2.2~2011week36
 _ZN15QWebScriptWorldC1Ev@Base 2.2~2011week36
 _ZN15QWebScriptWorldC2ERKS_@Base 2.2~2011week36
 _ZN15QWebScriptWorldC2Ev@Base 2.2~2011week36
 _ZN15QWebScriptWorldD1Ev@Base 2.2~2011week36
 _ZN15QWebScriptWorldD2Ev@Base 2.2~2011week36
 _ZN15QWebScriptWorldaSERKS_@Base 2.2~2011week36
 _ZN15QWebViewPrivate16_q_pageDestroyedEv@Base 2.2.1
 _ZN15QWebViewPrivate17detachCurrentPageEv@Base 2.2.1
 _ZN15QWebViewPrivateC1EP8QWebView@Base 2.2.1
 _ZN15QWebViewPrivateC2EP8QWebView@Base 2.2.1
 _ZN15QWebViewPrivateD0Ev@Base 2.2.1
 _ZN15QWebViewPrivateD1Ev@Base 2.2.1
 _ZN15QWebViewPrivateD2Ev@Base 2.2.1
 _ZN16QCoreApplication9sendEventEP7QObjectP6QEvent@Base 2.2.1
 _ZN16QGraphicsWebView10itemChangeEN13QGraphicsItem18GraphicsItemChangeERK8QVariant@Base 2.2~2011week36
 _ZN16QGraphicsWebView10sceneEventEP6QEvent@Base 2.2~2011week36
 _ZN16QGraphicsWebView10setContentERK10QByteArrayRK7QStringRK4QUrl@Base 2.2~2011week36
 _ZN16QGraphicsWebView10urlChangedERK4QUrl@Base 2.2~2011week36
 _ZN16QGraphicsWebView10wheelEventEP24QGraphicsSceneWheelEvent@Base 2.2~2011week36
 _ZN16QGraphicsWebView11iconChangedEv@Base 2.2~2011week36
 _ZN16QGraphicsWebView11linkClickedERK4QUrl@Base 2.2~2011week36
 _ZN16QGraphicsWebView11loadStartedEv@Base 2.2~2011week36
 _ZN16QGraphicsWebView11qt_metacallEN11QMetaObject4CallEiPPv@Base 2.2~2011week36
 _ZN16QGraphicsWebView11qt_metacastEPKc@Base 2.2~2011week36
 _ZN16QGraphicsWebView11setGeometryERK6QRectF@Base 2.2~2011week36
 _ZN16QGraphicsWebView12focusInEventEP11QFocusEvent@Base 2.2~2011week36
 _ZN16QGraphicsWebView12loadFinishedEb@Base 2.2~2011week36
 _ZN16QGraphicsWebView12loadProgressEi@Base 2.2~2011week36
 _ZN16QGraphicsWebView12titleChangedERK7QString@Base 2.2~2011week36
 _ZN16QGraphicsWebView13dragMoveEventEP27QGraphicsSceneDragDropEvent@Base 2.2~2011week36
 _ZN16QGraphicsWebView13focusOutEventEP11QFocusEvent@Base 2.2~2011week36
 _ZN16QGraphicsWebView13keyPressEventEP9QKeyEvent@Base 2.2~2011week36
 _ZN16QGraphicsWebView13setRenderHintEN8QPainter10RenderHintEb@Base 2.2~2011week36
 _ZN16QGraphicsWebView13setZoomFactorEf@Base 2.2~2011week36
 _ZN16QGraphicsWebView14dragEnterEventEP27QGraphicsSceneDragDropEvent@Base 2.2~2011week36
 _ZN16QGraphicsWebView14dragLeaveEventEP27QGraphicsSceneDragDropEvent@Base 2.2~2011week36
 _ZN16QGraphicsWebView14hoverMoveEventEP24QGraphicsSceneHoverEvent@Base 2.2~2011week36
 _ZN16QGraphicsWebView14mouseMoveEventEP24QGraphicsSceneMouseEvent@Base 2.2~2011week36
 _ZN16QGraphicsWebView14setRenderHintsE6QFlagsIN8QPainter10RenderHintEE@Base 2.2~2011week36
 _ZN16QGraphicsWebView14updateGeometryEv@Base 2.2~2011week36
 _ZN16QGraphicsWebView15hoverLeaveEventEP24QGraphicsSceneHoverEvent@Base 2.2~2011week36
 _ZN16QGraphicsWebView15keyReleaseEventEP9QKeyEvent@Base 2.2~2011week36
 _ZN16QGraphicsWebView15mousePressEventEP24QGraphicsSceneMouseEvent@Base 2.2~2011week36
 _ZN16QGraphicsWebView16contextMenuEventEP30QGraphicsSceneContextMenuEvent@Base 2.2~2011week36
 _ZN16QGraphicsWebView16inputMethodEventEP17QInputMethodEvent@Base 2.2~2011week36
 _ZN16QGraphicsWebView16staticMetaObjectE@Base 2.2~2011week36
 _ZN16QGraphicsWebView16statusBarMessageERK7QString@Base 2.2~2011week36
 _ZN16QGraphicsWebView17mouseReleaseEventEP24QGraphicsSceneMouseEvent@Base 2.2~2011week36
 _ZN16QGraphicsWebView17triggerPageActionEN8QWebPage9WebActionEb@Base 2.2~2011week36
 _ZN16QGraphicsWebView18focusNextPrevChildEb@Base 2.2~2011week36
 _ZN16QGraphicsWebView20setResizesToContentsEb@Base 2.2~2011week36
 _ZN16QGraphicsWebView21mouseDoubleClickEventEP24QGraphicsSceneMouseEvent@Base 2.2~2011week36
 _ZN16QGraphicsWebView26setTiledBackingStoreFrozenEb@Base 2.2~2011week36
 _ZN16QGraphicsWebView4backEv@Base 2.2~2011week36
 _ZN16QGraphicsWebView4loadERK15QNetworkRequestN21QNetworkAccessManager9OperationERK10QByteArray@Base 2.2~2011week36
 _ZN16QGraphicsWebView4loadERK4QUrl@Base 2.2~2011week36
 _ZN16QGraphicsWebView4stopEv@Base 2.2~2011week36
 _ZN16QGraphicsWebView5eventEP6QEvent@Base 2.2~2011week36
 _ZN16QGraphicsWebView5paintEP8QPainterPK24QStyleOptionGraphicsItemP7QWidget@Base 2.2~2011week36
 _ZN16QGraphicsWebView6reloadEv@Base 2.2~2011week36
 _ZN16QGraphicsWebView6setUrlERK4QUrl@Base 2.2~2011week36
 _ZN16QGraphicsWebView7forwardEv@Base 2.2~2011week36
 _ZN16QGraphicsWebView7setHtmlERK7QStringRK4QUrl@Base 2.2~2011week36
 _ZN16QGraphicsWebView7setPageEP8QWebPage@Base 2.2~2011week36
 _ZN16QGraphicsWebView8findTextERK7QString6QFlagsIN8QWebPage8FindFlagEE@Base 2.2~2011week36
 _ZN16QGraphicsWebView9dropEventEP27QGraphicsSceneDragDropEvent@Base 2.2~2011week36
 _ZN16QGraphicsWebViewC1EP13QGraphicsItem@Base 2.2~2011week36
 _ZN16QGraphicsWebViewC2EP13QGraphicsItem@Base 2.2~2011week36
 _ZN16QGraphicsWebViewD0Ev@Base 2.2~2011week36
 _ZN16QGraphicsWebViewD1Ev@Base 2.2~2011week36
 _ZN16QGraphicsWebViewD2Ev@Base 2.2~2011week36
 _ZN16QVectorTypedDataI6QPointE4freeEPS1_i@Base 2.2.1
 _ZN16QWebFramePrivate11parentFrameEv@Base 2.2.1
 _ZN16QWebFramePrivate14emitUrlChangedEv@Base 2.2.1
 _ZN16QWebFramePrivate17renderFrameExtrasEPN7WebCore15GraphicsContextE6QFlagsIN9QWebFrame11RenderLayerEERK7QRegion@Base 2.2.1
 _ZN16QWebFramePrivate20renderRelativeCoordsEPN7WebCore15GraphicsContextE6QFlagsIN9QWebFrame11RenderLayerEERK7QRegion@Base 2.2.1
 _ZN16QWebFramePrivate21_q_orientationChangedEv@Base 2.2.1
 _ZN16QWebFramePrivate27renderFromTiledBackingStoreEPN7WebCore15GraphicsContextERK7QRegion@Base 2.2.1
 _ZN16QWebFramePrivate3kitEPKN7WebCore5FrameE@Base 2.2.1
 _ZN16QWebFramePrivate4coreEPK9QWebFrame@Base 2.2.1
 _ZN16QWebFramePrivate4initEP9QWebFrameP13QWebFrameData@Base 2.2.1
 _ZN16QWebFramePrivate7setPageEP8QWebPage@Base 2.2.1
 _ZN16QWebFramePrivateC1Ev@Base 2.2.1
 _ZN16QWebFramePrivateC2Ev@Base 2.2.1
 _ZN16QWebFramePrivateD1Ev@Base 2.2.1
 _ZN16QWebFramePrivateD2Ev@Base 2.2.1
 _ZN16QWebSelectMethod10selectItemEibb@Base 2.2.1
 _ZN16QWebSelectMethod11qt_metacallEN11QMetaObject4CallEiPPv@Base 2.2.1
 _ZN16QWebSelectMethod11qt_metacastEPKc@Base 2.2.1
 _ZN16QWebSelectMethod16staticMetaObjectE@Base 2.2.1
 _ZN16QWebSelectMethod7didHideEv@Base 2.2.1
 _ZN16QWebSelectMethodC1Ev@Base 2.2.1
 _ZN16QWebSelectMethodC2Ev@Base 2.2.1
 _ZN16QWebSelectMethodD0Ev@Base 2.2.1
 _ZN16QWebSelectMethodD1Ev@Base 2.2.1
 _ZN16QWebSelectMethodD2Ev@Base 2.2.1
 _ZN17QStyleOptionFrameD1Ev@Base 2.2.1
 _ZN17QStyleOptionFrameD2Ev@Base 2.2.1
 _ZN17QWebHitTestResultC1EP24QWebHitTestResultPrivate@Base 2.2~2011week36
 _ZN17QWebHitTestResultC1ERKS_@Base 2.2~2011week36
 _ZN17QWebHitTestResultC1Ev@Base 2.2~2011week36
 _ZN17QWebHitTestResultC2EP24QWebHitTestResultPrivate@Base 2.2~2011week36
 _ZN17QWebHitTestResultC2ERKS_@Base 2.2~2011week36
 _ZN17QWebHitTestResultC2Ev@Base 2.2~2011week36
 _ZN17QWebHitTestResultD1Ev@Base 2.2~2011week36
 _ZN17QWebHitTestResultD2Ev@Base 2.2~2011week36
 _ZN17QWebHitTestResultaSERKS_@Base 2.2~2011week36
 _ZN17QWebPluginFactory11qt_metacallEN11QMetaObject4CallEiPPv@Base 2.2~2011week36
 _ZN17QWebPluginFactory11qt_metacastEPKc@Base 2.2~2011week36
 _ZN17QWebPluginFactory14refreshPluginsEv@Base 2.2~2011week36
 _ZN17QWebPluginFactory16staticMetaObjectE@Base 2.2~2011week36
 _ZN17QWebPluginFactory6PluginD1Ev@Base 2.2.1
 _ZN17QWebPluginFactory6PluginD2Ev@Base 2.2.1
 _ZN17QWebPluginFactory8MimeTypeC1ERKS0_@Base 2.2.1
 _ZN17QWebPluginFactory8MimeTypeC1Ev@Base 2.2.1
 _ZN17QWebPluginFactory8MimeTypeC2ERKS0_@Base 2.2.1
 _ZN17QWebPluginFactory8MimeTypeC2Ev@Base 2.2.1
 _ZN17QWebPluginFactory8MimeTypeD1Ev@Base 2.2~2011week36
 _ZN17QWebPluginFactory8MimeTypeD2Ev@Base 2.2~2011week36
 _ZN17QWebPluginFactory9extensionENS_9ExtensionEPKNS_15ExtensionOptionEPNS_15ExtensionReturnE@Base 2.2~2011week36
 _ZN17QWebPluginFactoryC1EP7QObject@Base 2.2~2011week36
 _ZN17QWebPluginFactoryC2EP7QObject@Base 2.2~2011week36
 _ZN17QWebPluginFactoryD0Ev@Base 2.2~2011week36
 _ZN17QWebPluginFactoryD1Ev@Base 2.2~2011week36
 _ZN17QWebPluginFactoryD2Ev@Base 2.2~2011week36
 _ZN17QWebTouchModifier11qt_metacallEN11QMetaObject4CallEiPPv@Base 2.2.1
 _ZN17QWebTouchModifier11qt_metacastEPKc@Base 2.2.1
 _ZN17QWebTouchModifier16staticMetaObjectE@Base 2.2.1
 _ZN17QWebTouchModifierD0Ev@Base 2.2.1
 _ZN17QWebTouchModifierD1Ev@Base 2.2.1
 _ZN17QWebTouchModifierD2Ev@Base 2.2.1
 _ZN18QHttpRequestHeaderD0Ev@Base 2.2.1
 _ZN18QHttpRequestHeaderD1Ev@Base 2.2.1
 _ZN18QHttpRequestHeaderD2Ev@Base 2.2.1
 _ZN18QSharedDataPointerI27QtViewportAttributesPrivateEC1EPS0_@Base 2.2.1
 _ZN18QSharedDataPointerI27QtViewportAttributesPrivateEC1ERKS1_@Base 2.2.1
 _ZN18QSharedDataPointerI27QtViewportAttributesPrivateEC2EPS0_@Base 2.2.1
 _ZN18QSharedDataPointerI27QtViewportAttributesPrivateEC2ERKS1_@Base 2.2.1
 _ZN18QSharedDataPointerI27QtViewportAttributesPrivateED1Ev@Base 2.2.1
 _ZN18QSharedDataPointerI27QtViewportAttributesPrivateED2Ev@Base 2.2.1
 _ZN18QSharedDataPointerI27QtViewportAttributesPrivateEaSERKS1_@Base 2.2.1
 _ZN18QStyleOptionButtonD1Ev@Base 2.2~2011week36
 _ZN18QStyleOptionButtonD2Ev@Base 2.2~2011week36
 _ZN18QStyleOptionSliderD1Ev@Base 2.2~2011week36
 _ZN18QStyleOptionSliderD2Ev@Base 2.2~2011week36
 _ZN18QWebHistoryPrivate4pageEv@Base 2.2.1
 _ZN18QWebHistoryPrivateC1EPN7WebCore19BackForwardListImplE@Base 2.2.1
 _ZN18QWebHistoryPrivateC2EPN7WebCore19BackForwardListImplE@Base 2.2.1
 _ZN18QWebHistoryPrivateD1Ev@Base 2.2.1
 _ZN18QWebHistoryPrivateD2Ev@Base 2.2.1
 _ZN18QWebPluginDatabase11qt_metacallEN11QMetaObject4CallEiPPv@Base 2.2~2011week36
 _ZN18QWebPluginDatabase11qt_metacastEPKc@Base 2.2~2011week36
 _ZN18QWebPluginDatabase13addSearchPathERK7QString@Base 2.2~2011week36
 _ZN18QWebPluginDatabase14setSearchPathsERK11QStringList@Base 2.2~2011week36
 _ZN18QWebPluginDatabase16staticMetaObjectE@Base 2.2~2011week36
 _ZN18QWebPluginDatabase17pluginForMimeTypeERK7QString@Base 2.2~2011week36
 _ZN18QWebPluginDatabase18defaultSearchPathsEv@Base 2.2~2011week36
 _ZN18QWebPluginDatabase29setPreferredPluginForMimeTypeERK7QStringRK14QWebPluginInfo@Base 2.2~2011week36
 _ZN18QWebPluginDatabase7refreshEv@Base 2.2~2011week36
 _ZN18QWebPluginDatabaseC1EP7QObject@Base 2.2~2011week36
 _ZN18QWebPluginDatabaseC2EP7QObject@Base 2.2~2011week36
 _ZN18QWebPluginDatabaseD0Ev@Base 2.2~2011week36
 _ZN18QWebPluginDatabaseD1Ev@Base 2.2~2011week36
 _ZN18QWebPluginDatabaseD2Ev@Base 2.2~2011week36
 _ZN18QWebSecurityOrigin10allOriginsEv@Base 2.2~2011week36
 _ZN18QWebSecurityOrigin12localSchemesEv@Base 2.2~2011week36
 _ZN18QWebSecurityOrigin14addLocalSchemeERK7QString@Base 2.2~2011week36
 _ZN18QWebSecurityOrigin16setDatabaseQuotaEx@Base 2.2~2011week36
 _ZN18QWebSecurityOrigin17removeLocalSchemeERK7QString@Base 2.2~2011week36
 _ZN18QWebSecurityOrigin24setApplicationCacheQuotaEx@Base 2.2~2011week36
 _ZN18QWebSecurityOriginC1EP25QWebSecurityOriginPrivate@Base 2.2~2011week36
 _ZN18QWebSecurityOriginC1ERKS_@Base 2.2~2011week36
 _ZN18QWebSecurityOriginC2EP25QWebSecurityOriginPrivate@Base 2.2~2011week36
 _ZN18QWebSecurityOriginC2ERKS_@Base 2.2~2011week36
 _ZN18QWebSecurityOriginD1Ev@Base 2.2~2011week36
 _ZN18QWebSecurityOriginD2Ev@Base 2.2~2011week36
 _ZN18QWebSecurityOriginaSERKS_@Base 2.2~2011week36
 _ZN19QBasicAtomicPointerI5QHashIi7QPixmapEE17testAndSetAcquireEPS2_S4_@Base 2.2.1
 _ZN19QBasicAtomicPointerI5QHashIi7QPixmapEE17testAndSetOrderedEPS2_S4_@Base 2.2.1
 _ZN19QBasicAtomicPointerI5QHashIi7QPixmapEE17testAndSetRelaxedEPS2_S4_@Base 2.2.1
 _ZN19QBasicAtomicPointerI5QHashIi7QPixmapEEaSEPS2_@Base 2.2.1
 _ZN19QBasicAtomicPointerI5QListIP19QWebSettingsPrivateEE17testAndSetAcquireEPS3_S5_@Base 2.2.1
 _ZN19QBasicAtomicPointerI5QListIP19QWebSettingsPrivateEE17testAndSetOrderedEPS3_S5_@Base 2.2.1
 _ZN19QBasicAtomicPointerI5QListIP19QWebSettingsPrivateEE17testAndSetRelaxedEPS3_S5_@Base 2.2.1
 _ZN19QBasicAtomicPointerI5QListIP19QWebSettingsPrivateEEaSEPS3_@Base 2.2.1
 _ZN19QHttpResponseHeaderD0Ev@Base 2.2.1
 _ZN19QHttpResponseHeaderD1Ev@Base 2.2.1
 _ZN19QHttpResponseHeaderD2Ev@Base 2.2.1
 _ZN19QStyleOptionComplexD1Ev@Base 2.2.1
 _ZN19QStyleOptionComplexD2Ev@Base 2.2.1
 _ZN19QStyleOptionFrameV2D1Ev@Base 2.2.1
 _ZN19QStyleOptionFrameV2D2Ev@Base 2.2.1
 _ZN19QWebDatabasePrivateC1Ev@Base 2.2.1
 _ZN19QWebDatabasePrivateC2Ev@Base 2.2.1
 _ZN19QWebDatabasePrivateD1Ev@Base 2.2.1
 _ZN19QWebDatabasePrivateD2Ev@Base 2.2.1
 _ZN19QWebSettingsPrivate5applyEv@Base 2.2.1
 _ZN19QWebSettingsPrivateC1EPN7WebCore8SettingsE@Base 2.2.1
 _ZN19QWebSettingsPrivateC2EPN7WebCore8SettingsE@Base 2.2.1
 _ZN19QWebSettingsPrivateD1Ev@Base 2.2.1
 _ZN19QWebSettingsPrivateD2Ev@Base 2.2.1
 _ZN20QGlobalStaticDeleterI5QHashIi7QPixmapEEC1ER13QGlobalStaticIS2_E@Base 2.2.1
 _ZN20QGlobalStaticDeleterI5QHashIi7QPixmapEEC2ER13QGlobalStaticIS2_E@Base 2.2.1
 _ZN20QGlobalStaticDeleterI5QHashIi7QPixmapEED1Ev@Base 2.2.1
 _ZN20QGlobalStaticDeleterI5QHashIi7QPixmapEED2Ev@Base 2.2.1
 _ZN20QGlobalStaticDeleterI5QListIP19QWebSettingsPrivateEEC1ER13QGlobalStaticIS3_E@Base 2.2.1
 _ZN20QGlobalStaticDeleterI5QListIP19QWebSettingsPrivateEEC2ER13QGlobalStaticIS3_E@Base 2.2.1
 _ZN20QGlobalStaticDeleterI5QListIP19QWebSettingsPrivateEED1Ev@Base 2.2.1
 _ZN20QGlobalStaticDeleterI5QListIP19QWebSettingsPrivateEED2Ev@Base 2.2.1
 _ZN20QStyleOptionComboBoxD1Ev@Base 2.2~2011week36
 _ZN20QStyleOptionComboBoxD2Ev@Base 2.2~2011week36
 _ZN20QWebHistoryInterface11qt_metacallEN11QMetaObject4CallEiPPv@Base 2.2~2011week36
 _ZN20QWebHistoryInterface11qt_metacastEPKc@Base 2.2~2011week36
 _ZN20QWebHistoryInterface16defaultInterfaceEv@Base 2.2~2011week36
 _ZN20QWebHistoryInterface16staticMetaObjectE@Base 2.2~2011week36
 _ZN20QWebHistoryInterface19setDefaultInterfaceEPS_@Base 2.2~2011week36
 _ZN20QWebHistoryInterfaceC1EP7QObject@Base 2.2~2011week36
 _ZN20QWebHistoryInterfaceC2EP7QObject@Base 2.2~2011week36
 _ZN20QWebHistoryInterfaceD0Ev@Base 2.2~2011week36
 _ZN20QWebHistoryInterfaceD1Ev@Base 2.2~2011week36
 _ZN20QWebHistoryInterfaceD2Ev@Base 2.2~2011week36
 _ZN20QWebInspectorPrivate11setFrontendEP7QWidget@Base 2.2.1
 _ZN20QWebInspectorPrivate18adjustFrontendSizeERK5QSize@Base 2.2.1
 _ZN20QWebInspectorPrivate20detachRemoteFrontendEv@Base 2.2.1
 _ZN20QWebInspectorPrivate30attachAndReplaceRemoteFrontendEP7QObject@Base 2.2.1
 _ZN20QWebInspectorPrivateC1EP13QWebInspector@Base 2.2.1
 _ZN20QWebInspectorPrivateC2EP13QWebInspector@Base 2.2.1
 _ZN20QWebNotificationDataC1Ev@Base 2.2.1
 _ZN20QWebNotificationDataC2Ev@Base 2.2.1
 _ZN20QWebNotificationDataD0Ev@Base 2.2.1
 _ZN20QWebNotificationDataD1Ev@Base 2.2.1
 _ZN20QWebNotificationDataD2Ev@Base 2.2.1
 _ZN20QXmlStreamAttributesD1Ev@Base 2.2~2011week36
 _ZN20QXmlStreamAttributesD2Ev@Base 2.2~2011week36
 _ZN21QWebElementCollection6appendERKS_@Base 2.2~2011week36
 _ZN21QWebElementCollectionC1ERK11QWebElementRK7QString@Base 2.2~2011week36
 _ZN21QWebElementCollectionC1ERKS_@Base 2.2~2011week36
 _ZN21QWebElementCollectionC1Ev@Base 2.2~2011week36
 _ZN21QWebElementCollectionC2ERK11QWebElementRK7QString@Base 2.2~2011week36
 _ZN21QWebElementCollectionC2ERKS_@Base 2.2~2011week36
 _ZN21QWebElementCollectionC2Ev@Base 2.2~2011week36
 _ZN21QWebElementCollectionD1Ev@Base 2.2~2011week36
 _ZN21QWebElementCollectionD2Ev@Base 2.2~2011week36
 _ZN21QWebElementCollectionaSERKS_@Base 2.2~2011week36
 _ZN21QWebElementCollectionpLERKS_@Base 2.2.1
 _ZN21WebPlatformStrategies10AXLinkTextEv@Base 2.2.1
 _ZN21WebPlatformStrategies10imageTitleERKN3WTF6StringERKN7WebCore7IntSizeE@Base 2.2.1
 _ZN21WebPlatformStrategies10initializeEv@Base 2.2.1
 _ZN21WebPlatformStrategies13AXHeadingTextEv@Base 2.2.1
 _ZN21WebPlatformStrategies13AXWebAreaTextEv@Base 2.2.1
 _ZN21WebPlatformStrategies13getPluginInfoEPKN7WebCore4PageERN3WTF6VectorINS0_10PluginInfoELj0EEE@Base 2.2.1
 _ZN21WebPlatformStrategies13isLinkVisitedEPN7WebCore4PageEy@Base 2.2.1
 _ZN21WebPlatformStrategies14AXImageMapTextEv@Base 2.2.1
 _ZN21WebPlatformStrategies14addVisitedLinkEPN7WebCore4PageEy@Base 2.2.1
 _ZN21WebPlatformStrategies14refreshPluginsEv@Base 2.2.1
 _ZN21WebPlatformStrategies16AXLinkActionVerbEv@Base 2.2.1
 _ZN21WebPlatformStrategies16AXListMarkerTextEv@Base 2.2.1
 _ZN21WebPlatformStrategies17crashedPluginTextEv@Base 2.2.1
 _ZN21WebPlatformStrategies17missingPluginTextEv@Base 2.2.1
 _ZN21WebPlatformStrategies18AXButtonActionVerbEv@Base 2.2.1
 _ZN21WebPlatformStrategies19inputElementAltTextEv@Base 2.2.1
 _ZN21WebPlatformStrategies19unknownFileSizeTextEv@Base 2.2.1
 _ZN21WebPlatformStrategies20AXMenuListActionVerbEv@Base 2.2.1
 _ZN21WebPlatformStrategies20createPluginStrategyEv@Base 2.2.1
 _ZN21WebPlatformStrategies20notifyCookiesChangedEv@Base 2.2.1
 _ZN21WebPlatformStrategies21AXTextFieldActionVerbEv@Base 2.2.1
 _ZN21WebPlatformStrategies21contextMenuItemTagCutEv@Base 2.2.1
 _ZN21WebPlatformStrategies21createCookiesStrategyEv@Base 2.2.1
 _ZN21WebPlatformStrategies22contextMenuItemTagBoldEv@Base 2.2.1
 _ZN21WebPlatformStrategies22contextMenuItemTagCopyEv@Base 2.2.1
 _ZN21WebPlatformStrategies22contextMenuItemTagStopEv@Base 2.2.1
 _ZN21WebPlatformStrategies22multipleFileUploadTextEj@Base 2.2.1
 _ZN21WebPlatformStrategies23AXRadioButtonActionVerbEv@Base 2.2.1
 _ZN21WebPlatformStrategies23contextMenuItemTagPasteEv@Base 2.2.1
 _ZN21WebPlatformStrategies23resetButtonDefaultLabelEv@Base 2.2.1
 _ZN21WebPlatformStrategies24AXDefinitionListTermTextEv@Base 2.2.1
 _ZN21WebPlatformStrategies24contextMenuItemTagGoBackEv@Base 2.2.1
 _ZN21WebPlatformStrategies24contextMenuItemTagItalicEv@Base 2.2.1
 _ZN21WebPlatformStrategies24contextMenuItemTagReloadEv@Base 2.2.1
 _ZN21WebPlatformStrategies24submitButtonDefaultLabelEv@Base 2.2.1
 _ZN21WebPlatformStrategies25AXMenuListPopupActionVerbEv@Base 2.2.1
 _ZN21WebPlatformStrategies25contextMenuItemTagOutlineEv@Base 2.2.1
 _ZN21WebPlatformStrategies25createVisitedLinkStrategyEv@Base 2.2.1
 _ZN21WebPlatformStrategies25defaultDetailsSummaryTextEv@Base 2.2.1
 _ZN21WebPlatformStrategies25fileButtonChooseFileLabelEv@Base 2.2.1
 _ZN21WebPlatformStrategies26contextMenuItemTagFontMenuEv@Base 2.2.1
 _ZN21WebPlatformStrategies26contextMenuItemTagOpenLinkEv@Base 2.2.1
 _ZN21WebPlatformStrategies26createLocalizationStrategyEv@Base 2.2.1
 _ZN21WebPlatformStrategies27AXCheckedCheckBoxActionVerbEv@Base 2.2.1
 _ZN21WebPlatformStrategies27contextMenuItemTagGoForwardEv@Base 2.2.1
 _ZN21WebPlatformStrategies27contextMenuItemTagMediaMuteEv@Base 2.2.1
 _ZN21WebPlatformStrategies27contextMenuItemTagMediaPlayEv@Base 2.2.1
 _ZN21WebPlatformStrategies27contextMenuItemTagSearchWebEv@Base 2.2.1
 _ZN21WebPlatformStrategies27contextMenuItemTagSelectAllEv@Base 2.2.1
 _ZN21WebPlatformStrategies27contextMenuItemTagUnderlineEv@Base 2.2.1
 _ZN21WebPlatformStrategies27searchableIndexIntroductionEv@Base 2.2.1
 _ZN21WebPlatformStrategies28contextMenuItemTagMediaPauseEv@Base 2.2.1
 _ZN21WebPlatformStrategies28mediaElementLoadingStateTextEv@Base 2.2.1
 _ZN21WebPlatformStrategies28searchMenuRecentSearchesTextEv@Base 2.2.1
 _ZN21WebPlatformStrategies28validationMessageTooLongTextEv@Base 2.2.1
 _ZN21WebPlatformStrategies29AXUncheckedCheckBoxActionVerbEv@Base 2.2.1
 _ZN21WebPlatformStrategies29contextMenuItemTagLeftToRightEv@Base 2.2.1
 _ZN21WebPlatformStrategies29contextMenuItemTagRightToLeftEv@Base 2.2.1
 _ZN21WebPlatformStrategies29fileButtonNoFileSelectedLabelEv@Base 2.2.1
 _ZN21WebPlatformStrategies29localizedMediaTimeDescriptionEf@Base 2.2.1
 _ZN21WebPlatformStrategies30AXDefinitionListDefinitionTextEv@Base 2.2.1
 _ZN21WebPlatformStrategies30contextMenuItemTagSpellingMenuEv@Base 2.2.1
 _ZN21WebPlatformStrategies30searchMenuNoRecentSearchesTextEv@Base 2.2.1
 _ZN21WebPlatformStrategies31contextMenuItemTagCheckSpellingEv@Base 2.2.1
 _ZN21WebPlatformStrategies31contextMenuItemTagIgnoreGrammarEv@Base 2.2.1
 _ZN21WebPlatformStrategies31contextMenuItemTagLearnSpellingEv@Base 2.2.1
 _ZN21WebPlatformStrategies32contextMenuItemTagIgnoreSpellingEv@Base 2.2.1
 _ZN21WebPlatformStrategies32contextMenuItemTagInspectElementEv@Base 2.2.1
 _ZN21WebPlatformStrategies32contextMenuItemTagNoGuessesFoundEv@Base 2.2.1
 _ZN21WebPlatformStrategies33contextMenuItemTagToggleMediaLoopEv@Base 2.2.1
 _ZN21WebPlatformStrategies33searchMenuClearRecentSearchesTextEv@Base 2.2.1
 _ZN21WebPlatformStrategies33validationMessageStepMismatchTextEv@Base 2.2.1
 _ZN21WebPlatformStrategies33validationMessageTypeMismatchTextEv@Base 2.2.1
 _ZN21WebPlatformStrategies33validationMessageValueMissingTextEv@Base 2.2.1
 _ZN21WebPlatformStrategies34contextMenuItemTagDefaultDirectionEv@Base 2.2.1
 _ZN21WebPlatformStrategies34localizedMediaControlElementStringERKN3WTF6StringE@Base 2.2.1
 _ZN21WebPlatformStrategies34mediaElementLiveBroadcastStateTextEv@Base 2.2.1
 _ZN21WebPlatformStrategies34validationMessageRangeOverflowTextEv@Base 2.2.1
 _ZN21WebPlatformStrategies35contextMenuItemTagShowSpellingPanelEb@Base 2.2.1
 _ZN21WebPlatformStrategies35contextMenuItemTagTextDirectionMenuEv@Base 2.2.1
 _ZN21WebPlatformStrategies35validationMessageRangeUnderflowTextEv@Base 2.2.1
 _ZN21WebPlatformStrategies36contextMenuItemTagDownloadLinkToDiskEv@Base 2.2.1
 _ZN21WebPlatformStrategies36contextMenuItemTagLookUpInDictionaryERKN3WTF6StringE@Base 2.2.1
 _ZN21WebPlatformStrategies36localizedMediaControlElementHelpTextERKN3WTF6StringE@Base 2.2.1
 _ZN21WebPlatformStrategies36validationMessagePatternMismatchTextEv@Base 2.2.1
 _ZN21WebPlatformStrategies37contextMenuItemTagCopyLinkToClipboardEv@Base 2.2.1
 _ZN21WebPlatformStrategies37contextMenuItemTagDownloadImageToDiskEv@Base 2.2.1
 _ZN21WebPlatformStrategies37contextMenuItemTagOpenLinkInNewWindowEv@Base 2.2.1
 _ZN21WebPlatformStrategies37contextMenuItemTagToggleMediaControlsEv@Base 2.2.1
 _ZN21WebPlatformStrategies38contextMenuItemTagCopyImageToClipboardEv@Base 2.2.1
 _ZN21WebPlatformStrategies38contextMenuItemTagEnterVideoFullscreenEv@Base 2.2.1
 _ZN21WebPlatformStrategies38contextMenuItemTagOpenAudioInNewWindowEv@Base 2.2.1
 _ZN21WebPlatformStrategies38contextMenuItemTagOpenFrameInNewWindowEv@Base 2.2.1
 _ZN21WebPlatformStrategies38contextMenuItemTagOpenImageInNewWindowEv@Base 2.2.1
 _ZN21WebPlatformStrategies38contextMenuItemTagOpenVideoInNewWindowEv@Base 2.2.1
 _ZN21WebPlatformStrategies38contextMenuItemTagWritingDirectionMenuEv@Base 2.2.1
 _ZN21WebPlatformStrategies41contextMenuItemTagCopyImageUrlToClipboardEv@Base 2.2.1
 _ZN21WebPlatformStrategies42contextMenuItemTagCheckGrammarWithSpellingEv@Base 2.2.1
 _ZN21WebPlatformStrategies42contextMenuItemTagCheckSpellingWhileTypingEv@Base 2.2.1
 _ZN21WebPlatformStrategies42contextMenuItemTagCopyAudioLinkToClipboardEv@Base 2.2.1
 _ZN21WebPlatformStrategies42contextMenuItemTagCopyVideoLinkToClipboardEv@Base 2.2.1
 _ZN21WebPlatformStrategiesC1Ev@Base 2.2.1
 _ZN21WebPlatformStrategiesC2Ev@Base 2.2.1
 _ZN21WebPlatformStrategiesD0Ev@Base 2.2.1
 _ZN21WebPlatformStrategiesD1Ev@Base 2.2.1
 _ZN21WebPlatformStrategiesD2Ev@Base 2.2.1
 _ZN22QWebHistoryItemPrivate4coreEPK15QWebHistoryItem@Base 2.2.1
 _ZN22QWebHistoryItemPrivateC1EPN7WebCore11HistoryItemE@Base 2.2.1
 _ZN22QWebHistoryItemPrivateC2EPN7WebCore11HistoryItemE@Base 2.2.1
 _ZN22QWebHistoryItemPrivateD1Ev@Base 2.2.1
 _ZN22QWebHistoryItemPrivateD2Ev@Base 2.2.1
 _ZN22QWebScriptWorldPrivateC1EN3WTF10PassRefPtrIN7WebCore15DOMWrapperWorldEEE@Base 2.2.1
 _ZN22QWebScriptWorldPrivateC2EN3WTF10PassRefPtrIN7WebCore15DOMWrapperWorldEEE@Base 2.2.1
 _ZN22QWebScriptWorldPrivateD1Ev@Base 2.2.1
 _ZN22QWebScriptWorldPrivateD2Ev@Base 2.2.1
 _ZN23DumpRenderTreeSupportQt10findStringEP8QWebPageRK7QStringRK11QStringList@Base 2.2~2011week36
 _ZN23DumpRenderTreeSupportQt10shadowRootERK11QWebElement@Base 2.2~2011week36
 _ZN23DumpRenderTreeSupportQt11clearOpenerEP9QWebFrame@Base 2.2~2011week36
 _ZN23DumpRenderTreeSupportQt11contextMenuEP8QWebPage@Base 2.2~2011week36
 _ZN23DumpRenderTreeSupportQt11shouldCloseEP9QWebFrame@Base 2.2~2011week36
 _ZN23DumpRenderTreeSupportQt12isTargetItemERK15QWebHistoryItem@Base 2.2~2011week36
 _ZN23DumpRenderTreeSupportQt12pagePropertyEP9QWebFrameRK7QStringi@Base 2.2~2011week36
 _ZN23DumpRenderTreeSupportQt12setMediaTypeEP9QWebFrameRK7QString@Base 2.2~2011week36
 _ZN23DumpRenderTreeSupportQt13nodesFromRectERK11QWebElementiijjjjb@Base 2.2~2011week36
 _ZN23DumpRenderTreeSupportQt13numberOfPagesEP9QWebFrameff@Base 2.2~2011week36
 _ZN23DumpRenderTreeSupportQt13selectedRangeEP8QWebPage@Base 2.2~2011week36
 _ZN23DumpRenderTreeSupportQt13setAutofilledERK11QWebElementb@Base 2.2~2011week36
 _ZN23DumpRenderTreeSupportQt14clearFrameNameEP9QWebFrame@Base 2.2~2011week36
 _ZN23DumpRenderTreeSupportQt14pauseAnimationEP9QWebFrameRK7QStringdS4_@Base 2.2~2011week36
 _ZN23DumpRenderTreeSupportQt14viewportAsTextEP8QWebPageiRK5QSizeS4_@Base 2.2~2011week36
 _ZN23DumpRenderTreeSupportQt15dumpFrameLoaderEb@Base 2.2~2011week36
 _ZN23DumpRenderTreeSupportQt16addURLToRedirectERK7QStringS2_@Base 2.2~2011week36
 _ZN23DumpRenderTreeSupportQt16dumpNotificationEb@Base 2.2~2011week36
 _ZN23DumpRenderTreeSupportQt16ensureShadowRootERK11QWebElement@Base 2.2~2011week36
 _ZN23DumpRenderTreeSupportQt16isCommandEnabledEP8QWebPageRK7QString@Base 2.2~2011week36
 _ZN23DumpRenderTreeSupportQt16isPageBoxVisibleEP9QWebFramei@Base 2.2~2011week36
 _ZN23DumpRenderTreeSupportQt16removeShadowRootERK11QWebElement@Base 2.2~2011week36
 _ZN23DumpRenderTreeSupportQt16responseMimeTypeEP9QWebFrame@Base 2.2~2011week36
 _ZN23DumpRenderTreeSupportQt16resumeAnimationsEP9QWebFrame@Base 2.2~2011week36
 _ZN23DumpRenderTreeSupportQt16setAlternateHtmlEP9QWebFrameRK7QStringRK4QUrlS7_@Base 2.2~2011week36
 _ZN23DumpRenderTreeSupportQt16webInspectorShowEP8QWebPage@Base 2.2~2011week36
 _ZN23DumpRenderTreeSupportQt16webPageGroupNameEP8QWebPage@Base 2.2~2011week36
 _ZN23DumpRenderTreeSupportQt17addUserStyleSheetEP8QWebPageRK7QString@Base 2.2~2011week36
 _ZN23DumpRenderTreeSupportQt17clearScriptWorldsEv@Base 2.2~2011week36
 _ZN23DumpRenderTreeSupportQt17historyItemTargetERK15QWebHistoryItem@Base 2.2~2011week36
 _ZN23DumpRenderTreeSupportQt17pauseSVGAnimationEP9QWebFrameRK7QStringdS4_@Base 2.2~2011week36
 _ZN23DumpRenderTreeSupportQt17suspendAnimationsEP9QWebFrame@Base 2.2~2011week36
 _ZN23DumpRenderTreeSupportQt17webInspectorCloseEP8QWebPage@Base 2.2~2011week36
 _ZN23DumpRenderTreeSupportQt17workerThreadCountEv@Base 2.2~2011week36
 _ZN23DumpRenderTreeSupportQt18hasDocumentElementEP9QWebFrame@Base 2.2~2011week36
 _ZN23DumpRenderTreeSupportQt18setEditingBehaviorEP8QWebPageRK7QString@Base 2.2~2011week36
 _ZN23DumpRenderTreeSupportQt19webPageSetGroupNameEP8QWebPageRK7QString@Base 2.2~2011week36
 _ZN23DumpRenderTreeSupportQt20dumpEditingCallbacksEb@Base 2.2~2011week36
 _ZN23DumpRenderTreeSupportQt20dumpHistoryCallbacksEb@Base 2.2~2011week36
 _ZN23DumpRenderTreeSupportQt20getChildHistoryItemsERK15QWebHistoryItem@Base 2.2~2011week36
 _ZN23DumpRenderTreeSupportQt20resetGeolocationMockEP8QWebPage@Base 2.2~2011week36
 _ZN23DumpRenderTreeSupportQt20resetInternalsObjectEP9QWebFrame@Base 2.2~2011week36
 _ZN23DumpRenderTreeSupportQt21dumpSetAcceptsEditingEb@Base 2.2~2011week36
 _ZN23DumpRenderTreeSupportQt21injectInternalsObjectEP9QWebFrame@Base 2.2~2011week36
 _ZN23DumpRenderTreeSupportQt21markerTextForListItemERK11QWebElement@Base 2.2~2011week36
 _ZN23DumpRenderTreeSupportQt22javaScriptObjectsCountEv@Base 2.2~2011week36
 _ZN23DumpRenderTreeSupportQt22resumeActiveDOMObjectsEP9QWebFrame@Base 2.2~2011week36
 _ZN23DumpRenderTreeSupportQt23garbageCollectorCollectEv@Base 2.2~2011week36
 _ZN23DumpRenderTreeSupportQt23setCaretBrowsingEnabledEP8QWebPageb@Base 2.2~2011week36
 _ZN23DumpRenderTreeSupportQt23setCustomPolicyDelegateEbb@Base 2.2~2011week36
 _ZN23DumpRenderTreeSupportQt23setMinimumTimerIntervalEP8QWebPaged@Base 2.2~2011week36
 _ZN23DumpRenderTreeSupportQt23setMockGeolocationErrorEP8QWebPageiRK7QString@Base 2.2~2011week36
 _ZN23DumpRenderTreeSupportQt23suspendActiveDOMObjectsEP9QWebFrame@Base 2.2~2011week36
 _ZN23DumpRenderTreeSupportQt24executeCoreCommandByNameEP8QWebPageRK7QStringS4_@Base 2.2~2011week36
 _ZN23DumpRenderTreeSupportQt24numberOfActiveAnimationsEP9QWebFrame@Base 2.2~2011week36
 _ZN23DumpRenderTreeSupportQt24pageNumberForElementByIdEP9QWebFrameRK7QStringff@Base 2.2~2011week36
 _ZN23DumpRenderTreeSupportQt24setMockDeviceOrientationEbdbdbd@Base 2.2~2011week36
 _ZN23DumpRenderTreeSupportQt25clearAllApplicationCachesEv@Base 2.2~2011week36
 _ZN23DumpRenderTreeSupportQt25dumpResourceLoadCallbacksEb@Base 2.2~2011week36
 _ZN23DumpRenderTreeSupportQt25dumpVisitedLinksCallbacksEb@Base 2.2~2011week36
 _ZN23DumpRenderTreeSupportQt25pauseTransitionOfPropertyEP9QWebFrameRK7QStringdS4_@Base 2.2~2011week36
 _ZN23DumpRenderTreeSupportQt25setFrameFlatteningEnabledEP8QWebPageb@Base 2.2~2011week36
 _ZN23DumpRenderTreeSupportQt25webInspectorExecuteScriptEP8QWebPagelRK7QString@Base 2.2~2011week36
 _ZN23DumpRenderTreeSupportQt25whiteListAccessFromOriginERK7QStringS2_S2_b@Base 2.2~2011week36
 _ZN23DumpRenderTreeSupportQt26counterValueForElementByIdEP9QWebFrameRK7QString@Base 2.2~2011week36
 _ZN23DumpRenderTreeSupportQt26firstRectForCharacterRangeEP8QWebPageii@Base 2.2~2011week36
 _ZN23DumpRenderTreeSupportQt26mediaContentUrlByElementIdEP9QWebFrameRK7QString@Base 2.2~2011week36
 _ZN23DumpRenderTreeSupportQt26overwritePluginDirectoriesEv@Base 2.2~2011week36
 _ZN23DumpRenderTreeSupportQt26pageSizeAndMarginsInPixelsEP9QWebFrameiiiiiii@Base 2.2~2011week36
 _ZN23DumpRenderTreeSupportQt26setMockGeolocationPositionEP8QWebPageddd@Base 2.2~2011week36
 _ZN23DumpRenderTreeSupportQt27defaultMinimumTimerIntervalEv@Base 2.2~2011week36
 _ZN23DumpRenderTreeSupportQt27removeMockDeviceOrientationEv@Base 2.2~2011week36
 _ZN23DumpRenderTreeSupportQt27resetOriginAccessWhiteListsEv@Base 2.2~2011week36
 _ZN23DumpRenderTreeSupportQt27setSmartInsertDeleteEnabledEP8QWebPageb@Base 2.2~2011week36
 _ZN23DumpRenderTreeSupportQt27setTimelineProfilingEnabledEP8QWebPageb@Base 2.2~2011week36
 _ZN23DumpRenderTreeSupportQt28dumpProgressFinishedCallbackEb@Base 2.2~2011week36
 _ZN23DumpRenderTreeSupportQt28dumpUserGestureInFrameLoaderEb@Base 2.2~2011week36
 _ZN23DumpRenderTreeSupportQt28setDeferMainResourceDataLoadEb@Base 2.2~2011week36
 _ZN23DumpRenderTreeSupportQt28setDumpRenderTreeModeEnabledEb@Base 2.2~2011week36
 _ZN23DumpRenderTreeSupportQt28setMockGeolocationPermissionEP8QWebPageb@Base 2.2~2011week36
 _ZN23DumpRenderTreeSupportQt29dumpResourceLoadCallbacksPathERK7QString@Base 2.2~2011week36
 _ZN23DumpRenderTreeSupportQt29dumpResourceResponseMIMETypesEb@Base 2.2~2011week36
 _ZN23DumpRenderTreeSupportQt29evaluateScriptInIsolatedWorldEP9QWebFrameiRK7QString@Base 2.2~2011week36
 _ZN23DumpRenderTreeSupportQt29setJavaScriptProfilingEnabledEP9QWebFrameb@Base 2.2~2011week36
 _ZN23DumpRenderTreeSupportQt29setWillSendRequestReturnsNullEb@Base 2.2~2011week36
 _ZN23DumpRenderTreeSupportQt30setWillSendRequestClearHeadersERK11QStringList@Base 2.2~2011week36
 _ZN23DumpRenderTreeSupportQt31removeWhiteListAccessFromOriginERK7QStringS2_S2_b@Base 2.2~2011week36
 _ZN23DumpRenderTreeSupportQt32simulateDesktopNotificationClickERK7QString@Base 2.2~2011week36
 _ZN23DumpRenderTreeSupportQt33activeMockDeviceOrientationClientEb@Base 2.2~2011week36
 _ZN23DumpRenderTreeSupportQt33computedStyleIncludingVisitedInfoERK11QWebElement@Base 2.2~2011week36
 _ZN23DumpRenderTreeSupportQt34setSelectTrailingWhitespaceEnabledEP8QWebPageb@Base 2.2~2011week36
 _ZN23DumpRenderTreeSupportQt39elementDoesAutoCompleteForElementWithIdEP9QWebFrameRK7QString@Base 2.2~2011week36
 _ZN23DumpRenderTreeSupportQt39setWillSendRequestReturnsNullOnRedirectEb@Base 2.2~2011week36
 _ZN23DumpRenderTreeSupportQt40garbageCollectorCollectOnAlternateThreadEb@Base 2.2~2011week36
 _ZN23DumpRenderTreeSupportQt40setDomainRelaxationForbiddenForURLSchemeEbRK7QString@Base 2.2~2011week36
 _ZN23DumpRenderTreeSupportQt44numberOfPendingGeolocationPermissionRequestsEP8QWebPage@Base 2.2~2011week36
 _ZN23DumpRenderTreeSupportQt9plainTextERK8QVariant@Base 2.2~2011week36
 _ZN23DumpRenderTreeSupportQtC1Ev@Base 2.2~2011week36
 _ZN23DumpRenderTreeSupportQtC2Ev@Base 2.2~2011week36
 _ZN23DumpRenderTreeSupportQtD1Ev@Base 2.2~2011week36
 _ZN23DumpRenderTreeSupportQtD2Ev@Base 2.2~2011week36
 _ZN23QGraphicsWebViewPrivate10syncLayersEv@Base 2.2.1
 _ZN23QGraphicsWebViewPrivate15_q_scaleChangedEv@Base 2.2.1
 _ZN23QGraphicsWebViewPrivate16_q_pageDestroyedEv@Base 2.2.1
 _ZN23QGraphicsWebViewPrivate17_q_doLoadFinishedEb@Base 2.2.1
 _ZN23QGraphicsWebViewPrivate17detachCurrentPageEv@Base 2.2.1
 _ZN23QGraphicsWebViewPrivate22_q_contentsSizeChangedERK5QSize@Base 2.2.1
 _ZN23QGraphicsWebViewPrivate30updateResizesToContentsForPageEv@Base 2.2.1
 _ZN23QGraphicsWebViewPrivateC1EP16QGraphicsWebView@Base 2.2.1
 _ZN23QGraphicsWebViewPrivateC2EP16QGraphicsWebView@Base 2.2.1
 _ZN23QGraphicsWebViewPrivateD0Ev@Base 2.2.1
 _ZN23QGraphicsWebViewPrivateD1Ev@Base 2.2.1
 _ZN23QGraphicsWebViewPrivateD2Ev@Base 2.2.1
 _ZN23QStyleOptionProgressBarD1Ev@Base 2.2.1
 _ZN23QStyleOptionProgressBarD2Ev@Base 2.2.1
 _ZN24QStyleOptionGraphicsItemD1Ev@Base 2.2.1
 _ZN24QStyleOptionGraphicsItemD2Ev@Base 2.2.1
 _ZN24QWebHapticFeedbackPlayer11qt_metacallEN11QMetaObject4CallEiPPv@Base 2.2.1
 _ZN24QWebHapticFeedbackPlayer11qt_metacastEPKc@Base 2.2.1
 _ZN24QWebHapticFeedbackPlayer16staticMetaObjectE@Base 2.2.1
 _ZN24QWebHapticFeedbackPlayerD0Ev@Base 2.2.1
 _ZN24QWebHapticFeedbackPlayerD1Ev@Base 2.2.1
 _ZN24QWebHapticFeedbackPlayerD2Ev@Base 2.2.1
 _ZN24QWebHitTestResultPrivateC1ERKN7WebCore13HitTestResultE@Base 2.2.1
 _ZN24QWebHitTestResultPrivateC1ERKS_@Base 2.2.1
 _ZN24QWebHitTestResultPrivateC1Ev@Base 2.2.1
 _ZN24QWebHitTestResultPrivateC2ERKN7WebCore13HitTestResultE@Base 2.2.1
 _ZN24QWebHitTestResultPrivateC2ERKS_@Base 2.2.1
 _ZN24QWebHitTestResultPrivateC2Ev@Base 2.2.1
 _ZN24QWebHitTestResultPrivateD1Ev@Base 2.2.1
 _ZN24QWebHitTestResultPrivateD2Ev@Base 2.2.1
 _ZN24QWebHitTestResultPrivateaSERKS_@Base 2.2.1
 _ZN24QXmlStreamEntityResolverC1Ev@Base 2.2.1
 _ZN24QXmlStreamEntityResolverC2Ev@Base 2.2.1
 _ZN25QStyleOptionProgressBarV2D1Ev@Base 2.2~2011week36
 _ZN25QStyleOptionProgressBarV2D2Ev@Base 2.2~2011week36
 _ZN25QWebNotificationPresenter11qt_metacallEN11QMetaObject4CallEiPPv@Base 2.2.1
 _ZN25QWebNotificationPresenter11qt_metacastEPKc@Base 2.2.1
 _ZN25QWebNotificationPresenter16staticMetaObjectE@Base 2.2.1
 _ZN25QWebNotificationPresenter18notificationClosedEv@Base 2.2.1
 _ZN25QWebNotificationPresenter19notificationClickedEv@Base 2.2.1
 _ZN25QWebNotificationPresenterD0Ev@Base 2.2.1
 _ZN25QWebNotificationPresenterD1Ev@Base 2.2.1
 _ZN25QWebNotificationPresenterD2Ev@Base 2.2.1
 _ZN25QWebSecurityOriginPrivateC1EPN7WebCore14SecurityOriginE@Base 2.2.1
 _ZN25QWebSecurityOriginPrivateC2EPN7WebCore14SecurityOriginE@Base 2.2.1
 _ZN25QWebSecurityOriginPrivateD1Ev@Base 2.2.1
 _ZN25QWebSecurityOriginPrivateD2Ev@Base 2.2.1
 _ZN28QExplicitlySharedDataPointerI19QWebDatabasePrivateEC1ERKS1_@Base 2.2.1
 _ZN28QExplicitlySharedDataPointerI19QWebDatabasePrivateEC1Ev@Base 2.2.1
 _ZN28QExplicitlySharedDataPointerI19QWebDatabasePrivateEC2ERKS1_@Base 2.2.1
 _ZN28QExplicitlySharedDataPointerI19QWebDatabasePrivateEC2Ev@Base 2.2.1
 _ZN28QExplicitlySharedDataPointerI19QWebDatabasePrivateED1Ev@Base 2.2.1
 _ZN28QExplicitlySharedDataPointerI19QWebDatabasePrivateED2Ev@Base 2.2.1
 _ZN28QExplicitlySharedDataPointerI19QWebDatabasePrivateEaSEPS0_@Base 2.2.1
 _ZN28QExplicitlySharedDataPointerI19QWebDatabasePrivateEaSERKS1_@Base 2.2.1
 _ZN28QExplicitlySharedDataPointerI22QWebHistoryItemPrivateEC1ERKS1_@Base 2.2.1
 _ZN28QExplicitlySharedDataPointerI22QWebHistoryItemPrivateEC1Ev@Base 2.2.1
 _ZN28QExplicitlySharedDataPointerI22QWebHistoryItemPrivateEC2ERKS1_@Base 2.2.1
 _ZN28QExplicitlySharedDataPointerI22QWebHistoryItemPrivateEC2Ev@Base 2.2.1
 _ZN28QExplicitlySharedDataPointerI22QWebHistoryItemPrivateED1Ev@Base 2.2.1
 _ZN28QExplicitlySharedDataPointerI22QWebHistoryItemPrivateED2Ev@Base 2.2.1
 _ZN28QExplicitlySharedDataPointerI22QWebHistoryItemPrivateEaSEPS0_@Base 2.2.1
 _ZN28QExplicitlySharedDataPointerI22QWebHistoryItemPrivateEaSERKS1_@Base 2.2.1
 _ZN28QExplicitlySharedDataPointerI22QWebHistoryItemPrivateEptEv@Base 2.2.1
 _ZN28QExplicitlySharedDataPointerI22QWebScriptWorldPrivateEC1ERKS1_@Base 2.2.1
 _ZN28QExplicitlySharedDataPointerI22QWebScriptWorldPrivateEC1Ev@Base 2.2.1
 _ZN28QExplicitlySharedDataPointerI22QWebScriptWorldPrivateEC2ERKS1_@Base 2.2.1
 _ZN28QExplicitlySharedDataPointerI22QWebScriptWorldPrivateEC2Ev@Base 2.2.1
 _ZN28QExplicitlySharedDataPointerI22QWebScriptWorldPrivateED1Ev@Base 2.2.1
 _ZN28QExplicitlySharedDataPointerI22QWebScriptWorldPrivateED2Ev@Base 2.2.1
 _ZN28QExplicitlySharedDataPointerI22QWebScriptWorldPrivateEaSEPS0_@Base 2.2.1
 _ZN28QExplicitlySharedDataPointerI22QWebScriptWorldPrivateEaSERKS1_@Base 2.2.1
 _ZN28QExplicitlySharedDataPointerI25QWebSecurityOriginPrivateEC1ERKS1_@Base 2.2.1
 _ZN28QExplicitlySharedDataPointerI25QWebSecurityOriginPrivateEC1Ev@Base 2.2.1
 _ZN28QExplicitlySharedDataPointerI25QWebSecurityOriginPrivateEC2ERKS1_@Base 2.2.1
 _ZN28QExplicitlySharedDataPointerI25QWebSecurityOriginPrivateEC2Ev@Base 2.2.1
 _ZN28QExplicitlySharedDataPointerI25QWebSecurityOriginPrivateED1Ev@Base 2.2.1
 _ZN28QExplicitlySharedDataPointerI25QWebSecurityOriginPrivateED2Ev@Base 2.2.1
 _ZN28QExplicitlySharedDataPointerI25QWebSecurityOriginPrivateEaSEPS0_@Base 2.2.1
 _ZN28QExplicitlySharedDataPointerI25QWebSecurityOriginPrivateEaSERKS1_@Base 2.2.1
 _ZN28QExplicitlySharedDataPointerI25QWebSecurityOriginPrivateEptEv@Base 2.2.1
 _ZN28QExplicitlySharedDataPointerI28QWebElementCollectionPrivateE13detach_helperEv@Base 2.2.1
 _ZN28QExplicitlySharedDataPointerI28QWebElementCollectionPrivateE5cloneEv@Base 2.2.1
 _ZN28QExplicitlySharedDataPointerI28QWebElementCollectionPrivateE6detachEv@Base 2.2.1
 _ZN28QExplicitlySharedDataPointerI28QWebElementCollectionPrivateEC1EPS0_@Base 2.2.1
 _ZN28QExplicitlySharedDataPointerI28QWebElementCollectionPrivateEC1ERKS1_@Base 2.2.1
 _ZN28QExplicitlySharedDataPointerI28QWebElementCollectionPrivateEC1Ev@Base 2.2.1
 _ZN28QExplicitlySharedDataPointerI28QWebElementCollectionPrivateEC2EPS0_@Base 2.2.1
 _ZN28QExplicitlySharedDataPointerI28QWebElementCollectionPrivateEC2ERKS1_@Base 2.2.1
 _ZN28QExplicitlySharedDataPointerI28QWebElementCollectionPrivateEC2Ev@Base 2.2.1
 _ZN28QExplicitlySharedDataPointerI28QWebElementCollectionPrivateED1Ev@Base 2.2.1
 _ZN28QExplicitlySharedDataPointerI28QWebElementCollectionPrivateED2Ev@Base 2.2.1
 _ZN28QExplicitlySharedDataPointerI28QWebElementCollectionPrivateEaSERKS1_@Base 2.2.1
 _ZN28QExplicitlySharedDataPointerI28QWebElementCollectionPrivateEptEv@Base 2.2.1
 _ZN28QWebElementCollectionPrivate6createERKN3WTF10PassRefPtrIN7WebCore4NodeEEERK7QString@Base 2.2.1
 _ZN28QWebElementCollectionPrivateC1ERKS_@Base 2.2.1
 _ZN28QWebElementCollectionPrivateC1Ev@Base 2.2.1
 _ZN28QWebElementCollectionPrivateC2ERKS_@Base 2.2.1
 _ZN28QWebElementCollectionPrivateC2Ev@Base 2.2.1
 _ZN28QWebElementCollectionPrivateD1Ev@Base 2.2.1
 _ZN28QWebElementCollectionPrivateD2Ev@Base 2.2.1
 _ZN38qCleanupResources_WebKit__dest_class__C1Ev@Base 2.2.1
 _ZN38qCleanupResources_WebKit__dest_class__C2Ev@Base 2.2.1
 _ZN38qCleanupResources_WebKit__dest_class__D1Ev@Base 2.2.1
 _ZN38qCleanupResources_WebKit__dest_class__D2Ev@Base 2.2.1
 _ZN39qCleanupResources_WebCore__dest_class__C1Ev@Base 2.2.1
 _ZN39qCleanupResources_WebCore__dest_class__C2Ev@Base 2.2.1
 _ZN39qCleanupResources_WebCore__dest_class__D1Ev@Base 2.2.1
 _ZN39qCleanupResources_WebCore__dest_class__D2Ev@Base 2.2.1
 _ZN3JSC11ProfileNodeD1Ev@Base 2.2.1
 _ZN3JSC11ProfileNodeD2Ev@Base 2.2.1
 _ZN3JSC18getStaticValueSlotIN7WebCore10JSCSSValueENS1_12JSDOMWrapperEEEbPNS_9ExecStateEPKNS_9HashTableEPT_RKNS_10IdentifierERNS_12PropertySlotE@Base 2.2.1
 _ZN3JSC18getStaticValueSlotIN7WebCore10JSDataViewENS1_17JSArrayBufferViewEEEbPNS_9ExecStateEPKNS_9HashTableEPT_RKNS_10IdentifierERNS_12PropertySlotE@Base 2.2.1
 _ZN3JSC18getStaticValueSlotIN7WebCore10JSDatabaseENS1_12JSDOMWrapperEEEbPNS_9ExecStateEPKNS_9HashTableEPT_RKNS_10IdentifierERNS_12PropertySlotE@Base 2.2.1
 _ZN3JSC18getStaticValueSlotIN7WebCore10JSDocumentENS1_6JSNodeEEEbPNS_9ExecStateEPKNS_9HashTableEPT_RKNS_10IdentifierERNS_12PropertySlotE@Base 2.2.1
 _ZN3JSC18getStaticValueSlotIN7WebCore10JSFileListENS1_12JSDOMWrapperEEEbPNS_9ExecStateEPKNS_9HashTableEPT_RKNS_10IdentifierERNS_12PropertySlotE@Base 2.2.1
 _ZN3JSC18getStaticValueSlotIN7WebCore10JSLocationENS1_12JSDOMWrapperEEEbPNS_9ExecStateEPKNS_9HashTableEPT_RKNS_10IdentifierERNS_12PropertySlotE@Base 2.2.1
 _ZN3JSC18getStaticValueSlotIN7WebCore10JSNodeListENS1_12JSDOMWrapperEEEbPNS_9ExecStateEPKNS_9HashTableEPT_RKNS_10IdentifierERNS_12PropertySlotE@Base 2.2.1
 _ZN3JSC18getStaticValueSlotIN7WebCore10JSNotationENS1_6JSNodeEEEbPNS_9ExecStateEPKNS_9HashTableEPT_RKNS_10IdentifierERNS_12PropertySlotE@Base 2.2.1
 _ZN3JSC18getStaticValueSlotIN7WebCore10JSRGBColorENS1_12JSDOMWrapperEEEbPNS_9ExecStateEPKNS_9HashTableEPT_RKNS_10IdentifierERNS_12PropertySlotE@Base 2.2.1
 _ZN3JSC18getStaticValueSlotIN7WebCore10JSSQLErrorENS1_12JSDOMWrapperEEEbPNS_9ExecStateEPKNS_9HashTableEPT_RKNS_10IdentifierERNS_12PropertySlotE@Base 2.2.1
 _ZN3JSC18getStaticValueSlotIN7WebCore10JSSVGAngleENS1_12JSDOMWrapperEEEbPNS_9ExecStateEPKNS_9HashTableEPT_RKNS_10IdentifierERNS_12PropertySlotE@Base 2.2.1
 _ZN3JSC18getStaticValueSlotIN7WebCore10JSSVGColorENS1_10JSCSSValueEEEbPNS_9ExecStateEPKNS_9HashTableEPT_RKNS_10IdentifierERNS_12PropertySlotE@Base 2.2.1
 _ZN3JSC18getStaticValueSlotIN7WebCore10JSSVGPaintENS1_10JSSVGColorEEEbPNS_9ExecStateEPKNS_9HashTableEPT_RKNS_10IdentifierERNS_12PropertySlotE@Base 2.2.1
 _ZN3JSC18getStaticValueSlotIN7WebCore10JSSVGPointENS1_12JSDOMWrapperEEEbPNS_9ExecStateEPKNS_9HashTableEPT_RKNS_10IdentifierERNS_12PropertySlotE@Base 2.2.1
 _ZN3JSC18getStaticValueSlotIN7WebCore11JSClipboardENS1_12JSDOMWrapperEEEbPNS_9ExecStateEPKNS_9HashTableEPT_RKNS_10IdentifierERNS_12PropertySlotE@Base 2.2.1
 _ZN3JSC18getStaticValueSlotIN7WebCore11JSDOMParserENS1_12JSDOMWrapperEEEbPNS_9ExecStateEPKNS_9HashTableEPT_RKNS_10IdentifierERNS_12PropertySlotE@Base 2.2.1
 _ZN3JSC18getStaticValueSlotIN7WebCore11JSDOMPluginENS1_12JSDOMWrapperEEEbPNS_9ExecStateEPKNS_9HashTableEPT_RKNS_10IdentifierERNS_12PropertySlotE@Base 2.2.1
 _ZN3JSC18getStaticValueSlotIN7WebCore11JSFileErrorENS1_12JSDOMWrapperEEEbPNS_9ExecStateEPKNS_9HashTableEPT_RKNS_10IdentifierERNS_12PropertySlotE@Base 2.2.1
 _ZN3JSC18getStaticValueSlotIN7WebCore11JSImageDataENS1_12JSDOMWrapperEEEbPNS_9ExecStateEPKNS_9HashTableEPT_RKNS_10IdentifierERNS_12PropertySlotE@Base 2.2.1
 _ZN3JSC18getStaticValueSlotIN7WebCore11JSInt8ArrayENS1_17JSArrayBufferViewEEEbPNS_9ExecStateEPKNS_9HashTableEPT_RKNS_10IdentifierERNS_12PropertySlotE@Base 2.2.1
 _ZN3JSC18getStaticValueSlotIN7WebCore11JSMediaListENS1_12JSDOMWrapperEEEbPNS_9ExecStateEPKNS_9HashTableEPT_RKNS_10IdentifierERNS_12PropertySlotE@Base 2.2.1
 _ZN3JSC18getStaticValueSlotIN7WebCore11JSNavigatorENS1_12JSDOMWrapperEEEbPNS_9ExecStateEPKNS_9HashTableEPT_RKNS_10IdentifierERNS_12PropertySlotE@Base 2.2.1
 _ZN3JSC18getStaticValueSlotIN7WebCore11JSSVGLengthENS1_12JSDOMWrapperEEEbPNS_9ExecStateEPKNS_9HashTableEPT_RKNS_10IdentifierERNS_12PropertySlotE@Base 2.2.1
 _ZN3JSC18getStaticValueSlotIN7WebCore11JSSVGMatrixENS1_12JSDOMWrapperEEEbPNS_9ExecStateEPKNS_9HashTableEPT_RKNS_10IdentifierERNS_12PropertySlotE@Base 2.2.1
 _ZN3JSC18getStaticValueSlotIN7WebCore11JSSVGNumberENS1_12JSDOMWrapperEEEbPNS_9ExecStateEPKNS_9HashTableEPT_RKNS_10IdentifierERNS_12PropertySlotE@Base 2.2.1
 _ZN3JSC18getStaticValueSlotIN7WebCore11JSTextEventENS1_9JSUIEventEEEbPNS_9ExecStateEPKNS_9HashTableEPT_RKNS_10IdentifierERNS_12PropertySlotE@Base 2.2.1
 _ZN3JSC18getStaticValueSlotIN7WebCore11JSTouchListENS1_12JSDOMWrapperEEEbPNS_9ExecStateEPKNS_9HashTableEPT_RKNS_10IdentifierERNS_12PropertySlotE@Base 2.2.1
 _ZN3JSC18getStaticValueSlotIN7WebCore11JSWebSocketENS1_12JSDOMWrapperEEEbPNS_9ExecStateEPKNS_9HashTableEPT_RKNS_10IdentifierERNS_12PropertySlotE@Base 2.2.1
 _ZN3JSC18getStaticValueSlotIN7WebCore12JSClientRectENS1_12JSDOMWrapperEEEbPNS_9ExecStateEPKNS_9HashTableEPT_RKNS_10IdentifierERNS_12PropertySlotE@Base 2.2.1
 _ZN3JSC18getStaticValueSlotIN7WebCore12JSErrorEventENS1_7JSEventEEEbPNS_9ExecStateEPKNS_9HashTableEPT_RKNS_10IdentifierERNS_12PropertySlotE@Base 2.2.1
 _ZN3JSC18getStaticValueSlotIN7WebCore12JSFileReaderENS1_12JSDOMWrapperEEEbPNS_9ExecStateEPKNS_9HashTableEPT_RKNS_10IdentifierERNS_12PropertySlotE@Base 2.2.1
 _ZN3JSC18getStaticValueSlotIN7WebCore12JSInt16ArrayENS1_17JSArrayBufferViewEEEbPNS_9ExecStateEPKNS_9HashTableEPT_RKNS_10IdentifierERNS_12PropertySlotE@Base 2.2.1
 _ZN3JSC18getStaticValueSlotIN7WebCore12JSInt32ArrayENS1_17JSArrayBufferViewEEEbPNS_9ExecStateEPKNS_9HashTableEPT_RKNS_10IdentifierERNS_12PropertySlotE@Base 2.2.1
 _ZN3JSC18getStaticValueSlotIN7WebCore12JSMediaErrorENS1_12JSDOMWrapperEEEbPNS_9ExecStateEPKNS_9HashTableEPT_RKNS_10IdentifierERNS_12PropertySlotE@Base 2.2.1
 _ZN3JSC18getStaticValueSlotIN7WebCore12JSMemoryInfoENS1_12JSDOMWrapperEEEbPNS_9ExecStateEPKNS_9HashTableEPT_RKNS_10IdentifierERNS_12PropertySlotE@Base 2.2.1
 _ZN3JSC18getStaticValueSlotIN7WebCore12JSMouseEventENS1_9JSUIEventEEEbPNS_9ExecStateEPKNS_9HashTableEPT_RKNS_10IdentifierERNS_12PropertySlotE@Base 2.2.1
 _ZN3JSC18getStaticValueSlotIN7WebCore12JSNodeFilterENS1_12JSDOMWrapperEEEbPNS_9ExecStateEPKNS_9HashTableEPT_RKNS_10IdentifierERNS_12PropertySlotE@Base 2.2.1
 _ZN3JSC18getStaticValueSlotIN7WebCore12JSSVGElementENS1_9JSElementEEEbPNS_9ExecStateEPKNS_9HashTableEPT_RKNS_10IdentifierERNS_12PropertySlotE@Base 2.2.1
 _ZN3JSC18getStaticValueSlotIN7WebCore12JSSVGPathSegENS1_12JSDOMWrapperEEEbPNS_9ExecStateEPKNS_9HashTableEPT_RKNS_10IdentifierERNS_12PropertySlotE@Base 2.2.1
 _ZN3JSC18getStaticValueSlotIN7WebCore12JSStyleMediaENS1_12JSDOMWrapperEEEbPNS_9ExecStateEPKNS_9HashTableEPT_RKNS_10IdentifierERNS_12PropertySlotE@Base 2.2.1
 _ZN3JSC18getStaticValueSlotIN7WebCore12JSStyleSheetENS1_12JSDOMWrapperEEEbPNS_9ExecStateEPKNS_9HashTableEPT_RKNS_10IdentifierERNS_12PropertySlotE@Base 2.2.1
 _ZN3JSC18getStaticValueSlotIN7WebCore12JSTimeRangesENS1_12JSDOMWrapperEEEbPNS_9ExecStateEPKNS_9HashTableEPT_RKNS_10IdentifierERNS_12PropertySlotE@Base 2.2.1
 _ZN3JSC18getStaticValueSlotIN7WebCore12JSTouchEventENS1_9JSUIEventEEEbPNS_9ExecStateEPKNS_9HashTableEPT_RKNS_10IdentifierERNS_12PropertySlotE@Base 2.2.1
 _ZN3JSC18getStaticValueSlotIN7WebCore12JSTreeWalkerENS1_12JSDOMWrapperEEEbPNS_9ExecStateEPKNS_9HashTableEPT_RKNS_10IdentifierERNS_12PropertySlotE@Base 2.2.1
 _ZN3JSC18getStaticValueSlotIN7WebCore12JSUint8ArrayENS1_17JSArrayBufferViewEEEbPNS_9ExecStateEPKNS_9HashTableEPT_RKNS_10IdentifierERNS_12PropertySlotE@Base 2.2.1
 _ZN3JSC18getStaticValueSlotIN7WebCore12JSWheelEventENS1_9JSUIEventEEEbPNS_9ExecStateEPKNS_9HashTableEPT_RKNS_10IdentifierERNS_12PropertySlotE@Base 2.2.1
 _ZN3JSC18getStaticValueSlotIN7WebCore13JSArrayBufferENS1_12JSDOMWrapperEEEbPNS_9ExecStateEPKNS_9HashTableEPT_RKNS_10IdentifierERNS_12PropertySlotE@Base 2.2.1
 _ZN3JSC18getStaticValueSlotIN7WebCore13JSCSSPageRuleENS1_9JSCSSRuleEEEbPNS_9ExecStateEPKNS_9HashTableEPT_RKNS_10IdentifierERNS_12PropertySlotE@Base 2.2.1
 _ZN3JSC18getStaticValueSlotIN7WebCore13JSCSSRuleListENS1_12JSDOMWrapperEEEbPNS_9ExecStateEPKNS_9HashTableEPT_RKNS_10IdentifierERNS_12PropertySlotE@Base 2.2.1
 _ZN3JSC18getStaticValueSlotIN7WebCore13JSCoordinatesENS1_12JSDOMWrapperEEEbPNS_9ExecStateEPKNS_9HashTableEPT_RKNS_10IdentifierERNS_12PropertySlotE@Base 2.2.1
 _ZN3JSC18getStaticValueSlotIN7WebCore13JSCustomEventENS1_7JSEventEEEbPNS_9ExecStateEPKNS_9HashTableEPT_RKNS_10IdentifierERNS_12PropertySlotE@Base 2.2.1
 _ZN3JSC18getStaticValueSlotIN7WebCore13JSDOMFormDataENS1_12JSDOMWrapperEEEbPNS_9ExecStateEPKNS_9HashTableEPT_RKNS_10IdentifierERNS_12PropertySlotE@Base 2.2.1
 _ZN3JSC18getStaticValueSlotIN7WebCore13JSDOMMimeTypeENS1_12JSDOMWrapperEEEbPNS_9ExecStateEPKNS_9HashTableEPT_RKNS_10IdentifierERNS_12PropertySlotE@Base 2.2.1
 _ZN3JSC18getStaticValueSlotIN7WebCore13JSEventSourceENS1_12JSDOMWrapperEEEbPNS_9ExecStateEPKNS_9HashTableEPT_RKNS_10IdentifierERNS_12PropertySlotE@Base 2.2.1
 _ZN3JSC18getStaticValueSlotIN7WebCore13JSHTMLElementENS1_9JSElementEEEbPNS_9ExecStateEPKNS_9HashTableEPT_RKNS_10IdentifierERNS_12PropertySlotE@Base 2.2.1
 _ZN3JSC18getStaticValueSlotIN7WebCore13JSMessagePortENS1_12JSDOMWrapperEEEbPNS_9ExecStateEPKNS_9HashTableEPT_RKNS_10IdentifierERNS_12PropertySlotE@Base 2.2.1
 _ZN3JSC18getStaticValueSlotIN7WebCore13JSSVGAElementENS1_12JSSVGElementEEEbPNS_9ExecStateEPKNS_9HashTableEPT_RKNS_10IdentifierERNS_12PropertySlotE@Base 2.2.1
 _ZN3JSC18getStaticValueSlotIN7WebCore13JSSVGDocumentENS1_10JSDocumentEEEbPNS_9ExecStateEPKNS_9HashTableEPT_RKNS_10IdentifierERNS_12PropertySlotE@Base 2.2.1
 _ZN3JSC18getStaticValueSlotIN7WebCore13JSSVGGElementENS1_12JSSVGElementEEEbPNS_9ExecStateEPKNS_9HashTableEPT_RKNS_10IdentifierERNS_12PropertySlotE@Base 2.2.1
 _ZN3JSC18getStaticValueSlotIN7WebCore13JSTextMetricsENS1_12JSDOMWrapperEEEbPNS_9ExecStateEPKNS_9HashTableEPT_RKNS_10IdentifierERNS_12PropertySlotE@Base 2.2.1
 _ZN3JSC18getStaticValueSlotIN7WebCore13JSUint16ArrayENS1_17JSArrayBufferViewEEEbPNS_9ExecStateEPKNS_9HashTableEPT_RKNS_10IdentifierERNS_12PropertySlotE@Base 2.2.1
 _ZN3JSC18getStaticValueSlotIN7WebCore13JSUint32ArrayENS1_17JSArrayBufferViewEEEbPNS_9ExecStateEPKNS_9HashTableEPT_RKNS_10IdentifierERNS_12PropertySlotE@Base 2.2.1
 _ZN3JSC18getStaticValueSlotIN7WebCore13JSWebKitPointENS1_12JSDOMWrapperEEEbPNS_9ExecStateEPKNS_9HashTableEPT_RKNS_10IdentifierERNS_12PropertySlotE@Base 2.2.1
 _ZN3JSC18getStaticValueSlotIN7WebCore13JSXPathResultENS1_12JSDOMWrapperEEEbPNS_9ExecStateEPKNS_9HashTableEPT_RKNS_10IdentifierERNS_12PropertySlotE@Base 2.2.1
 _ZN3JSC18getStaticValueSlotIN7WebCore14JSCDATASectionENS1_6JSTextEEEbPNS_9ExecStateEPKNS_9HashTableEPT_RKNS_10IdentifierERNS_12PropertySlotE@Base 2.2.1
 _ZN3JSC18getStaticValueSlotIN7WebCore14JSCSSMediaRuleENS1_9JSCSSRuleEEEbPNS_9ExecStateEPKNS_9HashTableEPT_RKNS_10IdentifierERNS_12PropertySlotE@Base 2.2.1
 _ZN3JSC18getStaticValueSlotIN7WebCore14JSCSSStyleRuleENS1_9JSCSSRuleEEEbPNS_9ExecStateEPKNS_9HashTableEPT_RKNS_10IdentifierERNS_12PropertySlotE@Base 2.2.1
 _ZN3JSC18getStaticValueSlotIN7WebCore14JSCSSValueListENS1_10JSCSSValueEEEbPNS_9ExecStateEPKNS_9HashTableEPT_RKNS_10IdentifierERNS_12PropertySlotE@Base 2.2.1
 _ZN3JSC18getStaticValueSlotIN7WebCore14JSDOMSelectionENS1_12JSDOMWrapperEEEbPNS_9ExecStateEPKNS_9HashTableEPT_RKNS_10IdentifierERNS_12PropertySlotE@Base 2.2.1
 _ZN3JSC18getStaticValueSlotIN7WebCore14JSDOMTokenListENS1_12JSDOMWrapperEEEbPNS_9ExecStateEPKNS_9HashTableEPT_RKNS_10IdentifierERNS_12PropertySlotE@Base 2.2.1
 _ZN3JSC18getStaticValueSlotIN7WebCore14JSDatabaseSyncENS1_12JSDOMWrapperEEEbPNS_9ExecStateEPKNS_9HashTableEPT_RKNS_10IdentifierERNS_12PropertySlotE@Base 2.2.1
 _ZN3JSC18getStaticValueSlotIN7WebCore14JSDocumentTypeENS1_6JSNodeEEEbPNS_9ExecStateEPKNS_9HashTableEPT_RKNS_10IdentifierERNS_12PropertySlotE@Base 2.2.1
 _ZN3JSC18getStaticValueSlotIN7WebCore14JSFloat32ArrayENS1_17JSArrayBufferViewEEEbPNS_9ExecStateEPKNS_9HashTableEPT_RKNS_10IdentifierERNS_12PropertySlotE@Base 2.2.1
 _ZN3JSC18getStaticValueSlotIN7WebCore14JSHTMLDocumentENS1_10JSDocumentEEEbPNS_9ExecStateEPKNS_9HashTableEPT_RKNS_10IdentifierERNS_12PropertySlotE@Base 2.2.1
 _ZN3JSC18getStaticValueSlotIN7WebCore14JSMessageEventENS1_7JSEventEEEbPNS_9ExecStateEPKNS_9HashTableEPT_RKNS_10IdentifierERNS_12PropertySlotE@Base 2.2.1
 _ZN3JSC18getStaticValueSlotIN7WebCore14JSNamedNodeMapENS1_12JSDOMWrapperEEEbPNS_9ExecStateEPKNS_9HashTableEPT_RKNS_10IdentifierERNS_12PropertySlotE@Base 2.2.1
 _ZN3JSC18getStaticValueSlotIN7WebCore14JSNodeIteratorENS1_12JSDOMWrapperEEEbPNS_9ExecStateEPKNS_9HashTableEPT_RKNS_10IdentifierERNS_12PropertySlotE@Base 2.2.1
 _ZN3JSC18getStaticValueSlotIN7WebCore14JSNotificationENS1_12JSDOMWrapperEEEbPNS_9ExecStateEPKNS_9HashTableEPT_RKNS_10IdentifierERNS_12PropertySlotE@Base 2.2.1
 _ZN3JSC18getStaticValueSlotIN7WebCore14JSSQLExceptionENS1_12JSDOMWrapperEEEbPNS_9ExecStateEPKNS_9HashTableEPT_RKNS_10IdentifierERNS_12PropertySlotE@Base 2.2.1
 _ZN3JSC18getStaticValueSlotIN7WebCore14JSSQLResultSetENS1_12JSDOMWrapperEEEbPNS_9ExecStateEPKNS_9HashTableEPT_RKNS_10IdentifierERNS_12PropertySlotE@Base 2.2.1
 _ZN3JSC18getStaticValueSlotIN7WebCore14JSSVGExceptionENS1_12JSDOMWrapperEEEbPNS_9ExecStateEPKNS_9HashTableEPT_RKNS_10IdentifierERNS_12PropertySlotE@Base 2.2.1
 _ZN3JSC18getStaticValueSlotIN7WebCore14JSSVGPointListENS1_12JSDOMWrapperEEEbPNS_9ExecStateEPKNS_9HashTableEPT_RKNS_10IdentifierERNS_12PropertySlotE@Base 2.2.1
 _ZN3JSC18getStaticValueSlotIN7WebCore14JSSVGTransformENS1_12JSDOMWrapperEEEbPNS_9ExecStateEPKNS_9HashTableEPT_RKNS_10IdentifierERNS_12PropertySlotE@Base 2.2.1
 _ZN3JSC18getStaticValueSlotIN7WebCore14JSSVGUnitTypesENS1_12JSDOMWrapperEEEbPNS_9ExecStateEPKNS_9HashTableEPT_RKNS_10IdentifierERNS_12PropertySlotE@Base 2.2.1
 _ZN3JSC18getStaticValueSlotIN7WebCore14JSSVGZoomEventENS1_9JSUIEventEEEbPNS_9ExecStateEPKNS_9HashTableEPT_RKNS_10IdentifierERNS_12PropertySlotE@Base 2.2.1
 _ZN3JSC18getStaticValueSlotIN7WebCore14JSSharedWorkerENS1_16JSAbstractWorkerEEEbPNS_9ExecStateEPKNS_9HashTableEPT_RKNS_10IdentifierERNS_12PropertySlotE@Base 2.2.1
 _ZN3JSC18getStaticValueSlotIN7WebCore14JSStorageEventENS1_7JSEventEEEbPNS_9ExecStateEPKNS_9HashTableEPT_RKNS_10IdentifierERNS_12PropertySlotE@Base 2.2.1
 _ZN3JSC18getStaticValueSlotIN7WebCore15JSCSSImportRuleENS1_9JSCSSRuleEEEbPNS_9ExecStateEPKNS_9HashTableEPT_RKNS_10IdentifierERNS_12PropertySlotE@Base 2.2.1
 _ZN3JSC18getStaticValueSlotIN7WebCore15JSCSSStyleSheetENS1_12JSStyleSheetEEEbPNS_9ExecStateEPKNS_9HashTableEPT_RKNS_10IdentifierERNS_12PropertySlotE@Base 2.2.1
 _ZN3JSC18getStaticValueSlotIN7WebCore15JSCanvasPatternENS1_12JSDOMWrapperEEEbPNS_9ExecStateEPKNS_9HashTableEPT_RKNS_10IdentifierERNS_12PropertySlotE@Base 2.2.1
 _ZN3JSC18getStaticValueSlotIN7WebCore15JSCharacterDataENS1_6JSNodeEEEbPNS_9ExecStateEPKNS_9HashTableEPT_RKNS_10IdentifierERNS_12PropertySlotE@Base 2.2.1
 _ZN3JSC18getStaticValueSlotIN7WebCore15JSDOMStringListENS1_12JSDOMWrapperEEEbPNS_9ExecStateEPKNS_9HashTableEPT_RKNS_10IdentifierERNS_12PropertySlotE@Base 2.2.1
 _ZN3JSC18getStaticValueSlotIN7WebCore15JSFileExceptionENS1_12JSDOMWrapperEEEbPNS_9ExecStateEPKNS_9HashTableEPT_RKNS_10IdentifierERNS_12PropertySlotE@Base 2.2.1
 _ZN3JSC18getStaticValueSlotIN7WebCore15JSHTMLBRElementENS1_13JSHTMLElementEEEbPNS_9ExecStateEPKNS_9HashTableEPT_RKNS_10IdentifierERNS_12PropertySlotE@Base 2.2.1
 _ZN3JSC18getStaticValueSlotIN7WebCore15JSHTMLHRElementENS1_13JSHTMLElementEEEbPNS_9ExecStateEPKNS_9HashTableEPT_RKNS_10IdentifierERNS_12PropertySlotE@Base 2.2.1
 _ZN3JSC18getStaticValueSlotIN7WebCore15JSHTMLLIElementENS1_13JSHTMLElementEEEbPNS_9ExecStateEPKNS_9HashTableEPT_RKNS_10IdentifierERNS_12PropertySlotE@Base 2.2.1
 _ZN3JSC18getStaticValueSlotIN7WebCore15JSKeyboardEventENS1_9JSUIEventEEEbPNS_9ExecStateEPKNS_9HashTableEPT_RKNS_10IdentifierERNS_12PropertySlotE@Base 2.2.1
 _ZN3JSC18getStaticValueSlotIN7WebCore15JSMutationEventENS1_7JSEventEEEbPNS_9ExecStateEPKNS_9HashTableEPT_RKNS_10IdentifierERNS_12PropertySlotE@Base 2.2.1
 _ZN3JSC18getStaticValueSlotIN7WebCore15JSOverflowEventENS1_7JSEventEEEbPNS_9ExecStateEPKNS_9HashTableEPT_RKNS_10IdentifierERNS_12PropertySlotE@Base 2.2.1
 _ZN3JSC18getStaticValueSlotIN7WebCore15JSPopStateEventENS1_7JSEventEEEbPNS_9ExecStateEPKNS_9HashTableEPT_RKNS_10IdentifierERNS_12PropertySlotE@Base 2.2.1
 _ZN3JSC18getStaticValueSlotIN7WebCore15JSProgressEventENS1_7JSEventEEEbPNS_9ExecStateEPKNS_9HashTableEPT_RKNS_10IdentifierERNS_12PropertySlotE@Base 2.2.1
 _ZN3JSC18getStaticValueSlotIN7WebCore15JSSVGLengthListENS1_12JSDOMWrapperEEEbPNS_9ExecStateEPKNS_9HashTableEPT_RKNS_10IdentifierERNS_12PropertySlotE@Base 2.2.1
 _ZN3JSC18getStaticValueSlotIN7WebCore15JSSVGNumberListENS1_12JSDOMWrapperEEEbPNS_9ExecStateEPKNS_9HashTableEPT_RKNS_10IdentifierERNS_12PropertySlotE@Base 2.2.1
 _ZN3JSC18getStaticValueSlotIN7WebCore15JSSVGSVGElementENS1_12JSSVGElementEEEbPNS_9ExecStateEPKNS_9HashTableEPT_RKNS_10IdentifierERNS_12PropertySlotE@Base 2.2.1
 _ZN3JSC18getStaticValueSlotIN7WebCore15JSSVGSetElementENS1_21JSSVGAnimationElementEEEbPNS_9ExecStateEPKNS_9HashTableEPT_RKNS_10IdentifierERNS_12PropertySlotE@Base 2.2.1
 _ZN3JSC18getStaticValueSlotIN7WebCore15JSSVGStringListENS1_12JSDOMWrapperEEEbPNS_9ExecStateEPKNS_9HashTableEPT_RKNS_10IdentifierERNS_12PropertySlotE@Base 2.2.1
 _ZN3JSC18getStaticValueSlotIN7WebCore15JSSVGUseElementENS1_12JSSVGElementEEEbPNS_9ExecStateEPKNS_9HashTableEPT_RKNS_10IdentifierERNS_12PropertySlotE@Base 2.2.1
 _ZN3JSC18getStaticValueSlotIN7WebCore15JSScriptProfileENS1_12JSDOMWrapperEEEbPNS_9ExecStateEPKNS_9HashTableEPT_RKNS_10IdentifierERNS_12PropertySlotE@Base 2.2.1
 _ZN3JSC18getStaticValueSlotIN7WebCore15JSValidityStateENS1_12JSDOMWrapperEEEbPNS_9ExecStateEPKNS_9HashTableEPT_RKNS_10IdentifierERNS_12PropertySlotE@Base 2.2.1
 _ZN3JSC18getStaticValueSlotIN7WebCore15JSWorkerContextENS1_19JSWorkerContextBaseEEEbPNS_9ExecStateEPKNS_9HashTableEPT_RKNS_10IdentifierERNS_12PropertySlotE@Base 2.2.1
 _ZN3JSC18getStaticValueSlotIN7WebCore15JSXMLSerializerENS1_12JSDOMWrapperEEEbPNS_9ExecStateEPKNS_9HashTableEPT_RKNS_10IdentifierERNS_12PropertySlotE@Base 2.2.1
 _ZN3JSC18getStaticValueSlotIN7WebCore16JSAbstractWorkerENS1_12JSDOMWrapperEEEbPNS_9ExecStateEPKNS_9HashTableEPT_RKNS_10IdentifierERNS_12PropertySlotE@Base 2.2.1
 _ZN3JSC18getStaticValueSlotIN7WebCore16JSCSSCharsetRuleENS1_9JSCSSRuleEEEbPNS_9ExecStateEPKNS_9HashTableEPT_RKNS_10IdentifierERNS_12PropertySlotE@Base 2.2.1
 _ZN3JSC18getStaticValueSlotIN7WebCore16JSCanvasGradientENS1_12JSDOMWrapperEEEbPNS_9ExecStateEPKNS_9HashTableEPT_RKNS_10IdentifierERNS_12PropertySlotE@Base 2.2.1
 _ZN3JSC18getStaticValueSlotIN7WebCore16JSClientRectListENS1_12JSDOMWrapperEEEbPNS_9ExecStateEPKNS_9HashTableEPT_RKNS_10IdentifierERNS_12PropertySlotE@Base 2.2.1
 _ZN3JSC18getStaticValueSlotIN7WebCore16JSDOMPluginArrayENS1_12JSDOMWrapperEEEbPNS_9ExecStateEPKNS_9HashTableEPT_RKNS_10IdentifierERNS_12PropertySlotE@Base 2.2.1
 _ZN3JSC18getStaticValueSlotIN7WebCore16JSEventExceptionENS1_12JSDOMWrapperEEEbPNS_9ExecStateEPKNS_9HashTableEPT_RKNS_10IdentifierERNS_12PropertySlotE@Base 2.2.1
 _ZN3JSC18getStaticValueSlotIN7WebCore16JSFileReaderSyncENS1_12JSDOMWrapperEEEbPNS_9ExecStateEPKNS_9HashTableEPT_RKNS_10IdentifierERNS_12PropertySlotE@Base 2.2.1
 _ZN3JSC18getStaticValueSlotIN7WebCore16JSHTMLCollectionENS1_12JSDOMWrapperEEEbPNS_9ExecStateEPKNS_9HashTableEPT_RKNS_10IdentifierERNS_12PropertySlotE@Base 2.2.1
 _ZN3JSC18getStaticValueSlotIN7WebCore16JSHTMLDivElementENS1_13JSHTMLElementEEEbPNS_9ExecStateEPKNS_9HashTableEPT_RKNS_10IdentifierERNS_12PropertySlotE@Base 2.2.1
 _ZN3JSC18getStaticValueSlotIN7WebCore16JSHTMLMapElementENS1_13JSHTMLElementEEEbPNS_9ExecStateEPKNS_9HashTableEPT_RKNS_10IdentifierERNS_12PropertySlotE@Base 2.2.1
 _ZN3JSC18getStaticValueSlotIN7WebCore16JSHTMLModElementENS1_13JSHTMLElementEEEbPNS_9ExecStateEPKNS_9HashTableEPT_RKNS_10IdentifierERNS_12PropertySlotE@Base 2.2.1
 _ZN3JSC18getStaticValueSlotIN7WebCore16JSHTMLPreElementENS1_13JSHTMLElementEEEbPNS_9ExecStateEPKNS_9HashTableEPT_RKNS_10IdentifierERNS_12PropertySlotE@Base 2.2.1
 _ZN3JSC18getStaticValueSlotIN7WebCore16JSMediaQueryListENS1_12JSDOMWrapperEEEbPNS_9ExecStateEPKNS_9HashTableEPT_RKNS_10IdentifierERNS_12PropertySlotE@Base 2.2.1
 _ZN3JSC18getStaticValueSlotIN7WebCore16JSMessageChannelENS1_12JSDOMWrapperEEEbPNS_9ExecStateEPKNS_9HashTableEPT_RKNS_10IdentifierERNS_12PropertySlotE@Base 2.2.1
 _ZN3JSC18getStaticValueSlotIN7WebCore16JSRangeExceptionENS1_12JSDOMWrapperEEEbPNS_9ExecStateEPKNS_9HashTableEPT_RKNS_10IdentifierERNS_12PropertySlotE@Base 2.2.1
 _ZN3JSC18getStaticValueSlotIN7WebCore16JSSVGDefsElementENS1_12JSSVGElementEEEbPNS_9ExecStateEPKNS_9HashTableEPT_RKNS_10IdentifierERNS_12PropertySlotE@Base 2.2.1
 _ZN3JSC18getStaticValueSlotIN7WebCore16JSSVGDescElementENS1_12JSSVGElementEEEbPNS_9ExecStateEPKNS_9HashTableEPT_RKNS_10IdentifierERNS_12PropertySlotE@Base 2.2.1
 _ZN3JSC18getStaticValueSlotIN7WebCore16JSSVGFontElementENS1_12JSSVGElementEEEbPNS_9ExecStateEPKNS_9HashTableEPT_RKNS_10IdentifierERNS_12PropertySlotE@Base 2.2.1
 _ZN3JSC18getStaticValueSlotIN7WebCore16JSSVGLineElementENS1_12JSSVGElementEEEbPNS_9ExecStateEPKNS_9HashTableEPT_RKNS_10IdentifierERNS_12PropertySlotE@Base 2.2.1
 _ZN3JSC18getStaticValueSlotIN7WebCore16JSSVGMaskElementENS1_12JSSVGElementEEEbPNS_9ExecStateEPKNS_9HashTableEPT_RKNS_10IdentifierERNS_12PropertySlotE@Base 2.2.1
 _ZN3JSC18getStaticValueSlotIN7WebCore16JSSVGPathElementENS1_12JSSVGElementEEEbPNS_9ExecStateEPKNS_9HashTableEPT_RKNS_10IdentifierERNS_12PropertySlotE@Base 2.2.1
 _ZN3JSC18getStaticValueSlotIN7WebCore16JSSVGPathSegListENS1_12JSDOMWrapperEEEbPNS_9ExecStateEPKNS_9HashTableEPT_RKNS_10IdentifierERNS_12PropertySlotE@Base 2.2.1
 _ZN3JSC18getStaticValueSlotIN7WebCore16JSSVGRectElementENS1_12JSSVGElementEEEbPNS_9ExecStateEPKNS_9HashTableEPT_RKNS_10IdentifierERNS_12PropertySlotE@Base 2.2.1
 _ZN3JSC18getStaticValueSlotIN7WebCore16JSSVGStopElementENS1_12JSSVGElementEEEbPNS_9ExecStateEPKNS_9HashTableEPT_RKNS_10IdentifierERNS_12PropertySlotE@Base 2.2.1
 _ZN3JSC18getStaticValueSlotIN7WebCore16JSSVGTRefElementENS1_27JSSVGTextPositioningElementEEEbPNS_9ExecStateEPKNS_9HashTableEPT_RKNS_10IdentifierERNS_12PropertySlotE@Base 2.2.1
 _ZN3JSC18getStaticValueSlotIN7WebCore16JSSVGTextElementENS1_27JSSVGTextPositioningElementEEEbPNS_9ExecStateEPKNS_9HashTableEPT_RKNS_10IdentifierERNS_12PropertySlotE@Base 2.2.1
 _ZN3JSC18getStaticValueSlotIN7WebCore16JSSVGViewElementENS1_12JSSVGElementEEEbPNS_9ExecStateEPKNS_9HashTableEPT_RKNS_10IdentifierERNS_12PropertySlotE@Base 2.2.1
 _ZN3JSC18getStaticValueSlotIN7WebCore16JSStyleSheetListENS1_12JSDOMWrapperEEEbPNS_9ExecStateEPKNS_9HashTableEPT_RKNS_10IdentifierERNS_12PropertySlotE@Base 2.2.1
 _ZN3JSC18getStaticValueSlotIN7WebCore16JSWorkerLocationENS1_12JSDOMWrapperEEEbPNS_9ExecStateEPKNS_9HashTableEPT_RKNS_10IdentifierERNS_12PropertySlotE@Base 2.2.1
 _ZN3JSC18getStaticValueSlotIN7WebCore16JSXMLHttpRequestENS1_12JSDOMWrapperEEEbPNS_9ExecStateEPKNS_9HashTableEPT_RKNS_10IdentifierERNS_12PropertySlotE@Base 2.2.1
 _ZN3JSC18getStaticValueSlotIN7WebCore16JSXPathEvaluatorENS1_12JSDOMWrapperEEEbPNS_9ExecStateEPKNS_9HashTableEPT_RKNS_10IdentifierERNS_12PropertySlotE@Base 2.2.1
 _ZN3JSC18getStaticValueSlotIN7WebCore16JSXPathExceptionENS1_12JSDOMWrapperEEEbPNS_9ExecStateEPKNS_9HashTableEPT_RKNS_10IdentifierERNS_12PropertySlotE@Base 2.2.1
 _ZN3JSC18getStaticValueSlotIN7WebCore17JSArrayBufferViewENS1_12JSDOMWrapperEEEbPNS_9ExecStateEPKNS_9HashTableEPT_RKNS_10IdentifierERNS_12PropertySlotE@Base 2.2.1
 _ZN3JSC18getStaticValueSlotIN7WebCore17JSAttrConstructorENS1_12JSDOMWrapperEEEbPNS_9ExecStateEPKNS_9HashTableEPT_RKNS_10IdentifierERNS_12PropertySlotE@Base 2.2.1
 _ZN3JSC18getStaticValueSlotIN7WebCore17JSBeforeLoadEventENS1_7JSEventEEEbPNS_9ExecStateEPKNS_9HashTableEPT_RKNS_10IdentifierERNS_12PropertySlotE@Base 2.2.1
 _ZN3JSC18getStaticValueSlotIN7WebCore17JSBlobConstructorENS1_12JSDOMWrapperEEEbPNS_9ExecStateEPKNS_9HashTableEPT_RKNS_10IdentifierERNS_12PropertySlotE@Base 2.2.1
 _ZN3JSC18getStaticValueSlotIN7WebCore17JSCSSFontFaceRuleENS1_9JSCSSRuleEEEbPNS_9ExecStateEPKNS_9HashTableEPT_RKNS_10IdentifierERNS_12PropertySlotE@Base 2.2.1
 _ZN3JSC18getStaticValueSlotIN7WebCore17JSEntityReferenceENS1_6JSNodeEEEbPNS_9ExecStateEPKNS_9HashTableEPT_RKNS_10IdentifierERNS_12PropertySlotE@Base 2.2.1
 _ZN3JSC18getStaticValueSlotIN7WebCore17JSFileConstructorENS1_12JSDOMWrapperEEEbPNS_9ExecStateEPKNS_9HashTableEPT_RKNS_10IdentifierERNS_12PropertySlotE@Base 2.2.1
 _ZN3JSC18getStaticValueSlotIN7WebCore17JSHTMLAreaElementENS1_13JSHTMLElementEEEbPNS_9ExecStateEPKNS_9HashTableEPT_RKNS_10IdentifierERNS_12PropertySlotE@Base 2.2.1
 _ZN3JSC18getStaticValueSlotIN7WebCore17JSHTMLBaseElementENS1_13JSHTMLElementEEEbPNS_9ExecStateEPKNS_9HashTableEPT_RKNS_10IdentifierERNS_12PropertySlotE@Base 2.2.1
 _ZN3JSC18getStaticValueSlotIN7WebCore17JSHTMLBodyElementENS1_13JSHTMLElementEEEbPNS_9ExecStateEPKNS_9HashTableEPT_RKNS_10IdentifierERNS_12PropertySlotE@Base 2.2.1
 _ZN3JSC18getStaticValueSlotIN7WebCore17JSHTMLFontElementENS1_13JSHTMLElementEEEbPNS_9ExecStateEPKNS_9HashTableEPT_RKNS_10IdentifierERNS_12PropertySlotE@Base 2.2.1
 _ZN3JSC18getStaticValueSlotIN7WebCore17JSHTMLFormElementENS1_13JSHTMLElementEEEbPNS_9ExecStateEPKNS_9HashTableEPT_RKNS_10IdentifierERNS_12PropertySlotE@Base 2.2.1
 _ZN3JSC18getStaticValueSlotIN7WebCore17JSHTMLHeadElementENS1_13JSHTMLElementEEEbPNS_9ExecStateEPKNS_9HashTableEPT_RKNS_10IdentifierERNS_12PropertySlotE@Base 2.2.1
 _ZN3JSC18getStaticValueSlotIN7WebCore17JSHTMLHtmlElementENS1_13JSHTMLElementEEEbPNS_9ExecStateEPKNS_9HashTableEPT_RKNS_10IdentifierERNS_12PropertySlotE@Base 2.2.1
 _ZN3JSC18getStaticValueSlotIN7WebCore17JSHTMLLinkElementENS1_13JSHTMLElementEEEbPNS_9ExecStateEPKNS_9HashTableEPT_RKNS_10IdentifierERNS_12PropertySlotE@Base 2.2.1
 _ZN3JSC18getStaticValueSlotIN7WebCore17JSHTMLMenuElementENS1_13JSHTMLElementEEEbPNS_9ExecStateEPKNS_9HashTableEPT_RKNS_10IdentifierERNS_12PropertySlotE@Base 2.2.1
 _ZN3JSC18getStaticValueSlotIN7WebCore17JSHTMLMetaElementENS1_13JSHTMLElementEEEbPNS_9ExecStateEPKNS_9HashTableEPT_RKNS_10IdentifierERNS_12PropertySlotE@Base 2.2.1
 _ZN3JSC18getStaticValueSlotIN7WebCore17JSHashChangeEventENS1_7JSEventEEEbPNS_9ExecStateEPKNS_9HashTableEPT_RKNS_10IdentifierERNS_12PropertySlotE@Base 2.2.1
 _ZN3JSC18getStaticValueSlotIN7WebCore17JSNodeConstructorENS1_12JSDOMWrapperEEEbPNS_9ExecStateEPKNS_9HashTableEPT_RKNS_10IdentifierERNS_12PropertySlotE@Base 2.2.1
 _ZN3JSC18getStaticValueSlotIN7WebCore17JSRectConstructorENS1_12JSDOMWrapperEEEbPNS_9ExecStateEPKNS_9HashTableEPT_RKNS_10IdentifierERNS_12PropertySlotE@Base 2.2.1
 _ZN3JSC18getStaticValueSlotIN7WebCore17JSSVGAnimatedRectENS1_12JSDOMWrapperEEEbPNS_9ExecStateEPKNS_9HashTableEPT_RKNS_10IdentifierERNS_12PropertySlotE@Base 2.2.1
 _ZN3JSC18getStaticValueSlotIN7WebCore17JSSVGGlyphElementENS1_12JSSVGElementEEEbPNS_9ExecStateEPKNS_9HashTableEPT_RKNS_10IdentifierERNS_12PropertySlotE@Base 2.2.1
 _ZN3JSC18getStaticValueSlotIN7WebCore17JSSVGHKernElementENS1_12JSSVGElementEEEbPNS_9ExecStateEPKNS_9HashTableEPT_RKNS_10IdentifierERNS_12PropertySlotE@Base 2.2.1
 _ZN3JSC18getStaticValueSlotIN7WebCore17JSSVGImageElementENS1_12JSSVGElementEEEbPNS_9ExecStateEPKNS_9HashTableEPT_RKNS_10IdentifierERNS_12PropertySlotE@Base 2.2.1
 _ZN3JSC18getStaticValueSlotIN7WebCore17JSSVGStyleElementENS1_12JSSVGElementEEEbPNS_9ExecStateEPKNS_9HashTableEPT_RKNS_10IdentifierERNS_12PropertySlotE@Base 2.2.1
 _ZN3JSC18getStaticValueSlotIN7WebCore17JSSVGTSpanElementENS1_27JSSVGTextPositioningElementEEEbPNS_9ExecStateEPKNS_9HashTableEPT_RKNS_10IdentifierERNS_12PropertySlotE@Base 2.2.1
 _ZN3JSC18getStaticValueSlotIN7WebCore17JSSVGTitleElementENS1_12JSSVGElementEEEbPNS_9ExecStateEPKNS_9HashTableEPT_RKNS_10IdentifierERNS_12PropertySlotE@Base 2.2.1
 _ZN3JSC18getStaticValueSlotIN7WebCore17JSSVGVKernElementENS1_12JSSVGElementEEEbPNS_9ExecStateEPKNS_9HashTableEPT_RKNS_10IdentifierERNS_12PropertySlotE@Base 2.2.1
 _ZN3JSC18getStaticValueSlotIN7WebCore17JSTextConstructorENS1_12JSDOMWrapperEEEbPNS_9ExecStateEPKNS_9HashTableEPT_RKNS_10IdentifierERNS_12PropertySlotE@Base 2.2.1
 _ZN3JSC18getStaticValueSlotIN7WebCore17JSWebKitAnimationENS1_12JSDOMWrapperEEEbPNS_9ExecStateEPKNS_9HashTableEPT_RKNS_10IdentifierERNS_12PropertySlotE@Base 2.2.1
 _ZN3JSC18getStaticValueSlotIN7WebCore17JSWebKitCSSMatrixENS1_12JSDOMWrapperEEEbPNS_9ExecStateEPKNS_9HashTableEPT_RKNS_10IdentifierERNS_12PropertySlotE@Base 2.2.1
 _ZN3JSC18getStaticValueSlotIN7WebCore17JSWorkerNavigatorENS1_12JSDOMWrapperEEEbPNS_9ExecStateEPKNS_9HashTableEPT_RKNS_10IdentifierERNS_12PropertySlotE@Base 2.2.1
 _ZN3JSC18getStaticValueSlotIN7WebCore17JSXPathExpressionENS1_12JSDOMWrapperEEEbPNS_9ExecStateEPKNS_9HashTableEPT_RKNS_10IdentifierERNS_12PropertySlotE@Base 2.2.1
 _ZN3JSC18getStaticValueSlotIN7WebCore18JSCSSRulePrototypeENS_8JSObjectEEEbPNS_9ExecStateEPKNS_9HashTableEPT_RKNS_10IdentifierERNS_12PropertySlotE@Base 2.2.1
 _ZN3JSC18getStaticValueSlotIN7WebCore18JSCompositionEventENS1_9JSUIEventEEEbPNS_9ExecStateEPKNS_9HashTableEPT_RKNS_10IdentifierERNS_12PropertySlotE@Base 2.2.1
 _ZN3JSC18getStaticValueSlotIN7WebCore18JSDOMCoreExceptionENS1_12JSDOMWrapperEEEbPNS_9ExecStateEPKNS_9HashTableEPT_RKNS_10IdentifierERNS_12PropertySlotE@Base 2.2.1
 _ZN3JSC18getStaticValueSlotIN7WebCore18JSDOMMimeTypeArrayENS1_12JSDOMWrapperEEEbPNS_9ExecStateEPKNS_9HashTableEPT_RKNS_10IdentifierERNS_12PropertySlotE@Base 2.2.1
 _ZN3JSC18getStaticValueSlotIN7WebCore18JSDocumentFragmentENS1_6JSNodeEEEbPNS_9ExecStateEPKNS_9HashTableEPT_RKNS_10IdentifierERNS_12PropertySlotE@Base 2.2.1
 _ZN3JSC18getStaticValueSlotIN7WebCore18JSEventConstructorENS1_12JSDOMWrapperEEEbPNS_9ExecStateEPKNS_9HashTableEPT_RKNS_10IdentifierERNS_12PropertySlotE@Base 2.2.1
 _ZN3JSC18getStaticValueSlotIN7WebCore18JSHTMLAudioElementENS1_18JSHTMLMediaElementEEEbPNS_9ExecStateEPKNS_9HashTableEPT_RKNS_10IdentifierERNS_12PropertySlotE@Base 2.2.1
 _ZN3JSC18getStaticValueSlotIN7WebCore18JSHTMLDListElementENS1_13JSHTMLElementEEEbPNS_9ExecStateEPKNS_9HashTableEPT_RKNS_10IdentifierERNS_12PropertySlotE@Base 2.2.1
 _ZN3JSC18getStaticValueSlotIN7WebCore18JSHTMLEmbedElementENS1_13JSHTMLElementEEEbPNS_9ExecStateEPKNS_9HashTableEPT_RKNS_10IdentifierERNS_12PropertySlotE@Base 2.2.1
 _ZN3JSC18getStaticValueSlotIN7WebCore18JSHTMLFrameElementENS1_13JSHTMLElementEEEbPNS_9ExecStateEPKNS_9HashTableEPT_RKNS_10IdentifierERNS_12PropertySlotE@Base 2.2.1
 _ZN3JSC18getStaticValueSlotIN7WebCore18JSHTMLImageElementENS1_13JSHTMLElementEEEbPNS_9ExecStateEPKNS_9HashTableEPT_RKNS_10IdentifierERNS_12PropertySlotE@Base 2.2.1
 _ZN3JSC18getStaticValueSlotIN7WebCore18JSHTMLInputElementENS1_13JSHTMLElementEEEbPNS_9ExecStateEPKNS_9HashTableEPT_RKNS_10IdentifierERNS_12PropertySlotE@Base 2.2.1
 _ZN3JSC18getStaticValueSlotIN7WebCore18JSHTMLLabelElementENS1_13JSHTMLElementEEEbPNS_9ExecStateEPKNS_9HashTableEPT_RKNS_10IdentifierERNS_12PropertySlotE@Base 2.2.1
 _ZN3JSC18getStaticValueSlotIN7WebCore18JSHTMLMediaElementENS1_13JSHTMLElementEEEbPNS_9ExecStateEPKNS_9HashTableEPT_RKNS_10IdentifierERNS_12PropertySlotE@Base 2.2.1
 _ZN3JSC18getStaticValueSlotIN7WebCore18JSHTMLMeterElementENS1_13JSHTMLElementEEEbPNS_9ExecStateEPKNS_9HashTableEPT_RKNS_10IdentifierERNS_12PropertySlotE@Base 2.2.1
 _ZN3JSC18getStaticValueSlotIN7WebCore18JSHTMLOListElementENS1_13JSHTMLElementEEEbPNS_9ExecStateEPKNS_9HashTableEPT_RKNS_10IdentifierERNS_12PropertySlotE@Base 2.2.1
 _ZN3JSC18getStaticValueSlotIN7WebCore18JSHTMLParamElementENS1_13JSHTMLElementEEEbPNS_9ExecStateEPKNS_9HashTableEPT_RKNS_10IdentifierERNS_12PropertySlotE@Base 2.2.1
 _ZN3JSC18getStaticValueSlotIN7WebCore18JSHTMLQuoteElementENS1_13JSHTMLElementEEEbPNS_9ExecStateEPKNS_9HashTableEPT_RKNS_10IdentifierERNS_12PropertySlotE@Base 2.2.1
 _ZN3JSC18getStaticValueSlotIN7WebCore18JSHTMLStyleElementENS1_13JSHTMLElementEEEbPNS_9ExecStateEPKNS_9HashTableEPT_RKNS_10IdentifierERNS_12PropertySlotE@Base 2.2.1
 _ZN3JSC18getStaticValueSlotIN7WebCore18JSHTMLTableElementENS1_13JSHTMLElementEEEbPNS_9ExecStateEPKNS_9HashTableEPT_RKNS_10IdentifierERNS_12PropertySlotE@Base 2.2.1
 _ZN3JSC18getStaticValueSlotIN7WebCore18JSHTMLTitleElementENS1_13JSHTMLElementEEEbPNS_9ExecStateEPKNS_9HashTableEPT_RKNS_10IdentifierERNS_12PropertySlotE@Base 2.2.1
 _ZN3JSC18getStaticValueSlotIN7WebCore18JSHTMLUListElementENS1_13JSHTMLElementEEEbPNS_9ExecStateEPKNS_9HashTableEPT_RKNS_10IdentifierERNS_12PropertySlotE@Base 2.2.1
 _ZN3JSC18getStaticValueSlotIN7WebCore18JSHTMLVideoElementENS1_18JSHTMLMediaElementEEEbPNS_9ExecStateEPKNS_9HashTableEPT_RKNS_10IdentifierERNS_12PropertySlotE@Base 2.2.1
 _ZN3JSC18getStaticValueSlotIN7WebCore18JSRangeConstructorENS1_12JSDOMWrapperEEEbPNS_9ExecStateEPKNS_9HashTableEPT_RKNS_10IdentifierERNS_12PropertySlotE@Base 2.2.1
 _ZN3JSC18getStaticValueSlotIN7WebCore18JSSVGAnimatedAngleENS1_12JSDOMWrapperEEEbPNS_9ExecStateEPKNS_9HashTableEPT_RKNS_10IdentifierERNS_12PropertySlotE@Base 2.2.1
 _ZN3JSC18getStaticValueSlotIN7WebCore18JSSVGCircleElementENS1_12JSSVGElementEEEbPNS_9ExecStateEPKNS_9HashTableEPT_RKNS_10IdentifierERNS_12PropertySlotE@Base 2.2.1
 _ZN3JSC18getStaticValueSlotIN7WebCore18JSSVGCursorElementENS1_12JSSVGElementEEEbPNS_9ExecStateEPKNS_9HashTableEPT_RKNS_10IdentifierERNS_12PropertySlotE@Base 2.2.1
 _ZN3JSC18getStaticValueSlotIN7WebCore18JSSVGFETileElementENS1_12JSSVGElementEEEbPNS_9ExecStateEPKNS_9HashTableEPT_RKNS_10IdentifierERNS_12PropertySlotE@Base 2.2.1
 _ZN3JSC18getStaticValueSlotIN7WebCore18JSSVGFilterElementENS1_12JSSVGElementEEEbPNS_9ExecStateEPKNS_9HashTableEPT_RKNS_10IdentifierERNS_12PropertySlotE@Base 2.2.1
 _ZN3JSC18getStaticValueSlotIN7WebCore18JSSVGMarkerElementENS1_12JSSVGElementEEEbPNS_9ExecStateEPKNS_9HashTableEPT_RKNS_10IdentifierERNS_12PropertySlotE@Base 2.2.1
 _ZN3JSC18getStaticValueSlotIN7WebCore18JSSVGPathSegArcAbsENS1_12JSSVGPathSegEEEbPNS_9ExecStateEPKNS_9HashTableEPT_RKNS_10IdentifierERNS_12PropertySlotE@Base 2.2.1
 _ZN3JSC18getStaticValueSlotIN7WebCore18JSSVGPathSegArcRelENS1_12JSSVGPathSegEEEbPNS_9ExecStateEPKNS_9HashTableEPT_RKNS_10IdentifierERNS_12PropertySlotE@Base 2.2.1
 _ZN3JSC18getStaticValueSlotIN7WebCore18JSSVGScriptElementENS1_12JSSVGElementEEEbPNS_9ExecStateEPKNS_9HashTableEPT_RKNS_10IdentifierERNS_12PropertySlotE@Base 2.2.1
 _ZN3JSC18getStaticValueSlotIN7WebCore18JSSVGSwitchElementENS1_12JSSVGElementEEEbPNS_9ExecStateEPKNS_9HashTableEPT_RKNS_10IdentifierERNS_12PropertySlotE@Base 2.2.1
 _ZN3JSC18getStaticValueSlotIN7WebCore18JSSVGSymbolElementENS1_12JSSVGElementEEEbPNS_9ExecStateEPKNS_9HashTableEPT_RKNS_10IdentifierERNS_12PropertySlotE@Base 2.2.1
 _ZN3JSC18getStaticValueSlotIN7WebCore18JSSVGTransformListENS1_12JSDOMWrapperEEEbPNS_9ExecStateEPKNS_9HashTableEPT_RKNS_10IdentifierERNS_12PropertySlotE@Base 2.2.1
 _ZN3JSC18getStaticValueSlotIN7WebCore18JSTouchConstructorENS1_12JSDOMWrapperEEEbPNS_9ExecStateEPKNS_9HashTableEPT_RKNS_10IdentifierERNS_12PropertySlotE@Base 2.2.1
 _ZN3JSC18getStaticValueSlotIN7WebCore19JSCSSPrimitiveValueENS1_10JSCSSValueEEEbPNS_9ExecStateEPKNS_9HashTableEPT_RKNS_10IdentifierERNS_12PropertySlotE@Base 2.2.1
 _ZN3JSC18getStaticValueSlotIN7WebCore19JSCSSValuePrototypeENS_8JSObjectEEEbPNS_9ExecStateEPKNS_9HashTableEPT_RKNS_10IdentifierERNS_12PropertySlotE@Base 2.2.1
 _ZN3JSC18getStaticValueSlotIN7WebCore19JSDOMImplementationENS1_12JSDOMWrapperEEEbPNS_9ExecStateEPKNS_9HashTableEPT_RKNS_10IdentifierERNS_12PropertySlotE@Base 2.2.1
 _ZN3JSC18getStaticValueSlotIN7WebCore19JSEntityConstructorENS1_12JSDOMWrapperEEEbPNS_9ExecStateEPKNS_9HashTableEPT_RKNS_10IdentifierERNS_12PropertySlotE@Base 2.2.1
 _ZN3JSC18getStaticValueSlotIN7WebCore19JSHTMLAllCollectionENS1_12JSDOMWrapperEEEbPNS_9ExecStateEPKNS_9HashTableEPT_RKNS_10IdentifierERNS_12PropertySlotE@Base 2.2.1
 _ZN3JSC18getStaticValueSlotIN7WebCore19JSHTMLAnchorElementENS1_13JSHTMLElementEEEbPNS_9ExecStateEPKNS_9HashTableEPT_RKNS_10IdentifierERNS_12PropertySlotE@Base 2.2.1
 _ZN3JSC18getStaticValueSlotIN7WebCore19JSHTMLAppletElementENS1_13JSHTMLElementEEEbPNS_9ExecStateEPKNS_9HashTableEPT_RKNS_10IdentifierERNS_12PropertySlotE@Base 2.2.1
 _ZN3JSC18getStaticValueSlotIN7WebCore19JSHTMLButtonElementENS1_13JSHTMLElementEEEbPNS_9ExecStateEPKNS_9HashTableEPT_RKNS_10IdentifierERNS_12PropertySlotE@Base 2.2.1
 _ZN3JSC18getStaticValueSlotIN7WebCore19JSHTMLCanvasElementENS1_13JSHTMLElementEEEbPNS_9ExecStateEPKNS_9HashTableEPT_RKNS_10IdentifierERNS_12PropertySlotE@Base 2.2.1
 _ZN3JSC18getStaticValueSlotIN7WebCore19JSHTMLIFrameElementENS1_13JSHTMLElementEEEbPNS_9ExecStateEPKNS_9HashTableEPT_RKNS_10IdentifierERNS_12PropertySlotE@Base 2.2.1
 _ZN3JSC18getStaticValueSlotIN7WebCore19JSHTMLKeygenElementENS1_13JSHTMLElementEEEbPNS_9ExecStateEPKNS_9HashTableEPT_RKNS_10IdentifierERNS_12PropertySlotE@Base 2.2.1
 _ZN3JSC18getStaticValueSlotIN7WebCore19JSHTMLLegendElementENS1_13JSHTMLElementEEEbPNS_9ExecStateEPKNS_9HashTableEPT_RKNS_10IdentifierERNS_12PropertySlotE@Base 2.2.1
 _ZN3JSC18getStaticValueSlotIN7WebCore19JSHTMLObjectElementENS1_13JSHTMLElementEEEbPNS_9ExecStateEPKNS_9HashTableEPT_RKNS_10IdentifierERNS_12PropertySlotE@Base 2.2.1
 _ZN3JSC18getStaticValueSlotIN7WebCore19JSHTMLOptionElementENS1_13JSHTMLElementEEEbPNS_9ExecStateEPKNS_9HashTableEPT_RKNS_10IdentifierERNS_12PropertySlotE@Base 2.2.1
 _ZN3JSC18getStaticValueSlotIN7WebCore19JSHTMLOutputElementENS1_13JSHTMLElementEEEbPNS_9ExecStateEPKNS_9HashTableEPT_RKNS_10IdentifierERNS_12PropertySlotE@Base 2.2.1
 _ZN3JSC18getStaticValueSlotIN7WebCore19JSHTMLScriptElementENS1_13JSHTMLElementEEEbPNS_9ExecStateEPKNS_9HashTableEPT_RKNS_10IdentifierERNS_12PropertySlotE@Base 2.2.1
 _ZN3JSC18getStaticValueSlotIN7WebCore19JSHTMLSelectElementENS1_13JSHTMLElementEEEbPNS_9ExecStateEPKNS_9HashTableEPT_RKNS_10IdentifierERNS_12PropertySlotE@Base 2.2.1
 _ZN3JSC18getStaticValueSlotIN7WebCore19JSHTMLSourceElementENS1_13JSHTMLElementEEEbPNS_9ExecStateEPKNS_9HashTableEPT_RKNS_10IdentifierERNS_12PropertySlotE@Base 2.2.1
 _ZN3JSC18getStaticValueSlotIN7WebCore19JSSQLErrorPrototypeENS_8JSObjectEEEbPNS_9ExecStateEPKNS_9HashTableEPT_RKNS_10IdentifierERNS_12PropertySlotE@Base 2.2.1
 _ZN3JSC18getStaticValueSlotIN7WebCore19JSSVGAnimateElementENS1_21JSSVGAnimationElementEEEbPNS_9ExecStateEPKNS_9HashTableEPT_RKNS_10IdentifierERNS_12PropertySlotE@Base 2.2.1
 _ZN3JSC18getStaticValueSlotIN7WebCore19JSSVGAnimatedLengthENS1_12JSDOMWrapperEEEbPNS_9ExecStateEPKNS_9HashTableEPT_RKNS_10IdentifierERNS_12PropertySlotE@Base 2.2.1
 _ZN3JSC18getStaticValueSlotIN7WebCore19JSSVGAnimatedNumberENS1_12JSDOMWrapperEEEbPNS_9ExecStateEPKNS_9HashTableEPT_RKNS_10IdentifierERNS_12PropertySlotE@Base 2.2.1
 _ZN3JSC18getStaticValueSlotIN7WebCore19JSSVGAnimatedStringENS1_12JSDOMWrapperEEEbPNS_9ExecStateEPKNS_9HashTableEPT_RKNS_10IdentifierERNS_12PropertySlotE@Base 2.2.1
 _ZN3JSC18getStaticValueSlotIN7WebCore19JSSVGEllipseElementENS1_12JSSVGElementEEEbPNS_9ExecStateEPKNS_9HashTableEPT_RKNS_10IdentifierERNS_12PropertySlotE@Base 2.2.1
 _ZN3JSC18getStaticValueSlotIN7WebCore19JSSVGFEBlendElementENS1_12JSSVGElementEEEbPNS_9ExecStateEPKNS_9HashTableEPT_RKNS_10IdentifierERNS_12PropertySlotE@Base 2.2.1
 _ZN3JSC18getStaticValueSlotIN7WebCore19JSSVGFEFloodElementENS1_12JSSVGElementEEEbPNS_9ExecStateEPKNS_9HashTableEPT_RKNS_10IdentifierERNS_12PropertySlotE@Base 2.2.1
 _ZN3JSC18getStaticValueSlotIN7WebCore19JSSVGFEFuncAElementENS1_37JSSVGComponentTransferFunctionElementEEEbPNS_9ExecStateEPKNS_9HashTableEPT_RKNS_10IdentifierERNS_12PropertySlotE@Base 2.2.1
 _ZN3JSC18getStaticValueSlotIN7WebCore19JSSVGFEFuncBElementENS1_37JSSVGComponentTransferFunctionElementEEEbPNS_9ExecStateEPKNS_9HashTableEPT_RKNS_10IdentifierERNS_12PropertySlotE@Base 2.2.1
 _ZN3JSC18getStaticValueSlotIN7WebCore19JSSVGFEFuncGElementENS1_37JSSVGComponentTransferFunctionElementEEEbPNS_9ExecStateEPKNS_9HashTableEPT_RKNS_10IdentifierERNS_12PropertySlotE@Base 2.2.1
 _ZN3JSC18getStaticValueSlotIN7WebCore19JSSVGFEFuncRElementENS1_37JSSVGComponentTransferFunctionElementEEEbPNS_9ExecStateEPKNS_9HashTableEPT_RKNS_10IdentifierERNS_12PropertySlotE@Base 2.2.1
 _ZN3JSC18getStaticValueSlotIN7WebCore19JSSVGFEImageElementENS1_12JSSVGElementEEEbPNS_9ExecStateEPKNS_9HashTableEPT_RKNS_10IdentifierERNS_12PropertySlotE@Base 2.2.1
 _ZN3JSC18getStaticValueSlotIN7WebCore19JSSVGFEMergeElementENS1_12JSSVGElementEEEbPNS_9ExecStateEPKNS_9HashTableEPT_RKNS_10IdentifierERNS_12PropertySlotE@Base 2.2.1
 _ZN3JSC18getStaticValueSlotIN7WebCore19JSSVGPatternElementENS1_12JSSVGElementEEEbPNS_9ExecStateEPKNS_9HashTableEPT_RKNS_10IdentifierERNS_12PropertySlotE@Base 2.2.1
 _ZN3JSC18getStaticValueSlotIN7WebCore19JSSVGPolygonElementENS1_12JSSVGElementEEEbPNS_9ExecStateEPKNS_9HashTableEPT_RKNS_10IdentifierERNS_12PropertySlotE@Base 2.2.1
 _ZN3JSC18getStaticValueSlotIN7WebCore19JSScriptProfileNodeENS1_12JSDOMWrapperEEEbPNS_9ExecStateEPKNS_9HashTableEPT_RKNS_10IdentifierERNS_12PropertySlotE@Base 2.2.1
 _ZN3JSC18getStaticValueSlotIN7WebCore19JSWebKitBlobBuilderENS1_12JSDOMWrapperEEEbPNS_9ExecStateEPKNS_9HashTableEPT_RKNS_10IdentifierERNS_12PropertySlotE@Base 2.2.1
 _ZN3JSC18getStaticValueSlotIN7WebCore19JSWorkerConstructorENS1_12JSDOMWrapperEEEbPNS_9ExecStateEPKNS_9HashTableEPT_RKNS_10IdentifierERNS_12PropertySlotE@Base 2.2.1
 _ZN3JSC18getStaticValueSlotIN7WebCore20JSBeforeProcessEventENS1_7JSEventEEEbPNS_9ExecStateEPKNS_9HashTableEPT_RKNS_10IdentifierERNS_12PropertySlotE@Base 2.2.1
 _ZN3JSC18getStaticValueSlotIN7WebCore20JSCSSRuleConstructorENS1_12JSDOMWrapperEEEbPNS_9ExecStateEPKNS_9HashTableEPT_RKNS_10IdentifierERNS_12PropertySlotE@Base 2.2.1
 _ZN3JSC18getStaticValueSlotIN7WebCore20JSCommentConstructorENS1_12JSDOMWrapperEEEbPNS_9ExecStateEPKNS_9HashTableEPT_RKNS_10IdentifierERNS_12PropertySlotE@Base 2.2.1
 _ZN3JSC18getStaticValueSlotIN7WebCore20JSCounterConstructorENS1_12JSDOMWrapperEEEbPNS_9ExecStateEPKNS_9HashTableEPT_RKNS_10IdentifierERNS_12PropertySlotE@Base 2.2.1
 _ZN3JSC18getStaticValueSlotIN7WebCore20JSElementConstructorENS1_12JSDOMWrapperEEEbPNS_9ExecStateEPKNS_9HashTableEPT_RKNS_10IdentifierERNS_12PropertySlotE@Base 2.2.1
 _ZN3JSC18getStaticValueSlotIN7WebCore20JSFileErrorPrototypeENS_8JSObjectEEEbPNS_9ExecStateEPKNS_9HashTableEPT_RKNS_10IdentifierERNS_12PropertySlotE@Base 2.2.1
 _ZN3JSC18getStaticValueSlotIN7WebCore20JSHTMLDetailsElementENS1_13JSHTMLElementEEEbPNS_9ExecStateEPKNS_9HashTableEPT_RKNS_10IdentifierERNS_12PropertySlotE@Base 2.2.1
 _ZN3JSC18getStaticValueSlotIN7WebCore20JSHTMLHeadingElementENS1_13JSHTMLElementEEEbPNS_9ExecStateEPKNS_9HashTableEPT_RKNS_10IdentifierERNS_12PropertySlotE@Base 2.2.1
 _ZN3JSC18getStaticValueSlotIN7WebCore20JSHTMLIsIndexElementENS1_18JSHTMLInputElementEEEbPNS_9ExecStateEPKNS_9HashTableEPT_RKNS_10IdentifierERNS_12PropertySlotE@Base 2.2.1
 _ZN3JSC18getStaticValueSlotIN7WebCore20JSHTMLMarqueeElementENS1_13JSHTMLElementEEEbPNS_9ExecStateEPKNS_9HashTableEPT_RKNS_10IdentifierERNS_12PropertySlotE@Base 2.2.1
 _ZN3JSC18getStaticValueSlotIN7WebCore20JSInjectedScriptHostENS1_12JSDOMWrapperEEEbPNS_9ExecStateEPKNS_9HashTableEPT_RKNS_10IdentifierERNS_12PropertySlotE@Base 2.2.1
 _ZN3JSC18getStaticValueSlotIN7WebCore20JSSVGAltGlyphElementENS1_27JSSVGTextPositioningElementEEEbPNS_9ExecStateEPKNS_9HashTableEPT_RKNS_10IdentifierERNS_12PropertySlotE@Base 2.2.1
 _ZN3JSC18getStaticValueSlotIN7WebCore20JSSVGAnimatedBooleanENS1_12JSDOMWrapperEEEbPNS_9ExecStateEPKNS_9HashTableEPT_RKNS_10IdentifierERNS_12PropertySlotE@Base 2.2.1
 _ZN3JSC18getStaticValueSlotIN7WebCore20JSSVGAnimatedIntegerENS1_12JSDOMWrapperEEEbPNS_9ExecStateEPKNS_9HashTableEPT_RKNS_10IdentifierERNS_12PropertySlotE@Base 2.2.1
 _ZN3JSC18getStaticValueSlotIN7WebCore20JSSVGClipPathElementENS1_12JSSVGElementEEEbPNS_9ExecStateEPKNS_9HashTableEPT_RKNS_10IdentifierERNS_12PropertySlotE@Base 2.2.1
 _ZN3JSC18getStaticValueSlotIN7WebCore20JSSVGElementInstanceENS1_12JSDOMWrapperEEEbPNS_9ExecStateEPKNS_9HashTableEPT_RKNS_10IdentifierERNS_12PropertySlotE@Base 2.2.1
 _ZN3JSC18getStaticValueSlotIN7WebCore20JSSVGFEOffsetElementENS1_12JSSVGElementEEEbPNS_9ExecStateEPKNS_9HashTableEPT_RKNS_10IdentifierERNS_12PropertySlotE@Base 2.2.1
 _ZN3JSC18getStaticValueSlotIN7WebCore20JSSVGFontFaceElementENS1_12JSSVGElementEEEbPNS_9ExecStateEPKNS_9HashTableEPT_RKNS_10IdentifierERNS_12PropertySlotE@Base 2.2.1
 _ZN3JSC18getStaticValueSlotIN7WebCore20JSSVGGradientElementENS1_12JSSVGElementEEEbPNS_9ExecStateEPKNS_9HashTableEPT_RKNS_10IdentifierERNS_12PropertySlotE@Base 2.2.1
 _ZN3JSC18getStaticValueSlotIN7WebCore20JSSVGMetadataElementENS1_12JSSVGElementEEEbPNS_9ExecStateEPKNS_9HashTableEPT_RKNS_10IdentifierERNS_12PropertySlotE@Base 2.2.1
 _ZN3JSC18getStaticValueSlotIN7WebCore20JSSVGPolylineElementENS1_12JSSVGElementEEEbPNS_9ExecStateEPKNS_9HashTableEPT_RKNS_10IdentifierERNS_12PropertySlotE@Base 2.2.1
 _ZN3JSC18getStaticValueSlotIN7WebCore20JSSVGRectConstructorENS1_12JSDOMWrapperEEEbPNS_9ExecStateEPKNS_9HashTableEPT_RKNS_10IdentifierERNS_12PropertySlotE@Base 2.2.1
 _ZN3JSC18getStaticValueSlotIN7WebCore20JSSVGRenderingIntentENS1_12JSDOMWrapperEEEbPNS_9ExecStateEPKNS_9HashTableEPT_RKNS_10IdentifierERNS_12PropertySlotE@Base 2.2.1
 _ZN3JSC18getStaticValueSlotIN7WebCore20JSSVGTextPathElementENS1_23JSSVGTextContentElementEEEbPNS_9ExecStateEPKNS_9HashTableEPT_RKNS_10IdentifierERNS_12PropertySlotE@Base 2.2.1
 _ZN3JSC18getStaticValueSlotIN7WebCore20JSStorageConstructorENS1_12JSDOMWrapperEEEbPNS_9ExecStateEPKNS_9HashTableEPT_RKNS_10IdentifierERNS_12PropertySlotE@Base 2.2.1
 _ZN3JSC18getStaticValueSlotIN7WebCore20JSUIEventConstructorENS1_12JSDOMWrapperEEEbPNS_9ExecStateEPKNS_9HashTableEPT_RKNS_10IdentifierERNS_12PropertySlotE@Base 2.2.1
 _ZN3JSC18getStaticValueSlotIN7WebCore21JSCSSStyleDeclarationENS1_12JSDOMWrapperEEEbPNS_9ExecStateEPKNS_9HashTableEPT_RKNS_10IdentifierERNS_12PropertySlotE@Base 2.2.1
 _ZN3JSC18getStaticValueSlotIN7WebCore21JSCSSValueConstructorENS1_12JSDOMWrapperEEEbPNS_9ExecStateEPKNS_9HashTableEPT_RKNS_10IdentifierERNS_12PropertySlotE@Base 2.2.1
 _ZN3JSC18getStaticValueSlotIN7WebCore21JSDOMApplicationCacheENS1_12JSDOMWrapperEEEbPNS_9ExecStateEPKNS_9HashTableEPT_RKNS_10IdentifierERNS_12PropertySlotE@Base 2.2.1
 _ZN3JSC18getStaticValueSlotIN7WebCore21JSDataViewConstructorENS1_12JSDOMWrapperEEEbPNS_9ExecStateEPKNS_9HashTableEPT_RKNS_10IdentifierERNS_12PropertySlotE@Base 2.2.1
 _ZN3JSC18getStaticValueSlotIN7WebCore21JSDocumentConstructorENS1_12JSDOMWrapperEEEbPNS_9ExecStateEPKNS_9HashTableEPT_RKNS_10IdentifierERNS_12PropertySlotE@Base 2.2.1
 _ZN3JSC18getStaticValueSlotIN7WebCore21JSFileListConstructorENS1_12JSDOMWrapperEEEbPNS_9ExecStateEPKNS_9HashTableEPT_RKNS_10IdentifierERNS_12PropertySlotE@Base 2.2.1
 _ZN3JSC18getStaticValueSlotIN7WebCore21JSHTMLBaseFontElementENS1_13JSHTMLElementEEEbPNS_9ExecStateEPKNS_9HashTableEPT_RKNS_10IdentifierERNS_12PropertySlotE@Base 2.2.1
 _ZN3JSC18getStaticValueSlotIN7WebCore21JSHTMLDataListElementENS1_13JSHTMLElementEEEbPNS_9ExecStateEPKNS_9HashTableEPT_RKNS_10IdentifierERNS_12PropertySlotE@Base 2.2.1
 _ZN3JSC18getStaticValueSlotIN7WebCore21JSHTMLFieldSetElementENS1_13JSHTMLElementEEEbPNS_9ExecStateEPKNS_9HashTableEPT_RKNS_10IdentifierERNS_12PropertySlotE@Base 2.2.1
 _ZN3JSC18getStaticValueSlotIN7WebCore21JSHTMLFrameSetElementENS1_13JSHTMLElementEEEbPNS_9ExecStateEPKNS_9HashTableEPT_RKNS_10IdentifierERNS_12PropertySlotE@Base 2.2.1
 _ZN3JSC18getStaticValueSlotIN7WebCore21JSHTMLOptGroupElementENS1_13JSHTMLElementEEEbPNS_9ExecStateEPKNS_9HashTableEPT_RKNS_10IdentifierERNS_12PropertySlotE@Base 2.2.1
 _ZN3JSC18getStaticValueSlotIN7WebCore21JSHTMLProgressElementENS1_13JSHTMLElementEEEbPNS_9ExecStateEPKNS_9HashTableEPT_RKNS_10IdentifierERNS_12PropertySlotE@Base 2.2.1
 _ZN3JSC18getStaticValueSlotIN7WebCore21JSHTMLTableColElementENS1_13JSHTMLElementEEEbPNS_9ExecStateEPKNS_9HashTableEPT_RKNS_10IdentifierERNS_12PropertySlotE@Base 2.2.1
 _ZN3JSC18getStaticValueSlotIN7WebCore21JSHTMLTableRowElementENS1_13JSHTMLElementEEEbPNS_9ExecStateEPKNS_9HashTableEPT_RKNS_10IdentifierERNS_12PropertySlotE@Base 2.2.1
 _ZN3JSC18getStaticValueSlotIN7WebCore21JSHTMLTextAreaElementENS1_13JSHTMLElementEEEbPNS_9ExecStateEPKNS_9HashTableEPT_RKNS_10IdentifierERNS_12PropertySlotE@Base 2.2.1
 _ZN3JSC18getStaticValueSlotIN7WebCore21JSJavaScriptCallFrameENS1_12JSDOMWrapperEEEbPNS_9ExecStateEPKNS_9HashTableEPT_RKNS_10IdentifierERNS_12PropertySlotE@Base 2.2.1
 _ZN3JSC18getStaticValueSlotIN7WebCore21JSMediaErrorPrototypeENS_8JSObjectEEEbPNS_9ExecStateEPKNS_9HashTableEPT_RKNS_10IdentifierERNS_12PropertySlotE@Base 2.2.1
 _ZN3JSC18getStaticValueSlotIN7WebCore21JSNodeListConstructorENS1_12JSDOMWrapperEEEbPNS_9ExecStateEPKNS_9HashTableEPT_RKNS_10IdentifierERNS_12PropertySlotE@Base 2.2.1
 _ZN3JSC18getStaticValueSlotIN7WebCore21JSNotationConstructorENS1_12JSDOMWrapperEEEbPNS_9ExecStateEPKNS_9HashTableEPT_RKNS_10IdentifierERNS_12PropertySlotE@Base 2.2.1
 _ZN3JSC18getStaticValueSlotIN7WebCore21JSPageTransitionEventENS1_7JSEventEEEbPNS_9ExecStateEPKNS_9HashTableEPT_RKNS_10IdentifierERNS_12PropertySlotE@Base 2.2.1
 _ZN3JSC18getStaticValueSlotIN7WebCore21JSRGBColorConstructorENS1_12JSDOMWrapperEEEbPNS_9ExecStateEPKNS_9HashTableEPT_RKNS_10IdentifierERNS_12PropertySlotE@Base 2.2.1
 _ZN3JSC18getStaticValueSlotIN7WebCore21JSSQLResultSetRowListENS1_12JSDOMWrapperEEEbPNS_9ExecStateEPKNS_9HashTableEPT_RKNS_10IdentifierERNS_12PropertySlotE@Base 2.2.1
 _ZN3JSC18getStaticValueSlotIN7WebCore21JSSVGAngleConstructorENS1_12JSDOMWrapperEEEbPNS_9ExecStateEPKNS_9HashTableEPT_RKNS_10IdentifierERNS_12PropertySlotE@Base 2.2.1
 _ZN3JSC18getStaticValueSlotIN7WebCore21JSSVGAnimationElementENS1_12JSSVGElementEEEbPNS_9ExecStateEPKNS_9HashTableEPT_RKNS_10IdentifierERNS_12PropertySlotE@Base 2.2.1
 _ZN3JSC18getStaticValueSlotIN7WebCore21JSSVGColorConstructorENS1_12JSDOMWrapperEEEbPNS_9ExecStateEPKNS_9HashTableEPT_RKNS_10IdentifierERNS_12PropertySlotE@Base 2.2.1
 _ZN3JSC18getStaticValueSlotIN7WebCore21JSSVGPaintConstructorENS1_12JSDOMWrapperEEEbPNS_9ExecStateEPKNS_9HashTableEPT_RKNS_10IdentifierERNS_12PropertySlotE@Base 2.2.1
 _ZN3JSC18getStaticValueSlotIN7WebCore21JSSVGPathSegClosePathENS1_12JSSVGPathSegEEEbPNS_9ExecStateEPKNS_9HashTableEPT_RKNS_10IdentifierERNS_12PropertySlotE@Base 2.2.1
 _ZN3JSC18getStaticValueSlotIN7WebCore21JSSVGPathSegLinetoAbsENS1_12JSSVGPathSegEEEbPNS_9ExecStateEPKNS_9HashTableEPT_RKNS_10IdentifierERNS_12PropertySlotE@Base 2.2.1
 _ZN3JSC18getStaticValueSlotIN7WebCore21JSSVGPathSegLinetoRelENS1_12JSSVGPathSegEEEbPNS_9ExecStateEPKNS_9HashTableEPT_RKNS_10IdentifierERNS_12PropertySlotE@Base 2.2.1
 _ZN3JSC18getStaticValueSlotIN7WebCore21JSSVGPathSegMovetoAbsENS1_12JSSVGPathSegEEEbPNS_9ExecStateEPKNS_9HashTableEPT_RKNS_10IdentifierERNS_12PropertySlotE@Base 2.2.1
 _ZN3JSC18getStaticValueSlotIN7WebCore21JSSVGPathSegMovetoRelENS1_12JSSVGPathSegEEEbPNS_9ExecStateEPKNS_9HashTableEPT_RKNS_10IdentifierERNS_12PropertySlotE@Base 2.2.1
 _ZN3JSC18getStaticValueSlotIN7WebCore21JSSVGPathSegPrototypeENS_8JSObjectEEEbPNS_9ExecStateEPKNS_9HashTableEPT_RKNS_10IdentifierERNS_12PropertySlotE@Base 2.2.1
 _ZN3JSC18getStaticValueSlotIN7WebCore21JSSVGPointConstructorENS1_12JSDOMWrapperEEEbPNS_9ExecStateEPKNS_9HashTableEPT_RKNS_10IdentifierERNS_12PropertySlotE@Base 2.2.1
 _ZN3JSC18getStaticValueSlotIN7WebCore21JSSharedWorkerContextENS1_15JSWorkerContextEEEbPNS_9ExecStateEPKNS_9HashTableEPT_RKNS_10IdentifierERNS_12PropertySlotE@Base 2.2.1
 _ZN3JSC18getStaticValueSlotIN7WebCore21JSWebKitAnimationListENS1_12JSDOMWrapperEEEbPNS_9ExecStateEPKNS_9HashTableEPT_RKNS_10IdentifierERNS_12PropertySlotE@Base 2.2.1
 _ZN3JSC18getStaticValueSlotIN7WebCore22JSClipboardConstructorENS1_12JSDOMWrapperEEEbPNS_9ExecStateEPKNS_9HashTableEPT_RKNS_10IdentifierERNS_12PropertySlotE@Base 2.2.1
 _ZN3JSC18getStaticValueSlotIN7WebCore22JSDOMParserConstructorENS1_12JSDOMWrapperEEEbPNS_9ExecStateEPKNS_9HashTableEPT_RKNS_10IdentifierERNS_12PropertySlotE@Base 2.2.1
 _ZN3JSC18getStaticValueSlotIN7WebCore22JSDOMPluginConstructorENS1_12JSDOMWrapperEEEbPNS_9ExecStateEPKNS_9HashTableEPT_RKNS_10IdentifierERNS_12PropertySlotE@Base 2.2.1
 _ZN3JSC18getStaticValueSlotIN7WebCore22JSDOMSettableTokenListENS1_14JSDOMTokenListEEEbPNS_9ExecStateEPKNS_9HashTableEPT_RKNS_10IdentifierERNS_12PropertySlotE@Base 2.2.1
 _ZN3JSC18getStaticValueSlotIN7WebCore22JSDOMWindowConstructorENS1_12JSDOMWrapperEEEbPNS_9ExecStateEPKNS_9HashTableEPT_RKNS_10IdentifierERNS_12PropertySlotE@Base 2.2.1
 _ZN3JSC18getStaticValueSlotIN7WebCore22JSFileErrorConstructorENS1_12JSDOMWrapperEEEbPNS_9ExecStateEPKNS_9HashTableEPT_RKNS_10IdentifierERNS_12PropertySlotE@Base 2.2.1
 _ZN3JSC18getStaticValueSlotIN7WebCore22JSHTMLDirectoryElementENS1_13JSHTMLElementEEEbPNS_9ExecStateEPKNS_9HashTableEPT_RKNS_10IdentifierERNS_12PropertySlotE@Base 2.2.1
 _ZN3JSC18getStaticValueSlotIN7WebCore22JSHTMLParagraphElementENS1_13JSHTMLElementEEEbPNS_9ExecStateEPKNS_9HashTableEPT_RKNS_10IdentifierERNS_12PropertySlotE@Base 2.2.1
 _ZN3JSC18getStaticValueSlotIN7WebCore22JSHTMLTableCellElementENS1_13JSHTMLElementEEEbPNS_9ExecStateEPKNS_9HashTableEPT_RKNS_10IdentifierERNS_12PropertySlotE@Base 2.2.1
 _ZN3JSC18getStaticValueSlotIN7WebCore22JSImageDataConstructorENS1_12JSDOMWrapperEEEbPNS_9ExecStateEPKNS_9HashTableEPT_RKNS_10IdentifierERNS_12PropertySlotE@Base 2.2.1
 _ZN3JSC18getStaticValueSlotIN7WebCore22JSInt8ArrayConstructorENS1_12JSDOMWrapperEEEbPNS_9ExecStateEPKNS_9HashTableEPT_RKNS_10IdentifierERNS_12PropertySlotE@Base 2.2.1
 _ZN3JSC18getStaticValueSlotIN7WebCore22JSMediaListConstructorENS1_12JSDOMWrapperEEEbPNS_9ExecStateEPKNS_9HashTableEPT_RKNS_10IdentifierERNS_12PropertySlotE@Base 2.2.1
 _ZN3JSC18getStaticValueSlotIN7WebCore22JSSVGLengthConstructorENS1_12JSDOMWrapperEEEbPNS_9ExecStateEPKNS_9HashTableEPT_RKNS_10IdentifierERNS_12PropertySlotE@Base 2.2.1
 _ZN3JSC18getStaticValueSlotIN7WebCore22JSSVGMatrixConstructorENS1_12JSDOMWrapperEEEbPNS_9ExecStateEPKNS_9HashTableEPT_RKNS_10IdentifierERNS_12PropertySlotE@Base 2.2.1
 _ZN3JSC18getStaticValueSlotIN7WebCore22JSSVGNumberConstructorENS1_12JSDOMWrapperEEEbPNS_9ExecStateEPKNS_9HashTableEPT_RKNS_10IdentifierERNS_12PropertySlotE@Base 2.2.1
 _ZN3JSC18getStaticValueSlotIN7WebCore22JSTextEventConstructorENS1_12JSDOMWrapperEEEbPNS_9ExecStateEPKNS_9HashTableEPT_RKNS_10IdentifierERNS_12PropertySlotE@Base 2.2.1
 _ZN3JSC18getStaticValueSlotIN7WebCore22JSTouchListConstructorENS1_12JSDOMWrapperEEEbPNS_9ExecStateEPKNS_9HashTableEPT_RKNS_10IdentifierERNS_12PropertySlotE@Base 2.2.1
 _ZN3JSC18getStaticValueSlotIN7WebCore22JSWebKitAnimationEventENS1_7JSEventEEEbPNS_9ExecStateEPKNS_9HashTableEPT_RKNS_10IdentifierERNS_12PropertySlotE@Base 2.2.1
 _ZN3JSC18getStaticValueSlotIN7WebCore22JSWebSocketConstructorENS1_12JSDOMWrapperEEEbPNS_9ExecStateEPKNS_9HashTableEPT_RKNS_10IdentifierERNS_12PropertySlotE@Base 2.2.1
 _ZN3JSC18getStaticValueSlotIN7WebCore22JSXMLHttpRequestUploadENS1_12JSDOMWrapperEEEbPNS_9ExecStateEPKNS_9HashTableEPT_RKNS_10IdentifierERNS_12PropertySlotE@Base 2.2.1
 _ZN3JSC18getStaticValueSlotIN7WebCore23JSClientRectConstructorENS1_12JSDOMWrapperEEEbPNS_9ExecStateEPKNS_9HashTableEPT_RKNS_10IdentifierERNS_12PropertySlotE@Base 2.2.1
 _ZN3JSC18getStaticValueSlotIN7WebCore23JSErrorEventConstructorENS1_12JSDOMWrapperEEEbPNS_9ExecStateEPKNS_9HashTableEPT_RKNS_10IdentifierERNS_12PropertySlotE@Base 2.2.1
 _ZN3JSC18getStaticValueSlotIN7WebCore23JSFileReaderConstructorENS1_12JSDOMWrapperEEEbPNS_9ExecStateEPKNS_9HashTableEPT_RKNS_10IdentifierERNS_12PropertySlotE@Base 2.2.1
 _ZN3JSC18getStaticValueSlotIN7WebCore23JSHTMLBlockquoteElementENS1_13JSHTMLElementEEEbPNS_9ExecStateEPKNS_9HashTableEPT_RKNS_10IdentifierERNS_12PropertySlotE@Base 2.2.1
 _ZN3JSC18getStaticValueSlotIN7WebCore23JSHTMLOptionsCollectionENS1_16JSHTMLCollectionEEEbPNS_9ExecStateEPKNS_9HashTableEPT_RKNS_10IdentifierERNS_12PropertySlotE@Base 2.2.1
 _ZN3JSC18getStaticValueSlotIN7WebCore23JSInspectorFrontendHostENS1_12JSDOMWrapperEEEbPNS_9ExecStateEPKNS_9HashTableEPT_RKNS_10IdentifierERNS_12PropertySlotE@Base 2.2.1
 _ZN3JSC18getStaticValueSlotIN7WebCore23JSInt16ArrayConstructorENS1_12JSDOMWrapperEEEbPNS_9ExecStateEPKNS_9HashTableEPT_RKNS_10IdentifierERNS_12PropertySlotE@Base 2.2.1
 _ZN3JSC18getStaticValueSlotIN7WebCore23JSInt32ArrayConstructorENS1_12JSDOMWrapperEEEbPNS_9ExecStateEPKNS_9HashTableEPT_RKNS_10IdentifierERNS_12PropertySlotE@Base 2.2.1
 _ZN3JSC18getStaticValueSlotIN7WebCore23JSMediaErrorConstructorENS1_12JSDOMWrapperEEEbPNS_9ExecStateEPKNS_9HashTableEPT_RKNS_10IdentifierERNS_12PropertySlotE@Base 2.2.1
 _ZN3JSC18getStaticValueSlotIN7WebCore23JSMouseEventConstructorENS1_12JSDOMWrapperEEEbPNS_9ExecStateEPKNS_9HashTableEPT_RKNS_10IdentifierERNS_12PropertySlotE@Base 2.2.1
 _ZN3JSC18getStaticValueSlotIN7WebCore23JSNodeFilterConstructorENS1_12JSDOMWrapperEEEbPNS_9ExecStateEPKNS_9HashTableEPT_RKNS_10IdentifierERNS_12PropertySlotE@Base 2.2.1
 _ZN3JSC18getStaticValueSlotIN7WebCore23JSProcessingInstructionENS1_6JSNodeEEEbPNS_9ExecStateEPKNS_9HashTableEPT_RKNS_10IdentifierERNS_12PropertySlotE@Base 2.2.1
 _ZN3JSC18getStaticValueSlotIN7WebCore23JSSQLExceptionPrototypeENS_8JSObjectEEEbPNS_9ExecStateEPKNS_9HashTableEPT_RKNS_10IdentifierERNS_12PropertySlotE@Base 2.2.1
 _ZN3JSC18getStaticValueSlotIN7WebCore23JSSVGAnimatedLengthListENS1_12JSDOMWrapperEEEbPNS_9ExecStateEPKNS_9HashTableEPT_RKNS_10IdentifierERNS_12PropertySlotE@Base 2.2.1
 _ZN3JSC18getStaticValueSlotIN7WebCore23JSSVGAnimatedNumberListENS1_12JSDOMWrapperEEEbPNS_9ExecStateEPKNS_9HashTableEPT_RKNS_10IdentifierERNS_12PropertySlotE@Base 2.2.1
 _ZN3JSC18getStaticValueSlotIN7WebCore23JSSVGElementConstructorENS1_12JSDOMWrapperEEEbPNS_9ExecStateEPKNS_9HashTableEPT_RKNS_10IdentifierERNS_12PropertySlotE@Base 2.2.1
 _ZN3JSC18getStaticValueSlotIN7WebCore23JSSVGFECompositeElementENS1_12JSSVGElementEEEbPNS_9ExecStateEPKNS_9HashTableEPT_RKNS_10IdentifierERNS_12PropertySlotE@Base 2.2.1
 _ZN3JSC18getStaticValueSlotIN7WebCore23JSSVGFEMergeNodeElementENS1_12JSSVGElementEEEbPNS_9ExecStateEPKNS_9HashTableEPT_RKNS_10IdentifierERNS_12PropertySlotE@Base 2.2.1
 _ZN3JSC18getStaticValueSlotIN7WebCore23JSSVGFESpotLightElementENS1_12JSSVGElementEEEbPNS_9ExecStateEPKNS_9HashTableEPT_RKNS_10IdentifierERNS_12PropertySlotE@Base 2.2.1
 _ZN3JSC18getStaticValueSlotIN7WebCore23JSSVGFontFaceSrcElementENS1_12JSSVGElementEEEbPNS_9ExecStateEPKNS_9HashTableEPT_RKNS_10IdentifierERNS_12PropertySlotE@Base 2.2.1
 _ZN3JSC18getStaticValueSlotIN7WebCore23JSSVGFontFaceUriElementENS1_12JSSVGElementEEEbPNS_9ExecStateEPKNS_9HashTableEPT_RKNS_10IdentifierERNS_12PropertySlotE@Base 2.2.1
 _ZN3JSC18getStaticValueSlotIN7WebCore23JSSVGPathSegConstructorENS1_12JSDOMWrapperEEEbPNS_9ExecStateEPKNS_9HashTableEPT_RKNS_10IdentifierERNS_12PropertySlotE@Base 2.2.1
 _ZN3JSC18getStaticValueSlotIN7WebCore23JSSVGTextContentElementENS1_12JSSVGElementEEEbPNS_9ExecStateEPKNS_9HashTableEPT_RKNS_10IdentifierERNS_12PropertySlotE@Base 2.2.1
 _ZN3JSC18getStaticValueSlotIN7WebCore23JSSVGUnitTypesPrototypeENS_8JSObjectEEEbPNS_9ExecStateEPKNS_9HashTableEPT_RKNS_10IdentifierERNS_12PropertySlotE@Base 2.2.1
 _ZN3JSC18getStaticValueSlotIN7WebCore23JSStyleMediaConstructorENS1_12JSDOMWrapperEEEbPNS_9ExecStateEPKNS_9HashTableEPT_RKNS_10IdentifierERNS_12PropertySlotE@Base 2.2.1
 _ZN3JSC18getStaticValueSlotIN7WebCore23JSStyleSheetConstructorENS1_12JSDOMWrapperEEEbPNS_9ExecStateEPKNS_9HashTableEPT_RKNS_10IdentifierERNS_12PropertySlotE@Base 2.2.1
 _ZN3JSC18getStaticValueSlotIN7WebCore23JSTimeRangesConstructorENS1_12JSDOMWrapperEEEbPNS_9ExecStateEPKNS_9HashTableEPT_RKNS_10IdentifierERNS_12PropertySlotE@Base 2.2.1
 _ZN3JSC18getStaticValueSlotIN7WebCore23JSTouchEventConstructorENS1_12JSDOMWrapperEEEbPNS_9ExecStateEPKNS_9HashTableEPT_RKNS_10IdentifierERNS_12PropertySlotE@Base 2.2.1
 _ZN3JSC18getStaticValueSlotIN7WebCore23JSTreeWalkerConstructorENS1_12JSDOMWrapperEEEbPNS_9ExecStateEPKNS_9HashTableEPT_RKNS_10IdentifierERNS_12PropertySlotE@Base 2.2.1
 _ZN3JSC18getStaticValueSlotIN7WebCore23JSUint8ArrayConstructorENS1_12JSDOMWrapperEEEbPNS_9ExecStateEPKNS_9HashTableEPT_RKNS_10IdentifierERNS_12PropertySlotE@Base 2.2.1
 _ZN3JSC18getStaticValueSlotIN7WebCore23JSWebKitCSSKeyframeRuleENS1_9JSCSSRuleEEEbPNS_9ExecStateEPKNS_9HashTableEPT_RKNS_10IdentifierERNS_12PropertySlotE@Base 2.2.1
 _ZN3JSC18getStaticValueSlotIN7WebCore23JSWebKitTransitionEventENS1_7JSEventEEEbPNS_9ExecStateEPKNS_9HashTableEPT_RKNS_10IdentifierERNS_12PropertySlotE@Base 2.2.1
 _ZN3JSC18getStaticValueSlotIN7WebCore23JSWheelEventConstructorENS1_12JSDOMWrapperEEEbPNS_9ExecStateEPKNS_9HashTableEPT_RKNS_10IdentifierERNS_12PropertySlotE@Base 2.2.1
 _ZN3JSC18getStaticValueSlotIN7WebCore24JSArrayBufferConstructorENS1_12JSDOMWrapperEEEbPNS_9ExecStateEPKNS_9HashTableEPT_RKNS_10IdentifierERNS_12PropertySlotE@Base 2.2.1
 _ZN3JSC18getStaticValueSlotIN7WebCore24JSCSSPageRuleConstructorENS1_12JSDOMWrapperEEEbPNS_9ExecStateEPKNS_9HashTableEPT_RKNS_10IdentifierERNS_12PropertySlotE@Base 2.2.1
 _ZN3JSC18getStaticValueSlotIN7WebCore24JSCSSRuleListConstructorENS1_12JSDOMWrapperEEEbPNS_9ExecStateEPKNS_9HashTableEPT_RKNS_10IdentifierERNS_12PropertySlotE@Base 2.2.1
 _ZN3JSC18getStaticValueSlotIN7WebCore24JSCanvasRenderingContextENS1_12JSDOMWrapperEEEbPNS_9ExecStateEPKNS_9HashTableEPT_RKNS_10IdentifierERNS_12PropertySlotE@Base 2.2.1
 _ZN3JSC18getStaticValueSlotIN7WebCore24JSCustomEventConstructorENS1_12JSDOMWrapperEEEbPNS_9ExecStateEPKNS_9HashTableEPT_RKNS_10IdentifierERNS_12PropertySlotE@Base 2.2.1
 _ZN3JSC18getStaticValueSlotIN7WebCore24JSDOMFormDataConstructorENS1_12JSDOMWrapperEEEbPNS_9ExecStateEPKNS_9HashTableEPT_RKNS_10IdentifierERNS_12PropertySlotE@Base 2.2.1
 _ZN3JSC18getStaticValueSlotIN7WebCore24JSDOMMimeTypeConstructorENS1_12JSDOMWrapperEEEbPNS_9ExecStateEPKNS_9HashTableEPT_RKNS_10IdentifierERNS_12PropertySlotE@Base 2.2.1
 _ZN3JSC18getStaticValueSlotIN7WebCore24JSDedicatedWorkerContextENS1_15JSWorkerContextEEEbPNS_9ExecStateEPKNS_9HashTableEPT_RKNS_10IdentifierERNS_12PropertySlotE@Base 2.2.1
 _ZN3JSC18getStaticValueSlotIN7WebCore24JSEventSourceConstructorENS1_12JSDOMWrapperEEEbPNS_9ExecStateEPKNS_9HashTableEPT_RKNS_10IdentifierERNS_12PropertySlotE@Base 2.2.1
 _ZN3JSC18getStaticValueSlotIN7WebCore24JSHTMLElementConstructorENS1_12JSDOMWrapperEEEbPNS_9ExecStateEPKNS_9HashTableEPT_RKNS_10IdentifierERNS_12PropertySlotE@Base 2.2.1
 _ZN3JSC18getStaticValueSlotIN7WebCore24JSMessagePortConstructorENS1_12JSDOMWrapperEEEbPNS_9ExecStateEPKNS_9HashTableEPT_RKNS_10IdentifierERNS_12PropertySlotE@Base 2.2.1
 _ZN3JSC18getStaticValueSlotIN7WebCore24JSSVGAElementConstructorENS1_12JSDOMWrapperEEEbPNS_9ExecStateEPKNS_9HashTableEPT_RKNS_10IdentifierERNS_12PropertySlotE@Base 2.2.1
 _ZN3JSC18getStaticValueSlotIN7WebCore24JSSVGAnimateColorElementENS1_21JSSVGAnimationElementEEEbPNS_9ExecStateEPKNS_9HashTableEPT_RKNS_10IdentifierERNS_12PropertySlotE@Base 2.2.1
 _ZN3JSC18getStaticValueSlotIN7WebCore24JSSVGAnimatedEnumerationENS1_12JSDOMWrapperEEEbPNS_9ExecStateEPKNS_9HashTableEPT_RKNS_10IdentifierERNS_12PropertySlotE@Base 2.2.1
 _ZN3JSC18getStaticValueSlotIN7WebCore24JSSVGDocumentConstructorENS1_12JSDOMWrapperEEEbPNS_9ExecStateEPKNS_9HashTableEPT_RKNS_10IdentifierERNS_12PropertySlotE@Base 2.2.1
 _ZN3JSC18getStaticValueSlotIN7WebCore24JSSVGElementInstanceListENS1_12JSDOMWrapperEEEbPNS_9ExecStateEPKNS_9HashTableEPT_RKNS_10IdentifierERNS_12PropertySlotE@Base 2.2.1
 _ZN3JSC18getStaticValueSlotIN7WebCore24JSSVGFEDropShadowElementENS1_12JSSVGElementEEEbPNS_9ExecStateEPKNS_9HashTableEPT_RKNS_10IdentifierERNS_12PropertySlotE@Base 2.2.1
 _ZN3JSC18getStaticValueSlotIN7WebCore24JSSVGFEMorphologyElementENS1_12JSSVGElementEEEbPNS_9ExecStateEPKNS_9HashTableEPT_RKNS_10IdentifierERNS_12PropertySlotE@Base 2.2.1
 _ZN3JSC18getStaticValueSlotIN7WebCore24JSSVGFEPointLightElementENS1_12JSSVGElementEEEbPNS_9ExecStateEPKNS_9HashTableEPT_RKNS_10IdentifierERNS_12PropertySlotE@Base 2.2.1
 _ZN3JSC18getStaticValueSlotIN7WebCore24JSSVGFETurbulenceElementENS1_12JSSVGElementEEEbPNS_9ExecStateEPKNS_9HashTableEPT_RKNS_10IdentifierERNS_12PropertySlotE@Base 2.2.1
 _ZN3JSC18getStaticValueSlotIN7WebCore24JSSVGFontFaceNameElementENS1_12JSSVGElementEEEbPNS_9ExecStateEPKNS_9HashTableEPT_RKNS_10IdentifierERNS_12PropertySlotE@Base 2.2.1
 _ZN3JSC18getStaticValueSlotIN7WebCore24JSSVGGElementConstructorENS1_12JSDOMWrapperEEEbPNS_9ExecStateEPKNS_9HashTableEPT_RKNS_10IdentifierERNS_12PropertySlotE@Base 2.2.1
 _ZN3JSC18getStaticValueSlotIN7WebCore24JSSVGMissingGlyphElementENS1_12JSSVGElementEEEbPNS_9ExecStateEPKNS_9HashTableEPT_RKNS_10IdentifierERNS_12PropertySlotE@Base 2.2.1
 _ZN3JSC18getStaticValueSlotIN7WebCore24JSSVGPreserveAspectRatioENS1_12JSDOMWrapperEEEbPNS_9ExecStateEPKNS_9HashTableEPT_RKNS_10IdentifierERNS_12PropertySlotE@Base 2.2.1
 _ZN3JSC18getStaticValueSlotIN7WebCore24JSTextMetricsConstructorENS1_12JSDOMWrapperEEEbPNS_9ExecStateEPKNS_9HashTableEPT_RKNS_10IdentifierERNS_12PropertySlotE@Base 2.2.1
 _ZN3JSC18getStaticValueSlotIN7WebCore24JSUint16ArrayConstructorENS1_12JSDOMWrapperEEEbPNS_9ExecStateEPKNS_9HashTableEPT_RKNS_10IdentifierERNS_12PropertySlotE@Base 2.2.1
 _ZN3JSC18getStaticValueSlotIN7WebCore24JSUint32ArrayConstructorENS1_12JSDOMWrapperEEEbPNS_9ExecStateEPKNS_9HashTableEPT_RKNS_10IdentifierERNS_12PropertySlotE@Base 2.2.1
 _ZN3JSC18getStaticValueSlotIN7WebCore24JSWebKitCSSKeyframesRuleENS1_9JSCSSRuleEEEbPNS_9ExecStateEPKNS_9HashTableEPT_RKNS_10IdentifierERNS_12PropertySlotE@Base 2.2.1
 _ZN3JSC18getStaticValueSlotIN7WebCore24JSWebKitPointConstructorENS1_12JSDOMWrapperEEEbPNS_9ExecStateEPKNS_9HashTableEPT_RKNS_10IdentifierERNS_12PropertySlotE@Base 2.2.1
 _ZN3JSC18getStaticValueSlotIN7WebCore24JSXPathResultConstructorENS1_12JSDOMWrapperEEEbPNS_9ExecStateEPKNS_9HashTableEPT_RKNS_10IdentifierERNS_12PropertySlotE@Base 2.2.1
 _ZN3JSC18getStaticValueSlotIN7WebCore25JSCDATASectionConstructorENS1_12JSDOMWrapperEEEbPNS_9ExecStateEPKNS_9HashTableEPT_RKNS_10IdentifierERNS_12PropertySlotE@Base 2.2.1
 _ZN3JSC18getStaticValueSlotIN7WebCore25JSCSSMediaRuleConstructorENS1_12JSDOMWrapperEEEbPNS_9ExecStateEPKNS_9HashTableEPT_RKNS_10IdentifierERNS_12PropertySlotE@Base 2.2.1
 _ZN3JSC18getStaticValueSlotIN7WebCore25JSCSSStyleRuleConstructorENS1_12JSDOMWrapperEEEbPNS_9ExecStateEPKNS_9HashTableEPT_RKNS_10IdentifierERNS_12PropertySlotE@Base 2.2.1
 _ZN3JSC18getStaticValueSlotIN7WebCore25JSCSSValueListConstructorENS1_12JSDOMWrapperEEEbPNS_9ExecStateEPKNS_9HashTableEPT_RKNS_10IdentifierERNS_12PropertySlotE@Base 2.2.1
 _ZN3JSC18getStaticValueSlotIN7WebCore25JSDOMStringMapConstructorENS1_12JSDOMWrapperEEEbPNS_9ExecStateEPKNS_9HashTableEPT_RKNS_10IdentifierERNS_12PropertySlotE@Base 2.2.1
 _ZN3JSC18getStaticValueSlotIN7WebCore25JSDOMTokenListConstructorENS1_12JSDOMWrapperEEEbPNS_9ExecStateEPKNS_9HashTableEPT_RKNS_10IdentifierERNS_12PropertySlotE@Base 2.2.1
 _ZN3JSC18getStaticValueSlotIN7WebCore25JSDocumentTypeConstructorENS1_12JSDOMWrapperEEEbPNS_9ExecStateEPKNS_9HashTableEPT_RKNS_10IdentifierERNS_12PropertySlotE@Base 2.2.1
 _ZN3JSC18getStaticValueSlotIN7WebCore25JSFloat32ArrayConstructorENS1_12JSDOMWrapperEEEbPNS_9ExecStateEPKNS_9HashTableEPT_RKNS_10IdentifierERNS_12PropertySlotE@Base 2.2.1
 _ZN3JSC18getStaticValueSlotIN7WebCore25JSHTMLDocumentConstructorENS1_12JSDOMWrapperEEEbPNS_9ExecStateEPKNS_9HashTableEPT_RKNS_10IdentifierERNS_12PropertySlotE@Base 2.2.1
 _ZN3JSC18getStaticValueSlotIN7WebCore25JSHTMLTableCaptionElementENS1_13JSHTMLElementEEEbPNS_9ExecStateEPKNS_9HashTableEPT_RKNS_10IdentifierERNS_12PropertySlotE@Base 2.2.1
 _ZN3JSC18getStaticValueSlotIN7WebCore25JSHTMLTableSectionElementENS1_13JSHTMLElementEEEbPNS_9ExecStateEPKNS_9HashTableEPT_RKNS_10IdentifierERNS_12PropertySlotE@Base 2.2.1
 _ZN3JSC18getStaticValueSlotIN7WebCore25JSMessageEventConstructorENS1_12JSDOMWrapperEEEbPNS_9ExecStateEPKNS_9HashTableEPT_RKNS_10IdentifierERNS_12PropertySlotE@Base 2.2.1
 _ZN3JSC18getStaticValueSlotIN7WebCore25JSNamedNodeMapConstructorENS1_12JSDOMWrapperEEEbPNS_9ExecStateEPKNS_9HashTableEPT_RKNS_10IdentifierERNS_12PropertySlotE@Base 2.2.1
 _ZN3JSC18getStaticValueSlotIN7WebCore25JSNodeIteratorConstructorENS1_12JSDOMWrapperEEEbPNS_9ExecStateEPKNS_9HashTableEPT_RKNS_10IdentifierERNS_12PropertySlotE@Base 2.2.1
 _ZN3JSC18getStaticValueSlotIN7WebCore25JSSQLExceptionConstructorENS1_12JSDOMWrapperEEEbPNS_9ExecStateEPKNS_9HashTableEPT_RKNS_10IdentifierERNS_12PropertySlotE@Base 2.2.1
 _ZN3JSC18getStaticValueSlotIN7WebCore25JSSVGExceptionConstructorENS1_12JSDOMWrapperEEEbPNS_9ExecStateEPKNS_9HashTableEPT_RKNS_10IdentifierERNS_12PropertySlotE@Base 2.2.1
 _ZN3JSC18getStaticValueSlotIN7WebCore25JSSVGFEColorMatrixElementENS1_12JSSVGElementEEEbPNS_9ExecStateEPKNS_9HashTableEPT_RKNS_10IdentifierERNS_12PropertySlotE@Base 2.2.1
 _ZN3JSC18getStaticValueSlotIN7WebCore25JSSVGForeignObjectElementENS1_12JSSVGElementEEEbPNS_9ExecStateEPKNS_9HashTableEPT_RKNS_10IdentifierERNS_12PropertySlotE@Base 2.2.1
 _ZN3JSC18getStaticValueSlotIN7WebCore25JSSVGPointListConstructorENS1_12JSDOMWrapperEEEbPNS_9ExecStateEPKNS_9HashTableEPT_RKNS_10IdentifierERNS_12PropertySlotE@Base 2.2.1
 _ZN3JSC18getStaticValueSlotIN7WebCore25JSSVGTransformConstructorENS1_12JSDOMWrapperEEEbPNS_9ExecStateEPKNS_9HashTableEPT_RKNS_10IdentifierERNS_12PropertySlotE@Base 2.2.1
 _ZN3JSC18getStaticValueSlotIN7WebCore25JSSVGUnitTypesConstructorENS1_12JSDOMWrapperEEEbPNS_9ExecStateEPKNS_9HashTableEPT_RKNS_10IdentifierERNS_12PropertySlotE@Base 2.2.1
 _ZN3JSC18getStaticValueSlotIN7WebCore25JSSVGViewElementPrototypeENS_8JSObjectEEEbPNS_9ExecStateEPKNS_9HashTableEPT_RKNS_10IdentifierERNS_12PropertySlotE@Base 2.2.1
 _ZN3JSC18getStaticValueSlotIN7WebCore25JSSVGZoomEventConstructorENS1_12JSDOMWrapperEEEbPNS_9ExecStateEPKNS_9HashTableEPT_RKNS_10IdentifierERNS_12PropertySlotE@Base 2.2.1
 _ZN3JSC18getStaticValueSlotIN7WebCore25JSSharedWorkerConstructorENS1_12JSDOMWrapperEEEbPNS_9ExecStateEPKNS_9HashTableEPT_RKNS_10IdentifierERNS_12PropertySlotE@Base 2.2.1
 _ZN3JSC18getStaticValueSlotIN7WebCore25JSStorageEventConstructorENS1_12JSDOMWrapperEEEbPNS_9ExecStateEPKNS_9HashTableEPT_RKNS_10IdentifierERNS_12PropertySlotE@Base 2.2.1
 _ZN3JSC18getStaticValueSlotIN7WebCore25JSWebKitCSSTransformValueENS1_14JSCSSValueListEEEbPNS_9ExecStateEPKNS_9HashTableEPT_RKNS_10IdentifierERNS_12PropertySlotE@Base 2.2.1
 _ZN3JSC18getStaticValueSlotIN7WebCore25JSXMLHttpRequestExceptionENS1_12JSDOMWrapperEEEbPNS_9ExecStateEPKNS_9HashTableEPT_RKNS_10IdentifierERNS_12PropertySlotE@Base 2.2.1
 _ZN3JSC18getStaticValueSlotIN7WebCore26JSCSSImportRuleConstructorENS1_12JSDOMWrapperEEEbPNS_9ExecStateEPKNS_9HashTableEPT_RKNS_10IdentifierERNS_12PropertySlotE@Base 2.2.1
 _ZN3JSC18getStaticValueSlotIN7WebCore26JSCSSStyleSheetConstructorENS1_12JSDOMWrapperEEEbPNS_9ExecStateEPKNS_9HashTableEPT_RKNS_10IdentifierERNS_12PropertySlotE@Base 2.2.1
 _ZN3JSC18getStaticValueSlotIN7WebCore26JSCanvasPatternConstructorENS1_12JSDOMWrapperEEEbPNS_9ExecStateEPKNS_9HashTableEPT_RKNS_10IdentifierERNS_12PropertySlotE@Base 2.2.1
 _ZN3JSC18getStaticValueSlotIN7WebCore26JSCanvasRenderingContext2DENS1_24JSCanvasRenderingContextEEEbPNS_9ExecStateEPKNS_9HashTableEPT_RKNS_10IdentifierERNS_12PropertySlotE@Base 2.2.1
 _ZN3JSC18getStaticValueSlotIN7WebCore26JSCharacterDataConstructorENS1_12JSDOMWrapperEEEbPNS_9ExecStateEPKNS_9HashTableEPT_RKNS_10IdentifierERNS_12PropertySlotE@Base 2.2.1
 _ZN3JSC18getStaticValueSlotIN7WebCore26JSDOMStringListConstructorENS1_12JSDOMWrapperEEEbPNS_9ExecStateEPKNS_9HashTableEPT_RKNS_10IdentifierERNS_12PropertySlotE@Base 2.2.1
 _ZN3JSC18getStaticValueSlotIN7WebCore26JSFileExceptionConstructorENS1_12JSDOMWrapperEEEbPNS_9ExecStateEPKNS_9HashTableEPT_RKNS_10IdentifierERNS_12PropertySlotE@Base 2.2.1
 _ZN3JSC18getStaticValueSlotIN7WebCore26JSHTMLBRElementConstructorENS1_12JSDOMWrapperEEEbPNS_9ExecStateEPKNS_9HashTableEPT_RKNS_10IdentifierERNS_12PropertySlotE@Base 2.2.1
 _ZN3JSC18getStaticValueSlotIN7WebCore26JSHTMLHRElementConstructorENS1_12JSDOMWrapperEEEbPNS_9ExecStateEPKNS_9HashTableEPT_RKNS_10IdentifierERNS_12PropertySlotE@Base 2.2.1
 _ZN3JSC18getStaticValueSlotIN7WebCore26JSHTMLLIElementConstructorENS1_12JSDOMWrapperEEEbPNS_9ExecStateEPKNS_9HashTableEPT_RKNS_10IdentifierERNS_12PropertySlotE@Base 2.2.1
 _ZN3JSC18getStaticValueSlotIN7WebCore26JSKeyboardEventConstructorENS1_12JSDOMWrapperEEEbPNS_9ExecStateEPKNS_9HashTableEPT_RKNS_10IdentifierERNS_12PropertySlotE@Base 2.2.1
 _ZN3JSC18getStaticValueSlotIN7WebCore26JSMutationEventConstructorENS1_12JSDOMWrapperEEEbPNS_9ExecStateEPKNS_9HashTableEPT_RKNS_10IdentifierERNS_12PropertySlotE@Base 2.2.1
 _ZN3JSC18getStaticValueSlotIN7WebCore26JSOverflowEventConstructorENS1_12JSDOMWrapperEEEbPNS_9ExecStateEPKNS_9HashTableEPT_RKNS_10IdentifierERNS_12PropertySlotE@Base 2.2.1
 _ZN3JSC18getStaticValueSlotIN7WebCore26JSPopStateEventConstructorENS1_12JSDOMWrapperEEEbPNS_9ExecStateEPKNS_9HashTableEPT_RKNS_10IdentifierERNS_12PropertySlotE@Base 2.2.1
 _ZN3JSC18getStaticValueSlotIN7WebCore26JSProgressEventConstructorENS1_12JSDOMWrapperEEEbPNS_9ExecStateEPKNS_9HashTableEPT_RKNS_10IdentifierERNS_12PropertySlotE@Base 2.2.1
 _ZN3JSC18getStaticValueSlotIN7WebCore26JSSVGAnimatedTransformListENS1_12JSDOMWrapperEEEbPNS_9ExecStateEPKNS_9HashTableEPT_RKNS_10IdentifierERNS_12PropertySlotE@Base 2.2.1
 _ZN3JSC18getStaticValueSlotIN7WebCore26JSSVGFEDistantLightElementENS1_12JSSVGElementEEEbPNS_9ExecStateEPKNS_9HashTableEPT_RKNS_10IdentifierERNS_12PropertySlotE@Base 2.2.1
 _ZN3JSC18getStaticValueSlotIN7WebCore26JSSVGFEGaussianBlurElementENS1_12JSSVGElementEEEbPNS_9ExecStateEPKNS_9HashTableEPT_RKNS_10IdentifierERNS_12PropertySlotE@Base 2.2.1
 _ZN3JSC18getStaticValueSlotIN7WebCore26JSSVGFontFaceFormatElementENS1_12JSSVGElementEEEbPNS_9ExecStateEPKNS_9HashTableEPT_RKNS_10IdentifierERNS_12PropertySlotE@Base 2.2.1
 _ZN3JSC18getStaticValueSlotIN7WebCore26JSSVGLengthListConstructorENS1_12JSDOMWrapperEEEbPNS_9ExecStateEPKNS_9HashTableEPT_RKNS_10IdentifierERNS_12PropertySlotE@Base 2.2.1
 _ZN3JSC18getStaticValueSlotIN7WebCore26JSSVGLinearGradientElementENS1_20JSSVGGradientElementEEEbPNS_9ExecStateEPKNS_9HashTableEPT_RKNS_10IdentifierERNS_12PropertySlotE@Base 2.2.1
 _ZN3JSC18getStaticValueSlotIN7WebCore26JSSVGNumberListConstructorENS1_12JSDOMWrapperEEEbPNS_9ExecStateEPKNS_9HashTableEPT_RKNS_10IdentifierERNS_12PropertySlotE@Base 2.2.1
 _ZN3JSC18getStaticValueSlotIN7WebCore26JSSVGRadialGradientElementENS1_20JSSVGGradientElementEEEbPNS_9ExecStateEPKNS_9HashTableEPT_RKNS_10IdentifierERNS_12PropertySlotE@Base 2.2.1
 _ZN3JSC18getStaticValueSlotIN7WebCore26JSSVGSVGElementConstructorENS1_12JSDOMWrapperEEEbPNS_9ExecStateEPKNS_9HashTableEPT_RKNS_10IdentifierERNS_12PropertySlotE@Base 2.2.1
 _ZN3JSC18getStaticValueSlotIN7WebCore26JSSVGSetElementConstructorENS1_12JSDOMWrapperEEEbPNS_9ExecStateEPKNS_9HashTableEPT_RKNS_10IdentifierERNS_12PropertySlotE@Base 2.2.1
 _ZN3JSC18getStaticValueSlotIN7WebCore26JSSVGStringListConstructorENS1_12JSDOMWrapperEEEbPNS_9ExecStateEPKNS_9HashTableEPT_RKNS_10IdentifierERNS_12PropertySlotE@Base 2.2.1
 _ZN3JSC18getStaticValueSlotIN7WebCore26JSSVGUseElementConstructorENS1_12JSDOMWrapperEEEbPNS_9ExecStateEPKNS_9HashTableEPT_RKNS_10IdentifierERNS_12PropertySlotE@Base 2.2.1
 _ZN3JSC18getStaticValueSlotIN7WebCore26JSXMLSerializerConstructorENS1_12JSDOMWrapperEEEbPNS_9ExecStateEPKNS_9HashTableEPT_RKNS_10IdentifierERNS_12PropertySlotE@Base 2.2.1
 _ZN3JSC18getStaticValueSlotIN7WebCore27JSAbstractWorkerConstructorENS1_12JSDOMWrapperEEEbPNS_9ExecStateEPKNS_9HashTableEPT_RKNS_10IdentifierERNS_12PropertySlotE@Base 2.2.1
 _ZN3JSC18getStaticValueSlotIN7WebCore27JSCSSCharsetRuleConstructorENS1_12JSDOMWrapperEEEbPNS_9ExecStateEPKNS_9HashTableEPT_RKNS_10IdentifierERNS_12PropertySlotE@Base 2.2.1
 _ZN3JSC18getStaticValueSlotIN7WebCore27JSCanvasGradientConstructorENS1_12JSDOMWrapperEEEbPNS_9ExecStateEPKNS_9HashTableEPT_RKNS_10IdentifierERNS_12PropertySlotE@Base 2.2.1
 _ZN3JSC18getStaticValueSlotIN7WebCore27JSClientRectListConstructorENS1_12JSDOMWrapperEEEbPNS_9ExecStateEPKNS_9HashTableEPT_RKNS_10IdentifierERNS_12PropertySlotE@Base 2.2.1
 _ZN3JSC18getStaticValueSlotIN7WebCore27JSDOMPluginArrayConstructorENS1_12JSDOMWrapperEEEbPNS_9ExecStateEPKNS_9HashTableEPT_RKNS_10IdentifierERNS_12PropertySlotE@Base 2.2.1
 _ZN3JSC18getStaticValueSlotIN7WebCore27JSEventExceptionConstructorENS1_12JSDOMWrapperEEEbPNS_9ExecStateEPKNS_9HashTableEPT_RKNS_10IdentifierERNS_12PropertySlotE@Base 2.2.1
 _ZN3JSC18getStaticValueSlotIN7WebCore27JSFileReaderSyncConstructorENS1_12JSDOMWrapperEEEbPNS_9ExecStateEPKNS_9HashTableEPT_RKNS_10IdentifierERNS_12PropertySlotE@Base 2.2.1
 _ZN3JSC18getStaticValueSlotIN7WebCore27JSHTMLCollectionConstructorENS1_12JSDOMWrapperEEEbPNS_9ExecStateEPKNS_9HashTableEPT_RKNS_10IdentifierERNS_12PropertySlotE@Base 2.2.1
 _ZN3JSC18getStaticValueSlotIN7WebCore27JSHTMLDivElementConstructorENS1_12JSDOMWrapperEEEbPNS_9ExecStateEPKNS_9HashTableEPT_RKNS_10IdentifierERNS_12PropertySlotE@Base 2.2.1
 _ZN3JSC18getStaticValueSlotIN7WebCore27JSHTMLMapElementConstructorENS1_12JSDOMWrapperEEEbPNS_9ExecStateEPKNS_9HashTableEPT_RKNS_10IdentifierERNS_12PropertySlotE@Base 2.2.1
 _ZN3JSC18getStaticValueSlotIN7WebCore27JSHTMLModElementConstructorENS1_12JSDOMWrapperEEEbPNS_9ExecStateEPKNS_9HashTableEPT_RKNS_10IdentifierERNS_12PropertySlotE@Base 2.2.1
 _ZN3JSC18getStaticValueSlotIN7WebCore27JSHTMLPreElementConstructorENS1_12JSDOMWrapperEEEbPNS_9ExecStateEPKNS_9HashTableEPT_RKNS_10IdentifierERNS_12PropertySlotE@Base 2.2.1
 _ZN3JSC18getStaticValueSlotIN7WebCore27JSMediaQueryListConstructorENS1_12JSDOMWrapperEEEbPNS_9ExecStateEPKNS_9HashTableEPT_RKNS_10IdentifierERNS_12PropertySlotE@Base 2.2.1
 _ZN3JSC18getStaticValueSlotIN7WebCore27JSMessageChannelConstructorENS1_12JSDOMWrapperEEEbPNS_9ExecStateEPKNS_9HashTableEPT_RKNS_10IdentifierERNS_12PropertySlotE@Base 2.2.1
 _ZN3JSC18getStaticValueSlotIN7WebCore27JSRangeExceptionConstructorENS1_12JSDOMWrapperEEEbPNS_9ExecStateEPKNS_9HashTableEPT_RKNS_10IdentifierERNS_12PropertySlotE@Base 2.2.1
 _ZN3JSC18getStaticValueSlotIN7WebCore27JSSVGDefsElementConstructorENS1_12JSDOMWrapperEEEbPNS_9ExecStateEPKNS_9HashTableEPT_RKNS_10IdentifierERNS_12PropertySlotE@Base 2.2.1
 _ZN3JSC18getStaticValueSlotIN7WebCore27JSSVGDescElementConstructorENS1_12JSDOMWrapperEEEbPNS_9ExecStateEPKNS_9HashTableEPT_RKNS_10IdentifierERNS_12PropertySlotE@Base 2.2.1
 _ZN3JSC18getStaticValueSlotIN7WebCore27JSSVGFontElementConstructorENS1_12JSDOMWrapperEEEbPNS_9ExecStateEPKNS_9HashTableEPT_RKNS_10IdentifierERNS_12PropertySlotE@Base 2.2.1
 _ZN3JSC18getStaticValueSlotIN7WebCore27JSSVGLineElementConstructorENS1_12JSDOMWrapperEEEbPNS_9ExecStateEPKNS_9HashTableEPT_RKNS_10IdentifierERNS_12PropertySlotE@Base 2.2.1
 _ZN3JSC18getStaticValueSlotIN7WebCore27JSSVGMaskElementConstructorENS1_12JSDOMWrapperEEEbPNS_9ExecStateEPKNS_9HashTableEPT_RKNS_10IdentifierERNS_12PropertySlotE@Base 2.2.1
 _ZN3JSC18getStaticValueSlotIN7WebCore27JSSVGPathElementConstructorENS1_12JSDOMWrapperEEEbPNS_9ExecStateEPKNS_9HashTableEPT_RKNS_10IdentifierERNS_12PropertySlotE@Base 2.2.1
 _ZN3JSC18getStaticValueSlotIN7WebCore27JSSVGPathSegCurvetoCubicAbsENS1_12JSSVGPathSegEEEbPNS_9ExecStateEPKNS_9HashTableEPT_RKNS_10IdentifierERNS_12PropertySlotE@Base 2.2.1
 _ZN3JSC18getStaticValueSlotIN7WebCore27JSSVGPathSegCurvetoCubicRelENS1_12JSSVGPathSegEEEbPNS_9ExecStateEPKNS_9HashTableEPT_RKNS_10IdentifierERNS_12PropertySlotE@Base 2.2.1
 _ZN3JSC18getStaticValueSlotIN7WebCore27JSSVGPathSegListConstructorENS1_12JSDOMWrapperEEEbPNS_9ExecStateEPKNS_9HashTableEPT_RKNS_10IdentifierERNS_12PropertySlotE@Base 2.2.1
 _ZN3JSC18getStaticValueSlotIN7WebCore27JSSVGRectElementConstructorENS1_12JSDOMWrapperEEEbPNS_9ExecStateEPKNS_9HashTableEPT_RKNS_10IdentifierERNS_12PropertySlotE@Base 2.2.1
 _ZN3JSC18getStaticValueSlotIN7WebCore27JSSVGStopElementConstructorENS1_12JSDOMWrapperEEEbPNS_9ExecStateEPKNS_9HashTableEPT_RKNS_10IdentifierERNS_12PropertySlotE@Base 2.2.1
 _ZN3JSC18getStaticValueSlotIN7WebCore27JSSVGTRefElementConstructorENS1_12JSDOMWrapperEEEbPNS_9ExecStateEPKNS_9HashTableEPT_RKNS_10IdentifierERNS_12PropertySlotE@Base 2.2.1
 _ZN3JSC18getStaticValueSlotIN7WebCore27JSSVGTextElementConstructorENS1_12JSDOMWrapperEEEbPNS_9ExecStateEPKNS_9HashTableEPT_RKNS_10IdentifierERNS_12PropertySlotE@Base 2.2.1
 _ZN3JSC18getStaticValueSlotIN7WebCore27JSSVGTextPositioningElementENS1_23JSSVGTextContentElementEEEbPNS_9ExecStateEPKNS_9HashTableEPT_RKNS_10IdentifierERNS_12PropertySlotE@Base 2.2.1
 _ZN3JSC18getStaticValueSlotIN7WebCore27JSSVGViewElementConstructorENS1_12JSDOMWrapperEEEbPNS_9ExecStateEPKNS_9HashTableEPT_RKNS_10IdentifierERNS_12PropertySlotE@Base 2.2.1
 _ZN3JSC18getStaticValueSlotIN7WebCore27JSStyleSheetListConstructorENS1_12JSDOMWrapperEEEbPNS_9ExecStateEPKNS_9HashTableEPT_RKNS_10IdentifierERNS_12PropertySlotE@Base 2.2.1
 _ZN3JSC18getStaticValueSlotIN7WebCore27JSWorkerLocationConstructorENS1_12JSDOMWrapperEEEbPNS_9ExecStateEPKNS_9HashTableEPT_RKNS_10IdentifierERNS_12PropertySlotE@Base 2.2.1
 _ZN3JSC18getStaticValueSlotIN7WebCore27JSXMLHttpRequestConstructorENS1_12JSDOMWrapperEEEbPNS_9ExecStateEPKNS_9HashTableEPT_RKNS_10IdentifierERNS_12PropertySlotE@Base 2.2.1
 _ZN3JSC18getStaticValueSlotIN7WebCore27JSXPathEvaluatorConstructorENS1_12JSDOMWrapperEEEbPNS_9ExecStateEPKNS_9HashTableEPT_RKNS_10IdentifierERNS_12PropertySlotE@Base 2.2.1
 _ZN3JSC18getStaticValueSlotIN7WebCore27JSXPathExceptionConstructorENS1_12JSDOMWrapperEEEbPNS_9ExecStateEPKNS_9HashTableEPT_RKNS_10IdentifierERNS_12PropertySlotE@Base 2.2.1
 _ZN3JSC18getStaticValueSlotIN7WebCore28JSBeforeLoadEventConstructorENS1_12JSDOMWrapperEEEbPNS_9ExecStateEPKNS_9HashTableEPT_RKNS_10IdentifierERNS_12PropertySlotE@Base 2.2.1
 _ZN3JSC18getStaticValueSlotIN7WebCore28JSCSSFontFaceRuleConstructorENS1_12JSDOMWrapperEEEbPNS_9ExecStateEPKNS_9HashTableEPT_RKNS_10IdentifierERNS_12PropertySlotE@Base 2.2.1
 _ZN3JSC18getStaticValueSlotIN7WebCore28JSEntityReferenceConstructorENS1_12JSDOMWrapperEEEbPNS_9ExecStateEPKNS_9HashTableEPT_RKNS_10IdentifierERNS_12PropertySlotE@Base 2.2.1
 _ZN3JSC18getStaticValueSlotIN7WebCore28JSHTMLAreaElementConstructorENS1_12JSDOMWrapperEEEbPNS_9ExecStateEPKNS_9HashTableEPT_RKNS_10IdentifierERNS_12PropertySlotE@Base 2.2.1
 _ZN3JSC18getStaticValueSlotIN7WebCore28JSHTMLBaseElementConstructorENS1_12JSDOMWrapperEEEbPNS_9ExecStateEPKNS_9HashTableEPT_RKNS_10IdentifierERNS_12PropertySlotE@Base 2.2.1
 _ZN3JSC18getStaticValueSlotIN7WebCore28JSHTMLBodyElementConstructorENS1_12JSDOMWrapperEEEbPNS_9ExecStateEPKNS_9HashTableEPT_RKNS_10IdentifierERNS_12PropertySlotE@Base 2.2.1
 _ZN3JSC18getStaticValueSlotIN7WebCore28JSHTMLFontElementConstructorENS1_12JSDOMWrapperEEEbPNS_9ExecStateEPKNS_9HashTableEPT_RKNS_10IdentifierERNS_12PropertySlotE@Base 2.2.1
 _ZN3JSC18getStaticValueSlotIN7WebCore28JSHTMLFormElementConstructorENS1_12JSDOMWrapperEEEbPNS_9ExecStateEPKNS_9HashTableEPT_RKNS_10IdentifierERNS_12PropertySlotE@Base 2.2.1
 _ZN3JSC18getStaticValueSlotIN7WebCore28JSHTMLHeadElementConstructorENS1_12JSDOMWrapperEEEbPNS_9ExecStateEPKNS_9HashTableEPT_RKNS_10IdentifierERNS_12PropertySlotE@Base 2.2.1
 _ZN3JSC18getStaticValueSlotIN7WebCore28JSHTMLHtmlElementConstructorENS1_12JSDOMWrapperEEEbPNS_9ExecStateEPKNS_9HashTableEPT_RKNS_10IdentifierERNS_12PropertySlotE@Base 2.2.1
 _ZN3JSC18getStaticValueSlotIN7WebCore28JSHTMLLinkElementConstructorENS1_12JSDOMWrapperEEEbPNS_9ExecStateEPKNS_9HashTableEPT_RKNS_10IdentifierERNS_12PropertySlotE@Base 2.2.1
 _ZN3JSC18getStaticValueSlotIN7WebCore28JSHTMLMenuElementConstructorENS1_12JSDOMWrapperEEEbPNS_9ExecStateEPKNS_9HashTableEPT_RKNS_10IdentifierERNS_12PropertySlotE@Base 2.2.1
 _ZN3JSC18getStaticValueSlotIN7WebCore28JSHTMLMetaElementConstructorENS1_12JSDOMWrapperEEEbPNS_9ExecStateEPKNS_9HashTableEPT_RKNS_10IdentifierERNS_12PropertySlotE@Base 2.2.1
 _ZN3JSC18getStaticValueSlotIN7WebCore28JSHashChangeEventConstructorENS1_12JSDOMWrapperEEEbPNS_9ExecStateEPKNS_9HashTableEPT_RKNS_10IdentifierERNS_12PropertySlotE@Base 2.2.1
 _ZN3JSC18getStaticValueSlotIN7WebCore28JSSVGAnimateTransformElementENS1_21JSSVGAnimationElementEEEbPNS_9ExecStateEPKNS_9HashTableEPT_RKNS_10IdentifierERNS_12PropertySlotE@Base 2.2.1
 _ZN3JSC18getStaticValueSlotIN7WebCore28JSSVGAnimatedRectConstructorENS1_12JSDOMWrapperEEEbPNS_9ExecStateEPKNS_9HashTableEPT_RKNS_10IdentifierERNS_12PropertySlotE@Base 2.2.1
 _ZN3JSC18getStaticValueSlotIN7WebCore28JSSVGFEConvolveMatrixElementENS1_12JSSVGElementEEEbPNS_9ExecStateEPKNS_9HashTableEPT_RKNS_10IdentifierERNS_12PropertySlotE@Base 2.2.1
 _ZN3JSC18getStaticValueSlotIN7WebCore28JSSVGGlyphElementConstructorENS1_12JSDOMWrapperEEEbPNS_9ExecStateEPKNS_9HashTableEPT_RKNS_10IdentifierERNS_12PropertySlotE@Base 2.2.1
 _ZN3JSC18getStaticValueSlotIN7WebCore28JSSVGHKernElementConstructorENS1_12JSDOMWrapperEEEbPNS_9ExecStateEPKNS_9HashTableEPT_RKNS_10IdentifierERNS_12PropertySlotE@Base 2.2.1
 _ZN3JSC18getStaticValueSlotIN7WebCore28JSSVGImageElementConstructorENS1_12JSDOMWrapperEEEbPNS_9ExecStateEPKNS_9HashTableEPT_RKNS_10IdentifierERNS_12PropertySlotE@Base 2.2.1
 _ZN3JSC18getStaticValueSlotIN7WebCore28JSSVGStyleElementConstructorENS1_12JSDOMWrapperEEEbPNS_9ExecStateEPKNS_9HashTableEPT_RKNS_10IdentifierERNS_12PropertySlotE@Base 2.2.1
 _ZN3JSC18getStaticValueSlotIN7WebCore28JSSVGTSpanElementConstructorENS1_12JSDOMWrapperEEEbPNS_9ExecStateEPKNS_9HashTableEPT_RKNS_10IdentifierERNS_12PropertySlotE@Base 2.2.1
 _ZN3JSC18getStaticValueSlotIN7WebCore28JSSVGTitleElementConstructorENS1_12JSDOMWrapperEEEbPNS_9ExecStateEPKNS_9HashTableEPT_RKNS_10IdentifierERNS_12PropertySlotE@Base 2.2.1
 _ZN3JSC18getStaticValueSlotIN7WebCore28JSSVGVKernElementConstructorENS1_12JSDOMWrapperEEEbPNS_9ExecStateEPKNS_9HashTableEPT_RKNS_10IdentifierERNS_12PropertySlotE@Base 2.2.1
 _ZN3JSC18getStaticValueSlotIN7WebCore28JSWebKitAnimationConstructorENS1_12JSDOMWrapperEEEbPNS_9ExecStateEPKNS_9HashTableEPT_RKNS_10IdentifierERNS_12PropertySlotE@Base 2.2.1
 _ZN3JSC18getStaticValueSlotIN7WebCore28JSWebKitCSSMatrixConstructorENS1_12JSDOMWrapperEEEbPNS_9ExecStateEPKNS_9HashTableEPT_RKNS_10IdentifierERNS_12PropertySlotE@Base 2.2.1
 _ZN3JSC18getStaticValueSlotIN7WebCore28JSXPathExpressionConstructorENS1_12JSDOMWrapperEEEbPNS_9ExecStateEPKNS_9HashTableEPT_RKNS_10IdentifierERNS_12PropertySlotE@Base 2.2.1
 _ZN3JSC18getStaticValueSlotIN7WebCore29JSCompositionEventConstructorENS1_12JSDOMWrapperEEEbPNS_9ExecStateEPKNS_9HashTableEPT_RKNS_10IdentifierERNS_12PropertySlotE@Base 2.2.1
 _ZN3JSC18getStaticValueSlotIN7WebCore29JSDOMCoreExceptionConstructorENS1_12JSDOMWrapperEEEbPNS_9ExecStateEPKNS_9HashTableEPT_RKNS_10IdentifierERNS_12PropertySlotE@Base 2.2.1
 _ZN3JSC18getStaticValueSlotIN7WebCore29JSDOMMimeTypeArrayConstructorENS1_12JSDOMWrapperEEEbPNS_9ExecStateEPKNS_9HashTableEPT_RKNS_10IdentifierERNS_12PropertySlotE@Base 2.2.1
 _ZN3JSC18getStaticValueSlotIN7WebCore29JSDocumentFragmentConstructorENS1_12JSDOMWrapperEEEbPNS_9ExecStateEPKNS_9HashTableEPT_RKNS_10IdentifierERNS_12PropertySlotE@Base 2.2.1
 _ZN3JSC18getStaticValueSlotIN7WebCore29JSHTMLAudioElementConstructorENS1_12JSDOMWrapperEEEbPNS_9ExecStateEPKNS_9HashTableEPT_RKNS_10IdentifierERNS_12PropertySlotE@Base 2.2.1
 _ZN3JSC18getStaticValueSlotIN7WebCore29JSHTMLDListElementConstructorENS1_12JSDOMWrapperEEEbPNS_9ExecStateEPKNS_9HashTableEPT_RKNS_10IdentifierERNS_12PropertySlotE@Base 2.2.1
 _ZN3JSC18getStaticValueSlotIN7WebCore29JSHTMLEmbedElementConstructorENS1_12JSDOMWrapperEEEbPNS_9ExecStateEPKNS_9HashTableEPT_RKNS_10IdentifierERNS_12PropertySlotE@Base 2.2.1
 _ZN3JSC18getStaticValueSlotIN7WebCore29JSHTMLFrameElementConstructorENS1_12JSDOMWrapperEEEbPNS_9ExecStateEPKNS_9HashTableEPT_RKNS_10IdentifierERNS_12PropertySlotE@Base 2.2.1
 _ZN3JSC18getStaticValueSlotIN7WebCore29JSHTMLImageElementConstructorENS1_12JSDOMWrapperEEEbPNS_9ExecStateEPKNS_9HashTableEPT_RKNS_10IdentifierERNS_12PropertySlotE@Base 2.2.1
 _ZN3JSC18getStaticValueSlotIN7WebCore29JSHTMLInputElementConstructorENS1_12JSDOMWrapperEEEbPNS_9ExecStateEPKNS_9HashTableEPT_RKNS_10IdentifierERNS_12PropertySlotE@Base 2.2.1
 _ZN3JSC18getStaticValueSlotIN7WebCore29JSHTMLLabelElementConstructorENS1_12JSDOMWrapperEEEbPNS_9ExecStateEPKNS_9HashTableEPT_RKNS_10IdentifierERNS_12PropertySlotE@Base 2.2.1
 _ZN3JSC18getStaticValueSlotIN7WebCore29JSHTMLMediaElementConstructorENS1_12JSDOMWrapperEEEbPNS_9ExecStateEPKNS_9HashTableEPT_RKNS_10IdentifierERNS_12PropertySlotE@Base 2.2.1
 _ZN3JSC18getStaticValueSlotIN7WebCore29JSHTMLMeterElementConstructorENS1_12JSDOMWrapperEEEbPNS_9ExecStateEPKNS_9HashTableEPT_RKNS_10IdentifierERNS_12PropertySlotE@Base 2.2.1
 _ZN3JSC18getStaticValueSlotIN7WebCore29JSHTMLOListElementConstructorENS1_12JSDOMWrapperEEEbPNS_9ExecStateEPKNS_9HashTableEPT_RKNS_10IdentifierERNS_12PropertySlotE@Base 2.2.1
 _ZN3JSC18getStaticValueSlotIN7WebCore29JSHTMLParamElementConstructorENS1_12JSDOMWrapperEEEbPNS_9ExecStateEPKNS_9HashTableEPT_RKNS_10IdentifierERNS_12PropertySlotE@Base 2.2.1
 _ZN3JSC18getStaticValueSlotIN7WebCore29JSHTMLQuoteElementConstructorENS1_12JSDOMWrapperEEEbPNS_9ExecStateEPKNS_9HashTableEPT_RKNS_10IdentifierERNS_12PropertySlotE@Base 2.2.1
 _ZN3JSC18getStaticValueSlotIN7WebCore29JSHTMLStyleElementConstructorENS1_12JSDOMWrapperEEEbPNS_9ExecStateEPKNS_9HashTableEPT_RKNS_10IdentifierERNS_12PropertySlotE@Base 2.2.1
 _ZN3JSC18getStaticValueSlotIN7WebCore29JSHTMLTableElementConstructorENS1_12JSDOMWrapperEEEbPNS_9ExecStateEPKNS_9HashTableEPT_RKNS_10IdentifierERNS_12PropertySlotE@Base 2.2.1
 _ZN3JSC18getStaticValueSlotIN7WebCore29JSHTMLTitleElementConstructorENS1_12JSDOMWrapperEEEbPNS_9ExecStateEPKNS_9HashTableEPT_RKNS_10IdentifierERNS_12PropertySlotE@Base 2.2.1
 _ZN3JSC18getStaticValueSlotIN7WebCore29JSHTMLUListElementConstructorENS1_12JSDOMWrapperEEEbPNS_9ExecStateEPKNS_9HashTableEPT_RKNS_10IdentifierERNS_12PropertySlotE@Base 2.2.1
 _ZN3JSC18getStaticValueSlotIN7WebCore29JSHTMLVideoElementConstructorENS1_12JSDOMWrapperEEEbPNS_9ExecStateEPKNS_9HashTableEPT_RKNS_10IdentifierERNS_12PropertySlotE@Base 2.2.1
 _ZN3JSC18getStaticValueSlotIN7WebCore29JSSVGAnimatedAngleConstructorENS1_12JSDOMWrapperEEEbPNS_9ExecStateEPKNS_9HashTableEPT_RKNS_10IdentifierERNS_12PropertySlotE@Base 2.2.1
 _ZN3JSC18getStaticValueSlotIN7WebCore29JSSVGCircleElementConstructorENS1_12JSDOMWrapperEEEbPNS_9ExecStateEPKNS_9HashTableEPT_RKNS_10IdentifierERNS_12PropertySlotE@Base 2.2.1
 _ZN3JSC18getStaticValueSlotIN7WebCore29JSSVGCursorElementConstructorENS1_12JSDOMWrapperEEEbPNS_9ExecStateEPKNS_9HashTableEPT_RKNS_10IdentifierERNS_12PropertySlotE@Base 2.2.1
 _ZN3JSC18getStaticValueSlotIN7WebCore29JSSVGFEDiffuseLightingElementENS1_12JSSVGElementEEEbPNS_9ExecStateEPKNS_9HashTableEPT_RKNS_10IdentifierERNS_12PropertySlotE@Base 2.2.1
 _ZN3JSC18getStaticValueSlotIN7WebCore29JSSVGFEDisplacementMapElementENS1_12JSSVGElementEEEbPNS_9ExecStateEPKNS_9HashTableEPT_RKNS_10IdentifierERNS_12PropertySlotE@Base 2.2.1
 _ZN3JSC18getStaticValueSlotIN7WebCore29JSSVGFETileElementConstructorENS1_12JSDOMWrapperEEEbPNS_9ExecStateEPKNS_9HashTableEPT_RKNS_10IdentifierERNS_12PropertySlotE@Base 2.2.1
 _ZN3JSC18getStaticValueSlotIN7WebCore29JSSVGFilterElementConstructorENS1_12JSDOMWrapperEEEbPNS_9ExecStateEPKNS_9HashTableEPT_RKNS_10IdentifierERNS_12PropertySlotE@Base 2.2.1
 _ZN3JSC18getStaticValueSlotIN7WebCore29JSSVGMarkerElementConstructorENS1_12JSDOMWrapperEEEbPNS_9ExecStateEPKNS_9HashTableEPT_RKNS_10IdentifierERNS_12PropertySlotE@Base 2.2.1
 _ZN3JSC18getStaticValueSlotIN7WebCore29JSSVGPathSegArcAbsConstructorENS1_12JSDOMWrapperEEEbPNS_9ExecStateEPKNS_9HashTableEPT_RKNS_10IdentifierERNS_12PropertySlotE@Base 2.2.1
 _ZN3JSC18getStaticValueSlotIN7WebCore29JSSVGPathSegArcRelConstructorENS1_12JSDOMWrapperEEEbPNS_9ExecStateEPKNS_9HashTableEPT_RKNS_10IdentifierERNS_12PropertySlotE@Base 2.2.1
 _ZN3JSC18getStaticValueSlotIN7WebCore29JSSVGPathSegLinetoVerticalAbsENS1_12JSSVGPathSegEEEbPNS_9ExecStateEPKNS_9HashTableEPT_RKNS_10IdentifierERNS_12PropertySlotE@Base 2.2.1
 _ZN3JSC18getStaticValueSlotIN7WebCore29JSSVGPathSegLinetoVerticalRelENS1_12JSSVGPathSegEEEbPNS_9ExecStateEPKNS_9HashTableEPT_RKNS_10IdentifierERNS_12PropertySlotE@Base 2.2.1
 _ZN3JSC18getStaticValueSlotIN7WebCore29JSSVGRenderingIntentPrototypeENS_8JSObjectEEEbPNS_9ExecStateEPKNS_9HashTableEPT_RKNS_10IdentifierERNS_12PropertySlotE@Base 2.2.1
 _ZN3JSC18getStaticValueSlotIN7WebCore29JSSVGScriptElementConstructorENS1_12JSDOMWrapperEEEbPNS_9ExecStateEPKNS_9HashTableEPT_RKNS_10IdentifierERNS_12PropertySlotE@Base 2.2.1
 _ZN3JSC18getStaticValueSlotIN7WebCore29JSSVGSwitchElementConstructorENS1_12JSDOMWrapperEEEbPNS_9ExecStateEPKNS_9HashTableEPT_RKNS_10IdentifierERNS_12PropertySlotE@Base 2.2.1
 _ZN3JSC18getStaticValueSlotIN7WebCore29JSSVGSymbolElementConstructorENS1_12JSDOMWrapperEEEbPNS_9ExecStateEPKNS_9HashTableEPT_RKNS_10IdentifierERNS_12PropertySlotE@Base 2.2.1
 _ZN3JSC18getStaticValueSlotIN7WebCore29JSSVGTextPathElementPrototypeENS_8JSObjectEEEbPNS_9ExecStateEPKNS_9HashTableEPT_RKNS_10IdentifierERNS_12PropertySlotE@Base 2.2.1
 _ZN3JSC18getStaticValueSlotIN7WebCore29JSSVGTransformListConstructorENS1_12JSDOMWrapperEEEbPNS_9ExecStateEPKNS_9HashTableEPT_RKNS_10IdentifierERNS_12PropertySlotE@Base 2.2.1
 _ZN3JSC18getStaticValueSlotIN7WebCore29JSXMLHttpRequestProgressEventENS1_15JSProgressEventEEEbPNS_9ExecStateEPKNS_9HashTableEPT_RKNS_10IdentifierERNS_12PropertySlotE@Base 2.2.1
 _ZN3JSC18getStaticValueSlotIN7WebCore30JSCSSPrimitiveValueConstructorENS1_12JSDOMWrapperEEEbPNS_9ExecStateEPKNS_9HashTableEPT_RKNS_10IdentifierERNS_12PropertySlotE@Base 2.2.1
 _ZN3JSC18getStaticValueSlotIN7WebCore30JSDOMImplementationConstructorENS1_12JSDOMWrapperEEEbPNS_9ExecStateEPKNS_9HashTableEPT_RKNS_10IdentifierERNS_12PropertySlotE@Base 2.2.1
 _ZN3JSC18getStaticValueSlotIN7WebCore30JSHTMLAllCollectionConstructorENS1_12JSDOMWrapperEEEbPNS_9ExecStateEPKNS_9HashTableEPT_RKNS_10IdentifierERNS_12PropertySlotE@Base 2.2.1
 _ZN3JSC18getStaticValueSlotIN7WebCore30JSHTMLAnchorElementConstructorENS1_12JSDOMWrapperEEEbPNS_9ExecStateEPKNS_9HashTableEPT_RKNS_10IdentifierERNS_12PropertySlotE@Base 2.2.1
 _ZN3JSC18getStaticValueSlotIN7WebCore30JSHTMLAppletElementConstructorENS1_12JSDOMWrapperEEEbPNS_9ExecStateEPKNS_9HashTableEPT_RKNS_10IdentifierERNS_12PropertySlotE@Base 2.2.1
 _ZN3JSC18getStaticValueSlotIN7WebCore30JSHTMLButtonElementConstructorENS1_12JSDOMWrapperEEEbPNS_9ExecStateEPKNS_9HashTableEPT_RKNS_10IdentifierERNS_12PropertySlotE@Base 2.2.1
 _ZN3JSC18getStaticValueSlotIN7WebCore30JSHTMLCanvasElementConstructorENS1_12JSDOMWrapperEEEbPNS_9ExecStateEPKNS_9HashTableEPT_RKNS_10IdentifierERNS_12PropertySlotE@Base 2.2.1
 _ZN3JSC18getStaticValueSlotIN7WebCore30JSHTMLIFrameElementConstructorENS1_12JSDOMWrapperEEEbPNS_9ExecStateEPKNS_9HashTableEPT_RKNS_10IdentifierERNS_12PropertySlotE@Base 2.2.1
 _ZN3JSC18getStaticValueSlotIN7WebCore30JSHTMLKeygenElementConstructorENS1_12JSDOMWrapperEEEbPNS_9ExecStateEPKNS_9HashTableEPT_RKNS_10IdentifierERNS_12PropertySlotE@Base 2.2.1
 _ZN3JSC18getStaticValueSlotIN7WebCore30JSHTMLLegendElementConstructorENS1_12JSDOMWrapperEEEbPNS_9ExecStateEPKNS_9HashTableEPT_RKNS_10IdentifierERNS_12PropertySlotE@Base 2.2.1
 _ZN3JSC18getStaticValueSlotIN7WebCore30JSHTMLObjectElementConstructorENS1_12JSDOMWrapperEEEbPNS_9ExecStateEPKNS_9HashTableEPT_RKNS_10IdentifierERNS_12PropertySlotE@Base 2.2.1
 _ZN3JSC18getStaticValueSlotIN7WebCore30JSHTMLOptionElementConstructorENS1_12JSDOMWrapperEEEbPNS_9ExecStateEPKNS_9HashTableEPT_RKNS_10IdentifierERNS_12PropertySlotE@Base 2.2.1
 _ZN3JSC18getStaticValueSlotIN7WebCore30JSHTMLOutputElementConstructorENS1_12JSDOMWrapperEEEbPNS_9ExecStateEPKNS_9HashTableEPT_RKNS_10IdentifierERNS_12PropertySlotE@Base 2.2.1
 _ZN3JSC18getStaticValueSlotIN7WebCore30JSHTMLScriptElementConstructorENS1_12JSDOMWrapperEEEbPNS_9ExecStateEPKNS_9HashTableEPT_RKNS_10IdentifierERNS_12PropertySlotE@Base 2.2.1
 _ZN3JSC18getStaticValueSlotIN7WebCore30JSHTMLSelectElementConstructorENS1_12JSDOMWrapperEEEbPNS_9ExecStateEPKNS_9HashTableEPT_RKNS_10IdentifierERNS_12PropertySlotE@Base 2.2.1
 _ZN3JSC18getStaticValueSlotIN7WebCore30JSHTMLSourceElementConstructorENS1_12JSDOMWrapperEEEbPNS_9ExecStateEPKNS_9HashTableEPT_RKNS_10IdentifierERNS_12PropertySlotE@Base 2.2.1
 _ZN3JSC18getStaticValueSlotIN7WebCore30JSSVGAnimateElementConstructorENS1_12JSDOMWrapperEEEbPNS_9ExecStateEPKNS_9HashTableEPT_RKNS_10IdentifierERNS_12PropertySlotE@Base 2.2.1
 _ZN3JSC18getStaticValueSlotIN7WebCore30JSSVGAnimatedLengthConstructorENS1_12JSDOMWrapperEEEbPNS_9ExecStateEPKNS_9HashTableEPT_RKNS_10IdentifierERNS_12PropertySlotE@Base 2.2.1
 _ZN3JSC18getStaticValueSlotIN7WebCore30JSSVGAnimatedNumberConstructorENS1_12JSDOMWrapperEEEbPNS_9ExecStateEPKNS_9HashTableEPT_RKNS_10IdentifierERNS_12PropertySlotE@Base 2.2.1
 _ZN3JSC18getStaticValueSlotIN7WebCore30JSSVGAnimatedStringConstructorENS1_12JSDOMWrapperEEEbPNS_9ExecStateEPKNS_9HashTableEPT_RKNS_10IdentifierERNS_12PropertySlotE@Base 2.2.1
 _ZN3JSC18getStaticValueSlotIN7WebCore30JSSVGEllipseElementConstructorENS1_12JSDOMWrapperEEEbPNS_9ExecStateEPKNS_9HashTableEPT_RKNS_10IdentifierERNS_12PropertySlotE@Base 2.2.1
 _ZN3JSC18getStaticValueSlotIN7WebCore30JSSVGFEBlendElementConstructorENS1_12JSDOMWrapperEEEbPNS_9ExecStateEPKNS_9HashTableEPT_RKNS_10IdentifierERNS_12PropertySlotE@Base 2.2.1
 _ZN3JSC18getStaticValueSlotIN7WebCore30JSSVGFEFloodElementConstructorENS1_12JSDOMWrapperEEEbPNS_9ExecStateEPKNS_9HashTableEPT_RKNS_10IdentifierERNS_12PropertySlotE@Base 2.2.1
 _ZN3JSC18getStaticValueSlotIN7WebCore30JSSVGFEFuncAElementConstructorENS1_12JSDOMWrapperEEEbPNS_9ExecStateEPKNS_9HashTableEPT_RKNS_10IdentifierERNS_12PropertySlotE@Base 2.2.1
 _ZN3JSC18getStaticValueSlotIN7WebCore30JSSVGFEFuncBElementConstructorENS1_12JSDOMWrapperEEEbPNS_9ExecStateEPKNS_9HashTableEPT_RKNS_10IdentifierERNS_12PropertySlotE@Base 2.2.1
 _ZN3JSC18getStaticValueSlotIN7WebCore30JSSVGFEFuncGElementConstructorENS1_12JSDOMWrapperEEEbPNS_9ExecStateEPKNS_9HashTableEPT_RKNS_10IdentifierERNS_12PropertySlotE@Base 2.2.1
 _ZN3JSC18getStaticValueSlotIN7WebCore30JSSVGFEFuncRElementConstructorENS1_12JSDOMWrapperEEEbPNS_9ExecStateEPKNS_9HashTableEPT_RKNS_10IdentifierERNS_12PropertySlotE@Base 2.2.1
 _ZN3JSC18getStaticValueSlotIN7WebCore30JSSVGFEImageElementConstructorENS1_12JSDOMWrapperEEEbPNS_9ExecStateEPKNS_9HashTableEPT_RKNS_10IdentifierERNS_12PropertySlotE@Base 2.2.1
 _ZN3JSC18getStaticValueSlotIN7WebCore30JSSVGFEMergeElementConstructorENS1_12JSDOMWrapperEEEbPNS_9ExecStateEPKNS_9HashTableEPT_RKNS_10IdentifierERNS_12PropertySlotE@Base 2.2.1
 _ZN3JSC18getStaticValueSlotIN7WebCore30JSSVGFESpecularLightingElementENS1_12JSSVGElementEEEbPNS_9ExecStateEPKNS_9HashTableEPT_RKNS_10IdentifierERNS_12PropertySlotE@Base 2.2.1
 _ZN3JSC18getStaticValueSlotIN7WebCore30JSSVGPatternElementConstructorENS1_12JSDOMWrapperEEEbPNS_9ExecStateEPKNS_9HashTableEPT_RKNS_10IdentifierERNS_12PropertySlotE@Base 2.2.1
 _ZN3JSC18getStaticValueSlotIN7WebCore30JSSVGPolygonElementConstructorENS1_12JSDOMWrapperEEEbPNS_9ExecStateEPKNS_9HashTableEPT_RKNS_10IdentifierERNS_12PropertySlotE@Base 2.2.1
 _ZN3JSC18getStaticValueSlotIN7WebCore30JSWebKitBlobBuilderConstructorENS1_12JSDOMWrapperEEEbPNS_9ExecStateEPKNS_9HashTableEPT_RKNS_10IdentifierERNS_12PropertySlotE@Base 2.2.1
 _ZN3JSC18getStaticValueSlotIN7WebCore31JSBeforeProcessEventConstructorENS1_12JSDOMWrapperEEEbPNS_9ExecStateEPKNS_9HashTableEPT_RKNS_10IdentifierERNS_12PropertySlotE@Base 2.2.1
 _ZN3JSC18getStaticValueSlotIN7WebCore31JSHTMLDetailsElementConstructorENS1_12JSDOMWrapperEEEbPNS_9ExecStateEPKNS_9HashTableEPT_RKNS_10IdentifierERNS_12PropertySlotE@Base 2.2.1
 _ZN3JSC18getStaticValueSlotIN7WebCore31JSHTMLHeadingElementConstructorENS1_12JSDOMWrapperEEEbPNS_9ExecStateEPKNS_9HashTableEPT_RKNS_10IdentifierERNS_12PropertySlotE@Base 2.2.1
 _ZN3JSC18getStaticValueSlotIN7WebCore31JSHTMLIsIndexElementConstructorENS1_12JSDOMWrapperEEEbPNS_9ExecStateEPKNS_9HashTableEPT_RKNS_10IdentifierERNS_12PropertySlotE@Base 2.2.1
 _ZN3JSC18getStaticValueSlotIN7WebCore31JSHTMLMarqueeElementConstructorENS1_12JSDOMWrapperEEEbPNS_9ExecStateEPKNS_9HashTableEPT_RKNS_10IdentifierERNS_12PropertySlotE@Base 2.2.1
 _ZN3JSC18getStaticValueSlotIN7WebCore31JSInjectedScriptHostConstructorENS1_12JSDOMWrapperEEEbPNS_9ExecStateEPKNS_9HashTableEPT_RKNS_10IdentifierERNS_12PropertySlotE@Base 2.2.1
 _ZN3JSC18getStaticValueSlotIN7WebCore31JSSVGAltGlyphElementConstructorENS1_12JSDOMWrapperEEEbPNS_9ExecStateEPKNS_9HashTableEPT_RKNS_10IdentifierERNS_12PropertySlotE@Base 2.2.1
 _ZN3JSC18getStaticValueSlotIN7WebCore31JSSVGAnimatedBooleanConstructorENS1_12JSDOMWrapperEEEbPNS_9ExecStateEPKNS_9HashTableEPT_RKNS_10IdentifierERNS_12PropertySlotE@Base 2.2.1
 _ZN3JSC18getStaticValueSlotIN7WebCore31JSSVGAnimatedIntegerConstructorENS1_12JSDOMWrapperEEEbPNS_9ExecStateEPKNS_9HashTableEPT_RKNS_10IdentifierERNS_12PropertySlotE@Base 2.2.1
 _ZN3JSC18getStaticValueSlotIN7WebCore31JSSVGClipPathElementConstructorENS1_12JSDOMWrapperEEEbPNS_9ExecStateEPKNS_9HashTableEPT_RKNS_10IdentifierERNS_12PropertySlotE@Base 2.2.1
 _ZN3JSC18getStaticValueSlotIN7WebCore31JSSVGElementInstanceConstructorENS1_12JSDOMWrapperEEEbPNS_9ExecStateEPKNS_9HashTableEPT_RKNS_10IdentifierERNS_12PropertySlotE@Base 2.2.1
 _ZN3JSC18getStaticValueSlotIN7WebCore31JSSVGFEComponentTransferElementENS1_12JSSVGElementEEEbPNS_9ExecStateEPKNS_9HashTableEPT_RKNS_10IdentifierERNS_12PropertySlotE@Base 2.2.1
 _ZN3JSC18getStaticValueSlotIN7WebCore31JSSVGFEOffsetElementConstructorENS1_12JSDOMWrapperEEEbPNS_9ExecStateEPKNS_9HashTableEPT_RKNS_10IdentifierERNS_12PropertySlotE@Base 2.2.1
 _ZN3JSC18getStaticValueSlotIN7WebCore31JSSVGFontFaceElementConstructorENS1_12JSDOMWrapperEEEbPNS_9ExecStateEPKNS_9HashTableEPT_RKNS_10IdentifierERNS_12PropertySlotE@Base 2.2.1
 _ZN3JSC18getStaticValueSlotIN7WebCore31JSSVGGradientElementConstructorENS1_12JSDOMWrapperEEEbPNS_9ExecStateEPKNS_9HashTableEPT_RKNS_10IdentifierERNS_12PropertySlotE@Base 2.2.1
 _ZN3JSC18getStaticValueSlotIN7WebCore31JSSVGMetadataElementConstructorENS1_12JSDOMWrapperEEEbPNS_9ExecStateEPKNS_9HashTableEPT_RKNS_10IdentifierERNS_12PropertySlotE@Base 2.2.1
 _ZN3JSC18getStaticValueSlotIN7WebCore31JSSVGPathSegCurvetoQuadraticAbsENS1_12JSSVGPathSegEEEbPNS_9ExecStateEPKNS_9HashTableEPT_RKNS_10IdentifierERNS_12PropertySlotE@Base 2.2.1
 _ZN3JSC18getStaticValueSlotIN7WebCore31JSSVGPathSegCurvetoQuadraticRelENS1_12JSSVGPathSegEEEbPNS_9ExecStateEPKNS_9HashTableEPT_RKNS_10IdentifierERNS_12PropertySlotE@Base 2.2.1
 _ZN3JSC18getStaticValueSlotIN7WebCore31JSSVGPathSegLinetoHorizontalAbsENS1_12JSSVGPathSegEEEbPNS_9ExecStateEPKNS_9HashTableEPT_RKNS_10IdentifierERNS_12PropertySlotE@Base 2.2.1
 _ZN3JSC18getStaticValueSlotIN7WebCore31JSSVGPathSegLinetoHorizontalRelENS1_12JSSVGPathSegEEEbPNS_9ExecStateEPKNS_9HashTableEPT_RKNS_10IdentifierERNS_12PropertySlotE@Base 2.2.1
 _ZN3JSC18getStaticValueSlotIN7WebCore31JSSVGPolylineElementConstructorENS1_12JSDOMWrapperEEEbPNS_9ExecStateEPKNS_9HashTableEPT_RKNS_10IdentifierERNS_12PropertySlotE@Base 2.2.1
 _ZN3JSC18getStaticValueSlotIN7WebCore31JSSVGRenderingIntentConstructorENS1_12JSDOMWrapperEEEbPNS_9ExecStateEPKNS_9HashTableEPT_RKNS_10IdentifierERNS_12PropertySlotE@Base 2.2.1
 _ZN3JSC18getStaticValueSlotIN7WebCore31JSSVGTextPathElementConstructorENS1_12JSDOMWrapperEEEbPNS_9ExecStateEPKNS_9HashTableEPT_RKNS_10IdentifierERNS_12PropertySlotE@Base 2.2.1
 _ZN3JSC18getStaticValueSlotIN7WebCore32JSCSSStyleDeclarationConstructorENS1_12JSDOMWrapperEEEbPNS_9ExecStateEPKNS_9HashTableEPT_RKNS_10IdentifierERNS_12PropertySlotE@Base 2.2.1
 _ZN3JSC18getStaticValueSlotIN7WebCore32JSHTMLBaseFontElementConstructorENS1_12JSDOMWrapperEEEbPNS_9ExecStateEPKNS_9HashTableEPT_RKNS_10IdentifierERNS_12PropertySlotE@Base 2.2.1
 _ZN3JSC18getStaticValueSlotIN7WebCore32JSHTMLDataListElementConstructorENS1_12JSDOMWrapperEEEbPNS_9ExecStateEPKNS_9HashTableEPT_RKNS_10IdentifierERNS_12PropertySlotE@Base 2.2.1
 _ZN3JSC18getStaticValueSlotIN7WebCore32JSHTMLFieldSetElementConstructorENS1_12JSDOMWrapperEEEbPNS_9ExecStateEPKNS_9HashTableEPT_RKNS_10IdentifierERNS_12PropertySlotE@Base 2.2.1
 _ZN3JSC18getStaticValueSlotIN7WebCore32JSHTMLFrameSetElementConstructorENS1_12JSDOMWrapperEEEbPNS_9ExecStateEPKNS_9HashTableEPT_RKNS_10IdentifierERNS_12PropertySlotE@Base 2.2.1
 _ZN3JSC18getStaticValueSlotIN7WebCore32JSHTMLOptGroupElementConstructorENS1_12JSDOMWrapperEEEbPNS_9ExecStateEPKNS_9HashTableEPT_RKNS_10IdentifierERNS_12PropertySlotE@Base 2.2.1
 _ZN3JSC18getStaticValueSlotIN7WebCore32JSHTMLProgressElementConstructorENS1_12JSDOMWrapperEEEbPNS_9ExecStateEPKNS_9HashTableEPT_RKNS_10IdentifierERNS_12PropertySlotE@Base 2.2.1
 _ZN3JSC18getStaticValueSlotIN7WebCore32JSHTMLTableColElementConstructorENS1_12JSDOMWrapperEEEbPNS_9ExecStateEPKNS_9HashTableEPT_RKNS_10IdentifierERNS_12PropertySlotE@Base 2.2.1
 _ZN3JSC18getStaticValueSlotIN7WebCore32JSHTMLTableRowElementConstructorENS1_12JSDOMWrapperEEEbPNS_9ExecStateEPKNS_9HashTableEPT_RKNS_10IdentifierERNS_12PropertySlotE@Base 2.2.1
 _ZN3JSC18getStaticValueSlotIN7WebCore32JSHTMLTextAreaElementConstructorENS1_12JSDOMWrapperEEEbPNS_9ExecStateEPKNS_9HashTableEPT_RKNS_10IdentifierERNS_12PropertySlotE@Base 2.2.1
 _ZN3JSC18getStaticValueSlotIN7WebCore32JSPageTransitionEventConstructorENS1_12JSDOMWrapperEEEbPNS_9ExecStateEPKNS_9HashTableEPT_RKNS_10IdentifierERNS_12PropertySlotE@Base 2.2.1
 _ZN3JSC18getStaticValueSlotIN7WebCore32JSSVGAnimatedPreserveAspectRatioENS1_12JSDOMWrapperEEEbPNS_9ExecStateEPKNS_9HashTableEPT_RKNS_10IdentifierERNS_12PropertySlotE@Base 2.2.1
 _ZN3JSC18getStaticValueSlotIN7WebCore32JSSVGPathSegClosePathConstructorENS1_12JSDOMWrapperEEEbPNS_9ExecStateEPKNS_9HashTableEPT_RKNS_10IdentifierERNS_12PropertySlotE@Base 2.2.1
 _ZN3JSC18getStaticValueSlotIN7WebCore32JSSVGPathSegLinetoAbsConstructorENS1_12JSDOMWrapperEEEbPNS_9ExecStateEPKNS_9HashTableEPT_RKNS_10IdentifierERNS_12PropertySlotE@Base 2.2.1
 _ZN3JSC18getStaticValueSlotIN7WebCore32JSSVGPathSegLinetoRelConstructorENS1_12JSDOMWrapperEEEbPNS_9ExecStateEPKNS_9HashTableEPT_RKNS_10IdentifierERNS_12PropertySlotE@Base 2.2.1
 _ZN3JSC18getStaticValueSlotIN7WebCore32JSSVGPathSegMovetoAbsConstructorENS1_12JSDOMWrapperEEEbPNS_9ExecStateEPKNS_9HashTableEPT_RKNS_10IdentifierERNS_12PropertySlotE@Base 2.2.1
 _ZN3JSC18getStaticValueSlotIN7WebCore32JSSVGPathSegMovetoRelConstructorENS1_12JSDOMWrapperEEEbPNS_9ExecStateEPKNS_9HashTableEPT_RKNS_10IdentifierERNS_12PropertySlotE@Base 2.2.1
 _ZN3JSC18getStaticValueSlotIN7WebCore32JSWebKitAnimationListConstructorENS1_12JSDOMWrapperEEEbPNS_9ExecStateEPKNS_9HashTableEPT_RKNS_10IdentifierERNS_12PropertySlotE@Base 2.2.1
 _ZN3JSC18getStaticValueSlotIN7WebCore33JSDOMSettableTokenListConstructorENS1_12JSDOMWrapperEEEbPNS_9ExecStateEPKNS_9HashTableEPT_RKNS_10IdentifierERNS_12PropertySlotE@Base 2.2.1
 _ZN3JSC18getStaticValueSlotIN7WebCore33JSHTMLDirectoryElementConstructorENS1_12JSDOMWrapperEEEbPNS_9ExecStateEPKNS_9HashTableEPT_RKNS_10IdentifierERNS_12PropertySlotE@Base 2.2.1
 _ZN3JSC18getStaticValueSlotIN7WebCore33JSHTMLParagraphElementConstructorENS1_12JSDOMWrapperEEEbPNS_9ExecStateEPKNS_9HashTableEPT_RKNS_10IdentifierERNS_12PropertySlotE@Base 2.2.1
 _ZN3JSC18getStaticValueSlotIN7WebCore33JSHTMLTableCellElementConstructorENS1_12JSDOMWrapperEEEbPNS_9ExecStateEPKNS_9HashTableEPT_RKNS_10IdentifierERNS_12PropertySlotE@Base 2.2.1
 _ZN3JSC18getStaticValueSlotIN7WebCore33JSSVGPathSegCurvetoCubicSmoothAbsENS1_12JSSVGPathSegEEEbPNS_9ExecStateEPKNS_9HashTableEPT_RKNS_10IdentifierERNS_12PropertySlotE@Base 2.2.1
 _ZN3JSC18getStaticValueSlotIN7WebCore33JSSVGPathSegCurvetoCubicSmoothRelENS1_12JSSVGPathSegEEEbPNS_9ExecStateEPKNS_9HashTableEPT_RKNS_10IdentifierERNS_12PropertySlotE@Base 2.2.1
 _ZN3JSC18getStaticValueSlotIN7WebCore33JSSVGPreserveAspectRatioPrototypeENS_8JSObjectEEEbPNS_9ExecStateEPKNS_9HashTableEPT_RKNS_10IdentifierERNS_12PropertySlotE@Base 2.2.1
 _ZN3JSC18getStaticValueSlotIN7WebCore33JSWebKitAnimationEventConstructorENS1_12JSDOMWrapperEEEbPNS_9ExecStateEPKNS_9HashTableEPT_RKNS_10IdentifierERNS_12PropertySlotE@Base 2.2.1
 _ZN3JSC18getStaticValueSlotIN7WebCore33JSXMLHttpRequestUploadConstructorENS1_12JSDOMWrapperEEEbPNS_9ExecStateEPKNS_9HashTableEPT_RKNS_10IdentifierERNS_12PropertySlotE@Base 2.2.1
 _ZN3JSC18getStaticValueSlotIN7WebCore34JSHTMLBlockquoteElementConstructorENS1_12JSDOMWrapperEEEbPNS_9ExecStateEPKNS_9HashTableEPT_RKNS_10IdentifierERNS_12PropertySlotE@Base 2.2.1
 _ZN3JSC18getStaticValueSlotIN7WebCore34JSHTMLOptionsCollectionConstructorENS1_12JSDOMWrapperEEEbPNS_9ExecStateEPKNS_9HashTableEPT_RKNS_10IdentifierERNS_12PropertySlotE@Base 2.2.1
 _ZN3JSC18getStaticValueSlotIN7WebCore34JSInspectorFrontendHostConstructorENS1_12JSDOMWrapperEEEbPNS_9ExecStateEPKNS_9HashTableEPT_RKNS_10IdentifierERNS_12PropertySlotE@Base 2.2.1
 _ZN3JSC18getStaticValueSlotIN7WebCore34JSProcessingInstructionConstructorENS1_12JSDOMWrapperEEEbPNS_9ExecStateEPKNS_9HashTableEPT_RKNS_10IdentifierERNS_12PropertySlotE@Base 2.2.1
 _ZN3JSC18getStaticValueSlotIN7WebCore34JSSVGAnimatedLengthListConstructorENS1_12JSDOMWrapperEEEbPNS_9ExecStateEPKNS_9HashTableEPT_RKNS_10IdentifierERNS_12PropertySlotE@Base 2.2.1
 _ZN3JSC18getStaticValueSlotIN7WebCore34JSSVGAnimatedNumberListConstructorENS1_12JSDOMWrapperEEEbPNS_9ExecStateEPKNS_9HashTableEPT_RKNS_10IdentifierERNS_12PropertySlotE@Base 2.2.1
 _ZN3JSC18getStaticValueSlotIN7WebCore34JSSVGFECompositeElementConstructorENS1_12JSDOMWrapperEEEbPNS_9ExecStateEPKNS_9HashTableEPT_RKNS_10IdentifierERNS_12PropertySlotE@Base 2.2.1
 _ZN3JSC18getStaticValueSlotIN7WebCore34JSSVGFEMergeNodeElementConstructorENS1_12JSDOMWrapperEEEbPNS_9ExecStateEPKNS_9HashTableEPT_RKNS_10IdentifierERNS_12PropertySlotE@Base 2.2.1
 _ZN3JSC18getStaticValueSlotIN7WebCore34JSSVGFESpotLightElementConstructorENS1_12JSDOMWrapperEEEbPNS_9ExecStateEPKNS_9HashTableEPT_RKNS_10IdentifierERNS_12PropertySlotE@Base 2.2.1
 _ZN3JSC18getStaticValueSlotIN7WebCore34JSSVGFontFaceSrcElementConstructorENS1_12JSDOMWrapperEEEbPNS_9ExecStateEPKNS_9HashTableEPT_RKNS_10IdentifierERNS_12PropertySlotE@Base 2.2.1
 _ZN3JSC18getStaticValueSlotIN7WebCore34JSSVGFontFaceUriElementConstructorENS1_12JSDOMWrapperEEEbPNS_9ExecStateEPKNS_9HashTableEPT_RKNS_10IdentifierERNS_12PropertySlotE@Base 2.2.1
 _ZN3JSC18getStaticValueSlotIN7WebCore34JSSVGTextContentElementConstructorENS1_12JSDOMWrapperEEEbPNS_9ExecStateEPKNS_9HashTableEPT_RKNS_10IdentifierERNS_12PropertySlotE@Base 2.2.1
 _ZN3JSC18getStaticValueSlotIN7WebCore34JSWebKitCSSKeyframeRuleConstructorENS1_12JSDOMWrapperEEEbPNS_9ExecStateEPKNS_9HashTableEPT_RKNS_10IdentifierERNS_12PropertySlotE@Base 2.2.1
 _ZN3JSC18getStaticValueSlotIN7WebCore34JSWebKitCSSTransformValuePrototypeENS_8JSObjectEEEbPNS_9ExecStateEPKNS_9HashTableEPT_RKNS_10IdentifierERNS_12PropertySlotE@Base 2.2.1
 _ZN3JSC18getStaticValueSlotIN7WebCore34JSWebKitTransitionEventConstructorENS1_12JSDOMWrapperEEEbPNS_9ExecStateEPKNS_9HashTableEPT_RKNS_10IdentifierERNS_12PropertySlotE@Base 2.2.1
 _ZN3JSC18getStaticValueSlotIN7WebCore35JSCanvasRenderingContextConstructorENS1_12JSDOMWrapperEEEbPNS_9ExecStateEPKNS_9HashTableEPT_RKNS_10IdentifierERNS_12PropertySlotE@Base 2.2.1
 _ZN3JSC18getStaticValueSlotIN7WebCore35JSSVGAnimateColorElementConstructorENS1_12JSDOMWrapperEEEbPNS_9ExecStateEPKNS_9HashTableEPT_RKNS_10IdentifierERNS_12PropertySlotE@Base 2.2.1
 _ZN3JSC18getStaticValueSlotIN7WebCore35JSSVGAnimatedEnumerationConstructorENS1_12JSDOMWrapperEEEbPNS_9ExecStateEPKNS_9HashTableEPT_RKNS_10IdentifierERNS_12PropertySlotE@Base 2.2.1
 _ZN3JSC18getStaticValueSlotIN7WebCore35JSSVGElementInstanceListConstructorENS1_12JSDOMWrapperEEEbPNS_9ExecStateEPKNS_9HashTableEPT_RKNS_10IdentifierERNS_12PropertySlotE@Base 2.2.1
 _ZN3JSC18getStaticValueSlotIN7WebCore35JSSVGFEDropShadowElementConstructorENS1_12JSDOMWrapperEEEbPNS_9ExecStateEPKNS_9HashTableEPT_RKNS_10IdentifierERNS_12PropertySlotE@Base 2.2.1
 _ZN3JSC18getStaticValueSlotIN7WebCore35JSSVGFEMorphologyElementConstructorENS1_12JSDOMWrapperEEEbPNS_9ExecStateEPKNS_9HashTableEPT_RKNS_10IdentifierERNS_12PropertySlotE@Base 2.2.1
 _ZN3JSC18getStaticValueSlotIN7WebCore35JSSVGFEPointLightElementConstructorENS1_12JSDOMWrapperEEEbPNS_9ExecStateEPKNS_9HashTableEPT_RKNS_10IdentifierERNS_12PropertySlotE@Base 2.2.1
 _ZN3JSC18getStaticValueSlotIN7WebCore35JSSVGFETurbulenceElementConstructorENS1_12JSDOMWrapperEEEbPNS_9ExecStateEPKNS_9HashTableEPT_RKNS_10IdentifierERNS_12PropertySlotE@Base 2.2.1
 _ZN3JSC18getStaticValueSlotIN7WebCore35JSSVGFontFaceNameElementConstructorENS1_12JSDOMWrapperEEEbPNS_9ExecStateEPKNS_9HashTableEPT_RKNS_10IdentifierERNS_12PropertySlotE@Base 2.2.1
 _ZN3JSC18getStaticValueSlotIN7WebCore35JSSVGMissingGlyphElementConstructorENS1_12JSDOMWrapperEEEbPNS_9ExecStateEPKNS_9HashTableEPT_RKNS_10IdentifierERNS_12PropertySlotE@Base 2.2.1
 _ZN3JSC18getStaticValueSlotIN7WebCore35JSSVGPreserveAspectRatioConstructorENS1_12JSDOMWrapperEEEbPNS_9ExecStateEPKNS_9HashTableEPT_RKNS_10IdentifierERNS_12PropertySlotE@Base 2.2.1
 _ZN3JSC18getStaticValueSlotIN7WebCore35JSWebKitCSSKeyframesRuleConstructorENS1_12JSDOMWrapperEEEbPNS_9ExecStateEPKNS_9HashTableEPT_RKNS_10IdentifierERNS_12PropertySlotE@Base 2.2.1
 _ZN3JSC18getStaticValueSlotIN7WebCore36JSHTMLTableCaptionElementConstructorENS1_12JSDOMWrapperEEEbPNS_9ExecStateEPKNS_9HashTableEPT_RKNS_10IdentifierERNS_12PropertySlotE@Base 2.2.1
 _ZN3JSC18getStaticValueSlotIN7WebCore36JSHTMLTableSectionElementConstructorENS1_12JSDOMWrapperEEEbPNS_9ExecStateEPKNS_9HashTableEPT_RKNS_10IdentifierERNS_12PropertySlotE@Base 2.2.1
 _ZN3JSC18getStaticValueSlotIN7WebCore36JSSVGFEColorMatrixElementConstructorENS1_12JSDOMWrapperEEEbPNS_9ExecStateEPKNS_9HashTableEPT_RKNS_10IdentifierERNS_12PropertySlotE@Base 2.2.1
 _ZN3JSC18getStaticValueSlotIN7WebCore36JSSVGForeignObjectElementConstructorENS1_12JSDOMWrapperEEEbPNS_9ExecStateEPKNS_9HashTableEPT_RKNS_10IdentifierERNS_12PropertySlotE@Base 2.2.1
 _ZN3JSC18getStaticValueSlotIN7WebCore36JSWebKitCSSTransformValueConstructorENS1_12JSDOMWrapperEEEbPNS_9ExecStateEPKNS_9HashTableEPT_RKNS_10IdentifierERNS_12PropertySlotE@Base 2.2.1
 _ZN3JSC18getStaticValueSlotIN7WebCore36JSXMLHttpRequestExceptionConstructorENS1_12JSDOMWrapperEEEbPNS_9ExecStateEPKNS_9HashTableEPT_RKNS_10IdentifierERNS_12PropertySlotE@Base 2.2.1
 _ZN3JSC18getStaticValueSlotIN7WebCore37JSCanvasRenderingContext2DConstructorENS1_12JSDOMWrapperEEEbPNS_9ExecStateEPKNS_9HashTableEPT_RKNS_10IdentifierERNS_12PropertySlotE@Base 2.2.1
 _ZN3JSC18getStaticValueSlotIN7WebCore37JSSVGAnimatedTransformListConstructorENS1_12JSDOMWrapperEEEbPNS_9ExecStateEPKNS_9HashTableEPT_RKNS_10IdentifierERNS_12PropertySlotE@Base 2.2.1
 _ZN3JSC18getStaticValueSlotIN7WebCore37JSSVGComponentTransferFunctionElementENS1_12JSSVGElementEEEbPNS_9ExecStateEPKNS_9HashTableEPT_RKNS_10IdentifierERNS_12PropertySlotE@Base 2.2.1
 _ZN3JSC18getStaticValueSlotIN7WebCore37JSSVGFEDistantLightElementConstructorENS1_12JSDOMWrapperEEEbPNS_9ExecStateEPKNS_9HashTableEPT_RKNS_10IdentifierERNS_12PropertySlotE@Base 2.2.1
 _ZN3JSC18getStaticValueSlotIN7WebCore37JSSVGFEGaussianBlurElementConstructorENS1_12JSDOMWrapperEEEbPNS_9ExecStateEPKNS_9HashTableEPT_RKNS_10IdentifierERNS_12PropertySlotE@Base 2.2.1
 _ZN3JSC18getStaticValueSlotIN7WebCore37JSSVGFontFaceFormatElementConstructorENS1_12JSDOMWrapperEEEbPNS_9ExecStateEPKNS_9HashTableEPT_RKNS_10IdentifierERNS_12PropertySlotE@Base 2.2.1
 _ZN3JSC18getStaticValueSlotIN7WebCore37JSSVGLinearGradientElementConstructorENS1_12JSDOMWrapperEEEbPNS_9ExecStateEPKNS_9HashTableEPT_RKNS_10IdentifierERNS_12PropertySlotE@Base 2.2.1
 _ZN3JSC18getStaticValueSlotIN7WebCore37JSSVGPathSegCurvetoQuadraticSmoothAbsENS1_12JSSVGPathSegEEEbPNS_9ExecStateEPKNS_9HashTableEPT_RKNS_10IdentifierERNS_12PropertySlotE@Base 2.2.1
 _ZN3JSC18getStaticValueSlotIN7WebCore37JSSVGPathSegCurvetoQuadraticSmoothRelENS1_12JSSVGPathSegEEEbPNS_9ExecStateEPKNS_9HashTableEPT_RKNS_10IdentifierERNS_12PropertySlotE@Base 2.2.1
 _ZN3JSC18getStaticValueSlotIN7WebCore37JSSVGRadialGradientElementConstructorENS1_12JSDOMWrapperEEEbPNS_9ExecStateEPKNS_9HashTableEPT_RKNS_10IdentifierERNS_12PropertySlotE@Base 2.2.1
 _ZN3JSC18getStaticValueSlotIN7WebCore38JSSVGPathSegCurvetoCubicAbsConstructorENS1_12JSDOMWrapperEEEbPNS_9ExecStateEPKNS_9HashTableEPT_RKNS_10IdentifierERNS_12PropertySlotE@Base 2.2.1
 _ZN3JSC18getStaticValueSlotIN7WebCore38JSSVGPathSegCurvetoCubicRelConstructorENS1_12JSDOMWrapperEEEbPNS_9ExecStateEPKNS_9HashTableEPT_RKNS_10IdentifierERNS_12PropertySlotE@Base 2.2.1
 _ZN3JSC18getStaticValueSlotIN7WebCore38JSSVGTextPositioningElementConstructorENS1_12JSDOMWrapperEEEbPNS_9ExecStateEPKNS_9HashTableEPT_RKNS_10IdentifierERNS_12PropertySlotE@Base 2.2.1
 _ZN3JSC18getStaticValueSlotIN7WebCore39JSSVGAnimateTransformElementConstructorENS1_12JSDOMWrapperEEEbPNS_9ExecStateEPKNS_9HashTableEPT_RKNS_10IdentifierERNS_12PropertySlotE@Base 2.2.1
 _ZN3JSC18getStaticValueSlotIN7WebCore39JSSVGFEConvolveMatrixElementConstructorENS1_12JSDOMWrapperEEEbPNS_9ExecStateEPKNS_9HashTableEPT_RKNS_10IdentifierERNS_12PropertySlotE@Base 2.2.1
 _ZN3JSC18getStaticValueSlotIN7WebCore40JSSVGFEDiffuseLightingElementConstructorENS1_12JSDOMWrapperEEEbPNS_9ExecStateEPKNS_9HashTableEPT_RKNS_10IdentifierERNS_12PropertySlotE@Base 2.2.1
 _ZN3JSC18getStaticValueSlotIN7WebCore40JSSVGFEDisplacementMapElementConstructorENS1_12JSDOMWrapperEEEbPNS_9ExecStateEPKNS_9HashTableEPT_RKNS_10IdentifierERNS_12PropertySlotE@Base 2.2.1
 _ZN3JSC18getStaticValueSlotIN7WebCore40JSSVGPathSegLinetoVerticalAbsConstructorENS1_12JSDOMWrapperEEEbPNS_9ExecStateEPKNS_9HashTableEPT_RKNS_10IdentifierERNS_12PropertySlotE@Base 2.2.1
 _ZN3JSC18getStaticValueSlotIN7WebCore40JSSVGPathSegLinetoVerticalRelConstructorENS1_12JSDOMWrapperEEEbPNS_9ExecStateEPKNS_9HashTableEPT_RKNS_10IdentifierERNS_12PropertySlotE@Base 2.2.1
 _ZN3JSC18getStaticValueSlotIN7WebCore40JSXMLHttpRequestProgressEventConstructorENS1_12JSDOMWrapperEEEbPNS_9ExecStateEPKNS_9HashTableEPT_RKNS_10IdentifierERNS_12PropertySlotE@Base 2.2.1
 _ZN3JSC18getStaticValueSlotIN7WebCore41JSSVGFESpecularLightingElementConstructorENS1_12JSDOMWrapperEEEbPNS_9ExecStateEPKNS_9HashTableEPT_RKNS_10IdentifierERNS_12PropertySlotE@Base 2.2.1
 _ZN3JSC18getStaticValueSlotIN7WebCore42JSSVGFEComponentTransferElementConstructorENS1_12JSDOMWrapperEEEbPNS_9ExecStateEPKNS_9HashTableEPT_RKNS_10IdentifierERNS_12PropertySlotE@Base 2.2.1
 _ZN3JSC18getStaticValueSlotIN7WebCore42JSSVGPathSegCurvetoQuadraticAbsConstructorENS1_12JSDOMWrapperEEEbPNS_9ExecStateEPKNS_9HashTableEPT_RKNS_10IdentifierERNS_12PropertySlotE@Base 2.2.1
 _ZN3JSC18getStaticValueSlotIN7WebCore42JSSVGPathSegCurvetoQuadraticRelConstructorENS1_12JSDOMWrapperEEEbPNS_9ExecStateEPKNS_9HashTableEPT_RKNS_10IdentifierERNS_12PropertySlotE@Base 2.2.1
 _ZN3JSC18getStaticValueSlotIN7WebCore42JSSVGPathSegLinetoHorizontalAbsConstructorENS1_12JSDOMWrapperEEEbPNS_9ExecStateEPKNS_9HashTableEPT_RKNS_10IdentifierERNS_12PropertySlotE@Base 2.2.1
 _ZN3JSC18getStaticValueSlotIN7WebCore42JSSVGPathSegLinetoHorizontalRelConstructorENS1_12JSDOMWrapperEEEbPNS_9ExecStateEPKNS_9HashTableEPT_RKNS_10IdentifierERNS_12PropertySlotE@Base 2.2.1
 _ZN3JSC18getStaticValueSlotIN7WebCore43JSSVGAnimatedPreserveAspectRatioConstructorENS1_12JSDOMWrapperEEEbPNS_9ExecStateEPKNS_9HashTableEPT_RKNS_10IdentifierERNS_12PropertySlotE@Base 2.2.1
 _ZN3JSC18getStaticValueSlotIN7WebCore44JSSVGPathSegCurvetoCubicSmoothAbsConstructorENS1_12JSDOMWrapperEEEbPNS_9ExecStateEPKNS_9HashTableEPT_RKNS_10IdentifierERNS_12PropertySlotE@Base 2.2.1
 _ZN3JSC18getStaticValueSlotIN7WebCore44JSSVGPathSegCurvetoCubicSmoothRelConstructorENS1_12JSDOMWrapperEEEbPNS_9ExecStateEPKNS_9HashTableEPT_RKNS_10IdentifierERNS_12PropertySlotE@Base 2.2.1
 _ZN3JSC18getStaticValueSlotIN7WebCore46JSSVGComponentTransferFunctionElementPrototypeENS_8JSObjectEEEbPNS_9ExecStateEPKNS_9HashTableEPT_RKNS_10IdentifierERNS_12PropertySlotE@Base 2.2.1
 _ZN3JSC18getStaticValueSlotIN7WebCore48JSSVGComponentTransferFunctionElementConstructorENS1_12JSDOMWrapperEEEbPNS_9ExecStateEPKNS_9HashTableEPT_RKNS_10IdentifierERNS_12PropertySlotE@Base 2.2.1
 _ZN3JSC18getStaticValueSlotIN7WebCore48JSSVGPathSegCurvetoQuadraticSmoothAbsConstructorENS1_12JSDOMWrapperEEEbPNS_9ExecStateEPKNS_9HashTableEPT_RKNS_10IdentifierERNS_12PropertySlotE@Base 2.2.1
 _ZN3JSC18getStaticValueSlotIN7WebCore48JSSVGPathSegCurvetoQuadraticSmoothRelConstructorENS1_12JSDOMWrapperEEEbPNS_9ExecStateEPKNS_9HashTableEPT_RKNS_10IdentifierERNS_12PropertySlotE@Base 2.2.1
 _ZN3JSC18getStaticValueSlotIN7WebCore6JSAttrENS1_6JSNodeEEEbPNS_9ExecStateEPKNS_9HashTableEPT_RKNS_10IdentifierERNS_12PropertySlotE@Base 2.2.1
 _ZN3JSC18getStaticValueSlotIN7WebCore6JSBlobENS1_12JSDOMWrapperEEEbPNS_9ExecStateEPKNS_9HashTableEPT_RKNS_10IdentifierERNS_12PropertySlotE@Base 2.2.1
 _ZN3JSC18getStaticValueSlotIN7WebCore6JSFileENS1_6JSBlobEEEbPNS_9ExecStateEPKNS_9HashTableEPT_RKNS_10IdentifierERNS_12PropertySlotE@Base 2.2.1
 _ZN3JSC18getStaticValueSlotIN7WebCore6JSNodeENS1_12JSDOMWrapperEEEbPNS_9ExecStateEPKNS_9HashTableEPT_RKNS_10IdentifierERNS_12PropertySlotE@Base 2.2.1
 _ZN3JSC18getStaticValueSlotIN7WebCore6JSRectENS1_12JSDOMWrapperEEEbPNS_9ExecStateEPKNS_9HashTableEPT_RKNS_10IdentifierERNS_12PropertySlotE@Base 2.2.1
 _ZN3JSC18getStaticValueSlotIN7WebCore6JSTextENS1_15JSCharacterDataEEEbPNS_9ExecStateEPKNS_9HashTableEPT_RKNS_10IdentifierERNS_12PropertySlotE@Base 2.2.1
 _ZN3JSC18getStaticValueSlotIN7WebCore7JSEventENS1_12JSDOMWrapperEEEbPNS_9ExecStateEPKNS_9HashTableEPT_RKNS_10IdentifierERNS_12PropertySlotE@Base 2.2.1
 _ZN3JSC18getStaticValueSlotIN7WebCore7JSRangeENS1_12JSDOMWrapperEEEbPNS_9ExecStateEPKNS_9HashTableEPT_RKNS_10IdentifierERNS_12PropertySlotE@Base 2.2.1
 _ZN3JSC18getStaticValueSlotIN7WebCore7JSTouchENS1_12JSDOMWrapperEEEbPNS_9ExecStateEPKNS_9HashTableEPT_RKNS_10IdentifierERNS_12PropertySlotE@Base 2.2.1
 _ZN3JSC18getStaticValueSlotIN7WebCore8JSEntityENS1_6JSNodeEEEbPNS_9ExecStateEPKNS_9HashTableEPT_RKNS_10IdentifierERNS_12PropertySlotE@Base 2.2.1
 _ZN3JSC18getStaticValueSlotIN7WebCore8JSScreenENS1_12JSDOMWrapperEEEbPNS_9ExecStateEPKNS_9HashTableEPT_RKNS_10IdentifierERNS_12PropertySlotE@Base 2.2.1
 _ZN3JSC18getStaticValueSlotIN7WebCore8JSWorkerENS1_16JSAbstractWorkerEEEbPNS_9ExecStateEPKNS_9HashTableEPT_RKNS_10IdentifierERNS_12PropertySlotE@Base 2.2.1
 _ZN3JSC18getStaticValueSlotIN7WebCore9JSBarInfoENS1_12JSDOMWrapperEEEbPNS_9ExecStateEPKNS_9HashTableEPT_RKNS_10IdentifierERNS_12PropertySlotE@Base 2.2.1
 _ZN3JSC18getStaticValueSlotIN7WebCore9JSCSSRuleENS1_12JSDOMWrapperEEEbPNS_9ExecStateEPKNS_9HashTableEPT_RKNS_10IdentifierERNS_12PropertySlotE@Base 2.2.1
 _ZN3JSC18getStaticValueSlotIN7WebCore9JSCommentENS1_15JSCharacterDataEEEbPNS_9ExecStateEPKNS_9HashTableEPT_RKNS_10IdentifierERNS_12PropertySlotE@Base 2.2.1
 _ZN3JSC18getStaticValueSlotIN7WebCore9JSConsoleENS1_12JSDOMWrapperEEEbPNS_9ExecStateEPKNS_9HashTableEPT_RKNS_10IdentifierERNS_12PropertySlotE@Base 2.2.1
 _ZN3JSC18getStaticValueSlotIN7WebCore9JSCounterENS1_12JSDOMWrapperEEEbPNS_9ExecStateEPKNS_9HashTableEPT_RKNS_10IdentifierERNS_12PropertySlotE@Base 2.2.1
 _ZN3JSC18getStaticValueSlotIN7WebCore9JSElementENS1_6JSNodeEEEbPNS_9ExecStateEPKNS_9HashTableEPT_RKNS_10IdentifierERNS_12PropertySlotE@Base 2.2.1
 _ZN3JSC18getStaticValueSlotIN7WebCore9JSHistoryENS1_12JSDOMWrapperEEEbPNS_9ExecStateEPKNS_9HashTableEPT_RKNS_10IdentifierERNS_12PropertySlotE@Base 2.2.1
 _ZN3JSC18getStaticValueSlotIN7WebCore9JSSVGRectENS1_12JSDOMWrapperEEEbPNS_9ExecStateEPKNS_9HashTableEPT_RKNS_10IdentifierERNS_12PropertySlotE@Base 2.2.1
 _ZN3JSC18getStaticValueSlotIN7WebCore9JSUIEventENS1_7JSEventEEEbPNS_9ExecStateEPKNS_9HashTableEPT_RKNS_10IdentifierERNS_12PropertySlotE@Base 2.2.1
 _ZN3JSC21getStaticFunctionSlotINS_8JSObjectEEEbPNS_9ExecStateEPKNS_9HashTableEPS1_RKNS_10IdentifierERNS_12PropertySlotE@Base 2.2.1
 _ZN3JSC21getStaticPropertySlotIN7WebCore15JSNodePrototypeENS_8JSObjectEEEbPNS_9ExecStateEPKNS_9HashTableEPT_RKNS_10IdentifierERNS_12PropertySlotE@Base 2.2.1
 _ZN3JSC21getStaticPropertySlotIN7WebCore16JSEventPrototypeENS_8JSObjectEEEbPNS_9ExecStateEPKNS_9HashTableEPT_RKNS_10IdentifierERNS_12PropertySlotE@Base 2.2.1
 _ZN3JSC21getStaticPropertySlotIN7WebCore16JSRangePrototypeENS_8JSObjectEEEbPNS_9ExecStateEPKNS_9HashTableEPT_RKNS_10IdentifierERNS_12PropertySlotE@Base 2.2.1
 _ZN3JSC21getStaticPropertySlotIN7WebCore19JSSVGAnglePrototypeENS_8JSObjectEEEbPNS_9ExecStateEPKNS_9HashTableEPT_RKNS_10IdentifierERNS_12PropertySlotE@Base 2.2.1
 _ZN3JSC21getStaticPropertySlotIN7WebCore19JSSVGColorPrototypeENS_8JSObjectEEEbPNS_9ExecStateEPKNS_9HashTableEPT_RKNS_10IdentifierERNS_12PropertySlotE@Base 2.2.1
 _ZN3JSC21getStaticPropertySlotIN7WebCore19JSSVGPaintPrototypeENS_8JSObjectEEEbPNS_9ExecStateEPKNS_9HashTableEPT_RKNS_10IdentifierERNS_12PropertySlotE@Base 2.2.1
 _ZN3JSC21getStaticPropertySlotIN7WebCore20JSInt8ArrayPrototypeENS_8JSObjectEEEbPNS_9ExecStateEPKNS_9HashTableEPT_RKNS_10IdentifierERNS_12PropertySlotE@Base 2.2.1
 _ZN3JSC21getStaticPropertySlotIN7WebCore20JSSVGLengthPrototypeENS_8JSObjectEEEbPNS_9ExecStateEPKNS_9HashTableEPT_RKNS_10IdentifierERNS_12PropertySlotE@Base 2.2.1
 _ZN3JSC21getStaticPropertySlotIN7WebCore20JSWebSocketPrototypeENS_8JSObjectEEEbPNS_9ExecStateEPKNS_9HashTableEPT_RKNS_10IdentifierERNS_12PropertySlotE@Base 2.2.1
 _ZN3JSC21getStaticPropertySlotIN7WebCore21JSFileReaderPrototypeENS_8JSObjectEEEbPNS_9ExecStateEPKNS_9HashTableEPT_RKNS_10IdentifierERNS_12PropertySlotE@Base 2.2.1
 _ZN3JSC21getStaticPropertySlotIN7WebCore21JSInt16ArrayPrototypeENS_8JSObjectEEEbPNS_9ExecStateEPKNS_9HashTableEPT_RKNS_10IdentifierERNS_12PropertySlotE@Base 2.2.1
 _ZN3JSC21getStaticPropertySlotIN7WebCore21JSInt32ArrayPrototypeENS_8JSObjectEEEbPNS_9ExecStateEPKNS_9HashTableEPT_RKNS_10IdentifierERNS_12PropertySlotE@Base 2.2.1
 _ZN3JSC21getStaticPropertySlotIN7WebCore21JSNodeFilterPrototypeENS_8JSObjectEEEbPNS_9ExecStateEPKNS_9HashTableEPT_RKNS_10IdentifierERNS_12PropertySlotE@Base 2.2.1
 _ZN3JSC21getStaticPropertySlotIN7WebCore21JSUint8ArrayPrototypeENS_8JSObjectEEEbPNS_9ExecStateEPKNS_9HashTableEPT_RKNS_10IdentifierERNS_12PropertySlotE@Base 2.2.1
 _ZN3JSC21getStaticPropertySlotIN7WebCore22JSEventSourcePrototypeENS_8JSObjectEEEbPNS_9ExecStateEPKNS_9HashTableEPT_RKNS_10IdentifierERNS_12PropertySlotE@Base 2.2.1
 _ZN3JSC21getStaticPropertySlotIN7WebCore22JSUint16ArrayPrototypeENS_8JSObjectEEEbPNS_9ExecStateEPKNS_9HashTableEPT_RKNS_10IdentifierERNS_12PropertySlotE@Base 2.2.1
 _ZN3JSC21getStaticPropertySlotIN7WebCore22JSUint32ArrayPrototypeENS_8JSObjectEEEbPNS_9ExecStateEPKNS_9HashTableEPT_RKNS_10IdentifierERNS_12PropertySlotE@Base 2.2.1
 _ZN3JSC21getStaticPropertySlotIN7WebCore22JSXPathResultPrototypeENS_8JSObjectEEEbPNS_9ExecStateEPKNS_9HashTableEPT_RKNS_10IdentifierERNS_12PropertySlotE@Base 2.2.1
 _ZN3JSC21getStaticPropertySlotIN7WebCore23JSFloat32ArrayPrototypeENS_8JSObjectEEEbPNS_9ExecStateEPKNS_9HashTableEPT_RKNS_10IdentifierERNS_12PropertySlotE@Base 2.2.1
 _ZN3JSC21getStaticPropertySlotIN7WebCore23JSSVGExceptionPrototypeENS_8JSObjectEEEbPNS_9ExecStateEPKNS_9HashTableEPT_RKNS_10IdentifierERNS_12PropertySlotE@Base 2.2.1
 _ZN3JSC21getStaticPropertySlotIN7WebCore23JSSVGTransformPrototypeENS_8JSObjectEEEbPNS_9ExecStateEPKNS_9HashTableEPT_RKNS_10IdentifierERNS_12PropertySlotE@Base 2.2.1
 _ZN3JSC21getStaticPropertySlotIN7WebCore24JSFileExceptionPrototypeENS_8JSObjectEEEbPNS_9ExecStateEPKNS_9HashTableEPT_RKNS_10IdentifierERNS_12PropertySlotE@Base 2.2.1
 _ZN3JSC21getStaticPropertySlotIN7WebCore24JSMutationEventPrototypeENS_8JSObjectEEEbPNS_9ExecStateEPKNS_9HashTableEPT_RKNS_10IdentifierERNS_12PropertySlotE@Base 2.2.1
 _ZN3JSC21getStaticPropertySlotIN7WebCore24JSOverflowEventPrototypeENS_8JSObjectEEEbPNS_9ExecStateEPKNS_9HashTableEPT_RKNS_10IdentifierERNS_12PropertySlotE@Base 2.2.1
 _ZN3JSC21getStaticPropertySlotIN7WebCore24JSSVGSVGElementPrototypeENS_8JSObjectEEEbPNS_9ExecStateEPKNS_9HashTableEPT_RKNS_10IdentifierERNS_12PropertySlotE@Base 2.2.1
 _ZN3JSC21getStaticPropertySlotIN7WebCore25JSEventExceptionPrototypeENS_8JSObjectEEEbPNS_9ExecStateEPKNS_9HashTableEPT_RKNS_10IdentifierERNS_12PropertySlotE@Base 2.2.1
 _ZN3JSC21getStaticPropertySlotIN7WebCore25JSRangeExceptionPrototypeENS_8JSObjectEEEbPNS_9ExecStateEPKNS_9HashTableEPT_RKNS_10IdentifierERNS_12PropertySlotE@Base 2.2.1
 _ZN3JSC21getStaticPropertySlotIN7WebCore25JSXMLHttpRequestPrototypeENS_8JSObjectEEEbPNS_9ExecStateEPKNS_9HashTableEPT_RKNS_10IdentifierERNS_12PropertySlotE@Base 2.2.1
 _ZN3JSC21getStaticPropertySlotIN7WebCore25JSXPathExceptionPrototypeENS_8JSObjectEEEbPNS_9ExecStateEPKNS_9HashTableEPT_RKNS_10IdentifierERNS_12PropertySlotE@Base 2.2.1
 _ZN3JSC21getStaticPropertySlotIN7WebCore26JSWebKitAnimationPrototypeENS_8JSObjectEEEbPNS_9ExecStateEPKNS_9HashTableEPT_RKNS_10IdentifierERNS_12PropertySlotE@Base 2.2.1
 _ZN3JSC21getStaticPropertySlotIN7WebCore27JSDOMCoreExceptionPrototypeENS_8JSObjectEEEbPNS_9ExecStateEPKNS_9HashTableEPT_RKNS_10IdentifierERNS_12PropertySlotE@Base 2.2.1
 _ZN3JSC21getStaticPropertySlotIN7WebCore27JSHTMLMediaElementPrototypeENS_8JSObjectEEEbPNS_9ExecStateEPKNS_9HashTableEPT_RKNS_10IdentifierERNS_12PropertySlotE@Base 2.2.1
 _ZN3JSC21getStaticPropertySlotIN7WebCore27JSSVGMarkerElementPrototypeENS_8JSObjectEEEbPNS_9ExecStateEPKNS_9HashTableEPT_RKNS_10IdentifierERNS_12PropertySlotE@Base 2.2.1
 _ZN3JSC21getStaticPropertySlotIN7WebCore28JSCSSPrimitiveValuePrototypeENS_8JSObjectEEEbPNS_9ExecStateEPKNS_9HashTableEPT_RKNS_10IdentifierERNS_12PropertySlotE@Base 2.2.1
 _ZN3JSC21getStaticPropertySlotIN7WebCore28JSSVGFEBlendElementPrototypeENS_8JSObjectEEEbPNS_9ExecStateEPKNS_9HashTableEPT_RKNS_10IdentifierERNS_12PropertySlotE@Base 2.2.1
 _ZN3JSC21getStaticPropertySlotIN7WebCore29JSSVGGradientElementPrototypeENS_8JSObjectEEEbPNS_9ExecStateEPKNS_9HashTableEPT_RKNS_10IdentifierERNS_12PropertySlotE@Base 2.2.1
 _ZN3JSC21getStaticPropertySlotIN7WebCore30JSDOMApplicationCachePrototypeENS_8JSObjectEEEbPNS_9ExecStateEPKNS_9HashTableEPT_RKNS_10IdentifierERNS_12PropertySlotE@Base 2.2.1
 _ZN3JSC21getStaticPropertySlotIN7WebCore30JSJavaScriptCallFramePrototypeENS_8JSObjectEEEbPNS_9ExecStateEPKNS_9HashTableEPT_RKNS_10IdentifierERNS_12PropertySlotE@Base 2.2.1
 _ZN3JSC21getStaticPropertySlotIN7WebCore32JSSVGFECompositeElementPrototypeENS_8JSObjectEEEbPNS_9ExecStateEPKNS_9HashTableEPT_RKNS_10IdentifierERNS_12PropertySlotE@Base 2.2.1
 _ZN3JSC21getStaticPropertySlotIN7WebCore32JSSVGTextContentElementPrototypeENS_8JSObjectEEEbPNS_9ExecStateEPKNS_9HashTableEPT_RKNS_10IdentifierERNS_12PropertySlotE@Base 2.2.1
 _ZN3JSC21getStaticPropertySlotIN7WebCore33JSSVGFEMorphologyElementPrototypeENS_8JSObjectEEEbPNS_9ExecStateEPKNS_9HashTableEPT_RKNS_10IdentifierERNS_12PropertySlotE@Base 2.2.1
 _ZN3JSC21getStaticPropertySlotIN7WebCore33JSSVGFETurbulenceElementPrototypeENS_8JSObjectEEEbPNS_9ExecStateEPKNS_9HashTableEPT_RKNS_10IdentifierERNS_12PropertySlotE@Base 2.2.1
 _ZN3JSC21getStaticPropertySlotIN7WebCore34JSSVGFEColorMatrixElementPrototypeENS_8JSObjectEEEbPNS_9ExecStateEPKNS_9HashTableEPT_RKNS_10IdentifierERNS_12PropertySlotE@Base 2.2.1
 _ZN3JSC21getStaticPropertySlotIN7WebCore34JSXMLHttpRequestExceptionPrototypeENS_8JSObjectEEEbPNS_9ExecStateEPKNS_9HashTableEPT_RKNS_10IdentifierERNS_12PropertySlotE@Base 2.2.1
 _ZN3JSC21getStaticPropertySlotIN7WebCore37JSSVGFEConvolveMatrixElementPrototypeENS_8JSObjectEEEbPNS_9ExecStateEPKNS_9HashTableEPT_RKNS_10IdentifierERNS_12PropertySlotE@Base 2.2.1
 _ZN3JSC21getStaticPropertySlotIN7WebCore38JSSVGFEDisplacementMapElementPrototypeENS_8JSObjectEEEbPNS_9ExecStateEPKNS_9HashTableEPT_RKNS_10IdentifierERNS_12PropertySlotE@Base 2.2.1
 _ZN3JSC24getStaticValueDescriptorIN7WebCore10JSCSSValueENS1_12JSDOMWrapperEEEbPNS_9ExecStateEPKNS_9HashTableEPT_RKNS_10IdentifierERNS_18PropertyDescriptorE@Base 2.2.1
 _ZN3JSC24getStaticValueDescriptorIN7WebCore10JSDataViewENS1_17JSArrayBufferViewEEEbPNS_9ExecStateEPKNS_9HashTableEPT_RKNS_10IdentifierERNS_18PropertyDescriptorE@Base 2.2.1
 _ZN3JSC24getStaticValueDescriptorIN7WebCore10JSDatabaseENS1_12JSDOMWrapperEEEbPNS_9ExecStateEPKNS_9HashTableEPT_RKNS_10IdentifierERNS_18PropertyDescriptorE@Base 2.2.1
 _ZN3JSC24getStaticValueDescriptorIN7WebCore10JSDocumentENS1_6JSNodeEEEbPNS_9ExecStateEPKNS_9HashTableEPT_RKNS_10IdentifierERNS_18PropertyDescriptorE@Base 2.2.1
 _ZN3JSC24getStaticValueDescriptorIN7WebCore10JSFileListENS1_12JSDOMWrapperEEEbPNS_9ExecStateEPKNS_9HashTableEPT_RKNS_10IdentifierERNS_18PropertyDescriptorE@Base 2.2.1
 _ZN3JSC24getStaticValueDescriptorIN7WebCore10JSLocationENS1_12JSDOMWrapperEEEbPNS_9ExecStateEPKNS_9HashTableEPT_RKNS_10IdentifierERNS_18PropertyDescriptorE@Base 2.2.1
 _ZN3JSC24getStaticValueDescriptorIN7WebCore10JSNodeListENS1_12JSDOMWrapperEEEbPNS_9ExecStateEPKNS_9HashTableEPT_RKNS_10IdentifierERNS_18PropertyDescriptorE@Base 2.2.1
 _ZN3JSC24getStaticValueDescriptorIN7WebCore10JSNotationENS1_6JSNodeEEEbPNS_9ExecStateEPKNS_9HashTableEPT_RKNS_10IdentifierERNS_18PropertyDescriptorE@Base 2.2.1
 _ZN3JSC24getStaticValueDescriptorIN7WebCore10JSRGBColorENS1_12JSDOMWrapperEEEbPNS_9ExecStateEPKNS_9HashTableEPT_RKNS_10IdentifierERNS_18PropertyDescriptorE@Base 2.2.1
 _ZN3JSC24getStaticValueDescriptorIN7WebCore10JSSQLErrorENS1_12JSDOMWrapperEEEbPNS_9ExecStateEPKNS_9HashTableEPT_RKNS_10IdentifierERNS_18PropertyDescriptorE@Base 2.2.1
 _ZN3JSC24getStaticValueDescriptorIN7WebCore10JSSVGAngleENS1_12JSDOMWrapperEEEbPNS_9ExecStateEPKNS_9HashTableEPT_RKNS_10IdentifierERNS_18PropertyDescriptorE@Base 2.2.1
 _ZN3JSC24getStaticValueDescriptorIN7WebCore10JSSVGColorENS1_10JSCSSValueEEEbPNS_9ExecStateEPKNS_9HashTableEPT_RKNS_10IdentifierERNS_18PropertyDescriptorE@Base 2.2.1
 _ZN3JSC24getStaticValueDescriptorIN7WebCore10JSSVGPaintENS1_10JSSVGColorEEEbPNS_9ExecStateEPKNS_9HashTableEPT_RKNS_10IdentifierERNS_18PropertyDescriptorE@Base 2.2.1
 _ZN3JSC24getStaticValueDescriptorIN7WebCore10JSSVGPointENS1_12JSDOMWrapperEEEbPNS_9ExecStateEPKNS_9HashTableEPT_RKNS_10IdentifierERNS_18PropertyDescriptorE@Base 2.2.1
 _ZN3JSC24getStaticValueDescriptorIN7WebCore11JSClipboardENS1_12JSDOMWrapperEEEbPNS_9ExecStateEPKNS_9HashTableEPT_RKNS_10IdentifierERNS_18PropertyDescriptorE@Base 2.2.1
 _ZN3JSC24getStaticValueDescriptorIN7WebCore11JSDOMParserENS1_12JSDOMWrapperEEEbPNS_9ExecStateEPKNS_9HashTableEPT_RKNS_10IdentifierERNS_18PropertyDescriptorE@Base 2.2.1
 _ZN3JSC24getStaticValueDescriptorIN7WebCore11JSDOMPluginENS1_12JSDOMWrapperEEEbPNS_9ExecStateEPKNS_9HashTableEPT_RKNS_10IdentifierERNS_18PropertyDescriptorE@Base 2.2.1
 _ZN3JSC24getStaticValueDescriptorIN7WebCore11JSFileErrorENS1_12JSDOMWrapperEEEbPNS_9ExecStateEPKNS_9HashTableEPT_RKNS_10IdentifierERNS_18PropertyDescriptorE@Base 2.2.1
 _ZN3JSC24getStaticValueDescriptorIN7WebCore11JSImageDataENS1_12JSDOMWrapperEEEbPNS_9ExecStateEPKNS_9HashTableEPT_RKNS_10IdentifierERNS_18PropertyDescriptorE@Base 2.2.1
 _ZN3JSC24getStaticValueDescriptorIN7WebCore11JSInt8ArrayENS1_17JSArrayBufferViewEEEbPNS_9ExecStateEPKNS_9HashTableEPT_RKNS_10IdentifierERNS_18PropertyDescriptorE@Base 2.2.1
 _ZN3JSC24getStaticValueDescriptorIN7WebCore11JSMediaListENS1_12JSDOMWrapperEEEbPNS_9ExecStateEPKNS_9HashTableEPT_RKNS_10IdentifierERNS_18PropertyDescriptorE@Base 2.2.1
 _ZN3JSC24getStaticValueDescriptorIN7WebCore11JSNavigatorENS1_12JSDOMWrapperEEEbPNS_9ExecStateEPKNS_9HashTableEPT_RKNS_10IdentifierERNS_18PropertyDescriptorE@Base 2.2.1
 _ZN3JSC24getStaticValueDescriptorIN7WebCore11JSSVGLengthENS1_12JSDOMWrapperEEEbPNS_9ExecStateEPKNS_9HashTableEPT_RKNS_10IdentifierERNS_18PropertyDescriptorE@Base 2.2.1
 _ZN3JSC24getStaticValueDescriptorIN7WebCore11JSSVGMatrixENS1_12JSDOMWrapperEEEbPNS_9ExecStateEPKNS_9HashTableEPT_RKNS_10IdentifierERNS_18PropertyDescriptorE@Base 2.2.1
 _ZN3JSC24getStaticValueDescriptorIN7WebCore11JSSVGNumberENS1_12JSDOMWrapperEEEbPNS_9ExecStateEPKNS_9HashTableEPT_RKNS_10IdentifierERNS_18PropertyDescriptorE@Base 2.2.1
 _ZN3JSC24getStaticValueDescriptorIN7WebCore11JSTextEventENS1_9JSUIEventEEEbPNS_9ExecStateEPKNS_9HashTableEPT_RKNS_10IdentifierERNS_18PropertyDescriptorE@Base 2.2.1
 _ZN3JSC24getStaticValueDescriptorIN7WebCore11JSTouchListENS1_12JSDOMWrapperEEEbPNS_9ExecStateEPKNS_9HashTableEPT_RKNS_10IdentifierERNS_18PropertyDescriptorE@Base 2.2.1
 _ZN3JSC24getStaticValueDescriptorIN7WebCore11JSWebSocketENS1_12JSDOMWrapperEEEbPNS_9ExecStateEPKNS_9HashTableEPT_RKNS_10IdentifierERNS_18PropertyDescriptorE@Base 2.2.1
 _ZN3JSC24getStaticValueDescriptorIN7WebCore12JSClientRectENS1_12JSDOMWrapperEEEbPNS_9ExecStateEPKNS_9HashTableEPT_RKNS_10IdentifierERNS_18PropertyDescriptorE@Base 2.2.1
 _ZN3JSC24getStaticValueDescriptorIN7WebCore12JSErrorEventENS1_7JSEventEEEbPNS_9ExecStateEPKNS_9HashTableEPT_RKNS_10IdentifierERNS_18PropertyDescriptorE@Base 2.2.1
 _ZN3JSC24getStaticValueDescriptorIN7WebCore12JSFileReaderENS1_12JSDOMWrapperEEEbPNS_9ExecStateEPKNS_9HashTableEPT_RKNS_10IdentifierERNS_18PropertyDescriptorE@Base 2.2.1
 _ZN3JSC24getStaticValueDescriptorIN7WebCore12JSInt16ArrayENS1_17JSArrayBufferViewEEEbPNS_9ExecStateEPKNS_9HashTableEPT_RKNS_10IdentifierERNS_18PropertyDescriptorE@Base 2.2.1
 _ZN3JSC24getStaticValueDescriptorIN7WebCore12JSInt32ArrayENS1_17JSArrayBufferViewEEEbPNS_9ExecStateEPKNS_9HashTableEPT_RKNS_10IdentifierERNS_18PropertyDescriptorE@Base 2.2.1
 _ZN3JSC24getStaticValueDescriptorIN7WebCore12JSMediaErrorENS1_12JSDOMWrapperEEEbPNS_9ExecStateEPKNS_9HashTableEPT_RKNS_10IdentifierERNS_18PropertyDescriptorE@Base 2.2.1
 _ZN3JSC24getStaticValueDescriptorIN7WebCore12JSMemoryInfoENS1_12JSDOMWrapperEEEbPNS_9ExecStateEPKNS_9HashTableEPT_RKNS_10IdentifierERNS_18PropertyDescriptorE@Base 2.2.1
 _ZN3JSC24getStaticValueDescriptorIN7WebCore12JSMouseEventENS1_9JSUIEventEEEbPNS_9ExecStateEPKNS_9HashTableEPT_RKNS_10IdentifierERNS_18PropertyDescriptorE@Base 2.2.1
 _ZN3JSC24getStaticValueDescriptorIN7WebCore12JSNodeFilterENS1_12JSDOMWrapperEEEbPNS_9ExecStateEPKNS_9HashTableEPT_RKNS_10IdentifierERNS_18PropertyDescriptorE@Base 2.2.1
 _ZN3JSC24getStaticValueDescriptorIN7WebCore12JSSVGElementENS1_9JSElementEEEbPNS_9ExecStateEPKNS_9HashTableEPT_RKNS_10IdentifierERNS_18PropertyDescriptorE@Base 2.2.1
 _ZN3JSC24getStaticValueDescriptorIN7WebCore12JSSVGPathSegENS1_12JSDOMWrapperEEEbPNS_9ExecStateEPKNS_9HashTableEPT_RKNS_10IdentifierERNS_18PropertyDescriptorE@Base 2.2.1
 _ZN3JSC24getStaticValueDescriptorIN7WebCore12JSStyleMediaENS1_12JSDOMWrapperEEEbPNS_9ExecStateEPKNS_9HashTableEPT_RKNS_10IdentifierERNS_18PropertyDescriptorE@Base 2.2.1
 _ZN3JSC24getStaticValueDescriptorIN7WebCore12JSStyleSheetENS1_12JSDOMWrapperEEEbPNS_9ExecStateEPKNS_9HashTableEPT_RKNS_10IdentifierERNS_18PropertyDescriptorE@Base 2.2.1
 _ZN3JSC24getStaticValueDescriptorIN7WebCore12JSTimeRangesENS1_12JSDOMWrapperEEEbPNS_9ExecStateEPKNS_9HashTableEPT_RKNS_10IdentifierERNS_18PropertyDescriptorE@Base 2.2.1
 _ZN3JSC24getStaticValueDescriptorIN7WebCore12JSTouchEventENS1_9JSUIEventEEEbPNS_9ExecStateEPKNS_9HashTableEPT_RKNS_10IdentifierERNS_18PropertyDescriptorE@Base 2.2.1
 _ZN3JSC24getStaticValueDescriptorIN7WebCore12JSTreeWalkerENS1_12JSDOMWrapperEEEbPNS_9ExecStateEPKNS_9HashTableEPT_RKNS_10IdentifierERNS_18PropertyDescriptorE@Base 2.2.1
 _ZN3JSC24getStaticValueDescriptorIN7WebCore12JSUint8ArrayENS1_17JSArrayBufferViewEEEbPNS_9ExecStateEPKNS_9HashTableEPT_RKNS_10IdentifierERNS_18PropertyDescriptorE@Base 2.2.1
 _ZN3JSC24getStaticValueDescriptorIN7WebCore12JSWheelEventENS1_9JSUIEventEEEbPNS_9ExecStateEPKNS_9HashTableEPT_RKNS_10IdentifierERNS_18PropertyDescriptorE@Base 2.2.1
 _ZN3JSC24getStaticValueDescriptorIN7WebCore13JSArrayBufferENS1_12JSDOMWrapperEEEbPNS_9ExecStateEPKNS_9HashTableEPT_RKNS_10IdentifierERNS_18PropertyDescriptorE@Base 2.2.1
 _ZN3JSC24getStaticValueDescriptorIN7WebCore13JSCSSPageRuleENS1_9JSCSSRuleEEEbPNS_9ExecStateEPKNS_9HashTableEPT_RKNS_10IdentifierERNS_18PropertyDescriptorE@Base 2.2.1
 _ZN3JSC24getStaticValueDescriptorIN7WebCore13JSCSSRuleListENS1_12JSDOMWrapperEEEbPNS_9ExecStateEPKNS_9HashTableEPT_RKNS_10IdentifierERNS_18PropertyDescriptorE@Base 2.2.1
 _ZN3JSC24getStaticValueDescriptorIN7WebCore13JSCoordinatesENS1_12JSDOMWrapperEEEbPNS_9ExecStateEPKNS_9HashTableEPT_RKNS_10IdentifierERNS_18PropertyDescriptorE@Base 2.2.1
 _ZN3JSC24getStaticValueDescriptorIN7WebCore13JSCustomEventENS1_7JSEventEEEbPNS_9ExecStateEPKNS_9HashTableEPT_RKNS_10IdentifierERNS_18PropertyDescriptorE@Base 2.2.1
 _ZN3JSC24getStaticValueDescriptorIN7WebCore13JSDOMFormDataENS1_12JSDOMWrapperEEEbPNS_9ExecStateEPKNS_9HashTableEPT_RKNS_10IdentifierERNS_18PropertyDescriptorE@Base 2.2.1
 _ZN3JSC24getStaticValueDescriptorIN7WebCore13JSDOMMimeTypeENS1_12JSDOMWrapperEEEbPNS_9ExecStateEPKNS_9HashTableEPT_RKNS_10IdentifierERNS_18PropertyDescriptorE@Base 2.2.1
 _ZN3JSC24getStaticValueDescriptorIN7WebCore13JSEventSourceENS1_12JSDOMWrapperEEEbPNS_9ExecStateEPKNS_9HashTableEPT_RKNS_10IdentifierERNS_18PropertyDescriptorE@Base 2.2.1
 _ZN3JSC24getStaticValueDescriptorIN7WebCore13JSHTMLElementENS1_9JSElementEEEbPNS_9ExecStateEPKNS_9HashTableEPT_RKNS_10IdentifierERNS_18PropertyDescriptorE@Base 2.2.1
 _ZN3JSC24getStaticValueDescriptorIN7WebCore13JSMessagePortENS1_12JSDOMWrapperEEEbPNS_9ExecStateEPKNS_9HashTableEPT_RKNS_10IdentifierERNS_18PropertyDescriptorE@Base 2.2.1
 _ZN3JSC24getStaticValueDescriptorIN7WebCore13JSSVGAElementENS1_12JSSVGElementEEEbPNS_9ExecStateEPKNS_9HashTableEPT_RKNS_10IdentifierERNS_18PropertyDescriptorE@Base 2.2.1
 _ZN3JSC24getStaticValueDescriptorIN7WebCore13JSSVGDocumentENS1_10JSDocumentEEEbPNS_9ExecStateEPKNS_9HashTableEPT_RKNS_10IdentifierERNS_18PropertyDescriptorE@Base 2.2.1
 _ZN3JSC24getStaticValueDescriptorIN7WebCore13JSSVGGElementENS1_12JSSVGElementEEEbPNS_9ExecStateEPKNS_9HashTableEPT_RKNS_10IdentifierERNS_18PropertyDescriptorE@Base 2.2.1
 _ZN3JSC24getStaticValueDescriptorIN7WebCore13JSTextMetricsENS1_12JSDOMWrapperEEEbPNS_9ExecStateEPKNS_9HashTableEPT_RKNS_10IdentifierERNS_18PropertyDescriptorE@Base 2.2.1
 _ZN3JSC24getStaticValueDescriptorIN7WebCore13JSUint16ArrayENS1_17JSArrayBufferViewEEEbPNS_9ExecStateEPKNS_9HashTableEPT_RKNS_10IdentifierERNS_18PropertyDescriptorE@Base 2.2.1
 _ZN3JSC24getStaticValueDescriptorIN7WebCore13JSUint32ArrayENS1_17JSArrayBufferViewEEEbPNS_9ExecStateEPKNS_9HashTableEPT_RKNS_10IdentifierERNS_18PropertyDescriptorE@Base 2.2.1
 _ZN3JSC24getStaticValueDescriptorIN7WebCore13JSWebKitPointENS1_12JSDOMWrapperEEEbPNS_9ExecStateEPKNS_9HashTableEPT_RKNS_10IdentifierERNS_18PropertyDescriptorE@Base 2.2.1
 _ZN3JSC24getStaticValueDescriptorIN7WebCore13JSXPathResultENS1_12JSDOMWrapperEEEbPNS_9ExecStateEPKNS_9HashTableEPT_RKNS_10IdentifierERNS_18PropertyDescriptorE@Base 2.2.1
 _ZN3JSC24getStaticValueDescriptorIN7WebCore14JSCDATASectionENS1_6JSTextEEEbPNS_9ExecStateEPKNS_9HashTableEPT_RKNS_10IdentifierERNS_18PropertyDescriptorE@Base 2.2.1
 _ZN3JSC24getStaticValueDescriptorIN7WebCore14JSCSSMediaRuleENS1_9JSCSSRuleEEEbPNS_9ExecStateEPKNS_9HashTableEPT_RKNS_10IdentifierERNS_18PropertyDescriptorE@Base 2.2.1
 _ZN3JSC24getStaticValueDescriptorIN7WebCore14JSCSSStyleRuleENS1_9JSCSSRuleEEEbPNS_9ExecStateEPKNS_9HashTableEPT_RKNS_10IdentifierERNS_18PropertyDescriptorE@Base 2.2.1
 _ZN3JSC24getStaticValueDescriptorIN7WebCore14JSCSSValueListENS1_10JSCSSValueEEEbPNS_9ExecStateEPKNS_9HashTableEPT_RKNS_10IdentifierERNS_18PropertyDescriptorE@Base 2.2.1
 _ZN3JSC24getStaticValueDescriptorIN7WebCore14JSDOMSelectionENS1_12JSDOMWrapperEEEbPNS_9ExecStateEPKNS_9HashTableEPT_RKNS_10IdentifierERNS_18PropertyDescriptorE@Base 2.2.1
 _ZN3JSC24getStaticValueDescriptorIN7WebCore14JSDOMStringMapENS1_12JSDOMWrapperEEEbPNS_9ExecStateEPKNS_9HashTableEPT_RKNS_10IdentifierERNS_18PropertyDescriptorE@Base 2.2.1
 _ZN3JSC24getStaticValueDescriptorIN7WebCore14JSDOMTokenListENS1_12JSDOMWrapperEEEbPNS_9ExecStateEPKNS_9HashTableEPT_RKNS_10IdentifierERNS_18PropertyDescriptorE@Base 2.2.1
 _ZN3JSC24getStaticValueDescriptorIN7WebCore14JSDatabaseSyncENS1_12JSDOMWrapperEEEbPNS_9ExecStateEPKNS_9HashTableEPT_RKNS_10IdentifierERNS_18PropertyDescriptorE@Base 2.2.1
 _ZN3JSC24getStaticValueDescriptorIN7WebCore14JSDocumentTypeENS1_6JSNodeEEEbPNS_9ExecStateEPKNS_9HashTableEPT_RKNS_10IdentifierERNS_18PropertyDescriptorE@Base 2.2.1
 _ZN3JSC24getStaticValueDescriptorIN7WebCore14JSFloat32ArrayENS1_17JSArrayBufferViewEEEbPNS_9ExecStateEPKNS_9HashTableEPT_RKNS_10IdentifierERNS_18PropertyDescriptorE@Base 2.2.1
 _ZN3JSC24getStaticValueDescriptorIN7WebCore14JSHTMLDocumentENS1_10JSDocumentEEEbPNS_9ExecStateEPKNS_9HashTableEPT_RKNS_10IdentifierERNS_18PropertyDescriptorE@Base 2.2.1
 _ZN3JSC24getStaticValueDescriptorIN7WebCore14JSMessageEventENS1_7JSEventEEEbPNS_9ExecStateEPKNS_9HashTableEPT_RKNS_10IdentifierERNS_18PropertyDescriptorE@Base 2.2.1
 _ZN3JSC24getStaticValueDescriptorIN7WebCore14JSNamedNodeMapENS1_12JSDOMWrapperEEEbPNS_9ExecStateEPKNS_9HashTableEPT_RKNS_10IdentifierERNS_18PropertyDescriptorE@Base 2.2.1
 _ZN3JSC24getStaticValueDescriptorIN7WebCore14JSNodeIteratorENS1_12JSDOMWrapperEEEbPNS_9ExecStateEPKNS_9HashTableEPT_RKNS_10IdentifierERNS_18PropertyDescriptorE@Base 2.2.1
 _ZN3JSC24getStaticValueDescriptorIN7WebCore14JSNotificationENS1_12JSDOMWrapperEEEbPNS_9ExecStateEPKNS_9HashTableEPT_RKNS_10IdentifierERNS_18PropertyDescriptorE@Base 2.2.1
 _ZN3JSC24getStaticValueDescriptorIN7WebCore14JSSQLExceptionENS1_12JSDOMWrapperEEEbPNS_9ExecStateEPKNS_9HashTableEPT_RKNS_10IdentifierERNS_18PropertyDescriptorE@Base 2.2.1
 _ZN3JSC24getStaticValueDescriptorIN7WebCore14JSSQLResultSetENS1_12JSDOMWrapperEEEbPNS_9ExecStateEPKNS_9HashTableEPT_RKNS_10IdentifierERNS_18PropertyDescriptorE@Base 2.2.1
 _ZN3JSC24getStaticValueDescriptorIN7WebCore14JSSVGExceptionENS1_12JSDOMWrapperEEEbPNS_9ExecStateEPKNS_9HashTableEPT_RKNS_10IdentifierERNS_18PropertyDescriptorE@Base 2.2.1
 _ZN3JSC24getStaticValueDescriptorIN7WebCore14JSSVGPointListENS1_12JSDOMWrapperEEEbPNS_9ExecStateEPKNS_9HashTableEPT_RKNS_10IdentifierERNS_18PropertyDescriptorE@Base 2.2.1
 _ZN3JSC24getStaticValueDescriptorIN7WebCore14JSSVGTransformENS1_12JSDOMWrapperEEEbPNS_9ExecStateEPKNS_9HashTableEPT_RKNS_10IdentifierERNS_18PropertyDescriptorE@Base 2.2.1
 _ZN3JSC24getStaticValueDescriptorIN7WebCore14JSSVGUnitTypesENS1_12JSDOMWrapperEEEbPNS_9ExecStateEPKNS_9HashTableEPT_RKNS_10IdentifierERNS_18PropertyDescriptorE@Base 2.2.1
 _ZN3JSC24getStaticValueDescriptorIN7WebCore14JSSVGZoomEventENS1_9JSUIEventEEEbPNS_9ExecStateEPKNS_9HashTableEPT_RKNS_10IdentifierERNS_18PropertyDescriptorE@Base 2.2.1
 _ZN3JSC24getStaticValueDescriptorIN7WebCore14JSSharedWorkerENS1_16JSAbstractWorkerEEEbPNS_9ExecStateEPKNS_9HashTableEPT_RKNS_10IdentifierERNS_18PropertyDescriptorE@Base 2.2.1
 _ZN3JSC24getStaticValueDescriptorIN7WebCore14JSStorageEventENS1_7JSEventEEEbPNS_9ExecStateEPKNS_9HashTableEPT_RKNS_10IdentifierERNS_18PropertyDescriptorE@Base 2.2.1
 _ZN3JSC24getStaticValueDescriptorIN7WebCore15JSCSSImportRuleENS1_9JSCSSRuleEEEbPNS_9ExecStateEPKNS_9HashTableEPT_RKNS_10IdentifierERNS_18PropertyDescriptorE@Base 2.2.1
 _ZN3JSC24getStaticValueDescriptorIN7WebCore15JSCSSStyleSheetENS1_12JSStyleSheetEEEbPNS_9ExecStateEPKNS_9HashTableEPT_RKNS_10IdentifierERNS_18PropertyDescriptorE@Base 2.2.1
 _ZN3JSC24getStaticValueDescriptorIN7WebCore15JSCanvasPatternENS1_12JSDOMWrapperEEEbPNS_9ExecStateEPKNS_9HashTableEPT_RKNS_10IdentifierERNS_18PropertyDescriptorE@Base 2.2.1
 _ZN3JSC24getStaticValueDescriptorIN7WebCore15JSCharacterDataENS1_6JSNodeEEEbPNS_9ExecStateEPKNS_9HashTableEPT_RKNS_10IdentifierERNS_18PropertyDescriptorE@Base 2.2.1
 _ZN3JSC24getStaticValueDescriptorIN7WebCore15JSDOMStringListENS1_12JSDOMWrapperEEEbPNS_9ExecStateEPKNS_9HashTableEPT_RKNS_10IdentifierERNS_18PropertyDescriptorE@Base 2.2.1
 _ZN3JSC24getStaticValueDescriptorIN7WebCore15JSFileExceptionENS1_12JSDOMWrapperEEEbPNS_9ExecStateEPKNS_9HashTableEPT_RKNS_10IdentifierERNS_18PropertyDescriptorE@Base 2.2.1
 _ZN3JSC24getStaticValueDescriptorIN7WebCore15JSHTMLBRElementENS1_13JSHTMLElementEEEbPNS_9ExecStateEPKNS_9HashTableEPT_RKNS_10IdentifierERNS_18PropertyDescriptorE@Base 2.2.1
 _ZN3JSC24getStaticValueDescriptorIN7WebCore15JSHTMLHRElementENS1_13JSHTMLElementEEEbPNS_9ExecStateEPKNS_9HashTableEPT_RKNS_10IdentifierERNS_18PropertyDescriptorE@Base 2.2.1
 _ZN3JSC24getStaticValueDescriptorIN7WebCore15JSHTMLLIElementENS1_13JSHTMLElementEEEbPNS_9ExecStateEPKNS_9HashTableEPT_RKNS_10IdentifierERNS_18PropertyDescriptorE@Base 2.2.1
 _ZN3JSC24getStaticValueDescriptorIN7WebCore15JSKeyboardEventENS1_9JSUIEventEEEbPNS_9ExecStateEPKNS_9HashTableEPT_RKNS_10IdentifierERNS_18PropertyDescriptorE@Base 2.2.1
 _ZN3JSC24getStaticValueDescriptorIN7WebCore15JSMutationEventENS1_7JSEventEEEbPNS_9ExecStateEPKNS_9HashTableEPT_RKNS_10IdentifierERNS_18PropertyDescriptorE@Base 2.2.1
 _ZN3JSC24getStaticValueDescriptorIN7WebCore15JSOverflowEventENS1_7JSEventEEEbPNS_9ExecStateEPKNS_9HashTableEPT_RKNS_10IdentifierERNS_18PropertyDescriptorE@Base 2.2.1
 _ZN3JSC24getStaticValueDescriptorIN7WebCore15JSPopStateEventENS1_7JSEventEEEbPNS_9ExecStateEPKNS_9HashTableEPT_RKNS_10IdentifierERNS_18PropertyDescriptorE@Base 2.2.1
 _ZN3JSC24getStaticValueDescriptorIN7WebCore15JSProgressEventENS1_7JSEventEEEbPNS_9ExecStateEPKNS_9HashTableEPT_RKNS_10IdentifierERNS_18PropertyDescriptorE@Base 2.2.1
 _ZN3JSC24getStaticValueDescriptorIN7WebCore15JSSVGLengthListENS1_12JSDOMWrapperEEEbPNS_9ExecStateEPKNS_9HashTableEPT_RKNS_10IdentifierERNS_18PropertyDescriptorE@Base 2.2.1
 _ZN3JSC24getStaticValueDescriptorIN7WebCore15JSSVGNumberListENS1_12JSDOMWrapperEEEbPNS_9ExecStateEPKNS_9HashTableEPT_RKNS_10IdentifierERNS_18PropertyDescriptorE@Base 2.2.1
 _ZN3JSC24getStaticValueDescriptorIN7WebCore15JSSVGSVGElementENS1_12JSSVGElementEEEbPNS_9ExecStateEPKNS_9HashTableEPT_RKNS_10IdentifierERNS_18PropertyDescriptorE@Base 2.2.1
 _ZN3JSC24getStaticValueDescriptorIN7WebCore15JSSVGSetElementENS1_21JSSVGAnimationElementEEEbPNS_9ExecStateEPKNS_9HashTableEPT_RKNS_10IdentifierERNS_18PropertyDescriptorE@Base 2.2.1
 _ZN3JSC24getStaticValueDescriptorIN7WebCore15JSSVGStringListENS1_12JSDOMWrapperEEEbPNS_9ExecStateEPKNS_9HashTableEPT_RKNS_10IdentifierERNS_18PropertyDescriptorE@Base 2.2.1
 _ZN3JSC24getStaticValueDescriptorIN7WebCore15JSSVGUseElementENS1_12JSSVGElementEEEbPNS_9ExecStateEPKNS_9HashTableEPT_RKNS_10IdentifierERNS_18PropertyDescriptorE@Base 2.2.1
 _ZN3JSC24getStaticValueDescriptorIN7WebCore15JSScriptProfileENS1_12JSDOMWrapperEEEbPNS_9ExecStateEPKNS_9HashTableEPT_RKNS_10IdentifierERNS_18PropertyDescriptorE@Base 2.2.1
 _ZN3JSC24getStaticValueDescriptorIN7WebCore15JSValidityStateENS1_12JSDOMWrapperEEEbPNS_9ExecStateEPKNS_9HashTableEPT_RKNS_10IdentifierERNS_18PropertyDescriptorE@Base 2.2.1
 _ZN3JSC24getStaticValueDescriptorIN7WebCore15JSWorkerContextENS1_19JSWorkerContextBaseEEEbPNS_9ExecStateEPKNS_9HashTableEPT_RKNS_10IdentifierERNS_18PropertyDescriptorE@Base 2.2.1
 _ZN3JSC24getStaticValueDescriptorIN7WebCore15JSXMLSerializerENS1_12JSDOMWrapperEEEbPNS_9ExecStateEPKNS_9HashTableEPT_RKNS_10IdentifierERNS_18PropertyDescriptorE@Base 2.2.1
 _ZN3JSC24getStaticValueDescriptorIN7WebCore16JSAbstractWorkerENS1_12JSDOMWrapperEEEbPNS_9ExecStateEPKNS_9HashTableEPT_RKNS_10IdentifierERNS_18PropertyDescriptorE@Base 2.2.1
 _ZN3JSC24getStaticValueDescriptorIN7WebCore16JSCSSCharsetRuleENS1_9JSCSSRuleEEEbPNS_9ExecStateEPKNS_9HashTableEPT_RKNS_10IdentifierERNS_18PropertyDescriptorE@Base 2.2.1
 _ZN3JSC24getStaticValueDescriptorIN7WebCore16JSCanvasGradientENS1_12JSDOMWrapperEEEbPNS_9ExecStateEPKNS_9HashTableEPT_RKNS_10IdentifierERNS_18PropertyDescriptorE@Base 2.2.1
 _ZN3JSC24getStaticValueDescriptorIN7WebCore16JSClientRectListENS1_12JSDOMWrapperEEEbPNS_9ExecStateEPKNS_9HashTableEPT_RKNS_10IdentifierERNS_18PropertyDescriptorE@Base 2.2.1
 _ZN3JSC24getStaticValueDescriptorIN7WebCore16JSDOMPluginArrayENS1_12JSDOMWrapperEEEbPNS_9ExecStateEPKNS_9HashTableEPT_RKNS_10IdentifierERNS_18PropertyDescriptorE@Base 2.2.1
 _ZN3JSC24getStaticValueDescriptorIN7WebCore16JSEventExceptionENS1_12JSDOMWrapperEEEbPNS_9ExecStateEPKNS_9HashTableEPT_RKNS_10IdentifierERNS_18PropertyDescriptorE@Base 2.2.1
 _ZN3JSC24getStaticValueDescriptorIN7WebCore16JSFileReaderSyncENS1_12JSDOMWrapperEEEbPNS_9ExecStateEPKNS_9HashTableEPT_RKNS_10IdentifierERNS_18PropertyDescriptorE@Base 2.2.1
 _ZN3JSC24getStaticValueDescriptorIN7WebCore16JSHTMLCollectionENS1_12JSDOMWrapperEEEbPNS_9ExecStateEPKNS_9HashTableEPT_RKNS_10IdentifierERNS_18PropertyDescriptorE@Base 2.2.1
 _ZN3JSC24getStaticValueDescriptorIN7WebCore16JSHTMLDivElementENS1_13JSHTMLElementEEEbPNS_9ExecStateEPKNS_9HashTableEPT_RKNS_10IdentifierERNS_18PropertyDescriptorE@Base 2.2.1
 _ZN3JSC24getStaticValueDescriptorIN7WebCore16JSHTMLMapElementENS1_13JSHTMLElementEEEbPNS_9ExecStateEPKNS_9HashTableEPT_RKNS_10IdentifierERNS_18PropertyDescriptorE@Base 2.2.1
 _ZN3JSC24getStaticValueDescriptorIN7WebCore16JSHTMLModElementENS1_13JSHTMLElementEEEbPNS_9ExecStateEPKNS_9HashTableEPT_RKNS_10IdentifierERNS_18PropertyDescriptorE@Base 2.2.1
 _ZN3JSC24getStaticValueDescriptorIN7WebCore16JSHTMLPreElementENS1_13JSHTMLElementEEEbPNS_9ExecStateEPKNS_9HashTableEPT_RKNS_10IdentifierERNS_18PropertyDescriptorE@Base 2.2.1
 _ZN3JSC24getStaticValueDescriptorIN7WebCore16JSMediaQueryListENS1_12JSDOMWrapperEEEbPNS_9ExecStateEPKNS_9HashTableEPT_RKNS_10IdentifierERNS_18PropertyDescriptorE@Base 2.2.1
 _ZN3JSC24getStaticValueDescriptorIN7WebCore16JSMessageChannelENS1_12JSDOMWrapperEEEbPNS_9ExecStateEPKNS_9HashTableEPT_RKNS_10IdentifierERNS_18PropertyDescriptorE@Base 2.2.1
 _ZN3JSC24getStaticValueDescriptorIN7WebCore16JSRangeExceptionENS1_12JSDOMWrapperEEEbPNS_9ExecStateEPKNS_9HashTableEPT_RKNS_10IdentifierERNS_18PropertyDescriptorE@Base 2.2.1
 _ZN3JSC24getStaticValueDescriptorIN7WebCore16JSSVGDefsElementENS1_12JSSVGElementEEEbPNS_9ExecStateEPKNS_9HashTableEPT_RKNS_10IdentifierERNS_18PropertyDescriptorE@Base 2.2.1
 _ZN3JSC24getStaticValueDescriptorIN7WebCore16JSSVGDescElementENS1_12JSSVGElementEEEbPNS_9ExecStateEPKNS_9HashTableEPT_RKNS_10IdentifierERNS_18PropertyDescriptorE@Base 2.2.1
 _ZN3JSC24getStaticValueDescriptorIN7WebCore16JSSVGFontElementENS1_12JSSVGElementEEEbPNS_9ExecStateEPKNS_9HashTableEPT_RKNS_10IdentifierERNS_18PropertyDescriptorE@Base 2.2.1
 _ZN3JSC24getStaticValueDescriptorIN7WebCore16JSSVGLineElementENS1_12JSSVGElementEEEbPNS_9ExecStateEPKNS_9HashTableEPT_RKNS_10IdentifierERNS_18PropertyDescriptorE@Base 2.2.1
 _ZN3JSC24getStaticValueDescriptorIN7WebCore16JSSVGMaskElementENS1_12JSSVGElementEEEbPNS_9ExecStateEPKNS_9HashTableEPT_RKNS_10IdentifierERNS_18PropertyDescriptorE@Base 2.2.1
 _ZN3JSC24getStaticValueDescriptorIN7WebCore16JSSVGPathElementENS1_12JSSVGElementEEEbPNS_9ExecStateEPKNS_9HashTableEPT_RKNS_10IdentifierERNS_18PropertyDescriptorE@Base 2.2.1
 _ZN3JSC24getStaticValueDescriptorIN7WebCore16JSSVGPathSegListENS1_12JSDOMWrapperEEEbPNS_9ExecStateEPKNS_9HashTableEPT_RKNS_10IdentifierERNS_18PropertyDescriptorE@Base 2.2.1
 _ZN3JSC24getStaticValueDescriptorIN7WebCore16JSSVGRectElementENS1_12JSSVGElementEEEbPNS_9ExecStateEPKNS_9HashTableEPT_RKNS_10IdentifierERNS_18PropertyDescriptorE@Base 2.2.1
 _ZN3JSC24getStaticValueDescriptorIN7WebCore16JSSVGStopElementENS1_12JSSVGElementEEEbPNS_9ExecStateEPKNS_9HashTableEPT_RKNS_10IdentifierERNS_18PropertyDescriptorE@Base 2.2.1
 _ZN3JSC24getStaticValueDescriptorIN7WebCore16JSSVGTRefElementENS1_27JSSVGTextPositioningElementEEEbPNS_9ExecStateEPKNS_9HashTableEPT_RKNS_10IdentifierERNS_18PropertyDescriptorE@Base 2.2.1
 _ZN3JSC24getStaticValueDescriptorIN7WebCore16JSSVGTextElementENS1_27JSSVGTextPositioningElementEEEbPNS_9ExecStateEPKNS_9HashTableEPT_RKNS_10IdentifierERNS_18PropertyDescriptorE@Base 2.2.1
 _ZN3JSC24getStaticValueDescriptorIN7WebCore16JSSVGViewElementENS1_12JSSVGElementEEEbPNS_9ExecStateEPKNS_9HashTableEPT_RKNS_10IdentifierERNS_18PropertyDescriptorE@Base 2.2.1
 _ZN3JSC24getStaticValueDescriptorIN7WebCore16JSStyleSheetListENS1_12JSDOMWrapperEEEbPNS_9ExecStateEPKNS_9HashTableEPT_RKNS_10IdentifierERNS_18PropertyDescriptorE@Base 2.2.1
 _ZN3JSC24getStaticValueDescriptorIN7WebCore16JSWorkerLocationENS1_12JSDOMWrapperEEEbPNS_9ExecStateEPKNS_9HashTableEPT_RKNS_10IdentifierERNS_18PropertyDescriptorE@Base 2.2.1
 _ZN3JSC24getStaticValueDescriptorIN7WebCore16JSXMLHttpRequestENS1_12JSDOMWrapperEEEbPNS_9ExecStateEPKNS_9HashTableEPT_RKNS_10IdentifierERNS_18PropertyDescriptorE@Base 2.2.1
 _ZN3JSC24getStaticValueDescriptorIN7WebCore16JSXPathEvaluatorENS1_12JSDOMWrapperEEEbPNS_9ExecStateEPKNS_9HashTableEPT_RKNS_10IdentifierERNS_18PropertyDescriptorE@Base 2.2.1
 _ZN3JSC24getStaticValueDescriptorIN7WebCore16JSXPathExceptionENS1_12JSDOMWrapperEEEbPNS_9ExecStateEPKNS_9HashTableEPT_RKNS_10IdentifierERNS_18PropertyDescriptorE@Base 2.2.1
 _ZN3JSC24getStaticValueDescriptorIN7WebCore17JSArrayBufferViewENS1_12JSDOMWrapperEEEbPNS_9ExecStateEPKNS_9HashTableEPT_RKNS_10IdentifierERNS_18PropertyDescriptorE@Base 2.2.1
 _ZN3JSC24getStaticValueDescriptorIN7WebCore17JSAttrConstructorENS1_12JSDOMWrapperEEEbPNS_9ExecStateEPKNS_9HashTableEPT_RKNS_10IdentifierERNS_18PropertyDescriptorE@Base 2.2.1
 _ZN3JSC24getStaticValueDescriptorIN7WebCore17JSBeforeLoadEventENS1_7JSEventEEEbPNS_9ExecStateEPKNS_9HashTableEPT_RKNS_10IdentifierERNS_18PropertyDescriptorE@Base 2.2.1
 _ZN3JSC24getStaticValueDescriptorIN7WebCore17JSBlobConstructorENS1_12JSDOMWrapperEEEbPNS_9ExecStateEPKNS_9HashTableEPT_RKNS_10IdentifierERNS_18PropertyDescriptorE@Base 2.2.1
 _ZN3JSC24getStaticValueDescriptorIN7WebCore17JSCSSFontFaceRuleENS1_9JSCSSRuleEEEbPNS_9ExecStateEPKNS_9HashTableEPT_RKNS_10IdentifierERNS_18PropertyDescriptorE@Base 2.2.1
 _ZN3JSC24getStaticValueDescriptorIN7WebCore17JSEntityReferenceENS1_6JSNodeEEEbPNS_9ExecStateEPKNS_9HashTableEPT_RKNS_10IdentifierERNS_18PropertyDescriptorE@Base 2.2.1
 _ZN3JSC24getStaticValueDescriptorIN7WebCore17JSFileConstructorENS1_12JSDOMWrapperEEEbPNS_9ExecStateEPKNS_9HashTableEPT_RKNS_10IdentifierERNS_18PropertyDescriptorE@Base 2.2.1
 _ZN3JSC24getStaticValueDescriptorIN7WebCore17JSHTMLAreaElementENS1_13JSHTMLElementEEEbPNS_9ExecStateEPKNS_9HashTableEPT_RKNS_10IdentifierERNS_18PropertyDescriptorE@Base 2.2.1
 _ZN3JSC24getStaticValueDescriptorIN7WebCore17JSHTMLBaseElementENS1_13JSHTMLElementEEEbPNS_9ExecStateEPKNS_9HashTableEPT_RKNS_10IdentifierERNS_18PropertyDescriptorE@Base 2.2.1
 _ZN3JSC24getStaticValueDescriptorIN7WebCore17JSHTMLBodyElementENS1_13JSHTMLElementEEEbPNS_9ExecStateEPKNS_9HashTableEPT_RKNS_10IdentifierERNS_18PropertyDescriptorE@Base 2.2.1
 _ZN3JSC24getStaticValueDescriptorIN7WebCore17JSHTMLFontElementENS1_13JSHTMLElementEEEbPNS_9ExecStateEPKNS_9HashTableEPT_RKNS_10IdentifierERNS_18PropertyDescriptorE@Base 2.2.1
 _ZN3JSC24getStaticValueDescriptorIN7WebCore17JSHTMLFormElementENS1_13JSHTMLElementEEEbPNS_9ExecStateEPKNS_9HashTableEPT_RKNS_10IdentifierERNS_18PropertyDescriptorE@Base 2.2.1
 _ZN3JSC24getStaticValueDescriptorIN7WebCore17JSHTMLHeadElementENS1_13JSHTMLElementEEEbPNS_9ExecStateEPKNS_9HashTableEPT_RKNS_10IdentifierERNS_18PropertyDescriptorE@Base 2.2.1
 _ZN3JSC24getStaticValueDescriptorIN7WebCore17JSHTMLHtmlElementENS1_13JSHTMLElementEEEbPNS_9ExecStateEPKNS_9HashTableEPT_RKNS_10IdentifierERNS_18PropertyDescriptorE@Base 2.2.1
 _ZN3JSC24getStaticValueDescriptorIN7WebCore17JSHTMLLinkElementENS1_13JSHTMLElementEEEbPNS_9ExecStateEPKNS_9HashTableEPT_RKNS_10IdentifierERNS_18PropertyDescriptorE@Base 2.2.1
 _ZN3JSC24getStaticValueDescriptorIN7WebCore17JSHTMLMenuElementENS1_13JSHTMLElementEEEbPNS_9ExecStateEPKNS_9HashTableEPT_RKNS_10IdentifierERNS_18PropertyDescriptorE@Base 2.2.1
 _ZN3JSC24getStaticValueDescriptorIN7WebCore17JSHTMLMetaElementENS1_13JSHTMLElementEEEbPNS_9ExecStateEPKNS_9HashTableEPT_RKNS_10IdentifierERNS_18PropertyDescriptorE@Base 2.2.1
 _ZN3JSC24getStaticValueDescriptorIN7WebCore17JSHashChangeEventENS1_7JSEventEEEbPNS_9ExecStateEPKNS_9HashTableEPT_RKNS_10IdentifierERNS_18PropertyDescriptorE@Base 2.2.1
 _ZN3JSC24getStaticValueDescriptorIN7WebCore17JSNodeConstructorENS1_12JSDOMWrapperEEEbPNS_9ExecStateEPKNS_9HashTableEPT_RKNS_10IdentifierERNS_18PropertyDescriptorE@Base 2.2.1
 _ZN3JSC24getStaticValueDescriptorIN7WebCore17JSRectConstructorENS1_12JSDOMWrapperEEEbPNS_9ExecStateEPKNS_9HashTableEPT_RKNS_10IdentifierERNS_18PropertyDescriptorE@Base 2.2.1
 _ZN3JSC24getStaticValueDescriptorIN7WebCore17JSSVGAnimatedRectENS1_12JSDOMWrapperEEEbPNS_9ExecStateEPKNS_9HashTableEPT_RKNS_10IdentifierERNS_18PropertyDescriptorE@Base 2.2.1
 _ZN3JSC24getStaticValueDescriptorIN7WebCore17JSSVGGlyphElementENS1_12JSSVGElementEEEbPNS_9ExecStateEPKNS_9HashTableEPT_RKNS_10IdentifierERNS_18PropertyDescriptorE@Base 2.2.1
 _ZN3JSC24getStaticValueDescriptorIN7WebCore17JSSVGHKernElementENS1_12JSSVGElementEEEbPNS_9ExecStateEPKNS_9HashTableEPT_RKNS_10IdentifierERNS_18PropertyDescriptorE@Base 2.2.1
 _ZN3JSC24getStaticValueDescriptorIN7WebCore17JSSVGImageElementENS1_12JSSVGElementEEEbPNS_9ExecStateEPKNS_9HashTableEPT_RKNS_10IdentifierERNS_18PropertyDescriptorE@Base 2.2.1
 _ZN3JSC24getStaticValueDescriptorIN7WebCore17JSSVGStyleElementENS1_12JSSVGElementEEEbPNS_9ExecStateEPKNS_9HashTableEPT_RKNS_10IdentifierERNS_18PropertyDescriptorE@Base 2.2.1
 _ZN3JSC24getStaticValueDescriptorIN7WebCore17JSSVGTSpanElementENS1_27JSSVGTextPositioningElementEEEbPNS_9ExecStateEPKNS_9HashTableEPT_RKNS_10IdentifierERNS_18PropertyDescriptorE@Base 2.2.1
 _ZN3JSC24getStaticValueDescriptorIN7WebCore17JSSVGTitleElementENS1_12JSSVGElementEEEbPNS_9ExecStateEPKNS_9HashTableEPT_RKNS_10IdentifierERNS_18PropertyDescriptorE@Base 2.2.1
 _ZN3JSC24getStaticValueDescriptorIN7WebCore17JSSVGVKernElementENS1_12JSSVGElementEEEbPNS_9ExecStateEPKNS_9HashTableEPT_RKNS_10IdentifierERNS_18PropertyDescriptorE@Base 2.2.1
 _ZN3JSC24getStaticValueDescriptorIN7WebCore17JSTextConstructorENS1_12JSDOMWrapperEEEbPNS_9ExecStateEPKNS_9HashTableEPT_RKNS_10IdentifierERNS_18PropertyDescriptorE@Base 2.2.1
 _ZN3JSC24getStaticValueDescriptorIN7WebCore17JSWebKitAnimationENS1_12JSDOMWrapperEEEbPNS_9ExecStateEPKNS_9HashTableEPT_RKNS_10IdentifierERNS_18PropertyDescriptorE@Base 2.2.1
 _ZN3JSC24getStaticValueDescriptorIN7WebCore17JSWebKitCSSMatrixENS1_12JSDOMWrapperEEEbPNS_9ExecStateEPKNS_9HashTableEPT_RKNS_10IdentifierERNS_18PropertyDescriptorE@Base 2.2.1
 _ZN3JSC24getStaticValueDescriptorIN7WebCore17JSWorkerNavigatorENS1_12JSDOMWrapperEEEbPNS_9ExecStateEPKNS_9HashTableEPT_RKNS_10IdentifierERNS_18PropertyDescriptorE@Base 2.2.1
 _ZN3JSC24getStaticValueDescriptorIN7WebCore17JSXPathExpressionENS1_12JSDOMWrapperEEEbPNS_9ExecStateEPKNS_9HashTableEPT_RKNS_10IdentifierERNS_18PropertyDescriptorE@Base 2.2.1
 _ZN3JSC24getStaticValueDescriptorIN7WebCore18JSCSSRulePrototypeENS_8JSObjectEEEbPNS_9ExecStateEPKNS_9HashTableEPT_RKNS_10IdentifierERNS_18PropertyDescriptorE@Base 2.2.1
 _ZN3JSC24getStaticValueDescriptorIN7WebCore18JSCompositionEventENS1_9JSUIEventEEEbPNS_9ExecStateEPKNS_9HashTableEPT_RKNS_10IdentifierERNS_18PropertyDescriptorE@Base 2.2.1
 _ZN3JSC24getStaticValueDescriptorIN7WebCore18JSDOMCoreExceptionENS1_12JSDOMWrapperEEEbPNS_9ExecStateEPKNS_9HashTableEPT_RKNS_10IdentifierERNS_18PropertyDescriptorE@Base 2.2.1
 _ZN3JSC24getStaticValueDescriptorIN7WebCore18JSDOMMimeTypeArrayENS1_12JSDOMWrapperEEEbPNS_9ExecStateEPKNS_9HashTableEPT_RKNS_10IdentifierERNS_18PropertyDescriptorE@Base 2.2.1
 _ZN3JSC24getStaticValueDescriptorIN7WebCore18JSDocumentFragmentENS1_6JSNodeEEEbPNS_9ExecStateEPKNS_9HashTableEPT_RKNS_10IdentifierERNS_18PropertyDescriptorE@Base 2.2.1
 _ZN3JSC24getStaticValueDescriptorIN7WebCore18JSEventConstructorENS1_12JSDOMWrapperEEEbPNS_9ExecStateEPKNS_9HashTableEPT_RKNS_10IdentifierERNS_18PropertyDescriptorE@Base 2.2.1
 _ZN3JSC24getStaticValueDescriptorIN7WebCore18JSHTMLAudioElementENS1_18JSHTMLMediaElementEEEbPNS_9ExecStateEPKNS_9HashTableEPT_RKNS_10IdentifierERNS_18PropertyDescriptorE@Base 2.2.1
 _ZN3JSC24getStaticValueDescriptorIN7WebCore18JSHTMLDListElementENS1_13JSHTMLElementEEEbPNS_9ExecStateEPKNS_9HashTableEPT_RKNS_10IdentifierERNS_18PropertyDescriptorE@Base 2.2.1
 _ZN3JSC24getStaticValueDescriptorIN7WebCore18JSHTMLEmbedElementENS1_13JSHTMLElementEEEbPNS_9ExecStateEPKNS_9HashTableEPT_RKNS_10IdentifierERNS_18PropertyDescriptorE@Base 2.2.1
 _ZN3JSC24getStaticValueDescriptorIN7WebCore18JSHTMLFrameElementENS1_13JSHTMLElementEEEbPNS_9ExecStateEPKNS_9HashTableEPT_RKNS_10IdentifierERNS_18PropertyDescriptorE@Base 2.2.1
 _ZN3JSC24getStaticValueDescriptorIN7WebCore18JSHTMLImageElementENS1_13JSHTMLElementEEEbPNS_9ExecStateEPKNS_9HashTableEPT_RKNS_10IdentifierERNS_18PropertyDescriptorE@Base 2.2.1
 _ZN3JSC24getStaticValueDescriptorIN7WebCore18JSHTMLInputElementENS1_13JSHTMLElementEEEbPNS_9ExecStateEPKNS_9HashTableEPT_RKNS_10IdentifierERNS_18PropertyDescriptorE@Base 2.2.1
 _ZN3JSC24getStaticValueDescriptorIN7WebCore18JSHTMLLabelElementENS1_13JSHTMLElementEEEbPNS_9ExecStateEPKNS_9HashTableEPT_RKNS_10IdentifierERNS_18PropertyDescriptorE@Base 2.2.1
 _ZN3JSC24getStaticValueDescriptorIN7WebCore18JSHTMLMediaElementENS1_13JSHTMLElementEEEbPNS_9ExecStateEPKNS_9HashTableEPT_RKNS_10IdentifierERNS_18PropertyDescriptorE@Base 2.2.1
 _ZN3JSC24getStaticValueDescriptorIN7WebCore18JSHTMLMeterElementENS1_13JSHTMLElementEEEbPNS_9ExecStateEPKNS_9HashTableEPT_RKNS_10IdentifierERNS_18PropertyDescriptorE@Base 2.2.1
 _ZN3JSC24getStaticValueDescriptorIN7WebCore18JSHTMLOListElementENS1_13JSHTMLElementEEEbPNS_9ExecStateEPKNS_9HashTableEPT_RKNS_10IdentifierERNS_18PropertyDescriptorE@Base 2.2.1
 _ZN3JSC24getStaticValueDescriptorIN7WebCore18JSHTMLParamElementENS1_13JSHTMLElementEEEbPNS_9ExecStateEPKNS_9HashTableEPT_RKNS_10IdentifierERNS_18PropertyDescriptorE@Base 2.2.1
 _ZN3JSC24getStaticValueDescriptorIN7WebCore18JSHTMLQuoteElementENS1_13JSHTMLElementEEEbPNS_9ExecStateEPKNS_9HashTableEPT_RKNS_10IdentifierERNS_18PropertyDescriptorE@Base 2.2.1
 _ZN3JSC24getStaticValueDescriptorIN7WebCore18JSHTMLStyleElementENS1_13JSHTMLElementEEEbPNS_9ExecStateEPKNS_9HashTableEPT_RKNS_10IdentifierERNS_18PropertyDescriptorE@Base 2.2.1
 _ZN3JSC24getStaticValueDescriptorIN7WebCore18JSHTMLTableElementENS1_13JSHTMLElementEEEbPNS_9ExecStateEPKNS_9HashTableEPT_RKNS_10IdentifierERNS_18PropertyDescriptorE@Base 2.2.1
 _ZN3JSC24getStaticValueDescriptorIN7WebCore18JSHTMLTitleElementENS1_13JSHTMLElementEEEbPNS_9ExecStateEPKNS_9HashTableEPT_RKNS_10IdentifierERNS_18PropertyDescriptorE@Base 2.2.1
 _ZN3JSC24getStaticValueDescriptorIN7WebCore18JSHTMLUListElementENS1_13JSHTMLElementEEEbPNS_9ExecStateEPKNS_9HashTableEPT_RKNS_10IdentifierERNS_18PropertyDescriptorE@Base 2.2.1
 _ZN3JSC24getStaticValueDescriptorIN7WebCore18JSHTMLVideoElementENS1_18JSHTMLMediaElementEEEbPNS_9ExecStateEPKNS_9HashTableEPT_RKNS_10IdentifierERNS_18PropertyDescriptorE@Base 2.2.1
 _ZN3JSC24getStaticValueDescriptorIN7WebCore18JSRangeConstructorENS1_12JSDOMWrapperEEEbPNS_9ExecStateEPKNS_9HashTableEPT_RKNS_10IdentifierERNS_18PropertyDescriptorE@Base 2.2.1
 _ZN3JSC24getStaticValueDescriptorIN7WebCore18JSSVGAnimatedAngleENS1_12JSDOMWrapperEEEbPNS_9ExecStateEPKNS_9HashTableEPT_RKNS_10IdentifierERNS_18PropertyDescriptorE@Base 2.2.1
 _ZN3JSC24getStaticValueDescriptorIN7WebCore18JSSVGCircleElementENS1_12JSSVGElementEEEbPNS_9ExecStateEPKNS_9HashTableEPT_RKNS_10IdentifierERNS_18PropertyDescriptorE@Base 2.2.1
 _ZN3JSC24getStaticValueDescriptorIN7WebCore18JSSVGCursorElementENS1_12JSSVGElementEEEbPNS_9ExecStateEPKNS_9HashTableEPT_RKNS_10IdentifierERNS_18PropertyDescriptorE@Base 2.2.1
 _ZN3JSC24getStaticValueDescriptorIN7WebCore18JSSVGFETileElementENS1_12JSSVGElementEEEbPNS_9ExecStateEPKNS_9HashTableEPT_RKNS_10IdentifierERNS_18PropertyDescriptorE@Base 2.2.1
 _ZN3JSC24getStaticValueDescriptorIN7WebCore18JSSVGFilterElementENS1_12JSSVGElementEEEbPNS_9ExecStateEPKNS_9HashTableEPT_RKNS_10IdentifierERNS_18PropertyDescriptorE@Base 2.2.1
 _ZN3JSC24getStaticValueDescriptorIN7WebCore18JSSVGMarkerElementENS1_12JSSVGElementEEEbPNS_9ExecStateEPKNS_9HashTableEPT_RKNS_10IdentifierERNS_18PropertyDescriptorE@Base 2.2.1
 _ZN3JSC24getStaticValueDescriptorIN7WebCore18JSSVGPathSegArcAbsENS1_12JSSVGPathSegEEEbPNS_9ExecStateEPKNS_9HashTableEPT_RKNS_10IdentifierERNS_18PropertyDescriptorE@Base 2.2.1
 _ZN3JSC24getStaticValueDescriptorIN7WebCore18JSSVGPathSegArcRelENS1_12JSSVGPathSegEEEbPNS_9ExecStateEPKNS_9HashTableEPT_RKNS_10IdentifierERNS_18PropertyDescriptorE@Base 2.2.1
 _ZN3JSC24getStaticValueDescriptorIN7WebCore18JSSVGScriptElementENS1_12JSSVGElementEEEbPNS_9ExecStateEPKNS_9HashTableEPT_RKNS_10IdentifierERNS_18PropertyDescriptorE@Base 2.2.1
 _ZN3JSC24getStaticValueDescriptorIN7WebCore18JSSVGSwitchElementENS1_12JSSVGElementEEEbPNS_9ExecStateEPKNS_9HashTableEPT_RKNS_10IdentifierERNS_18PropertyDescriptorE@Base 2.2.1
 _ZN3JSC24getStaticValueDescriptorIN7WebCore18JSSVGSymbolElementENS1_12JSSVGElementEEEbPNS_9ExecStateEPKNS_9HashTableEPT_RKNS_10IdentifierERNS_18PropertyDescriptorE@Base 2.2.1
 _ZN3JSC24getStaticValueDescriptorIN7WebCore18JSSVGTransformListENS1_12JSDOMWrapperEEEbPNS_9ExecStateEPKNS_9HashTableEPT_RKNS_10IdentifierERNS_18PropertyDescriptorE@Base 2.2.1
 _ZN3JSC24getStaticValueDescriptorIN7WebCore18JSTouchConstructorENS1_12JSDOMWrapperEEEbPNS_9ExecStateEPKNS_9HashTableEPT_RKNS_10IdentifierERNS_18PropertyDescriptorE@Base 2.2.1
 _ZN3JSC24getStaticValueDescriptorIN7WebCore19JSCSSPrimitiveValueENS1_10JSCSSValueEEEbPNS_9ExecStateEPKNS_9HashTableEPT_RKNS_10IdentifierERNS_18PropertyDescriptorE@Base 2.2.1
 _ZN3JSC24getStaticValueDescriptorIN7WebCore19JSCSSValuePrototypeENS_8JSObjectEEEbPNS_9ExecStateEPKNS_9HashTableEPT_RKNS_10IdentifierERNS_18PropertyDescriptorE@Base 2.2.1
 _ZN3JSC24getStaticValueDescriptorIN7WebCore19JSDOMImplementationENS1_12JSDOMWrapperEEEbPNS_9ExecStateEPKNS_9HashTableEPT_RKNS_10IdentifierERNS_18PropertyDescriptorE@Base 2.2.1
 _ZN3JSC24getStaticValueDescriptorIN7WebCore19JSEntityConstructorENS1_12JSDOMWrapperEEEbPNS_9ExecStateEPKNS_9HashTableEPT_RKNS_10IdentifierERNS_18PropertyDescriptorE@Base 2.2.1
 _ZN3JSC24getStaticValueDescriptorIN7WebCore19JSHTMLAllCollectionENS1_12JSDOMWrapperEEEbPNS_9ExecStateEPKNS_9HashTableEPT_RKNS_10IdentifierERNS_18PropertyDescriptorE@Base 2.2.1
 _ZN3JSC24getStaticValueDescriptorIN7WebCore19JSHTMLAnchorElementENS1_13JSHTMLElementEEEbPNS_9ExecStateEPKNS_9HashTableEPT_RKNS_10IdentifierERNS_18PropertyDescriptorE@Base 2.2.1
 _ZN3JSC24getStaticValueDescriptorIN7WebCore19JSHTMLAppletElementENS1_13JSHTMLElementEEEbPNS_9ExecStateEPKNS_9HashTableEPT_RKNS_10IdentifierERNS_18PropertyDescriptorE@Base 2.2.1
 _ZN3JSC24getStaticValueDescriptorIN7WebCore19JSHTMLButtonElementENS1_13JSHTMLElementEEEbPNS_9ExecStateEPKNS_9HashTableEPT_RKNS_10IdentifierERNS_18PropertyDescriptorE@Base 2.2.1
 _ZN3JSC24getStaticValueDescriptorIN7WebCore19JSHTMLCanvasElementENS1_13JSHTMLElementEEEbPNS_9ExecStateEPKNS_9HashTableEPT_RKNS_10IdentifierERNS_18PropertyDescriptorE@Base 2.2.1
 _ZN3JSC24getStaticValueDescriptorIN7WebCore19JSHTMLIFrameElementENS1_13JSHTMLElementEEEbPNS_9ExecStateEPKNS_9HashTableEPT_RKNS_10IdentifierERNS_18PropertyDescriptorE@Base 2.2.1
 _ZN3JSC24getStaticValueDescriptorIN7WebCore19JSHTMLKeygenElementENS1_13JSHTMLElementEEEbPNS_9ExecStateEPKNS_9HashTableEPT_RKNS_10IdentifierERNS_18PropertyDescriptorE@Base 2.2.1
 _ZN3JSC24getStaticValueDescriptorIN7WebCore19JSHTMLLegendElementENS1_13JSHTMLElementEEEbPNS_9ExecStateEPKNS_9HashTableEPT_RKNS_10IdentifierERNS_18PropertyDescriptorE@Base 2.2.1
 _ZN3JSC24getStaticValueDescriptorIN7WebCore19JSHTMLObjectElementENS1_13JSHTMLElementEEEbPNS_9ExecStateEPKNS_9HashTableEPT_RKNS_10IdentifierERNS_18PropertyDescriptorE@Base 2.2.1
 _ZN3JSC24getStaticValueDescriptorIN7WebCore19JSHTMLOptionElementENS1_13JSHTMLElementEEEbPNS_9ExecStateEPKNS_9HashTableEPT_RKNS_10IdentifierERNS_18PropertyDescriptorE@Base 2.2.1
 _ZN3JSC24getStaticValueDescriptorIN7WebCore19JSHTMLOutputElementENS1_13JSHTMLElementEEEbPNS_9ExecStateEPKNS_9HashTableEPT_RKNS_10IdentifierERNS_18PropertyDescriptorE@Base 2.2.1
 _ZN3JSC24getStaticValueDescriptorIN7WebCore19JSHTMLScriptElementENS1_13JSHTMLElementEEEbPNS_9ExecStateEPKNS_9HashTableEPT_RKNS_10IdentifierERNS_18PropertyDescriptorE@Base 2.2.1
 _ZN3JSC24getStaticValueDescriptorIN7WebCore19JSHTMLSelectElementENS1_13JSHTMLElementEEEbPNS_9ExecStateEPKNS_9HashTableEPT_RKNS_10IdentifierERNS_18PropertyDescriptorE@Base 2.2.1
 _ZN3JSC24getStaticValueDescriptorIN7WebCore19JSHTMLSourceElementENS1_13JSHTMLElementEEEbPNS_9ExecStateEPKNS_9HashTableEPT_RKNS_10IdentifierERNS_18PropertyDescriptorE@Base 2.2.1
 _ZN3JSC24getStaticValueDescriptorIN7WebCore19JSSQLErrorPrototypeENS_8JSObjectEEEbPNS_9ExecStateEPKNS_9HashTableEPT_RKNS_10IdentifierERNS_18PropertyDescriptorE@Base 2.2.1
 _ZN3JSC24getStaticValueDescriptorIN7WebCore19JSSVGAnimateElementENS1_21JSSVGAnimationElementEEEbPNS_9ExecStateEPKNS_9HashTableEPT_RKNS_10IdentifierERNS_18PropertyDescriptorE@Base 2.2.1
 _ZN3JSC24getStaticValueDescriptorIN7WebCore19JSSVGAnimatedLengthENS1_12JSDOMWrapperEEEbPNS_9ExecStateEPKNS_9HashTableEPT_RKNS_10IdentifierERNS_18PropertyDescriptorE@Base 2.2.1
 _ZN3JSC24getStaticValueDescriptorIN7WebCore19JSSVGAnimatedNumberENS1_12JSDOMWrapperEEEbPNS_9ExecStateEPKNS_9HashTableEPT_RKNS_10IdentifierERNS_18PropertyDescriptorE@Base 2.2.1
 _ZN3JSC24getStaticValueDescriptorIN7WebCore19JSSVGAnimatedStringENS1_12JSDOMWrapperEEEbPNS_9ExecStateEPKNS_9HashTableEPT_RKNS_10IdentifierERNS_18PropertyDescriptorE@Base 2.2.1
 _ZN3JSC24getStaticValueDescriptorIN7WebCore19JSSVGEllipseElementENS1_12JSSVGElementEEEbPNS_9ExecStateEPKNS_9HashTableEPT_RKNS_10IdentifierERNS_18PropertyDescriptorE@Base 2.2.1
 _ZN3JSC24getStaticValueDescriptorIN7WebCore19JSSVGFEBlendElementENS1_12JSSVGElementEEEbPNS_9ExecStateEPKNS_9HashTableEPT_RKNS_10IdentifierERNS_18PropertyDescriptorE@Base 2.2.1
 _ZN3JSC24getStaticValueDescriptorIN7WebCore19JSSVGFEFloodElementENS1_12JSSVGElementEEEbPNS_9ExecStateEPKNS_9HashTableEPT_RKNS_10IdentifierERNS_18PropertyDescriptorE@Base 2.2.1
 _ZN3JSC24getStaticValueDescriptorIN7WebCore19JSSVGFEFuncAElementENS1_37JSSVGComponentTransferFunctionElementEEEbPNS_9ExecStateEPKNS_9HashTableEPT_RKNS_10IdentifierERNS_18PropertyDescriptorE@Base 2.2.1
 _ZN3JSC24getStaticValueDescriptorIN7WebCore19JSSVGFEFuncBElementENS1_37JSSVGComponentTransferFunctionElementEEEbPNS_9ExecStateEPKNS_9HashTableEPT_RKNS_10IdentifierERNS_18PropertyDescriptorE@Base 2.2.1
 _ZN3JSC24getStaticValueDescriptorIN7WebCore19JSSVGFEFuncGElementENS1_37JSSVGComponentTransferFunctionElementEEEbPNS_9ExecStateEPKNS_9HashTableEPT_RKNS_10IdentifierERNS_18PropertyDescriptorE@Base 2.2.1
 _ZN3JSC24getStaticValueDescriptorIN7WebCore19JSSVGFEFuncRElementENS1_37JSSVGComponentTransferFunctionElementEEEbPNS_9ExecStateEPKNS_9HashTableEPT_RKNS_10IdentifierERNS_18PropertyDescriptorE@Base 2.2.1
 _ZN3JSC24getStaticValueDescriptorIN7WebCore19JSSVGFEImageElementENS1_12JSSVGElementEEEbPNS_9ExecStateEPKNS_9HashTableEPT_RKNS_10IdentifierERNS_18PropertyDescriptorE@Base 2.2.1
 _ZN3JSC24getStaticValueDescriptorIN7WebCore19JSSVGFEMergeElementENS1_12JSSVGElementEEEbPNS_9ExecStateEPKNS_9HashTableEPT_RKNS_10IdentifierERNS_18PropertyDescriptorE@Base 2.2.1
 _ZN3JSC24getStaticValueDescriptorIN7WebCore19JSSVGPatternElementENS1_12JSSVGElementEEEbPNS_9ExecStateEPKNS_9HashTableEPT_RKNS_10IdentifierERNS_18PropertyDescriptorE@Base 2.2.1
 _ZN3JSC24getStaticValueDescriptorIN7WebCore19JSSVGPolygonElementENS1_12JSSVGElementEEEbPNS_9ExecStateEPKNS_9HashTableEPT_RKNS_10IdentifierERNS_18PropertyDescriptorE@Base 2.2.1
 _ZN3JSC24getStaticValueDescriptorIN7WebCore19JSScriptProfileNodeENS1_12JSDOMWrapperEEEbPNS_9ExecStateEPKNS_9HashTableEPT_RKNS_10IdentifierERNS_18PropertyDescriptorE@Base 2.2.1
 _ZN3JSC24getStaticValueDescriptorIN7WebCore19JSWebKitBlobBuilderENS1_12JSDOMWrapperEEEbPNS_9ExecStateEPKNS_9HashTableEPT_RKNS_10IdentifierERNS_18PropertyDescriptorE@Base 2.2.1
 _ZN3JSC24getStaticValueDescriptorIN7WebCore19JSWorkerConstructorENS1_12JSDOMWrapperEEEbPNS_9ExecStateEPKNS_9HashTableEPT_RKNS_10IdentifierERNS_18PropertyDescriptorE@Base 2.2.1
 _ZN3JSC24getStaticValueDescriptorIN7WebCore20JSBeforeProcessEventENS1_7JSEventEEEbPNS_9ExecStateEPKNS_9HashTableEPT_RKNS_10IdentifierERNS_18PropertyDescriptorE@Base 2.2.1
 _ZN3JSC24getStaticValueDescriptorIN7WebCore20JSCSSRuleConstructorENS1_12JSDOMWrapperEEEbPNS_9ExecStateEPKNS_9HashTableEPT_RKNS_10IdentifierERNS_18PropertyDescriptorE@Base 2.2.1
 _ZN3JSC24getStaticValueDescriptorIN7WebCore20JSCommentConstructorENS1_12JSDOMWrapperEEEbPNS_9ExecStateEPKNS_9HashTableEPT_RKNS_10IdentifierERNS_18PropertyDescriptorE@Base 2.2.1
 _ZN3JSC24getStaticValueDescriptorIN7WebCore20JSCounterConstructorENS1_12JSDOMWrapperEEEbPNS_9ExecStateEPKNS_9HashTableEPT_RKNS_10IdentifierERNS_18PropertyDescriptorE@Base 2.2.1
 _ZN3JSC24getStaticValueDescriptorIN7WebCore20JSElementConstructorENS1_12JSDOMWrapperEEEbPNS_9ExecStateEPKNS_9HashTableEPT_RKNS_10IdentifierERNS_18PropertyDescriptorE@Base 2.2.1
 _ZN3JSC24getStaticValueDescriptorIN7WebCore20JSFileErrorPrototypeENS_8JSObjectEEEbPNS_9ExecStateEPKNS_9HashTableEPT_RKNS_10IdentifierERNS_18PropertyDescriptorE@Base 2.2.1
 _ZN3JSC24getStaticValueDescriptorIN7WebCore20JSHTMLDetailsElementENS1_13JSHTMLElementEEEbPNS_9ExecStateEPKNS_9HashTableEPT_RKNS_10IdentifierERNS_18PropertyDescriptorE@Base 2.2.1
 _ZN3JSC24getStaticValueDescriptorIN7WebCore20JSHTMLHeadingElementENS1_13JSHTMLElementEEEbPNS_9ExecStateEPKNS_9HashTableEPT_RKNS_10IdentifierERNS_18PropertyDescriptorE@Base 2.2.1
 _ZN3JSC24getStaticValueDescriptorIN7WebCore20JSHTMLIsIndexElementENS1_18JSHTMLInputElementEEEbPNS_9ExecStateEPKNS_9HashTableEPT_RKNS_10IdentifierERNS_18PropertyDescriptorE@Base 2.2.1
 _ZN3JSC24getStaticValueDescriptorIN7WebCore20JSHTMLMarqueeElementENS1_13JSHTMLElementEEEbPNS_9ExecStateEPKNS_9HashTableEPT_RKNS_10IdentifierERNS_18PropertyDescriptorE@Base 2.2.1
 _ZN3JSC24getStaticValueDescriptorIN7WebCore20JSInjectedScriptHostENS1_12JSDOMWrapperEEEbPNS_9ExecStateEPKNS_9HashTableEPT_RKNS_10IdentifierERNS_18PropertyDescriptorE@Base 2.2.1
 _ZN3JSC24getStaticValueDescriptorIN7WebCore20JSSVGAltGlyphElementENS1_27JSSVGTextPositioningElementEEEbPNS_9ExecStateEPKNS_9HashTableEPT_RKNS_10IdentifierERNS_18PropertyDescriptorE@Base 2.2.1
 _ZN3JSC24getStaticValueDescriptorIN7WebCore20JSSVGAnimatedBooleanENS1_12JSDOMWrapperEEEbPNS_9ExecStateEPKNS_9HashTableEPT_RKNS_10IdentifierERNS_18PropertyDescriptorE@Base 2.2.1
 _ZN3JSC24getStaticValueDescriptorIN7WebCore20JSSVGAnimatedIntegerENS1_12JSDOMWrapperEEEbPNS_9ExecStateEPKNS_9HashTableEPT_RKNS_10IdentifierERNS_18PropertyDescriptorE@Base 2.2.1
 _ZN3JSC24getStaticValueDescriptorIN7WebCore20JSSVGClipPathElementENS1_12JSSVGElementEEEbPNS_9ExecStateEPKNS_9HashTableEPT_RKNS_10IdentifierERNS_18PropertyDescriptorE@Base 2.2.1
 _ZN3JSC24getStaticValueDescriptorIN7WebCore20JSSVGElementInstanceENS1_12JSDOMWrapperEEEbPNS_9ExecStateEPKNS_9HashTableEPT_RKNS_10IdentifierERNS_18PropertyDescriptorE@Base 2.2.1
 _ZN3JSC24getStaticValueDescriptorIN7WebCore20JSSVGFEOffsetElementENS1_12JSSVGElementEEEbPNS_9ExecStateEPKNS_9HashTableEPT_RKNS_10IdentifierERNS_18PropertyDescriptorE@Base 2.2.1
 _ZN3JSC24getStaticValueDescriptorIN7WebCore20JSSVGFontFaceElementENS1_12JSSVGElementEEEbPNS_9ExecStateEPKNS_9HashTableEPT_RKNS_10IdentifierERNS_18PropertyDescriptorE@Base 2.2.1
 _ZN3JSC24getStaticValueDescriptorIN7WebCore20JSSVGGradientElementENS1_12JSSVGElementEEEbPNS_9ExecStateEPKNS_9HashTableEPT_RKNS_10IdentifierERNS_18PropertyDescriptorE@Base 2.2.1
 _ZN3JSC24getStaticValueDescriptorIN7WebCore20JSSVGMetadataElementENS1_12JSSVGElementEEEbPNS_9ExecStateEPKNS_9HashTableEPT_RKNS_10IdentifierERNS_18PropertyDescriptorE@Base 2.2.1
 _ZN3JSC24getStaticValueDescriptorIN7WebCore20JSSVGPolylineElementENS1_12JSSVGElementEEEbPNS_9ExecStateEPKNS_9HashTableEPT_RKNS_10IdentifierERNS_18PropertyDescriptorE@Base 2.2.1
 _ZN3JSC24getStaticValueDescriptorIN7WebCore20JSSVGRectConstructorENS1_12JSDOMWrapperEEEbPNS_9ExecStateEPKNS_9HashTableEPT_RKNS_10IdentifierERNS_18PropertyDescriptorE@Base 2.2.1
 _ZN3JSC24getStaticValueDescriptorIN7WebCore20JSSVGRenderingIntentENS1_12JSDOMWrapperEEEbPNS_9ExecStateEPKNS_9HashTableEPT_RKNS_10IdentifierERNS_18PropertyDescriptorE@Base 2.2.1
 _ZN3JSC24getStaticValueDescriptorIN7WebCore20JSSVGTextPathElementENS1_23JSSVGTextContentElementEEEbPNS_9ExecStateEPKNS_9HashTableEPT_RKNS_10IdentifierERNS_18PropertyDescriptorE@Base 2.2.1
 _ZN3JSC24getStaticValueDescriptorIN7WebCore20JSStorageConstructorENS1_12JSDOMWrapperEEEbPNS_9ExecStateEPKNS_9HashTableEPT_RKNS_10IdentifierERNS_18PropertyDescriptorE@Base 2.2.1
 _ZN3JSC24getStaticValueDescriptorIN7WebCore20JSUIEventConstructorENS1_12JSDOMWrapperEEEbPNS_9ExecStateEPKNS_9HashTableEPT_RKNS_10IdentifierERNS_18PropertyDescriptorE@Base 2.2.1
 _ZN3JSC24getStaticValueDescriptorIN7WebCore21JSCSSStyleDeclarationENS1_12JSDOMWrapperEEEbPNS_9ExecStateEPKNS_9HashTableEPT_RKNS_10IdentifierERNS_18PropertyDescriptorE@Base 2.2.1
 _ZN3JSC24getStaticValueDescriptorIN7WebCore21JSCSSValueConstructorENS1_12JSDOMWrapperEEEbPNS_9ExecStateEPKNS_9HashTableEPT_RKNS_10IdentifierERNS_18PropertyDescriptorE@Base 2.2.1
 _ZN3JSC24getStaticValueDescriptorIN7WebCore21JSDOMApplicationCacheENS1_12JSDOMWrapperEEEbPNS_9ExecStateEPKNS_9HashTableEPT_RKNS_10IdentifierERNS_18PropertyDescriptorE@Base 2.2.1
 _ZN3JSC24getStaticValueDescriptorIN7WebCore21JSDataViewConstructorENS1_12JSDOMWrapperEEEbPNS_9ExecStateEPKNS_9HashTableEPT_RKNS_10IdentifierERNS_18PropertyDescriptorE@Base 2.2.1
 _ZN3JSC24getStaticValueDescriptorIN7WebCore21JSDocumentConstructorENS1_12JSDOMWrapperEEEbPNS_9ExecStateEPKNS_9HashTableEPT_RKNS_10IdentifierERNS_18PropertyDescriptorE@Base 2.2.1
 _ZN3JSC24getStaticValueDescriptorIN7WebCore21JSFileListConstructorENS1_12JSDOMWrapperEEEbPNS_9ExecStateEPKNS_9HashTableEPT_RKNS_10IdentifierERNS_18PropertyDescriptorE@Base 2.2.1
 _ZN3JSC24getStaticValueDescriptorIN7WebCore21JSHTMLBaseFontElementENS1_13JSHTMLElementEEEbPNS_9ExecStateEPKNS_9HashTableEPT_RKNS_10IdentifierERNS_18PropertyDescriptorE@Base 2.2.1
 _ZN3JSC24getStaticValueDescriptorIN7WebCore21JSHTMLDataListElementENS1_13JSHTMLElementEEEbPNS_9ExecStateEPKNS_9HashTableEPT_RKNS_10IdentifierERNS_18PropertyDescriptorE@Base 2.2.1
 _ZN3JSC24getStaticValueDescriptorIN7WebCore21JSHTMLFieldSetElementENS1_13JSHTMLElementEEEbPNS_9ExecStateEPKNS_9HashTableEPT_RKNS_10IdentifierERNS_18PropertyDescriptorE@Base 2.2.1
 _ZN3JSC24getStaticValueDescriptorIN7WebCore21JSHTMLFrameSetElementENS1_13JSHTMLElementEEEbPNS_9ExecStateEPKNS_9HashTableEPT_RKNS_10IdentifierERNS_18PropertyDescriptorE@Base 2.2.1
 _ZN3JSC24getStaticValueDescriptorIN7WebCore21JSHTMLOptGroupElementENS1_13JSHTMLElementEEEbPNS_9ExecStateEPKNS_9HashTableEPT_RKNS_10IdentifierERNS_18PropertyDescriptorE@Base 2.2.1
 _ZN3JSC24getStaticValueDescriptorIN7WebCore21JSHTMLProgressElementENS1_13JSHTMLElementEEEbPNS_9ExecStateEPKNS_9HashTableEPT_RKNS_10IdentifierERNS_18PropertyDescriptorE@Base 2.2.1
 _ZN3JSC24getStaticValueDescriptorIN7WebCore21JSHTMLTableColElementENS1_13JSHTMLElementEEEbPNS_9ExecStateEPKNS_9HashTableEPT_RKNS_10IdentifierERNS_18PropertyDescriptorE@Base 2.2.1
 _ZN3JSC24getStaticValueDescriptorIN7WebCore21JSHTMLTableRowElementENS1_13JSHTMLElementEEEbPNS_9ExecStateEPKNS_9HashTableEPT_RKNS_10IdentifierERNS_18PropertyDescriptorE@Base 2.2.1
 _ZN3JSC24getStaticValueDescriptorIN7WebCore21JSHTMLTextAreaElementENS1_13JSHTMLElementEEEbPNS_9ExecStateEPKNS_9HashTableEPT_RKNS_10IdentifierERNS_18PropertyDescriptorE@Base 2.2.1
 _ZN3JSC24getStaticValueDescriptorIN7WebCore21JSJavaScriptCallFrameENS1_12JSDOMWrapperEEEbPNS_9ExecStateEPKNS_9HashTableEPT_RKNS_10IdentifierERNS_18PropertyDescriptorE@Base 2.2.1
 _ZN3JSC24getStaticValueDescriptorIN7WebCore21JSMediaErrorPrototypeENS_8JSObjectEEEbPNS_9ExecStateEPKNS_9HashTableEPT_RKNS_10IdentifierERNS_18PropertyDescriptorE@Base 2.2.1
 _ZN3JSC24getStaticValueDescriptorIN7WebCore21JSNodeListConstructorENS1_12JSDOMWrapperEEEbPNS_9ExecStateEPKNS_9HashTableEPT_RKNS_10IdentifierERNS_18PropertyDescriptorE@Base 2.2.1
 _ZN3JSC24getStaticValueDescriptorIN7WebCore21JSNotationConstructorENS1_12JSDOMWrapperEEEbPNS_9ExecStateEPKNS_9HashTableEPT_RKNS_10IdentifierERNS_18PropertyDescriptorE@Base 2.2.1
 _ZN3JSC24getStaticValueDescriptorIN7WebCore21JSPageTransitionEventENS1_7JSEventEEEbPNS_9ExecStateEPKNS_9HashTableEPT_RKNS_10IdentifierERNS_18PropertyDescriptorE@Base 2.2.1
 _ZN3JSC24getStaticValueDescriptorIN7WebCore21JSRGBColorConstructorENS1_12JSDOMWrapperEEEbPNS_9ExecStateEPKNS_9HashTableEPT_RKNS_10IdentifierERNS_18PropertyDescriptorE@Base 2.2.1
 _ZN3JSC24getStaticValueDescriptorIN7WebCore21JSSQLResultSetRowListENS1_12JSDOMWrapperEEEbPNS_9ExecStateEPKNS_9HashTableEPT_RKNS_10IdentifierERNS_18PropertyDescriptorE@Base 2.2.1
 _ZN3JSC24getStaticValueDescriptorIN7WebCore21JSSVGAngleConstructorENS1_12JSDOMWrapperEEEbPNS_9ExecStateEPKNS_9HashTableEPT_RKNS_10IdentifierERNS_18PropertyDescriptorE@Base 2.2.1
 _ZN3JSC24getStaticValueDescriptorIN7WebCore21JSSVGAnimationElementENS1_12JSSVGElementEEEbPNS_9ExecStateEPKNS_9HashTableEPT_RKNS_10IdentifierERNS_18PropertyDescriptorE@Base 2.2.1
 _ZN3JSC24getStaticValueDescriptorIN7WebCore21JSSVGColorConstructorENS1_12JSDOMWrapperEEEbPNS_9ExecStateEPKNS_9HashTableEPT_RKNS_10IdentifierERNS_18PropertyDescriptorE@Base 2.2.1
 _ZN3JSC24getStaticValueDescriptorIN7WebCore21JSSVGPaintConstructorENS1_12JSDOMWrapperEEEbPNS_9ExecStateEPKNS_9HashTableEPT_RKNS_10IdentifierERNS_18PropertyDescriptorE@Base 2.2.1
 _ZN3JSC24getStaticValueDescriptorIN7WebCore21JSSVGPathSegClosePathENS1_12JSSVGPathSegEEEbPNS_9ExecStateEPKNS_9HashTableEPT_RKNS_10IdentifierERNS_18PropertyDescriptorE@Base 2.2.1
 _ZN3JSC24getStaticValueDescriptorIN7WebCore21JSSVGPathSegLinetoAbsENS1_12JSSVGPathSegEEEbPNS_9ExecStateEPKNS_9HashTableEPT_RKNS_10IdentifierERNS_18PropertyDescriptorE@Base 2.2.1
 _ZN3JSC24getStaticValueDescriptorIN7WebCore21JSSVGPathSegLinetoRelENS1_12JSSVGPathSegEEEbPNS_9ExecStateEPKNS_9HashTableEPT_RKNS_10IdentifierERNS_18PropertyDescriptorE@Base 2.2.1
 _ZN3JSC24getStaticValueDescriptorIN7WebCore21JSSVGPathSegMovetoAbsENS1_12JSSVGPathSegEEEbPNS_9ExecStateEPKNS_9HashTableEPT_RKNS_10IdentifierERNS_18PropertyDescriptorE@Base 2.2.1
 _ZN3JSC24getStaticValueDescriptorIN7WebCore21JSSVGPathSegMovetoRelENS1_12JSSVGPathSegEEEbPNS_9ExecStateEPKNS_9HashTableEPT_RKNS_10IdentifierERNS_18PropertyDescriptorE@Base 2.2.1
 _ZN3JSC24getStaticValueDescriptorIN7WebCore21JSSVGPathSegPrototypeENS_8JSObjectEEEbPNS_9ExecStateEPKNS_9HashTableEPT_RKNS_10IdentifierERNS_18PropertyDescriptorE@Base 2.2.1
 _ZN3JSC24getStaticValueDescriptorIN7WebCore21JSSVGPointConstructorENS1_12JSDOMWrapperEEEbPNS_9ExecStateEPKNS_9HashTableEPT_RKNS_10IdentifierERNS_18PropertyDescriptorE@Base 2.2.1
 _ZN3JSC24getStaticValueDescriptorIN7WebCore21JSSharedWorkerContextENS1_15JSWorkerContextEEEbPNS_9ExecStateEPKNS_9HashTableEPT_RKNS_10IdentifierERNS_18PropertyDescriptorE@Base 2.2.1
 _ZN3JSC24getStaticValueDescriptorIN7WebCore21JSWebKitAnimationListENS1_12JSDOMWrapperEEEbPNS_9ExecStateEPKNS_9HashTableEPT_RKNS_10IdentifierERNS_18PropertyDescriptorE@Base 2.2.1
 _ZN3JSC24getStaticValueDescriptorIN7WebCore22JSClipboardConstructorENS1_12JSDOMWrapperEEEbPNS_9ExecStateEPKNS_9HashTableEPT_RKNS_10IdentifierERNS_18PropertyDescriptorE@Base 2.2.1
 _ZN3JSC24getStaticValueDescriptorIN7WebCore22JSDOMParserConstructorENS1_12JSDOMWrapperEEEbPNS_9ExecStateEPKNS_9HashTableEPT_RKNS_10IdentifierERNS_18PropertyDescriptorE@Base 2.2.1
 _ZN3JSC24getStaticValueDescriptorIN7WebCore22JSDOMPluginConstructorENS1_12JSDOMWrapperEEEbPNS_9ExecStateEPKNS_9HashTableEPT_RKNS_10IdentifierERNS_18PropertyDescriptorE@Base 2.2.1
 _ZN3JSC24getStaticValueDescriptorIN7WebCore22JSDOMSettableTokenListENS1_14JSDOMTokenListEEEbPNS_9ExecStateEPKNS_9HashTableEPT_RKNS_10IdentifierERNS_18PropertyDescriptorE@Base 2.2.1
 _ZN3JSC24getStaticValueDescriptorIN7WebCore22JSDOMWindowConstructorENS1_12JSDOMWrapperEEEbPNS_9ExecStateEPKNS_9HashTableEPT_RKNS_10IdentifierERNS_18PropertyDescriptorE@Base 2.2.1
 _ZN3JSC24getStaticValueDescriptorIN7WebCore22JSFileErrorConstructorENS1_12JSDOMWrapperEEEbPNS_9ExecStateEPKNS_9HashTableEPT_RKNS_10IdentifierERNS_18PropertyDescriptorE@Base 2.2.1
 _ZN3JSC24getStaticValueDescriptorIN7WebCore22JSHTMLDirectoryElementENS1_13JSHTMLElementEEEbPNS_9ExecStateEPKNS_9HashTableEPT_RKNS_10IdentifierERNS_18PropertyDescriptorE@Base 2.2.1
 _ZN3JSC24getStaticValueDescriptorIN7WebCore22JSHTMLParagraphElementENS1_13JSHTMLElementEEEbPNS_9ExecStateEPKNS_9HashTableEPT_RKNS_10IdentifierERNS_18PropertyDescriptorE@Base 2.2.1
 _ZN3JSC24getStaticValueDescriptorIN7WebCore22JSHTMLTableCellElementENS1_13JSHTMLElementEEEbPNS_9ExecStateEPKNS_9HashTableEPT_RKNS_10IdentifierERNS_18PropertyDescriptorE@Base 2.2.1
 _ZN3JSC24getStaticValueDescriptorIN7WebCore22JSImageDataConstructorENS1_12JSDOMWrapperEEEbPNS_9ExecStateEPKNS_9HashTableEPT_RKNS_10IdentifierERNS_18PropertyDescriptorE@Base 2.2.1
 _ZN3JSC24getStaticValueDescriptorIN7WebCore22JSInt8ArrayConstructorENS1_12JSDOMWrapperEEEbPNS_9ExecStateEPKNS_9HashTableEPT_RKNS_10IdentifierERNS_18PropertyDescriptorE@Base 2.2.1
 _ZN3JSC24getStaticValueDescriptorIN7WebCore22JSMediaListConstructorENS1_12JSDOMWrapperEEEbPNS_9ExecStateEPKNS_9HashTableEPT_RKNS_10IdentifierERNS_18PropertyDescriptorE@Base 2.2.1
 _ZN3JSC24getStaticValueDescriptorIN7WebCore22JSSVGLengthConstructorENS1_12JSDOMWrapperEEEbPNS_9ExecStateEPKNS_9HashTableEPT_RKNS_10IdentifierERNS_18PropertyDescriptorE@Base 2.2.1
 _ZN3JSC24getStaticValueDescriptorIN7WebCore22JSSVGMatrixConstructorENS1_12JSDOMWrapperEEEbPNS_9ExecStateEPKNS_9HashTableEPT_RKNS_10IdentifierERNS_18PropertyDescriptorE@Base 2.2.1
 _ZN3JSC24getStaticValueDescriptorIN7WebCore22JSSVGNumberConstructorENS1_12JSDOMWrapperEEEbPNS_9ExecStateEPKNS_9HashTableEPT_RKNS_10IdentifierERNS_18PropertyDescriptorE@Base 2.2.1
 _ZN3JSC24getStaticValueDescriptorIN7WebCore22JSTextEventConstructorENS1_12JSDOMWrapperEEEbPNS_9ExecStateEPKNS_9HashTableEPT_RKNS_10IdentifierERNS_18PropertyDescriptorE@Base 2.2.1
 _ZN3JSC24getStaticValueDescriptorIN7WebCore22JSTouchListConstructorENS1_12JSDOMWrapperEEEbPNS_9ExecStateEPKNS_9HashTableEPT_RKNS_10IdentifierERNS_18PropertyDescriptorE@Base 2.2.1
 _ZN3JSC24getStaticValueDescriptorIN7WebCore22JSWebKitAnimationEventENS1_7JSEventEEEbPNS_9ExecStateEPKNS_9HashTableEPT_RKNS_10IdentifierERNS_18PropertyDescriptorE@Base 2.2.1
 _ZN3JSC24getStaticValueDescriptorIN7WebCore22JSWebSocketConstructorENS1_12JSDOMWrapperEEEbPNS_9ExecStateEPKNS_9HashTableEPT_RKNS_10IdentifierERNS_18PropertyDescriptorE@Base 2.2.1
 _ZN3JSC24getStaticValueDescriptorIN7WebCore22JSXMLHttpRequestUploadENS1_12JSDOMWrapperEEEbPNS_9ExecStateEPKNS_9HashTableEPT_RKNS_10IdentifierERNS_18PropertyDescriptorE@Base 2.2.1
 _ZN3JSC24getStaticValueDescriptorIN7WebCore23JSClientRectConstructorENS1_12JSDOMWrapperEEEbPNS_9ExecStateEPKNS_9HashTableEPT_RKNS_10IdentifierERNS_18PropertyDescriptorE@Base 2.2.1
 _ZN3JSC24getStaticValueDescriptorIN7WebCore23JSErrorEventConstructorENS1_12JSDOMWrapperEEEbPNS_9ExecStateEPKNS_9HashTableEPT_RKNS_10IdentifierERNS_18PropertyDescriptorE@Base 2.2.1
 _ZN3JSC24getStaticValueDescriptorIN7WebCore23JSFileReaderConstructorENS1_12JSDOMWrapperEEEbPNS_9ExecStateEPKNS_9HashTableEPT_RKNS_10IdentifierERNS_18PropertyDescriptorE@Base 2.2.1
 _ZN3JSC24getStaticValueDescriptorIN7WebCore23JSHTMLBlockquoteElementENS1_13JSHTMLElementEEEbPNS_9ExecStateEPKNS_9HashTableEPT_RKNS_10IdentifierERNS_18PropertyDescriptorE@Base 2.2.1
 _ZN3JSC24getStaticValueDescriptorIN7WebCore23JSHTMLOptionsCollectionENS1_16JSHTMLCollectionEEEbPNS_9ExecStateEPKNS_9HashTableEPT_RKNS_10IdentifierERNS_18PropertyDescriptorE@Base 2.2.1
 _ZN3JSC24getStaticValueDescriptorIN7WebCore23JSInspectorFrontendHostENS1_12JSDOMWrapperEEEbPNS_9ExecStateEPKNS_9HashTableEPT_RKNS_10IdentifierERNS_18PropertyDescriptorE@Base 2.2.1
 _ZN3JSC24getStaticValueDescriptorIN7WebCore23JSInt16ArrayConstructorENS1_12JSDOMWrapperEEEbPNS_9ExecStateEPKNS_9HashTableEPT_RKNS_10IdentifierERNS_18PropertyDescriptorE@Base 2.2.1
 _ZN3JSC24getStaticValueDescriptorIN7WebCore23JSInt32ArrayConstructorENS1_12JSDOMWrapperEEEbPNS_9ExecStateEPKNS_9HashTableEPT_RKNS_10IdentifierERNS_18PropertyDescriptorE@Base 2.2.1
 _ZN3JSC24getStaticValueDescriptorIN7WebCore23JSMediaErrorConstructorENS1_12JSDOMWrapperEEEbPNS_9ExecStateEPKNS_9HashTableEPT_RKNS_10IdentifierERNS_18PropertyDescriptorE@Base 2.2.1
 _ZN3JSC24getStaticValueDescriptorIN7WebCore23JSMouseEventConstructorENS1_12JSDOMWrapperEEEbPNS_9ExecStateEPKNS_9HashTableEPT_RKNS_10IdentifierERNS_18PropertyDescriptorE@Base 2.2.1
 _ZN3JSC24getStaticValueDescriptorIN7WebCore23JSNodeFilterConstructorENS1_12JSDOMWrapperEEEbPNS_9ExecStateEPKNS_9HashTableEPT_RKNS_10IdentifierERNS_18PropertyDescriptorE@Base 2.2.1
 _ZN3JSC24getStaticValueDescriptorIN7WebCore23JSProcessingInstructionENS1_6JSNodeEEEbPNS_9ExecStateEPKNS_9HashTableEPT_RKNS_10IdentifierERNS_18PropertyDescriptorE@Base 2.2.1
 _ZN3JSC24getStaticValueDescriptorIN7WebCore23JSSQLExceptionPrototypeENS_8JSObjectEEEbPNS_9ExecStateEPKNS_9HashTableEPT_RKNS_10IdentifierERNS_18PropertyDescriptorE@Base 2.2.1
 _ZN3JSC24getStaticValueDescriptorIN7WebCore23JSSVGAnimatedLengthListENS1_12JSDOMWrapperEEEbPNS_9ExecStateEPKNS_9HashTableEPT_RKNS_10IdentifierERNS_18PropertyDescriptorE@Base 2.2.1
 _ZN3JSC24getStaticValueDescriptorIN7WebCore23JSSVGAnimatedNumberListENS1_12JSDOMWrapperEEEbPNS_9ExecStateEPKNS_9HashTableEPT_RKNS_10IdentifierERNS_18PropertyDescriptorE@Base 2.2.1
 _ZN3JSC24getStaticValueDescriptorIN7WebCore23JSSVGElementConstructorENS1_12JSDOMWrapperEEEbPNS_9ExecStateEPKNS_9HashTableEPT_RKNS_10IdentifierERNS_18PropertyDescriptorE@Base 2.2.1
 _ZN3JSC24getStaticValueDescriptorIN7WebCore23JSSVGFECompositeElementENS1_12JSSVGElementEEEbPNS_9ExecStateEPKNS_9HashTableEPT_RKNS_10IdentifierERNS_18PropertyDescriptorE@Base 2.2.1
 _ZN3JSC24getStaticValueDescriptorIN7WebCore23JSSVGFEMergeNodeElementENS1_12JSSVGElementEEEbPNS_9ExecStateEPKNS_9HashTableEPT_RKNS_10IdentifierERNS_18PropertyDescriptorE@Base 2.2.1
 _ZN3JSC24getStaticValueDescriptorIN7WebCore23JSSVGFESpotLightElementENS1_12JSSVGElementEEEbPNS_9ExecStateEPKNS_9HashTableEPT_RKNS_10IdentifierERNS_18PropertyDescriptorE@Base 2.2.1
 _ZN3JSC24getStaticValueDescriptorIN7WebCore23JSSVGFontFaceSrcElementENS1_12JSSVGElementEEEbPNS_9ExecStateEPKNS_9HashTableEPT_RKNS_10IdentifierERNS_18PropertyDescriptorE@Base 2.2.1
 _ZN3JSC24getStaticValueDescriptorIN7WebCore23JSSVGFontFaceUriElementENS1_12JSSVGElementEEEbPNS_9ExecStateEPKNS_9HashTableEPT_RKNS_10IdentifierERNS_18PropertyDescriptorE@Base 2.2.1
 _ZN3JSC24getStaticValueDescriptorIN7WebCore23JSSVGPathSegConstructorENS1_12JSDOMWrapperEEEbPNS_9ExecStateEPKNS_9HashTableEPT_RKNS_10IdentifierERNS_18PropertyDescriptorE@Base 2.2.1
 _ZN3JSC24getStaticValueDescriptorIN7WebCore23JSSVGTextContentElementENS1_12JSSVGElementEEEbPNS_9ExecStateEPKNS_9HashTableEPT_RKNS_10IdentifierERNS_18PropertyDescriptorE@Base 2.2.1
 _ZN3JSC24getStaticValueDescriptorIN7WebCore23JSSVGUnitTypesPrototypeENS_8JSObjectEEEbPNS_9ExecStateEPKNS_9HashTableEPT_RKNS_10IdentifierERNS_18PropertyDescriptorE@Base 2.2.1
 _ZN3JSC24getStaticValueDescriptorIN7WebCore23JSStyleMediaConstructorENS1_12JSDOMWrapperEEEbPNS_9ExecStateEPKNS_9HashTableEPT_RKNS_10IdentifierERNS_18PropertyDescriptorE@Base 2.2.1
 _ZN3JSC24getStaticValueDescriptorIN7WebCore23JSStyleSheetConstructorENS1_12JSDOMWrapperEEEbPNS_9ExecStateEPKNS_9HashTableEPT_RKNS_10IdentifierERNS_18PropertyDescriptorE@Base 2.2.1
 _ZN3JSC24getStaticValueDescriptorIN7WebCore23JSTimeRangesConstructorENS1_12JSDOMWrapperEEEbPNS_9ExecStateEPKNS_9HashTableEPT_RKNS_10IdentifierERNS_18PropertyDescriptorE@Base 2.2.1
 _ZN3JSC24getStaticValueDescriptorIN7WebCore23JSTouchEventConstructorENS1_12JSDOMWrapperEEEbPNS_9ExecStateEPKNS_9HashTableEPT_RKNS_10IdentifierERNS_18PropertyDescriptorE@Base 2.2.1
 _ZN3JSC24getStaticValueDescriptorIN7WebCore23JSTreeWalkerConstructorENS1_12JSDOMWrapperEEEbPNS_9ExecStateEPKNS_9HashTableEPT_RKNS_10IdentifierERNS_18PropertyDescriptorE@Base 2.2.1
 _ZN3JSC24getStaticValueDescriptorIN7WebCore23JSUint8ArrayConstructorENS1_12JSDOMWrapperEEEbPNS_9ExecStateEPKNS_9HashTableEPT_RKNS_10IdentifierERNS_18PropertyDescriptorE@Base 2.2.1
 _ZN3JSC24getStaticValueDescriptorIN7WebCore23JSWebKitCSSKeyframeRuleENS1_9JSCSSRuleEEEbPNS_9ExecStateEPKNS_9HashTableEPT_RKNS_10IdentifierERNS_18PropertyDescriptorE@Base 2.2.1
 _ZN3JSC24getStaticValueDescriptorIN7WebCore23JSWebKitTransitionEventENS1_7JSEventEEEbPNS_9ExecStateEPKNS_9HashTableEPT_RKNS_10IdentifierERNS_18PropertyDescriptorE@Base 2.2.1
 _ZN3JSC24getStaticValueDescriptorIN7WebCore23JSWheelEventConstructorENS1_12JSDOMWrapperEEEbPNS_9ExecStateEPKNS_9HashTableEPT_RKNS_10IdentifierERNS_18PropertyDescriptorE@Base 2.2.1
 _ZN3JSC24getStaticValueDescriptorIN7WebCore24JSArrayBufferConstructorENS1_12JSDOMWrapperEEEbPNS_9ExecStateEPKNS_9HashTableEPT_RKNS_10IdentifierERNS_18PropertyDescriptorE@Base 2.2.1
 _ZN3JSC24getStaticValueDescriptorIN7WebCore24JSCSSPageRuleConstructorENS1_12JSDOMWrapperEEEbPNS_9ExecStateEPKNS_9HashTableEPT_RKNS_10IdentifierERNS_18PropertyDescriptorE@Base 2.2.1
 _ZN3JSC24getStaticValueDescriptorIN7WebCore24JSCSSRuleListConstructorENS1_12JSDOMWrapperEEEbPNS_9ExecStateEPKNS_9HashTableEPT_RKNS_10IdentifierERNS_18PropertyDescriptorE@Base 2.2.1
 _ZN3JSC24getStaticValueDescriptorIN7WebCore24JSCanvasRenderingContextENS1_12JSDOMWrapperEEEbPNS_9ExecStateEPKNS_9HashTableEPT_RKNS_10IdentifierERNS_18PropertyDescriptorE@Base 2.2.1
 _ZN3JSC24getStaticValueDescriptorIN7WebCore24JSCustomEventConstructorENS1_12JSDOMWrapperEEEbPNS_9ExecStateEPKNS_9HashTableEPT_RKNS_10IdentifierERNS_18PropertyDescriptorE@Base 2.2.1
 _ZN3JSC24getStaticValueDescriptorIN7WebCore24JSDOMFormDataConstructorENS1_12JSDOMWrapperEEEbPNS_9ExecStateEPKNS_9HashTableEPT_RKNS_10IdentifierERNS_18PropertyDescriptorE@Base 2.2.1
 _ZN3JSC24getStaticValueDescriptorIN7WebCore24JSDOMMimeTypeConstructorENS1_12JSDOMWrapperEEEbPNS_9ExecStateEPKNS_9HashTableEPT_RKNS_10IdentifierERNS_18PropertyDescriptorE@Base 2.2.1
 _ZN3JSC24getStaticValueDescriptorIN7WebCore24JSDedicatedWorkerContextENS1_15JSWorkerContextEEEbPNS_9ExecStateEPKNS_9HashTableEPT_RKNS_10IdentifierERNS_18PropertyDescriptorE@Base 2.2.1
 _ZN3JSC24getStaticValueDescriptorIN7WebCore24JSEventSourceConstructorENS1_12JSDOMWrapperEEEbPNS_9ExecStateEPKNS_9HashTableEPT_RKNS_10IdentifierERNS_18PropertyDescriptorE@Base 2.2.1
 _ZN3JSC24getStaticValueDescriptorIN7WebCore24JSHTMLElementConstructorENS1_12JSDOMWrapperEEEbPNS_9ExecStateEPKNS_9HashTableEPT_RKNS_10IdentifierERNS_18PropertyDescriptorE@Base 2.2.1
 _ZN3JSC24getStaticValueDescriptorIN7WebCore24JSMessagePortConstructorENS1_12JSDOMWrapperEEEbPNS_9ExecStateEPKNS_9HashTableEPT_RKNS_10IdentifierERNS_18PropertyDescriptorE@Base 2.2.1
 _ZN3JSC24getStaticValueDescriptorIN7WebCore24JSSVGAElementConstructorENS1_12JSDOMWrapperEEEbPNS_9ExecStateEPKNS_9HashTableEPT_RKNS_10IdentifierERNS_18PropertyDescriptorE@Base 2.2.1
 _ZN3JSC24getStaticValueDescriptorIN7WebCore24JSSVGAnimateColorElementENS1_21JSSVGAnimationElementEEEbPNS_9ExecStateEPKNS_9HashTableEPT_RKNS_10IdentifierERNS_18PropertyDescriptorE@Base 2.2.1
 _ZN3JSC24getStaticValueDescriptorIN7WebCore24JSSVGAnimatedEnumerationENS1_12JSDOMWrapperEEEbPNS_9ExecStateEPKNS_9HashTableEPT_RKNS_10IdentifierERNS_18PropertyDescriptorE@Base 2.2.1
 _ZN3JSC24getStaticValueDescriptorIN7WebCore24JSSVGDocumentConstructorENS1_12JSDOMWrapperEEEbPNS_9ExecStateEPKNS_9HashTableEPT_RKNS_10IdentifierERNS_18PropertyDescriptorE@Base 2.2.1
 _ZN3JSC24getStaticValueDescriptorIN7WebCore24JSSVGElementInstanceListENS1_12JSDOMWrapperEEEbPNS_9ExecStateEPKNS_9HashTableEPT_RKNS_10IdentifierERNS_18PropertyDescriptorE@Base 2.2.1
 _ZN3JSC24getStaticValueDescriptorIN7WebCore24JSSVGFEDropShadowElementENS1_12JSSVGElementEEEbPNS_9ExecStateEPKNS_9HashTableEPT_RKNS_10IdentifierERNS_18PropertyDescriptorE@Base 2.2.1
 _ZN3JSC24getStaticValueDescriptorIN7WebCore24JSSVGFEMorphologyElementENS1_12JSSVGElementEEEbPNS_9ExecStateEPKNS_9HashTableEPT_RKNS_10IdentifierERNS_18PropertyDescriptorE@Base 2.2.1
 _ZN3JSC24getStaticValueDescriptorIN7WebCore24JSSVGFEPointLightElementENS1_12JSSVGElementEEEbPNS_9ExecStateEPKNS_9HashTableEPT_RKNS_10IdentifierERNS_18PropertyDescriptorE@Base 2.2.1
 _ZN3JSC24getStaticValueDescriptorIN7WebCore24JSSVGFETurbulenceElementENS1_12JSSVGElementEEEbPNS_9ExecStateEPKNS_9HashTableEPT_RKNS_10IdentifierERNS_18PropertyDescriptorE@Base 2.2.1
 _ZN3JSC24getStaticValueDescriptorIN7WebCore24JSSVGFontFaceNameElementENS1_12JSSVGElementEEEbPNS_9ExecStateEPKNS_9HashTableEPT_RKNS_10IdentifierERNS_18PropertyDescriptorE@Base 2.2.1
 _ZN3JSC24getStaticValueDescriptorIN7WebCore24JSSVGGElementConstructorENS1_12JSDOMWrapperEEEbPNS_9ExecStateEPKNS_9HashTableEPT_RKNS_10IdentifierERNS_18PropertyDescriptorE@Base 2.2.1
 _ZN3JSC24getStaticValueDescriptorIN7WebCore24JSSVGMissingGlyphElementENS1_12JSSVGElementEEEbPNS_9ExecStateEPKNS_9HashTableEPT_RKNS_10IdentifierERNS_18PropertyDescriptorE@Base 2.2.1
 _ZN3JSC24getStaticValueDescriptorIN7WebCore24JSSVGPreserveAspectRatioENS1_12JSDOMWrapperEEEbPNS_9ExecStateEPKNS_9HashTableEPT_RKNS_10IdentifierERNS_18PropertyDescriptorE@Base 2.2.1
 _ZN3JSC24getStaticValueDescriptorIN7WebCore24JSTextMetricsConstructorENS1_12JSDOMWrapperEEEbPNS_9ExecStateEPKNS_9HashTableEPT_RKNS_10IdentifierERNS_18PropertyDescriptorE@Base 2.2.1
 _ZN3JSC24getStaticValueDescriptorIN7WebCore24JSUint16ArrayConstructorENS1_12JSDOMWrapperEEEbPNS_9ExecStateEPKNS_9HashTableEPT_RKNS_10IdentifierERNS_18PropertyDescriptorE@Base 2.2.1
 _ZN3JSC24getStaticValueDescriptorIN7WebCore24JSUint32ArrayConstructorENS1_12JSDOMWrapperEEEbPNS_9ExecStateEPKNS_9HashTableEPT_RKNS_10IdentifierERNS_18PropertyDescriptorE@Base 2.2.1
 _ZN3JSC24getStaticValueDescriptorIN7WebCore24JSWebKitCSSKeyframesRuleENS1_9JSCSSRuleEEEbPNS_9ExecStateEPKNS_9HashTableEPT_RKNS_10IdentifierERNS_18PropertyDescriptorE@Base 2.2.1
 _ZN3JSC24getStaticValueDescriptorIN7WebCore24JSWebKitPointConstructorENS1_12JSDOMWrapperEEEbPNS_9ExecStateEPKNS_9HashTableEPT_RKNS_10IdentifierERNS_18PropertyDescriptorE@Base 2.2.1
 _ZN3JSC24getStaticValueDescriptorIN7WebCore24JSXPathResultConstructorENS1_12JSDOMWrapperEEEbPNS_9ExecStateEPKNS_9HashTableEPT_RKNS_10IdentifierERNS_18PropertyDescriptorE@Base 2.2.1
 _ZN3JSC24getStaticValueDescriptorIN7WebCore25JSCDATASectionConstructorENS1_12JSDOMWrapperEEEbPNS_9ExecStateEPKNS_9HashTableEPT_RKNS_10IdentifierERNS_18PropertyDescriptorE@Base 2.2.1
 _ZN3JSC24getStaticValueDescriptorIN7WebCore25JSCSSMediaRuleConstructorENS1_12JSDOMWrapperEEEbPNS_9ExecStateEPKNS_9HashTableEPT_RKNS_10IdentifierERNS_18PropertyDescriptorE@Base 2.2.1
 _ZN3JSC24getStaticValueDescriptorIN7WebCore25JSCSSStyleRuleConstructorENS1_12JSDOMWrapperEEEbPNS_9ExecStateEPKNS_9HashTableEPT_RKNS_10IdentifierERNS_18PropertyDescriptorE@Base 2.2.1
 _ZN3JSC24getStaticValueDescriptorIN7WebCore25JSCSSValueListConstructorENS1_12JSDOMWrapperEEEbPNS_9ExecStateEPKNS_9HashTableEPT_RKNS_10IdentifierERNS_18PropertyDescriptorE@Base 2.2.1
 _ZN3JSC24getStaticValueDescriptorIN7WebCore25JSDOMStringMapConstructorENS1_12JSDOMWrapperEEEbPNS_9ExecStateEPKNS_9HashTableEPT_RKNS_10IdentifierERNS_18PropertyDescriptorE@Base 2.2.1
 _ZN3JSC24getStaticValueDescriptorIN7WebCore25JSDOMTokenListConstructorENS1_12JSDOMWrapperEEEbPNS_9ExecStateEPKNS_9HashTableEPT_RKNS_10IdentifierERNS_18PropertyDescriptorE@Base 2.2.1
 _ZN3JSC24getStaticValueDescriptorIN7WebCore25JSDocumentTypeConstructorENS1_12JSDOMWrapperEEEbPNS_9ExecStateEPKNS_9HashTableEPT_RKNS_10IdentifierERNS_18PropertyDescriptorE@Base 2.2.1
 _ZN3JSC24getStaticValueDescriptorIN7WebCore25JSFloat32ArrayConstructorENS1_12JSDOMWrapperEEEbPNS_9ExecStateEPKNS_9HashTableEPT_RKNS_10IdentifierERNS_18PropertyDescriptorE@Base 2.2.1
 _ZN3JSC24getStaticValueDescriptorIN7WebCore25JSHTMLDocumentConstructorENS1_12JSDOMWrapperEEEbPNS_9ExecStateEPKNS_9HashTableEPT_RKNS_10IdentifierERNS_18PropertyDescriptorE@Base 2.2.1
 _ZN3JSC24getStaticValueDescriptorIN7WebCore25JSHTMLTableCaptionElementENS1_13JSHTMLElementEEEbPNS_9ExecStateEPKNS_9HashTableEPT_RKNS_10IdentifierERNS_18PropertyDescriptorE@Base 2.2.1
 _ZN3JSC24getStaticValueDescriptorIN7WebCore25JSHTMLTableSectionElementENS1_13JSHTMLElementEEEbPNS_9ExecStateEPKNS_9HashTableEPT_RKNS_10IdentifierERNS_18PropertyDescriptorE@Base 2.2.1
 _ZN3JSC24getStaticValueDescriptorIN7WebCore25JSMessageEventConstructorENS1_12JSDOMWrapperEEEbPNS_9ExecStateEPKNS_9HashTableEPT_RKNS_10IdentifierERNS_18PropertyDescriptorE@Base 2.2.1
 _ZN3JSC24getStaticValueDescriptorIN7WebCore25JSNamedNodeMapConstructorENS1_12JSDOMWrapperEEEbPNS_9ExecStateEPKNS_9HashTableEPT_RKNS_10IdentifierERNS_18PropertyDescriptorE@Base 2.2.1
 _ZN3JSC24getStaticValueDescriptorIN7WebCore25JSNodeIteratorConstructorENS1_12JSDOMWrapperEEEbPNS_9ExecStateEPKNS_9HashTableEPT_RKNS_10IdentifierERNS_18PropertyDescriptorE@Base 2.2.1
 _ZN3JSC24getStaticValueDescriptorIN7WebCore25JSSQLExceptionConstructorENS1_12JSDOMWrapperEEEbPNS_9ExecStateEPKNS_9HashTableEPT_RKNS_10IdentifierERNS_18PropertyDescriptorE@Base 2.2.1
 _ZN3JSC24getStaticValueDescriptorIN7WebCore25JSSVGExceptionConstructorENS1_12JSDOMWrapperEEEbPNS_9ExecStateEPKNS_9HashTableEPT_RKNS_10IdentifierERNS_18PropertyDescriptorE@Base 2.2.1
 _ZN3JSC24getStaticValueDescriptorIN7WebCore25JSSVGFEColorMatrixElementENS1_12JSSVGElementEEEbPNS_9ExecStateEPKNS_9HashTableEPT_RKNS_10IdentifierERNS_18PropertyDescriptorE@Base 2.2.1
 _ZN3JSC24getStaticValueDescriptorIN7WebCore25JSSVGForeignObjectElementENS1_12JSSVGElementEEEbPNS_9ExecStateEPKNS_9HashTableEPT_RKNS_10IdentifierERNS_18PropertyDescriptorE@Base 2.2.1
 _ZN3JSC24getStaticValueDescriptorIN7WebCore25JSSVGPointListConstructorENS1_12JSDOMWrapperEEEbPNS_9ExecStateEPKNS_9HashTableEPT_RKNS_10IdentifierERNS_18PropertyDescriptorE@Base 2.2.1
 _ZN3JSC24getStaticValueDescriptorIN7WebCore25JSSVGTransformConstructorENS1_12JSDOMWrapperEEEbPNS_9ExecStateEPKNS_9HashTableEPT_RKNS_10IdentifierERNS_18PropertyDescriptorE@Base 2.2.1
 _ZN3JSC24getStaticValueDescriptorIN7WebCore25JSSVGUnitTypesConstructorENS1_12JSDOMWrapperEEEbPNS_9ExecStateEPKNS_9HashTableEPT_RKNS_10IdentifierERNS_18PropertyDescriptorE@Base 2.2.1
 _ZN3JSC24getStaticValueDescriptorIN7WebCore25JSSVGViewElementPrototypeENS_8JSObjectEEEbPNS_9ExecStateEPKNS_9HashTableEPT_RKNS_10IdentifierERNS_18PropertyDescriptorE@Base 2.2.1
 _ZN3JSC24getStaticValueDescriptorIN7WebCore25JSSVGZoomEventConstructorENS1_12JSDOMWrapperEEEbPNS_9ExecStateEPKNS_9HashTableEPT_RKNS_10IdentifierERNS_18PropertyDescriptorE@Base 2.2.1
 _ZN3JSC24getStaticValueDescriptorIN7WebCore25JSSharedWorkerConstructorENS1_12JSDOMWrapperEEEbPNS_9ExecStateEPKNS_9HashTableEPT_RKNS_10IdentifierERNS_18PropertyDescriptorE@Base 2.2.1
 _ZN3JSC24getStaticValueDescriptorIN7WebCore25JSStorageEventConstructorENS1_12JSDOMWrapperEEEbPNS_9ExecStateEPKNS_9HashTableEPT_RKNS_10IdentifierERNS_18PropertyDescriptorE@Base 2.2.1
 _ZN3JSC24getStaticValueDescriptorIN7WebCore25JSWebKitCSSTransformValueENS1_14JSCSSValueListEEEbPNS_9ExecStateEPKNS_9HashTableEPT_RKNS_10IdentifierERNS_18PropertyDescriptorE@Base 2.2.1
 _ZN3JSC24getStaticValueDescriptorIN7WebCore25JSXMLHttpRequestExceptionENS1_12JSDOMWrapperEEEbPNS_9ExecStateEPKNS_9HashTableEPT_RKNS_10IdentifierERNS_18PropertyDescriptorE@Base 2.2.1
 _ZN3JSC24getStaticValueDescriptorIN7WebCore26JSCSSImportRuleConstructorENS1_12JSDOMWrapperEEEbPNS_9ExecStateEPKNS_9HashTableEPT_RKNS_10IdentifierERNS_18PropertyDescriptorE@Base 2.2.1
 _ZN3JSC24getStaticValueDescriptorIN7WebCore26JSCSSStyleSheetConstructorENS1_12JSDOMWrapperEEEbPNS_9ExecStateEPKNS_9HashTableEPT_RKNS_10IdentifierERNS_18PropertyDescriptorE@Base 2.2.1
 _ZN3JSC24getStaticValueDescriptorIN7WebCore26JSCanvasPatternConstructorENS1_12JSDOMWrapperEEEbPNS_9ExecStateEPKNS_9HashTableEPT_RKNS_10IdentifierERNS_18PropertyDescriptorE@Base 2.2.1
 _ZN3JSC24getStaticValueDescriptorIN7WebCore26JSCanvasRenderingContext2DENS1_24JSCanvasRenderingContextEEEbPNS_9ExecStateEPKNS_9HashTableEPT_RKNS_10IdentifierERNS_18PropertyDescriptorE@Base 2.2.1
 _ZN3JSC24getStaticValueDescriptorIN7WebCore26JSCharacterDataConstructorENS1_12JSDOMWrapperEEEbPNS_9ExecStateEPKNS_9HashTableEPT_RKNS_10IdentifierERNS_18PropertyDescriptorE@Base 2.2.1
 _ZN3JSC24getStaticValueDescriptorIN7WebCore26JSDOMStringListConstructorENS1_12JSDOMWrapperEEEbPNS_9ExecStateEPKNS_9HashTableEPT_RKNS_10IdentifierERNS_18PropertyDescriptorE@Base 2.2.1
 _ZN3JSC24getStaticValueDescriptorIN7WebCore26JSFileExceptionConstructorENS1_12JSDOMWrapperEEEbPNS_9ExecStateEPKNS_9HashTableEPT_RKNS_10IdentifierERNS_18PropertyDescriptorE@Base 2.2.1
 _ZN3JSC24getStaticValueDescriptorIN7WebCore26JSHTMLBRElementConstructorENS1_12JSDOMWrapperEEEbPNS_9ExecStateEPKNS_9HashTableEPT_RKNS_10IdentifierERNS_18PropertyDescriptorE@Base 2.2.1
 _ZN3JSC24getStaticValueDescriptorIN7WebCore26JSHTMLHRElementConstructorENS1_12JSDOMWrapperEEEbPNS_9ExecStateEPKNS_9HashTableEPT_RKNS_10IdentifierERNS_18PropertyDescriptorE@Base 2.2.1
 _ZN3JSC24getStaticValueDescriptorIN7WebCore26JSHTMLLIElementConstructorENS1_12JSDOMWrapperEEEbPNS_9ExecStateEPKNS_9HashTableEPT_RKNS_10IdentifierERNS_18PropertyDescriptorE@Base 2.2.1
 _ZN3JSC24getStaticValueDescriptorIN7WebCore26JSKeyboardEventConstructorENS1_12JSDOMWrapperEEEbPNS_9ExecStateEPKNS_9HashTableEPT_RKNS_10IdentifierERNS_18PropertyDescriptorE@Base 2.2.1
 _ZN3JSC24getStaticValueDescriptorIN7WebCore26JSMutationEventConstructorENS1_12JSDOMWrapperEEEbPNS_9ExecStateEPKNS_9HashTableEPT_RKNS_10IdentifierERNS_18PropertyDescriptorE@Base 2.2.1
 _ZN3JSC24getStaticValueDescriptorIN7WebCore26JSOverflowEventConstructorENS1_12JSDOMWrapperEEEbPNS_9ExecStateEPKNS_9HashTableEPT_RKNS_10IdentifierERNS_18PropertyDescriptorE@Base 2.2.1
 _ZN3JSC24getStaticValueDescriptorIN7WebCore26JSPopStateEventConstructorENS1_12JSDOMWrapperEEEbPNS_9ExecStateEPKNS_9HashTableEPT_RKNS_10IdentifierERNS_18PropertyDescriptorE@Base 2.2.1
 _ZN3JSC24getStaticValueDescriptorIN7WebCore26JSProgressEventConstructorENS1_12JSDOMWrapperEEEbPNS_9ExecStateEPKNS_9HashTableEPT_RKNS_10IdentifierERNS_18PropertyDescriptorE@Base 2.2.1
 _ZN3JSC24getStaticValueDescriptorIN7WebCore26JSSVGAnimatedTransformListENS1_12JSDOMWrapperEEEbPNS_9ExecStateEPKNS_9HashTableEPT_RKNS_10IdentifierERNS_18PropertyDescriptorE@Base 2.2.1
 _ZN3JSC24getStaticValueDescriptorIN7WebCore26JSSVGFEDistantLightElementENS1_12JSSVGElementEEEbPNS_9ExecStateEPKNS_9HashTableEPT_RKNS_10IdentifierERNS_18PropertyDescriptorE@Base 2.2.1
 _ZN3JSC24getStaticValueDescriptorIN7WebCore26JSSVGFEGaussianBlurElementENS1_12JSSVGElementEEEbPNS_9ExecStateEPKNS_9HashTableEPT_RKNS_10IdentifierERNS_18PropertyDescriptorE@Base 2.2.1
 _ZN3JSC24getStaticValueDescriptorIN7WebCore26JSSVGFontFaceFormatElementENS1_12JSSVGElementEEEbPNS_9ExecStateEPKNS_9HashTableEPT_RKNS_10IdentifierERNS_18PropertyDescriptorE@Base 2.2.1
 _ZN3JSC24getStaticValueDescriptorIN7WebCore26JSSVGLengthListConstructorENS1_12JSDOMWrapperEEEbPNS_9ExecStateEPKNS_9HashTableEPT_RKNS_10IdentifierERNS_18PropertyDescriptorE@Base 2.2.1
 _ZN3JSC24getStaticValueDescriptorIN7WebCore26JSSVGLinearGradientElementENS1_20JSSVGGradientElementEEEbPNS_9ExecStateEPKNS_9HashTableEPT_RKNS_10IdentifierERNS_18PropertyDescriptorE@Base 2.2.1
 _ZN3JSC24getStaticValueDescriptorIN7WebCore26JSSVGNumberListConstructorENS1_12JSDOMWrapperEEEbPNS_9ExecStateEPKNS_9HashTableEPT_RKNS_10IdentifierERNS_18PropertyDescriptorE@Base 2.2.1
 _ZN3JSC24getStaticValueDescriptorIN7WebCore26JSSVGRadialGradientElementENS1_20JSSVGGradientElementEEEbPNS_9ExecStateEPKNS_9HashTableEPT_RKNS_10IdentifierERNS_18PropertyDescriptorE@Base 2.2.1
 _ZN3JSC24getStaticValueDescriptorIN7WebCore26JSSVGSVGElementConstructorENS1_12JSDOMWrapperEEEbPNS_9ExecStateEPKNS_9HashTableEPT_RKNS_10IdentifierERNS_18PropertyDescriptorE@Base 2.2.1
 _ZN3JSC24getStaticValueDescriptorIN7WebCore26JSSVGSetElementConstructorENS1_12JSDOMWrapperEEEbPNS_9ExecStateEPKNS_9HashTableEPT_RKNS_10IdentifierERNS_18PropertyDescriptorE@Base 2.2.1
 _ZN3JSC24getStaticValueDescriptorIN7WebCore26JSSVGStringListConstructorENS1_12JSDOMWrapperEEEbPNS_9ExecStateEPKNS_9HashTableEPT_RKNS_10IdentifierERNS_18PropertyDescriptorE@Base 2.2.1
 _ZN3JSC24getStaticValueDescriptorIN7WebCore26JSSVGUseElementConstructorENS1_12JSDOMWrapperEEEbPNS_9ExecStateEPKNS_9HashTableEPT_RKNS_10IdentifierERNS_18PropertyDescriptorE@Base 2.2.1
 _ZN3JSC24getStaticValueDescriptorIN7WebCore26JSXMLSerializerConstructorENS1_12JSDOMWrapperEEEbPNS_9ExecStateEPKNS_9HashTableEPT_RKNS_10IdentifierERNS_18PropertyDescriptorE@Base 2.2.1
 _ZN3JSC24getStaticValueDescriptorIN7WebCore27JSAbstractWorkerConstructorENS1_12JSDOMWrapperEEEbPNS_9ExecStateEPKNS_9HashTableEPT_RKNS_10IdentifierERNS_18PropertyDescriptorE@Base 2.2.1
 _ZN3JSC24getStaticValueDescriptorIN7WebCore27JSCSSCharsetRuleConstructorENS1_12JSDOMWrapperEEEbPNS_9ExecStateEPKNS_9HashTableEPT_RKNS_10IdentifierERNS_18PropertyDescriptorE@Base 2.2.1
 _ZN3JSC24getStaticValueDescriptorIN7WebCore27JSCanvasGradientConstructorENS1_12JSDOMWrapperEEEbPNS_9ExecStateEPKNS_9HashTableEPT_RKNS_10IdentifierERNS_18PropertyDescriptorE@Base 2.2.1
 _ZN3JSC24getStaticValueDescriptorIN7WebCore27JSClientRectListConstructorENS1_12JSDOMWrapperEEEbPNS_9ExecStateEPKNS_9HashTableEPT_RKNS_10IdentifierERNS_18PropertyDescriptorE@Base 2.2.1
 _ZN3JSC24getStaticValueDescriptorIN7WebCore27JSDOMPluginArrayConstructorENS1_12JSDOMWrapperEEEbPNS_9ExecStateEPKNS_9HashTableEPT_RKNS_10IdentifierERNS_18PropertyDescriptorE@Base 2.2.1
 _ZN3JSC24getStaticValueDescriptorIN7WebCore27JSEventExceptionConstructorENS1_12JSDOMWrapperEEEbPNS_9ExecStateEPKNS_9HashTableEPT_RKNS_10IdentifierERNS_18PropertyDescriptorE@Base 2.2.1
 _ZN3JSC24getStaticValueDescriptorIN7WebCore27JSFileReaderSyncConstructorENS1_12JSDOMWrapperEEEbPNS_9ExecStateEPKNS_9HashTableEPT_RKNS_10IdentifierERNS_18PropertyDescriptorE@Base 2.2.1
 _ZN3JSC24getStaticValueDescriptorIN7WebCore27JSHTMLCollectionConstructorENS1_12JSDOMWrapperEEEbPNS_9ExecStateEPKNS_9HashTableEPT_RKNS_10IdentifierERNS_18PropertyDescriptorE@Base 2.2.1
 _ZN3JSC24getStaticValueDescriptorIN7WebCore27JSHTMLDivElementConstructorENS1_12JSDOMWrapperEEEbPNS_9ExecStateEPKNS_9HashTableEPT_RKNS_10IdentifierERNS_18PropertyDescriptorE@Base 2.2.1
 _ZN3JSC24getStaticValueDescriptorIN7WebCore27JSHTMLMapElementConstructorENS1_12JSDOMWrapperEEEbPNS_9ExecStateEPKNS_9HashTableEPT_RKNS_10IdentifierERNS_18PropertyDescriptorE@Base 2.2.1
 _ZN3JSC24getStaticValueDescriptorIN7WebCore27JSHTMLModElementConstructorENS1_12JSDOMWrapperEEEbPNS_9ExecStateEPKNS_9HashTableEPT_RKNS_10IdentifierERNS_18PropertyDescriptorE@Base 2.2.1
 _ZN3JSC24getStaticValueDescriptorIN7WebCore27JSHTMLPreElementConstructorENS1_12JSDOMWrapperEEEbPNS_9ExecStateEPKNS_9HashTableEPT_RKNS_10IdentifierERNS_18PropertyDescriptorE@Base 2.2.1
 _ZN3JSC24getStaticValueDescriptorIN7WebCore27JSMediaQueryListConstructorENS1_12JSDOMWrapperEEEbPNS_9ExecStateEPKNS_9HashTableEPT_RKNS_10IdentifierERNS_18PropertyDescriptorE@Base 2.2.1
 _ZN3JSC24getStaticValueDescriptorIN7WebCore27JSMessageChannelConstructorENS1_12JSDOMWrapperEEEbPNS_9ExecStateEPKNS_9HashTableEPT_RKNS_10IdentifierERNS_18PropertyDescriptorE@Base 2.2.1
 _ZN3JSC24getStaticValueDescriptorIN7WebCore27JSRangeExceptionConstructorENS1_12JSDOMWrapperEEEbPNS_9ExecStateEPKNS_9HashTableEPT_RKNS_10IdentifierERNS_18PropertyDescriptorE@Base 2.2.1
 _ZN3JSC24getStaticValueDescriptorIN7WebCore27JSSVGDefsElementConstructorENS1_12JSDOMWrapperEEEbPNS_9ExecStateEPKNS_9HashTableEPT_RKNS_10IdentifierERNS_18PropertyDescriptorE@Base 2.2.1
 _ZN3JSC24getStaticValueDescriptorIN7WebCore27JSSVGDescElementConstructorENS1_12JSDOMWrapperEEEbPNS_9ExecStateEPKNS_9HashTableEPT_RKNS_10IdentifierERNS_18PropertyDescriptorE@Base 2.2.1
 _ZN3JSC24getStaticValueDescriptorIN7WebCore27JSSVGFontElementConstructorENS1_12JSDOMWrapperEEEbPNS_9ExecStateEPKNS_9HashTableEPT_RKNS_10IdentifierERNS_18PropertyDescriptorE@Base 2.2.1
 _ZN3JSC24getStaticValueDescriptorIN7WebCore27JSSVGLineElementConstructorENS1_12JSDOMWrapperEEEbPNS_9ExecStateEPKNS_9HashTableEPT_RKNS_10IdentifierERNS_18PropertyDescriptorE@Base 2.2.1
 _ZN3JSC24getStaticValueDescriptorIN7WebCore27JSSVGMaskElementConstructorENS1_12JSDOMWrapperEEEbPNS_9ExecStateEPKNS_9HashTableEPT_RKNS_10IdentifierERNS_18PropertyDescriptorE@Base 2.2.1
 _ZN3JSC24getStaticValueDescriptorIN7WebCore27JSSVGPathElementConstructorENS1_12JSDOMWrapperEEEbPNS_9ExecStateEPKNS_9HashTableEPT_RKNS_10IdentifierERNS_18PropertyDescriptorE@Base 2.2.1
 _ZN3JSC24getStaticValueDescriptorIN7WebCore27JSSVGPathSegCurvetoCubicAbsENS1_12JSSVGPathSegEEEbPNS_9ExecStateEPKNS_9HashTableEPT_RKNS_10IdentifierERNS_18PropertyDescriptorE@Base 2.2.1
 _ZN3JSC24getStaticValueDescriptorIN7WebCore27JSSVGPathSegCurvetoCubicRelENS1_12JSSVGPathSegEEEbPNS_9ExecStateEPKNS_9HashTableEPT_RKNS_10IdentifierERNS_18PropertyDescriptorE@Base 2.2.1
 _ZN3JSC24getStaticValueDescriptorIN7WebCore27JSSVGPathSegListConstructorENS1_12JSDOMWrapperEEEbPNS_9ExecStateEPKNS_9HashTableEPT_RKNS_10IdentifierERNS_18PropertyDescriptorE@Base 2.2.1
 _ZN3JSC24getStaticValueDescriptorIN7WebCore27JSSVGRectElementConstructorENS1_12JSDOMWrapperEEEbPNS_9ExecStateEPKNS_9HashTableEPT_RKNS_10IdentifierERNS_18PropertyDescriptorE@Base 2.2.1
 _ZN3JSC24getStaticValueDescriptorIN7WebCore27JSSVGStopElementConstructorENS1_12JSDOMWrapperEEEbPNS_9ExecStateEPKNS_9HashTableEPT_RKNS_10IdentifierERNS_18PropertyDescriptorE@Base 2.2.1
 _ZN3JSC24getStaticValueDescriptorIN7WebCore27JSSVGTRefElementConstructorENS1_12JSDOMWrapperEEEbPNS_9ExecStateEPKNS_9HashTableEPT_RKNS_10IdentifierERNS_18PropertyDescriptorE@Base 2.2.1
 _ZN3JSC24getStaticValueDescriptorIN7WebCore27JSSVGTextElementConstructorENS1_12JSDOMWrapperEEEbPNS_9ExecStateEPKNS_9HashTableEPT_RKNS_10IdentifierERNS_18PropertyDescriptorE@Base 2.2.1
 _ZN3JSC24getStaticValueDescriptorIN7WebCore27JSSVGTextPositioningElementENS1_23JSSVGTextContentElementEEEbPNS_9ExecStateEPKNS_9HashTableEPT_RKNS_10IdentifierERNS_18PropertyDescriptorE@Base 2.2.1
 _ZN3JSC24getStaticValueDescriptorIN7WebCore27JSSVGViewElementConstructorENS1_12JSDOMWrapperEEEbPNS_9ExecStateEPKNS_9HashTableEPT_RKNS_10IdentifierERNS_18PropertyDescriptorE@Base 2.2.1
 _ZN3JSC24getStaticValueDescriptorIN7WebCore27JSStyleSheetListConstructorENS1_12JSDOMWrapperEEEbPNS_9ExecStateEPKNS_9HashTableEPT_RKNS_10IdentifierERNS_18PropertyDescriptorE@Base 2.2.1
 _ZN3JSC24getStaticValueDescriptorIN7WebCore27JSWorkerLocationConstructorENS1_12JSDOMWrapperEEEbPNS_9ExecStateEPKNS_9HashTableEPT_RKNS_10IdentifierERNS_18PropertyDescriptorE@Base 2.2.1
 _ZN3JSC24getStaticValueDescriptorIN7WebCore27JSXMLHttpRequestConstructorENS1_12JSDOMWrapperEEEbPNS_9ExecStateEPKNS_9HashTableEPT_RKNS_10IdentifierERNS_18PropertyDescriptorE@Base 2.2.1
 _ZN3JSC24getStaticValueDescriptorIN7WebCore27JSXPathEvaluatorConstructorENS1_12JSDOMWrapperEEEbPNS_9ExecStateEPKNS_9HashTableEPT_RKNS_10IdentifierERNS_18PropertyDescriptorE@Base 2.2.1
 _ZN3JSC24getStaticValueDescriptorIN7WebCore27JSXPathExceptionConstructorENS1_12JSDOMWrapperEEEbPNS_9ExecStateEPKNS_9HashTableEPT_RKNS_10IdentifierERNS_18PropertyDescriptorE@Base 2.2.1
 _ZN3JSC24getStaticValueDescriptorIN7WebCore28JSBeforeLoadEventConstructorENS1_12JSDOMWrapperEEEbPNS_9ExecStateEPKNS_9HashTableEPT_RKNS_10IdentifierERNS_18PropertyDescriptorE@Base 2.2.1
 _ZN3JSC24getStaticValueDescriptorIN7WebCore28JSCSSFontFaceRuleConstructorENS1_12JSDOMWrapperEEEbPNS_9ExecStateEPKNS_9HashTableEPT_RKNS_10IdentifierERNS_18PropertyDescriptorE@Base 2.2.1
 _ZN3JSC24getStaticValueDescriptorIN7WebCore28JSEntityReferenceConstructorENS1_12JSDOMWrapperEEEbPNS_9ExecStateEPKNS_9HashTableEPT_RKNS_10IdentifierERNS_18PropertyDescriptorE@Base 2.2.1
 _ZN3JSC24getStaticValueDescriptorIN7WebCore28JSHTMLAreaElementConstructorENS1_12JSDOMWrapperEEEbPNS_9ExecStateEPKNS_9HashTableEPT_RKNS_10IdentifierERNS_18PropertyDescriptorE@Base 2.2.1
 _ZN3JSC24getStaticValueDescriptorIN7WebCore28JSHTMLBaseElementConstructorENS1_12JSDOMWrapperEEEbPNS_9ExecStateEPKNS_9HashTableEPT_RKNS_10IdentifierERNS_18PropertyDescriptorE@Base 2.2.1
 _ZN3JSC24getStaticValueDescriptorIN7WebCore28JSHTMLBodyElementConstructorENS1_12JSDOMWrapperEEEbPNS_9ExecStateEPKNS_9HashTableEPT_RKNS_10IdentifierERNS_18PropertyDescriptorE@Base 2.2.1
 _ZN3JSC24getStaticValueDescriptorIN7WebCore28JSHTMLFontElementConstructorENS1_12JSDOMWrapperEEEbPNS_9ExecStateEPKNS_9HashTableEPT_RKNS_10IdentifierERNS_18PropertyDescriptorE@Base 2.2.1
 _ZN3JSC24getStaticValueDescriptorIN7WebCore28JSHTMLFormElementConstructorENS1_12JSDOMWrapperEEEbPNS_9ExecStateEPKNS_9HashTableEPT_RKNS_10IdentifierERNS_18PropertyDescriptorE@Base 2.2.1
 _ZN3JSC24getStaticValueDescriptorIN7WebCore28JSHTMLHeadElementConstructorENS1_12JSDOMWrapperEEEbPNS_9ExecStateEPKNS_9HashTableEPT_RKNS_10IdentifierERNS_18PropertyDescriptorE@Base 2.2.1
 _ZN3JSC24getStaticValueDescriptorIN7WebCore28JSHTMLHtmlElementConstructorENS1_12JSDOMWrapperEEEbPNS_9ExecStateEPKNS_9HashTableEPT_RKNS_10IdentifierERNS_18PropertyDescriptorE@Base 2.2.1
 _ZN3JSC24getStaticValueDescriptorIN7WebCore28JSHTMLLinkElementConstructorENS1_12JSDOMWrapperEEEbPNS_9ExecStateEPKNS_9HashTableEPT_RKNS_10IdentifierERNS_18PropertyDescriptorE@Base 2.2.1
 _ZN3JSC24getStaticValueDescriptorIN7WebCore28JSHTMLMenuElementConstructorENS1_12JSDOMWrapperEEEbPNS_9ExecStateEPKNS_9HashTableEPT_RKNS_10IdentifierERNS_18PropertyDescriptorE@Base 2.2.1
 _ZN3JSC24getStaticValueDescriptorIN7WebCore28JSHTMLMetaElementConstructorENS1_12JSDOMWrapperEEEbPNS_9ExecStateEPKNS_9HashTableEPT_RKNS_10IdentifierERNS_18PropertyDescriptorE@Base 2.2.1
 _ZN3JSC24getStaticValueDescriptorIN7WebCore28JSHashChangeEventConstructorENS1_12JSDOMWrapperEEEbPNS_9ExecStateEPKNS_9HashTableEPT_RKNS_10IdentifierERNS_18PropertyDescriptorE@Base 2.2.1
 _ZN3JSC24getStaticValueDescriptorIN7WebCore28JSSVGAnimateTransformElementENS1_21JSSVGAnimationElementEEEbPNS_9ExecStateEPKNS_9HashTableEPT_RKNS_10IdentifierERNS_18PropertyDescriptorE@Base 2.2.1
 _ZN3JSC24getStaticValueDescriptorIN7WebCore28JSSVGAnimatedRectConstructorENS1_12JSDOMWrapperEEEbPNS_9ExecStateEPKNS_9HashTableEPT_RKNS_10IdentifierERNS_18PropertyDescriptorE@Base 2.2.1
 _ZN3JSC24getStaticValueDescriptorIN7WebCore28JSSVGFEConvolveMatrixElementENS1_12JSSVGElementEEEbPNS_9ExecStateEPKNS_9HashTableEPT_RKNS_10IdentifierERNS_18PropertyDescriptorE@Base 2.2.1
 _ZN3JSC24getStaticValueDescriptorIN7WebCore28JSSVGGlyphElementConstructorENS1_12JSDOMWrapperEEEbPNS_9ExecStateEPKNS_9HashTableEPT_RKNS_10IdentifierERNS_18PropertyDescriptorE@Base 2.2.1
 _ZN3JSC24getStaticValueDescriptorIN7WebCore28JSSVGHKernElementConstructorENS1_12JSDOMWrapperEEEbPNS_9ExecStateEPKNS_9HashTableEPT_RKNS_10IdentifierERNS_18PropertyDescriptorE@Base 2.2.1
 _ZN3JSC24getStaticValueDescriptorIN7WebCore28JSSVGImageElementConstructorENS1_12JSDOMWrapperEEEbPNS_9ExecStateEPKNS_9HashTableEPT_RKNS_10IdentifierERNS_18PropertyDescriptorE@Base 2.2.1
 _ZN3JSC24getStaticValueDescriptorIN7WebCore28JSSVGStyleElementConstructorENS1_12JSDOMWrapperEEEbPNS_9ExecStateEPKNS_9HashTableEPT_RKNS_10IdentifierERNS_18PropertyDescriptorE@Base 2.2.1
 _ZN3JSC24getStaticValueDescriptorIN7WebCore28JSSVGTSpanElementConstructorENS1_12JSDOMWrapperEEEbPNS_9ExecStateEPKNS_9HashTableEPT_RKNS_10IdentifierERNS_18PropertyDescriptorE@Base 2.2.1
 _ZN3JSC24getStaticValueDescriptorIN7WebCore28JSSVGTitleElementConstructorENS1_12JSDOMWrapperEEEbPNS_9ExecStateEPKNS_9HashTableEPT_RKNS_10IdentifierERNS_18PropertyDescriptorE@Base 2.2.1
 _ZN3JSC24getStaticValueDescriptorIN7WebCore28JSSVGVKernElementConstructorENS1_12JSDOMWrapperEEEbPNS_9ExecStateEPKNS_9HashTableEPT_RKNS_10IdentifierERNS_18PropertyDescriptorE@Base 2.2.1
 _ZN3JSC24getStaticValueDescriptorIN7WebCore28JSWebKitAnimationConstructorENS1_12JSDOMWrapperEEEbPNS_9ExecStateEPKNS_9HashTableEPT_RKNS_10IdentifierERNS_18PropertyDescriptorE@Base 2.2.1
 _ZN3JSC24getStaticValueDescriptorIN7WebCore28JSWebKitCSSMatrixConstructorENS1_12JSDOMWrapperEEEbPNS_9ExecStateEPKNS_9HashTableEPT_RKNS_10IdentifierERNS_18PropertyDescriptorE@Base 2.2.1
 _ZN3JSC24getStaticValueDescriptorIN7WebCore28JSXPathExpressionConstructorENS1_12JSDOMWrapperEEEbPNS_9ExecStateEPKNS_9HashTableEPT_RKNS_10IdentifierERNS_18PropertyDescriptorE@Base 2.2.1
 _ZN3JSC24getStaticValueDescriptorIN7WebCore29JSCompositionEventConstructorENS1_12JSDOMWrapperEEEbPNS_9ExecStateEPKNS_9HashTableEPT_RKNS_10IdentifierERNS_18PropertyDescriptorE@Base 2.2.1
 _ZN3JSC24getStaticValueDescriptorIN7WebCore29JSDOMCoreExceptionConstructorENS1_12JSDOMWrapperEEEbPNS_9ExecStateEPKNS_9HashTableEPT_RKNS_10IdentifierERNS_18PropertyDescriptorE@Base 2.2.1
 _ZN3JSC24getStaticValueDescriptorIN7WebCore29JSDOMMimeTypeArrayConstructorENS1_12JSDOMWrapperEEEbPNS_9ExecStateEPKNS_9HashTableEPT_RKNS_10IdentifierERNS_18PropertyDescriptorE@Base 2.2.1
 _ZN3JSC24getStaticValueDescriptorIN7WebCore29JSDocumentFragmentConstructorENS1_12JSDOMWrapperEEEbPNS_9ExecStateEPKNS_9HashTableEPT_RKNS_10IdentifierERNS_18PropertyDescriptorE@Base 2.2.1
 _ZN3JSC24getStaticValueDescriptorIN7WebCore29JSHTMLAudioElementConstructorENS1_12JSDOMWrapperEEEbPNS_9ExecStateEPKNS_9HashTableEPT_RKNS_10IdentifierERNS_18PropertyDescriptorE@Base 2.2.1
 _ZN3JSC24getStaticValueDescriptorIN7WebCore29JSHTMLDListElementConstructorENS1_12JSDOMWrapperEEEbPNS_9ExecStateEPKNS_9HashTableEPT_RKNS_10IdentifierERNS_18PropertyDescriptorE@Base 2.2.1
 _ZN3JSC24getStaticValueDescriptorIN7WebCore29JSHTMLEmbedElementConstructorENS1_12JSDOMWrapperEEEbPNS_9ExecStateEPKNS_9HashTableEPT_RKNS_10IdentifierERNS_18PropertyDescriptorE@Base 2.2.1
 _ZN3JSC24getStaticValueDescriptorIN7WebCore29JSHTMLFrameElementConstructorENS1_12JSDOMWrapperEEEbPNS_9ExecStateEPKNS_9HashTableEPT_RKNS_10IdentifierERNS_18PropertyDescriptorE@Base 2.2.1
 _ZN3JSC24getStaticValueDescriptorIN7WebCore29JSHTMLImageElementConstructorENS1_12JSDOMWrapperEEEbPNS_9ExecStateEPKNS_9HashTableEPT_RKNS_10IdentifierERNS_18PropertyDescriptorE@Base 2.2.1
 _ZN3JSC24getStaticValueDescriptorIN7WebCore29JSHTMLInputElementConstructorENS1_12JSDOMWrapperEEEbPNS_9ExecStateEPKNS_9HashTableEPT_RKNS_10IdentifierERNS_18PropertyDescriptorE@Base 2.2.1
 _ZN3JSC24getStaticValueDescriptorIN7WebCore29JSHTMLLabelElementConstructorENS1_12JSDOMWrapperEEEbPNS_9ExecStateEPKNS_9HashTableEPT_RKNS_10IdentifierERNS_18PropertyDescriptorE@Base 2.2.1
 _ZN3JSC24getStaticValueDescriptorIN7WebCore29JSHTMLMediaElementConstructorENS1_12JSDOMWrapperEEEbPNS_9ExecStateEPKNS_9HashTableEPT_RKNS_10IdentifierERNS_18PropertyDescriptorE@Base 2.2.1
 _ZN3JSC24getStaticValueDescriptorIN7WebCore29JSHTMLMeterElementConstructorENS1_12JSDOMWrapperEEEbPNS_9ExecStateEPKNS_9HashTableEPT_RKNS_10IdentifierERNS_18PropertyDescriptorE@Base 2.2.1
 _ZN3JSC24getStaticValueDescriptorIN7WebCore29JSHTMLOListElementConstructorENS1_12JSDOMWrapperEEEbPNS_9ExecStateEPKNS_9HashTableEPT_RKNS_10IdentifierERNS_18PropertyDescriptorE@Base 2.2.1
 _ZN3JSC24getStaticValueDescriptorIN7WebCore29JSHTMLParamElementConstructorENS1_12JSDOMWrapperEEEbPNS_9ExecStateEPKNS_9HashTableEPT_RKNS_10IdentifierERNS_18PropertyDescriptorE@Base 2.2.1
 _ZN3JSC24getStaticValueDescriptorIN7WebCore29JSHTMLQuoteElementConstructorENS1_12JSDOMWrapperEEEbPNS_9ExecStateEPKNS_9HashTableEPT_RKNS_10IdentifierERNS_18PropertyDescriptorE@Base 2.2.1
 _ZN3JSC24getStaticValueDescriptorIN7WebCore29JSHTMLStyleElementConstructorENS1_12JSDOMWrapperEEEbPNS_9ExecStateEPKNS_9HashTableEPT_RKNS_10IdentifierERNS_18PropertyDescriptorE@Base 2.2.1
 _ZN3JSC24getStaticValueDescriptorIN7WebCore29JSHTMLTableElementConstructorENS1_12JSDOMWrapperEEEbPNS_9ExecStateEPKNS_9HashTableEPT_RKNS_10IdentifierERNS_18PropertyDescriptorE@Base 2.2.1
 _ZN3JSC24getStaticValueDescriptorIN7WebCore29JSHTMLTitleElementConstructorENS1_12JSDOMWrapperEEEbPNS_9ExecStateEPKNS_9HashTableEPT_RKNS_10IdentifierERNS_18PropertyDescriptorE@Base 2.2.1
 _ZN3JSC24getStaticValueDescriptorIN7WebCore29JSHTMLUListElementConstructorENS1_12JSDOMWrapperEEEbPNS_9ExecStateEPKNS_9HashTableEPT_RKNS_10IdentifierERNS_18PropertyDescriptorE@Base 2.2.1
 _ZN3JSC24getStaticValueDescriptorIN7WebCore29JSHTMLVideoElementConstructorENS1_12JSDOMWrapperEEEbPNS_9ExecStateEPKNS_9HashTableEPT_RKNS_10IdentifierERNS_18PropertyDescriptorE@Base 2.2.1
 _ZN3JSC24getStaticValueDescriptorIN7WebCore29JSSVGAnimatedAngleConstructorENS1_12JSDOMWrapperEEEbPNS_9ExecStateEPKNS_9HashTableEPT_RKNS_10IdentifierERNS_18PropertyDescriptorE@Base 2.2.1
 _ZN3JSC24getStaticValueDescriptorIN7WebCore29JSSVGCircleElementConstructorENS1_12JSDOMWrapperEEEbPNS_9ExecStateEPKNS_9HashTableEPT_RKNS_10IdentifierERNS_18PropertyDescriptorE@Base 2.2.1
 _ZN3JSC24getStaticValueDescriptorIN7WebCore29JSSVGCursorElementConstructorENS1_12JSDOMWrapperEEEbPNS_9ExecStateEPKNS_9HashTableEPT_RKNS_10IdentifierERNS_18PropertyDescriptorE@Base 2.2.1
 _ZN3JSC24getStaticValueDescriptorIN7WebCore29JSSVGFEDiffuseLightingElementENS1_12JSSVGElementEEEbPNS_9ExecStateEPKNS_9HashTableEPT_RKNS_10IdentifierERNS_18PropertyDescriptorE@Base 2.2.1
 _ZN3JSC24getStaticValueDescriptorIN7WebCore29JSSVGFEDisplacementMapElementENS1_12JSSVGElementEEEbPNS_9ExecStateEPKNS_9HashTableEPT_RKNS_10IdentifierERNS_18PropertyDescriptorE@Base 2.2.1
 _ZN3JSC24getStaticValueDescriptorIN7WebCore29JSSVGFETileElementConstructorENS1_12JSDOMWrapperEEEbPNS_9ExecStateEPKNS_9HashTableEPT_RKNS_10IdentifierERNS_18PropertyDescriptorE@Base 2.2.1
 _ZN3JSC24getStaticValueDescriptorIN7WebCore29JSSVGFilterElementConstructorENS1_12JSDOMWrapperEEEbPNS_9ExecStateEPKNS_9HashTableEPT_RKNS_10IdentifierERNS_18PropertyDescriptorE@Base 2.2.1
 _ZN3JSC24getStaticValueDescriptorIN7WebCore29JSSVGMarkerElementConstructorENS1_12JSDOMWrapperEEEbPNS_9ExecStateEPKNS_9HashTableEPT_RKNS_10IdentifierERNS_18PropertyDescriptorE@Base 2.2.1
 _ZN3JSC24getStaticValueDescriptorIN7WebCore29JSSVGPathSegArcAbsConstructorENS1_12JSDOMWrapperEEEbPNS_9ExecStateEPKNS_9HashTableEPT_RKNS_10IdentifierERNS_18PropertyDescriptorE@Base 2.2.1
 _ZN3JSC24getStaticValueDescriptorIN7WebCore29JSSVGPathSegArcRelConstructorENS1_12JSDOMWrapperEEEbPNS_9ExecStateEPKNS_9HashTableEPT_RKNS_10IdentifierERNS_18PropertyDescriptorE@Base 2.2.1
 _ZN3JSC24getStaticValueDescriptorIN7WebCore29JSSVGPathSegLinetoVerticalAbsENS1_12JSSVGPathSegEEEbPNS_9ExecStateEPKNS_9HashTableEPT_RKNS_10IdentifierERNS_18PropertyDescriptorE@Base 2.2.1
 _ZN3JSC24getStaticValueDescriptorIN7WebCore29JSSVGPathSegLinetoVerticalRelENS1_12JSSVGPathSegEEEbPNS_9ExecStateEPKNS_9HashTableEPT_RKNS_10IdentifierERNS_18PropertyDescriptorE@Base 2.2.1
 _ZN3JSC24getStaticValueDescriptorIN7WebCore29JSSVGRenderingIntentPrototypeENS_8JSObjectEEEbPNS_9ExecStateEPKNS_9HashTableEPT_RKNS_10IdentifierERNS_18PropertyDescriptorE@Base 2.2.1
 _ZN3JSC24getStaticValueDescriptorIN7WebCore29JSSVGScriptElementConstructorENS1_12JSDOMWrapperEEEbPNS_9ExecStateEPKNS_9HashTableEPT_RKNS_10IdentifierERNS_18PropertyDescriptorE@Base 2.2.1
 _ZN3JSC24getStaticValueDescriptorIN7WebCore29JSSVGSwitchElementConstructorENS1_12JSDOMWrapperEEEbPNS_9ExecStateEPKNS_9HashTableEPT_RKNS_10IdentifierERNS_18PropertyDescriptorE@Base 2.2.1
 _ZN3JSC24getStaticValueDescriptorIN7WebCore29JSSVGSymbolElementConstructorENS1_12JSDOMWrapperEEEbPNS_9ExecStateEPKNS_9HashTableEPT_RKNS_10IdentifierERNS_18PropertyDescriptorE@Base 2.2.1
 _ZN3JSC24getStaticValueDescriptorIN7WebCore29JSSVGTextPathElementPrototypeENS_8JSObjectEEEbPNS_9ExecStateEPKNS_9HashTableEPT_RKNS_10IdentifierERNS_18PropertyDescriptorE@Base 2.2.1
 _ZN3JSC24getStaticValueDescriptorIN7WebCore29JSSVGTransformListConstructorENS1_12JSDOMWrapperEEEbPNS_9ExecStateEPKNS_9HashTableEPT_RKNS_10IdentifierERNS_18PropertyDescriptorE@Base 2.2.1
 _ZN3JSC24getStaticValueDescriptorIN7WebCore29JSXMLHttpRequestProgressEventENS1_15JSProgressEventEEEbPNS_9ExecStateEPKNS_9HashTableEPT_RKNS_10IdentifierERNS_18PropertyDescriptorE@Base 2.2.1
 _ZN3JSC24getStaticValueDescriptorIN7WebCore30JSCSSPrimitiveValueConstructorENS1_12JSDOMWrapperEEEbPNS_9ExecStateEPKNS_9HashTableEPT_RKNS_10IdentifierERNS_18PropertyDescriptorE@Base 2.2.1
 _ZN3JSC24getStaticValueDescriptorIN7WebCore30JSDOMImplementationConstructorENS1_12JSDOMWrapperEEEbPNS_9ExecStateEPKNS_9HashTableEPT_RKNS_10IdentifierERNS_18PropertyDescriptorE@Base 2.2.1
 _ZN3JSC24getStaticValueDescriptorIN7WebCore30JSHTMLAllCollectionConstructorENS1_12JSDOMWrapperEEEbPNS_9ExecStateEPKNS_9HashTableEPT_RKNS_10IdentifierERNS_18PropertyDescriptorE@Base 2.2.1
 _ZN3JSC24getStaticValueDescriptorIN7WebCore30JSHTMLAnchorElementConstructorENS1_12JSDOMWrapperEEEbPNS_9ExecStateEPKNS_9HashTableEPT_RKNS_10IdentifierERNS_18PropertyDescriptorE@Base 2.2.1
 _ZN3JSC24getStaticValueDescriptorIN7WebCore30JSHTMLAppletElementConstructorENS1_12JSDOMWrapperEEEbPNS_9ExecStateEPKNS_9HashTableEPT_RKNS_10IdentifierERNS_18PropertyDescriptorE@Base 2.2.1
 _ZN3JSC24getStaticValueDescriptorIN7WebCore30JSHTMLButtonElementConstructorENS1_12JSDOMWrapperEEEbPNS_9ExecStateEPKNS_9HashTableEPT_RKNS_10IdentifierERNS_18PropertyDescriptorE@Base 2.2.1
 _ZN3JSC24getStaticValueDescriptorIN7WebCore30JSHTMLCanvasElementConstructorENS1_12JSDOMWrapperEEEbPNS_9ExecStateEPKNS_9HashTableEPT_RKNS_10IdentifierERNS_18PropertyDescriptorE@Base 2.2.1
 _ZN3JSC24getStaticValueDescriptorIN7WebCore30JSHTMLIFrameElementConstructorENS1_12JSDOMWrapperEEEbPNS_9ExecStateEPKNS_9HashTableEPT_RKNS_10IdentifierERNS_18PropertyDescriptorE@Base 2.2.1
 _ZN3JSC24getStaticValueDescriptorIN7WebCore30JSHTMLKeygenElementConstructorENS1_12JSDOMWrapperEEEbPNS_9ExecStateEPKNS_9HashTableEPT_RKNS_10IdentifierERNS_18PropertyDescriptorE@Base 2.2.1
 _ZN3JSC24getStaticValueDescriptorIN7WebCore30JSHTMLLegendElementConstructorENS1_12JSDOMWrapperEEEbPNS_9ExecStateEPKNS_9HashTableEPT_RKNS_10IdentifierERNS_18PropertyDescriptorE@Base 2.2.1
 _ZN3JSC24getStaticValueDescriptorIN7WebCore30JSHTMLObjectElementConstructorENS1_12JSDOMWrapperEEEbPNS_9ExecStateEPKNS_9HashTableEPT_RKNS_10IdentifierERNS_18PropertyDescriptorE@Base 2.2.1
 _ZN3JSC24getStaticValueDescriptorIN7WebCore30JSHTMLOptionElementConstructorENS1_12JSDOMWrapperEEEbPNS_9ExecStateEPKNS_9HashTableEPT_RKNS_10IdentifierERNS_18PropertyDescriptorE@Base 2.2.1
 _ZN3JSC24getStaticValueDescriptorIN7WebCore30JSHTMLOutputElementConstructorENS1_12JSDOMWrapperEEEbPNS_9ExecStateEPKNS_9HashTableEPT_RKNS_10IdentifierERNS_18PropertyDescriptorE@Base 2.2.1
 _ZN3JSC24getStaticValueDescriptorIN7WebCore30JSHTMLScriptElementConstructorENS1_12JSDOMWrapperEEEbPNS_9ExecStateEPKNS_9HashTableEPT_RKNS_10IdentifierERNS_18PropertyDescriptorE@Base 2.2.1
 _ZN3JSC24getStaticValueDescriptorIN7WebCore30JSHTMLSelectElementConstructorENS1_12JSDOMWrapperEEEbPNS_9ExecStateEPKNS_9HashTableEPT_RKNS_10IdentifierERNS_18PropertyDescriptorE@Base 2.2.1
 _ZN3JSC24getStaticValueDescriptorIN7WebCore30JSHTMLSourceElementConstructorENS1_12JSDOMWrapperEEEbPNS_9ExecStateEPKNS_9HashTableEPT_RKNS_10IdentifierERNS_18PropertyDescriptorE@Base 2.2.1
 _ZN3JSC24getStaticValueDescriptorIN7WebCore30JSSVGAnimateElementConstructorENS1_12JSDOMWrapperEEEbPNS_9ExecStateEPKNS_9HashTableEPT_RKNS_10IdentifierERNS_18PropertyDescriptorE@Base 2.2.1
 _ZN3JSC24getStaticValueDescriptorIN7WebCore30JSSVGAnimatedLengthConstructorENS1_12JSDOMWrapperEEEbPNS_9ExecStateEPKNS_9HashTableEPT_RKNS_10IdentifierERNS_18PropertyDescriptorE@Base 2.2.1
 _ZN3JSC24getStaticValueDescriptorIN7WebCore30JSSVGAnimatedNumberConstructorENS1_12JSDOMWrapperEEEbPNS_9ExecStateEPKNS_9HashTableEPT_RKNS_10IdentifierERNS_18PropertyDescriptorE@Base 2.2.1
 _ZN3JSC24getStaticValueDescriptorIN7WebCore30JSSVGAnimatedStringConstructorENS1_12JSDOMWrapperEEEbPNS_9ExecStateEPKNS_9HashTableEPT_RKNS_10IdentifierERNS_18PropertyDescriptorE@Base 2.2.1
 _ZN3JSC24getStaticValueDescriptorIN7WebCore30JSSVGEllipseElementConstructorENS1_12JSDOMWrapperEEEbPNS_9ExecStateEPKNS_9HashTableEPT_RKNS_10IdentifierERNS_18PropertyDescriptorE@Base 2.2.1
 _ZN3JSC24getStaticValueDescriptorIN7WebCore30JSSVGFEBlendElementConstructorENS1_12JSDOMWrapperEEEbPNS_9ExecStateEPKNS_9HashTableEPT_RKNS_10IdentifierERNS_18PropertyDescriptorE@Base 2.2.1
 _ZN3JSC24getStaticValueDescriptorIN7WebCore30JSSVGFEFloodElementConstructorENS1_12JSDOMWrapperEEEbPNS_9ExecStateEPKNS_9HashTableEPT_RKNS_10IdentifierERNS_18PropertyDescriptorE@Base 2.2.1
 _ZN3JSC24getStaticValueDescriptorIN7WebCore30JSSVGFEFuncAElementConstructorENS1_12JSDOMWrapperEEEbPNS_9ExecStateEPKNS_9HashTableEPT_RKNS_10IdentifierERNS_18PropertyDescriptorE@Base 2.2.1
 _ZN3JSC24getStaticValueDescriptorIN7WebCore30JSSVGFEFuncBElementConstructorENS1_12JSDOMWrapperEEEbPNS_9ExecStateEPKNS_9HashTableEPT_RKNS_10IdentifierERNS_18PropertyDescriptorE@Base 2.2.1
 _ZN3JSC24getStaticValueDescriptorIN7WebCore30JSSVGFEFuncGElementConstructorENS1_12JSDOMWrapperEEEbPNS_9ExecStateEPKNS_9HashTableEPT_RKNS_10IdentifierERNS_18PropertyDescriptorE@Base 2.2.1
 _ZN3JSC24getStaticValueDescriptorIN7WebCore30JSSVGFEFuncRElementConstructorENS1_12JSDOMWrapperEEEbPNS_9ExecStateEPKNS_9HashTableEPT_RKNS_10IdentifierERNS_18PropertyDescriptorE@Base 2.2.1
 _ZN3JSC24getStaticValueDescriptorIN7WebCore30JSSVGFEImageElementConstructorENS1_12JSDOMWrapperEEEbPNS_9ExecStateEPKNS_9HashTableEPT_RKNS_10IdentifierERNS_18PropertyDescriptorE@Base 2.2.1
 _ZN3JSC24getStaticValueDescriptorIN7WebCore30JSSVGFEMergeElementConstructorENS1_12JSDOMWrapperEEEbPNS_9ExecStateEPKNS_9HashTableEPT_RKNS_10IdentifierERNS_18PropertyDescriptorE@Base 2.2.1
 _ZN3JSC24getStaticValueDescriptorIN7WebCore30JSSVGFESpecularLightingElementENS1_12JSSVGElementEEEbPNS_9ExecStateEPKNS_9HashTableEPT_RKNS_10IdentifierERNS_18PropertyDescriptorE@Base 2.2.1
 _ZN3JSC24getStaticValueDescriptorIN7WebCore30JSSVGPatternElementConstructorENS1_12JSDOMWrapperEEEbPNS_9ExecStateEPKNS_9HashTableEPT_RKNS_10IdentifierERNS_18PropertyDescriptorE@Base 2.2.1
 _ZN3JSC24getStaticValueDescriptorIN7WebCore30JSSVGPolygonElementConstructorENS1_12JSDOMWrapperEEEbPNS_9ExecStateEPKNS_9HashTableEPT_RKNS_10IdentifierERNS_18PropertyDescriptorE@Base 2.2.1
 _ZN3JSC24getStaticValueDescriptorIN7WebCore30JSWebKitBlobBuilderConstructorENS1_12JSDOMWrapperEEEbPNS_9ExecStateEPKNS_9HashTableEPT_RKNS_10IdentifierERNS_18PropertyDescriptorE@Base 2.2.1
 _ZN3JSC24getStaticValueDescriptorIN7WebCore31JSBeforeProcessEventConstructorENS1_12JSDOMWrapperEEEbPNS_9ExecStateEPKNS_9HashTableEPT_RKNS_10IdentifierERNS_18PropertyDescriptorE@Base 2.2.1
 _ZN3JSC24getStaticValueDescriptorIN7WebCore31JSHTMLDetailsElementConstructorENS1_12JSDOMWrapperEEEbPNS_9ExecStateEPKNS_9HashTableEPT_RKNS_10IdentifierERNS_18PropertyDescriptorE@Base 2.2.1
 _ZN3JSC24getStaticValueDescriptorIN7WebCore31JSHTMLHeadingElementConstructorENS1_12JSDOMWrapperEEEbPNS_9ExecStateEPKNS_9HashTableEPT_RKNS_10IdentifierERNS_18PropertyDescriptorE@Base 2.2.1
 _ZN3JSC24getStaticValueDescriptorIN7WebCore31JSHTMLIsIndexElementConstructorENS1_12JSDOMWrapperEEEbPNS_9ExecStateEPKNS_9HashTableEPT_RKNS_10IdentifierERNS_18PropertyDescriptorE@Base 2.2.1
 _ZN3JSC24getStaticValueDescriptorIN7WebCore31JSHTMLMarqueeElementConstructorENS1_12JSDOMWrapperEEEbPNS_9ExecStateEPKNS_9HashTableEPT_RKNS_10IdentifierERNS_18PropertyDescriptorE@Base 2.2.1
 _ZN3JSC24getStaticValueDescriptorIN7WebCore31JSInjectedScriptHostConstructorENS1_12JSDOMWrapperEEEbPNS_9ExecStateEPKNS_9HashTableEPT_RKNS_10IdentifierERNS_18PropertyDescriptorE@Base 2.2.1
 _ZN3JSC24getStaticValueDescriptorIN7WebCore31JSSVGAltGlyphElementConstructorENS1_12JSDOMWrapperEEEbPNS_9ExecStateEPKNS_9HashTableEPT_RKNS_10IdentifierERNS_18PropertyDescriptorE@Base 2.2.1
 _ZN3JSC24getStaticValueDescriptorIN7WebCore31JSSVGAnimatedBooleanConstructorENS1_12JSDOMWrapperEEEbPNS_9ExecStateEPKNS_9HashTableEPT_RKNS_10IdentifierERNS_18PropertyDescriptorE@Base 2.2.1
 _ZN3JSC24getStaticValueDescriptorIN7WebCore31JSSVGAnimatedIntegerConstructorENS1_12JSDOMWrapperEEEbPNS_9ExecStateEPKNS_9HashTableEPT_RKNS_10IdentifierERNS_18PropertyDescriptorE@Base 2.2.1
 _ZN3JSC24getStaticValueDescriptorIN7WebCore31JSSVGClipPathElementConstructorENS1_12JSDOMWrapperEEEbPNS_9ExecStateEPKNS_9HashTableEPT_RKNS_10IdentifierERNS_18PropertyDescriptorE@Base 2.2.1
 _ZN3JSC24getStaticValueDescriptorIN7WebCore31JSSVGElementInstanceConstructorENS1_12JSDOMWrapperEEEbPNS_9ExecStateEPKNS_9HashTableEPT_RKNS_10IdentifierERNS_18PropertyDescriptorE@Base 2.2.1
 _ZN3JSC24getStaticValueDescriptorIN7WebCore31JSSVGFEComponentTransferElementENS1_12JSSVGElementEEEbPNS_9ExecStateEPKNS_9HashTableEPT_RKNS_10IdentifierERNS_18PropertyDescriptorE@Base 2.2.1
 _ZN3JSC24getStaticValueDescriptorIN7WebCore31JSSVGFEOffsetElementConstructorENS1_12JSDOMWrapperEEEbPNS_9ExecStateEPKNS_9HashTableEPT_RKNS_10IdentifierERNS_18PropertyDescriptorE@Base 2.2.1
 _ZN3JSC24getStaticValueDescriptorIN7WebCore31JSSVGFontFaceElementConstructorENS1_12JSDOMWrapperEEEbPNS_9ExecStateEPKNS_9HashTableEPT_RKNS_10IdentifierERNS_18PropertyDescriptorE@Base 2.2.1
 _ZN3JSC24getStaticValueDescriptorIN7WebCore31JSSVGGradientElementConstructorENS1_12JSDOMWrapperEEEbPNS_9ExecStateEPKNS_9HashTableEPT_RKNS_10IdentifierERNS_18PropertyDescriptorE@Base 2.2.1
 _ZN3JSC24getStaticValueDescriptorIN7WebCore31JSSVGMetadataElementConstructorENS1_12JSDOMWrapperEEEbPNS_9ExecStateEPKNS_9HashTableEPT_RKNS_10IdentifierERNS_18PropertyDescriptorE@Base 2.2.1
 _ZN3JSC24getStaticValueDescriptorIN7WebCore31JSSVGPathSegCurvetoQuadraticAbsENS1_12JSSVGPathSegEEEbPNS_9ExecStateEPKNS_9HashTableEPT_RKNS_10IdentifierERNS_18PropertyDescriptorE@Base 2.2.1
 _ZN3JSC24getStaticValueDescriptorIN7WebCore31JSSVGPathSegCurvetoQuadraticRelENS1_12JSSVGPathSegEEEbPNS_9ExecStateEPKNS_9HashTableEPT_RKNS_10IdentifierERNS_18PropertyDescriptorE@Base 2.2.1
 _ZN3JSC24getStaticValueDescriptorIN7WebCore31JSSVGPathSegLinetoHorizontalAbsENS1_12JSSVGPathSegEEEbPNS_9ExecStateEPKNS_9HashTableEPT_RKNS_10IdentifierERNS_18PropertyDescriptorE@Base 2.2.1
 _ZN3JSC24getStaticValueDescriptorIN7WebCore31JSSVGPathSegLinetoHorizontalRelENS1_12JSSVGPathSegEEEbPNS_9ExecStateEPKNS_9HashTableEPT_RKNS_10IdentifierERNS_18PropertyDescriptorE@Base 2.2.1
 _ZN3JSC24getStaticValueDescriptorIN7WebCore31JSSVGPolylineElementConstructorENS1_12JSDOMWrapperEEEbPNS_9ExecStateEPKNS_9HashTableEPT_RKNS_10IdentifierERNS_18PropertyDescriptorE@Base 2.2.1
 _ZN3JSC24getStaticValueDescriptorIN7WebCore31JSSVGRenderingIntentConstructorENS1_12JSDOMWrapperEEEbPNS_9ExecStateEPKNS_9HashTableEPT_RKNS_10IdentifierERNS_18PropertyDescriptorE@Base 2.2.1
 _ZN3JSC24getStaticValueDescriptorIN7WebCore31JSSVGTextPathElementConstructorENS1_12JSDOMWrapperEEEbPNS_9ExecStateEPKNS_9HashTableEPT_RKNS_10IdentifierERNS_18PropertyDescriptorE@Base 2.2.1
 _ZN3JSC24getStaticValueDescriptorIN7WebCore32JSCSSStyleDeclarationConstructorENS1_12JSDOMWrapperEEEbPNS_9ExecStateEPKNS_9HashTableEPT_RKNS_10IdentifierERNS_18PropertyDescriptorE@Base 2.2.1
 _ZN3JSC24getStaticValueDescriptorIN7WebCore32JSHTMLBaseFontElementConstructorENS1_12JSDOMWrapperEEEbPNS_9ExecStateEPKNS_9HashTableEPT_RKNS_10IdentifierERNS_18PropertyDescriptorE@Base 2.2.1
 _ZN3JSC24getStaticValueDescriptorIN7WebCore32JSHTMLDataListElementConstructorENS1_12JSDOMWrapperEEEbPNS_9ExecStateEPKNS_9HashTableEPT_RKNS_10IdentifierERNS_18PropertyDescriptorE@Base 2.2.1
 _ZN3JSC24getStaticValueDescriptorIN7WebCore32JSHTMLFieldSetElementConstructorENS1_12JSDOMWrapperEEEbPNS_9ExecStateEPKNS_9HashTableEPT_RKNS_10IdentifierERNS_18PropertyDescriptorE@Base 2.2.1
 _ZN3JSC24getStaticValueDescriptorIN7WebCore32JSHTMLFrameSetElementConstructorENS1_12JSDOMWrapperEEEbPNS_9ExecStateEPKNS_9HashTableEPT_RKNS_10IdentifierERNS_18PropertyDescriptorE@Base 2.2.1
 _ZN3JSC24getStaticValueDescriptorIN7WebCore32JSHTMLOptGroupElementConstructorENS1_12JSDOMWrapperEEEbPNS_9ExecStateEPKNS_9HashTableEPT_RKNS_10IdentifierERNS_18PropertyDescriptorE@Base 2.2.1
 _ZN3JSC24getStaticValueDescriptorIN7WebCore32JSHTMLProgressElementConstructorENS1_12JSDOMWrapperEEEbPNS_9ExecStateEPKNS_9HashTableEPT_RKNS_10IdentifierERNS_18PropertyDescriptorE@Base 2.2.1
 _ZN3JSC24getStaticValueDescriptorIN7WebCore32JSHTMLTableColElementConstructorENS1_12JSDOMWrapperEEEbPNS_9ExecStateEPKNS_9HashTableEPT_RKNS_10IdentifierERNS_18PropertyDescriptorE@Base 2.2.1
 _ZN3JSC24getStaticValueDescriptorIN7WebCore32JSHTMLTableRowElementConstructorENS1_12JSDOMWrapperEEEbPNS_9ExecStateEPKNS_9HashTableEPT_RKNS_10IdentifierERNS_18PropertyDescriptorE@Base 2.2.1
 _ZN3JSC24getStaticValueDescriptorIN7WebCore32JSHTMLTextAreaElementConstructorENS1_12JSDOMWrapperEEEbPNS_9ExecStateEPKNS_9HashTableEPT_RKNS_10IdentifierERNS_18PropertyDescriptorE@Base 2.2.1
 _ZN3JSC24getStaticValueDescriptorIN7WebCore32JSPageTransitionEventConstructorENS1_12JSDOMWrapperEEEbPNS_9ExecStateEPKNS_9HashTableEPT_RKNS_10IdentifierERNS_18PropertyDescriptorE@Base 2.2.1
 _ZN3JSC24getStaticValueDescriptorIN7WebCore32JSSVGAnimatedPreserveAspectRatioENS1_12JSDOMWrapperEEEbPNS_9ExecStateEPKNS_9HashTableEPT_RKNS_10IdentifierERNS_18PropertyDescriptorE@Base 2.2.1
 _ZN3JSC24getStaticValueDescriptorIN7WebCore32JSSVGPathSegClosePathConstructorENS1_12JSDOMWrapperEEEbPNS_9ExecStateEPKNS_9HashTableEPT_RKNS_10IdentifierERNS_18PropertyDescriptorE@Base 2.2.1
 _ZN3JSC24getStaticValueDescriptorIN7WebCore32JSSVGPathSegLinetoAbsConstructorENS1_12JSDOMWrapperEEEbPNS_9ExecStateEPKNS_9HashTableEPT_RKNS_10IdentifierERNS_18PropertyDescriptorE@Base 2.2.1
 _ZN3JSC24getStaticValueDescriptorIN7WebCore32JSSVGPathSegLinetoRelConstructorENS1_12JSDOMWrapperEEEbPNS_9ExecStateEPKNS_9HashTableEPT_RKNS_10IdentifierERNS_18PropertyDescriptorE@Base 2.2.1
 _ZN3JSC24getStaticValueDescriptorIN7WebCore32JSSVGPathSegMovetoAbsConstructorENS1_12JSDOMWrapperEEEbPNS_9ExecStateEPKNS_9HashTableEPT_RKNS_10IdentifierERNS_18PropertyDescriptorE@Base 2.2.1
 _ZN3JSC24getStaticValueDescriptorIN7WebCore32JSSVGPathSegMovetoRelConstructorENS1_12JSDOMWrapperEEEbPNS_9ExecStateEPKNS_9HashTableEPT_RKNS_10IdentifierERNS_18PropertyDescriptorE@Base 2.2.1
 _ZN3JSC24getStaticValueDescriptorIN7WebCore32JSWebKitAnimationListConstructorENS1_12JSDOMWrapperEEEbPNS_9ExecStateEPKNS_9HashTableEPT_RKNS_10IdentifierERNS_18PropertyDescriptorE@Base 2.2.1
 _ZN3JSC24getStaticValueDescriptorIN7WebCore33JSDOMSettableTokenListConstructorENS1_12JSDOMWrapperEEEbPNS_9ExecStateEPKNS_9HashTableEPT_RKNS_10IdentifierERNS_18PropertyDescriptorE@Base 2.2.1
 _ZN3JSC24getStaticValueDescriptorIN7WebCore33JSHTMLDirectoryElementConstructorENS1_12JSDOMWrapperEEEbPNS_9ExecStateEPKNS_9HashTableEPT_RKNS_10IdentifierERNS_18PropertyDescriptorE@Base 2.2.1
 _ZN3JSC24getStaticValueDescriptorIN7WebCore33JSHTMLParagraphElementConstructorENS1_12JSDOMWrapperEEEbPNS_9ExecStateEPKNS_9HashTableEPT_RKNS_10IdentifierERNS_18PropertyDescriptorE@Base 2.2.1
 _ZN3JSC24getStaticValueDescriptorIN7WebCore33JSHTMLTableCellElementConstructorENS1_12JSDOMWrapperEEEbPNS_9ExecStateEPKNS_9HashTableEPT_RKNS_10IdentifierERNS_18PropertyDescriptorE@Base 2.2.1
 _ZN3JSC24getStaticValueDescriptorIN7WebCore33JSSVGPathSegCurvetoCubicSmoothAbsENS1_12JSSVGPathSegEEEbPNS_9ExecStateEPKNS_9HashTableEPT_RKNS_10IdentifierERNS_18PropertyDescriptorE@Base 2.2.1
 _ZN3JSC24getStaticValueDescriptorIN7WebCore33JSSVGPathSegCurvetoCubicSmoothRelENS1_12JSSVGPathSegEEEbPNS_9ExecStateEPKNS_9HashTableEPT_RKNS_10IdentifierERNS_18PropertyDescriptorE@Base 2.2.1
 _ZN3JSC24getStaticValueDescriptorIN7WebCore33JSSVGPreserveAspectRatioPrototypeENS_8JSObjectEEEbPNS_9ExecStateEPKNS_9HashTableEPT_RKNS_10IdentifierERNS_18PropertyDescriptorE@Base 2.2.1
 _ZN3JSC24getStaticValueDescriptorIN7WebCore33JSWebKitAnimationEventConstructorENS1_12JSDOMWrapperEEEbPNS_9ExecStateEPKNS_9HashTableEPT_RKNS_10IdentifierERNS_18PropertyDescriptorE@Base 2.2.1
 _ZN3JSC24getStaticValueDescriptorIN7WebCore33JSXMLHttpRequestUploadConstructorENS1_12JSDOMWrapperEEEbPNS_9ExecStateEPKNS_9HashTableEPT_RKNS_10IdentifierERNS_18PropertyDescriptorE@Base 2.2.1
 _ZN3JSC24getStaticValueDescriptorIN7WebCore34JSHTMLBlockquoteElementConstructorENS1_12JSDOMWrapperEEEbPNS_9ExecStateEPKNS_9HashTableEPT_RKNS_10IdentifierERNS_18PropertyDescriptorE@Base 2.2.1
 _ZN3JSC24getStaticValueDescriptorIN7WebCore34JSHTMLOptionsCollectionConstructorENS1_12JSDOMWrapperEEEbPNS_9ExecStateEPKNS_9HashTableEPT_RKNS_10IdentifierERNS_18PropertyDescriptorE@Base 2.2.1
 _ZN3JSC24getStaticValueDescriptorIN7WebCore34JSInspectorFrontendHostConstructorENS1_12JSDOMWrapperEEEbPNS_9ExecStateEPKNS_9HashTableEPT_RKNS_10IdentifierERNS_18PropertyDescriptorE@Base 2.2.1
 _ZN3JSC24getStaticValueDescriptorIN7WebCore34JSProcessingInstructionConstructorENS1_12JSDOMWrapperEEEbPNS_9ExecStateEPKNS_9HashTableEPT_RKNS_10IdentifierERNS_18PropertyDescriptorE@Base 2.2.1
 _ZN3JSC24getStaticValueDescriptorIN7WebCore34JSSVGAnimatedLengthListConstructorENS1_12JSDOMWrapperEEEbPNS_9ExecStateEPKNS_9HashTableEPT_RKNS_10IdentifierERNS_18PropertyDescriptorE@Base 2.2.1
 _ZN3JSC24getStaticValueDescriptorIN7WebCore34JSSVGAnimatedNumberListConstructorENS1_12JSDOMWrapperEEEbPNS_9ExecStateEPKNS_9HashTableEPT_RKNS_10IdentifierERNS_18PropertyDescriptorE@Base 2.2.1
 _ZN3JSC24getStaticValueDescriptorIN7WebCore34JSSVGFECompositeElementConstructorENS1_12JSDOMWrapperEEEbPNS_9ExecStateEPKNS_9HashTableEPT_RKNS_10IdentifierERNS_18PropertyDescriptorE@Base 2.2.1
 _ZN3JSC24getStaticValueDescriptorIN7WebCore34JSSVGFEMergeNodeElementConstructorENS1_12JSDOMWrapperEEEbPNS_9ExecStateEPKNS_9HashTableEPT_RKNS_10IdentifierERNS_18PropertyDescriptorE@Base 2.2.1
 _ZN3JSC24getStaticValueDescriptorIN7WebCore34JSSVGFESpotLightElementConstructorENS1_12JSDOMWrapperEEEbPNS_9ExecStateEPKNS_9HashTableEPT_RKNS_10IdentifierERNS_18PropertyDescriptorE@Base 2.2.1
 _ZN3JSC24getStaticValueDescriptorIN7WebCore34JSSVGFontFaceSrcElementConstructorENS1_12JSDOMWrapperEEEbPNS_9ExecStateEPKNS_9HashTableEPT_RKNS_10IdentifierERNS_18PropertyDescriptorE@Base 2.2.1
 _ZN3JSC24getStaticValueDescriptorIN7WebCore34JSSVGFontFaceUriElementConstructorENS1_12JSDOMWrapperEEEbPNS_9ExecStateEPKNS_9HashTableEPT_RKNS_10IdentifierERNS_18PropertyDescriptorE@Base 2.2.1
 _ZN3JSC24getStaticValueDescriptorIN7WebCore34JSSVGTextContentElementConstructorENS1_12JSDOMWrapperEEEbPNS_9ExecStateEPKNS_9HashTableEPT_RKNS_10IdentifierERNS_18PropertyDescriptorE@Base 2.2.1
 _ZN3JSC24getStaticValueDescriptorIN7WebCore34JSWebKitCSSKeyframeRuleConstructorENS1_12JSDOMWrapperEEEbPNS_9ExecStateEPKNS_9HashTableEPT_RKNS_10IdentifierERNS_18PropertyDescriptorE@Base 2.2.1
 _ZN3JSC24getStaticValueDescriptorIN7WebCore34JSWebKitCSSTransformValuePrototypeENS_8JSObjectEEEbPNS_9ExecStateEPKNS_9HashTableEPT_RKNS_10IdentifierERNS_18PropertyDescriptorE@Base 2.2.1
 _ZN3JSC24getStaticValueDescriptorIN7WebCore34JSWebKitTransitionEventConstructorENS1_12JSDOMWrapperEEEbPNS_9ExecStateEPKNS_9HashTableEPT_RKNS_10IdentifierERNS_18PropertyDescriptorE@Base 2.2.1
 _ZN3JSC24getStaticValueDescriptorIN7WebCore35JSCanvasRenderingContextConstructorENS1_12JSDOMWrapperEEEbPNS_9ExecStateEPKNS_9HashTableEPT_RKNS_10IdentifierERNS_18PropertyDescriptorE@Base 2.2.1
 _ZN3JSC24getStaticValueDescriptorIN7WebCore35JSSVGAnimateColorElementConstructorENS1_12JSDOMWrapperEEEbPNS_9ExecStateEPKNS_9HashTableEPT_RKNS_10IdentifierERNS_18PropertyDescriptorE@Base 2.2.1
 _ZN3JSC24getStaticValueDescriptorIN7WebCore35JSSVGAnimatedEnumerationConstructorENS1_12JSDOMWrapperEEEbPNS_9ExecStateEPKNS_9HashTableEPT_RKNS_10IdentifierERNS_18PropertyDescriptorE@Base 2.2.1
 _ZN3JSC24getStaticValueDescriptorIN7WebCore35JSSVGElementInstanceListConstructorENS1_12JSDOMWrapperEEEbPNS_9ExecStateEPKNS_9HashTableEPT_RKNS_10IdentifierERNS_18PropertyDescriptorE@Base 2.2.1
 _ZN3JSC24getStaticValueDescriptorIN7WebCore35JSSVGFEDropShadowElementConstructorENS1_12JSDOMWrapperEEEbPNS_9ExecStateEPKNS_9HashTableEPT_RKNS_10IdentifierERNS_18PropertyDescriptorE@Base 2.2.1
 _ZN3JSC24getStaticValueDescriptorIN7WebCore35JSSVGFEMorphologyElementConstructorENS1_12JSDOMWrapperEEEbPNS_9ExecStateEPKNS_9HashTableEPT_RKNS_10IdentifierERNS_18PropertyDescriptorE@Base 2.2.1
 _ZN3JSC24getStaticValueDescriptorIN7WebCore35JSSVGFEPointLightElementConstructorENS1_12JSDOMWrapperEEEbPNS_9ExecStateEPKNS_9HashTableEPT_RKNS_10IdentifierERNS_18PropertyDescriptorE@Base 2.2.1
 _ZN3JSC24getStaticValueDescriptorIN7WebCore35JSSVGFETurbulenceElementConstructorENS1_12JSDOMWrapperEEEbPNS_9ExecStateEPKNS_9HashTableEPT_RKNS_10IdentifierERNS_18PropertyDescriptorE@Base 2.2.1
 _ZN3JSC24getStaticValueDescriptorIN7WebCore35JSSVGFontFaceNameElementConstructorENS1_12JSDOMWrapperEEEbPNS_9ExecStateEPKNS_9HashTableEPT_RKNS_10IdentifierERNS_18PropertyDescriptorE@Base 2.2.1
 _ZN3JSC24getStaticValueDescriptorIN7WebCore35JSSVGMissingGlyphElementConstructorENS1_12JSDOMWrapperEEEbPNS_9ExecStateEPKNS_9HashTableEPT_RKNS_10IdentifierERNS_18PropertyDescriptorE@Base 2.2.1
 _ZN3JSC24getStaticValueDescriptorIN7WebCore35JSSVGPreserveAspectRatioConstructorENS1_12JSDOMWrapperEEEbPNS_9ExecStateEPKNS_9HashTableEPT_RKNS_10IdentifierERNS_18PropertyDescriptorE@Base 2.2.1
 _ZN3JSC24getStaticValueDescriptorIN7WebCore35JSWebKitCSSKeyframesRuleConstructorENS1_12JSDOMWrapperEEEbPNS_9ExecStateEPKNS_9HashTableEPT_RKNS_10IdentifierERNS_18PropertyDescriptorE@Base 2.2.1
 _ZN3JSC24getStaticValueDescriptorIN7WebCore36JSHTMLTableCaptionElementConstructorENS1_12JSDOMWrapperEEEbPNS_9ExecStateEPKNS_9HashTableEPT_RKNS_10IdentifierERNS_18PropertyDescriptorE@Base 2.2.1
 _ZN3JSC24getStaticValueDescriptorIN7WebCore36JSHTMLTableSectionElementConstructorENS1_12JSDOMWrapperEEEbPNS_9ExecStateEPKNS_9HashTableEPT_RKNS_10IdentifierERNS_18PropertyDescriptorE@Base 2.2.1
 _ZN3JSC24getStaticValueDescriptorIN7WebCore36JSSVGFEColorMatrixElementConstructorENS1_12JSDOMWrapperEEEbPNS_9ExecStateEPKNS_9HashTableEPT_RKNS_10IdentifierERNS_18PropertyDescriptorE@Base 2.2.1
 _ZN3JSC24getStaticValueDescriptorIN7WebCore36JSSVGForeignObjectElementConstructorENS1_12JSDOMWrapperEEEbPNS_9ExecStateEPKNS_9HashTableEPT_RKNS_10IdentifierERNS_18PropertyDescriptorE@Base 2.2.1
 _ZN3JSC24getStaticValueDescriptorIN7WebCore36JSWebKitCSSTransformValueConstructorENS1_12JSDOMWrapperEEEbPNS_9ExecStateEPKNS_9HashTableEPT_RKNS_10IdentifierERNS_18PropertyDescriptorE@Base 2.2.1
 _ZN3JSC24getStaticValueDescriptorIN7WebCore36JSXMLHttpRequestExceptionConstructorENS1_12JSDOMWrapperEEEbPNS_9ExecStateEPKNS_9HashTableEPT_RKNS_10IdentifierERNS_18PropertyDescriptorE@Base 2.2.1
 _ZN3JSC24getStaticValueDescriptorIN7WebCore37JSCanvasRenderingContext2DConstructorENS1_12JSDOMWrapperEEEbPNS_9ExecStateEPKNS_9HashTableEPT_RKNS_10IdentifierERNS_18PropertyDescriptorE@Base 2.2.1
 _ZN3JSC24getStaticValueDescriptorIN7WebCore37JSSVGAnimatedTransformListConstructorENS1_12JSDOMWrapperEEEbPNS_9ExecStateEPKNS_9HashTableEPT_RKNS_10IdentifierERNS_18PropertyDescriptorE@Base 2.2.1
 _ZN3JSC24getStaticValueDescriptorIN7WebCore37JSSVGComponentTransferFunctionElementENS1_12JSSVGElementEEEbPNS_9ExecStateEPKNS_9HashTableEPT_RKNS_10IdentifierERNS_18PropertyDescriptorE@Base 2.2.1
 _ZN3JSC24getStaticValueDescriptorIN7WebCore37JSSVGFEDistantLightElementConstructorENS1_12JSDOMWrapperEEEbPNS_9ExecStateEPKNS_9HashTableEPT_RKNS_10IdentifierERNS_18PropertyDescriptorE@Base 2.2.1
 _ZN3JSC24getStaticValueDescriptorIN7WebCore37JSSVGFEGaussianBlurElementConstructorENS1_12JSDOMWrapperEEEbPNS_9ExecStateEPKNS_9HashTableEPT_RKNS_10IdentifierERNS_18PropertyDescriptorE@Base 2.2.1
 _ZN3JSC24getStaticValueDescriptorIN7WebCore37JSSVGFontFaceFormatElementConstructorENS1_12JSDOMWrapperEEEbPNS_9ExecStateEPKNS_9HashTableEPT_RKNS_10IdentifierERNS_18PropertyDescriptorE@Base 2.2.1
 _ZN3JSC24getStaticValueDescriptorIN7WebCore37JSSVGLinearGradientElementConstructorENS1_12JSDOMWrapperEEEbPNS_9ExecStateEPKNS_9HashTableEPT_RKNS_10IdentifierERNS_18PropertyDescriptorE@Base 2.2.1
 _ZN3JSC24getStaticValueDescriptorIN7WebCore37JSSVGPathSegCurvetoQuadraticSmoothAbsENS1_12JSSVGPathSegEEEbPNS_9ExecStateEPKNS_9HashTableEPT_RKNS_10IdentifierERNS_18PropertyDescriptorE@Base 2.2.1
 _ZN3JSC24getStaticValueDescriptorIN7WebCore37JSSVGPathSegCurvetoQuadraticSmoothRelENS1_12JSSVGPathSegEEEbPNS_9ExecStateEPKNS_9HashTableEPT_RKNS_10IdentifierERNS_18PropertyDescriptorE@Base 2.2.1
 _ZN3JSC24getStaticValueDescriptorIN7WebCore37JSSVGRadialGradientElementConstructorENS1_12JSDOMWrapperEEEbPNS_9ExecStateEPKNS_9HashTableEPT_RKNS_10IdentifierERNS_18PropertyDescriptorE@Base 2.2.1
 _ZN3JSC24getStaticValueDescriptorIN7WebCore38JSSVGPathSegCurvetoCubicAbsConstructorENS1_12JSDOMWrapperEEEbPNS_9ExecStateEPKNS_9HashTableEPT_RKNS_10IdentifierERNS_18PropertyDescriptorE@Base 2.2.1
 _ZN3JSC24getStaticValueDescriptorIN7WebCore38JSSVGPathSegCurvetoCubicRelConstructorENS1_12JSDOMWrapperEEEbPNS_9ExecStateEPKNS_9HashTableEPT_RKNS_10IdentifierERNS_18PropertyDescriptorE@Base 2.2.1
 _ZN3JSC24getStaticValueDescriptorIN7WebCore38JSSVGTextPositioningElementConstructorENS1_12JSDOMWrapperEEEbPNS_9ExecStateEPKNS_9HashTableEPT_RKNS_10IdentifierERNS_18PropertyDescriptorE@Base 2.2.1
 _ZN3JSC24getStaticValueDescriptorIN7WebCore39JSSVGAnimateTransformElementConstructorENS1_12JSDOMWrapperEEEbPNS_9ExecStateEPKNS_9HashTableEPT_RKNS_10IdentifierERNS_18PropertyDescriptorE@Base 2.2.1
 _ZN3JSC24getStaticValueDescriptorIN7WebCore39JSSVGFEConvolveMatrixElementConstructorENS1_12JSDOMWrapperEEEbPNS_9ExecStateEPKNS_9HashTableEPT_RKNS_10IdentifierERNS_18PropertyDescriptorE@Base 2.2.1
 _ZN3JSC24getStaticValueDescriptorIN7WebCore40JSSVGFEDiffuseLightingElementConstructorENS1_12JSDOMWrapperEEEbPNS_9ExecStateEPKNS_9HashTableEPT_RKNS_10IdentifierERNS_18PropertyDescriptorE@Base 2.2.1
 _ZN3JSC24getStaticValueDescriptorIN7WebCore40JSSVGFEDisplacementMapElementConstructorENS1_12JSDOMWrapperEEEbPNS_9ExecStateEPKNS_9HashTableEPT_RKNS_10IdentifierERNS_18PropertyDescriptorE@Base 2.2.1
 _ZN3JSC24getStaticValueDescriptorIN7WebCore40JSSVGPathSegLinetoVerticalAbsConstructorENS1_12JSDOMWrapperEEEbPNS_9ExecStateEPKNS_9HashTableEPT_RKNS_10IdentifierERNS_18PropertyDescriptorE@Base 2.2.1
 _ZN3JSC24getStaticValueDescriptorIN7WebCore40JSSVGPathSegLinetoVerticalRelConstructorENS1_12JSDOMWrapperEEEbPNS_9ExecStateEPKNS_9HashTableEPT_RKNS_10IdentifierERNS_18PropertyDescriptorE@Base 2.2.1
 _ZN3JSC24getStaticValueDescriptorIN7WebCore40JSXMLHttpRequestProgressEventConstructorENS1_12JSDOMWrapperEEEbPNS_9ExecStateEPKNS_9HashTableEPT_RKNS_10IdentifierERNS_18PropertyDescriptorE@Base 2.2.1
 _ZN3JSC24getStaticValueDescriptorIN7WebCore41JSSVGFESpecularLightingElementConstructorENS1_12JSDOMWrapperEEEbPNS_9ExecStateEPKNS_9HashTableEPT_RKNS_10IdentifierERNS_18PropertyDescriptorE@Base 2.2.1
 _ZN3JSC24getStaticValueDescriptorIN7WebCore42JSSVGFEComponentTransferElementConstructorENS1_12JSDOMWrapperEEEbPNS_9ExecStateEPKNS_9HashTableEPT_RKNS_10IdentifierERNS_18PropertyDescriptorE@Base 2.2.1
 _ZN3JSC24getStaticValueDescriptorIN7WebCore42JSSVGPathSegCurvetoQuadraticAbsConstructorENS1_12JSDOMWrapperEEEbPNS_9ExecStateEPKNS_9HashTableEPT_RKNS_10IdentifierERNS_18PropertyDescriptorE@Base 2.2.1
 _ZN3JSC24getStaticValueDescriptorIN7WebCore42JSSVGPathSegCurvetoQuadraticRelConstructorENS1_12JSDOMWrapperEEEbPNS_9ExecStateEPKNS_9HashTableEPT_RKNS_10IdentifierERNS_18PropertyDescriptorE@Base 2.2.1
 _ZN3JSC24getStaticValueDescriptorIN7WebCore42JSSVGPathSegLinetoHorizontalAbsConstructorENS1_12JSDOMWrapperEEEbPNS_9ExecStateEPKNS_9HashTableEPT_RKNS_10IdentifierERNS_18PropertyDescriptorE@Base 2.2.1
 _ZN3JSC24getStaticValueDescriptorIN7WebCore42JSSVGPathSegLinetoHorizontalRelConstructorENS1_12JSDOMWrapperEEEbPNS_9ExecStateEPKNS_9HashTableEPT_RKNS_10IdentifierERNS_18PropertyDescriptorE@Base 2.2.1
 _ZN3JSC24getStaticValueDescriptorIN7WebCore43JSSVGAnimatedPreserveAspectRatioConstructorENS1_12JSDOMWrapperEEEbPNS_9ExecStateEPKNS_9HashTableEPT_RKNS_10IdentifierERNS_18PropertyDescriptorE@Base 2.2.1
 _ZN3JSC24getStaticValueDescriptorIN7WebCore44JSSVGPathSegCurvetoCubicSmoothAbsConstructorENS1_12JSDOMWrapperEEEbPNS_9ExecStateEPKNS_9HashTableEPT_RKNS_10IdentifierERNS_18PropertyDescriptorE@Base 2.2.1
 _ZN3JSC24getStaticValueDescriptorIN7WebCore44JSSVGPathSegCurvetoCubicSmoothRelConstructorENS1_12JSDOMWrapperEEEbPNS_9ExecStateEPKNS_9HashTableEPT_RKNS_10IdentifierERNS_18PropertyDescriptorE@Base 2.2.1
 _ZN3JSC24getStaticValueDescriptorIN7WebCore46JSSVGComponentTransferFunctionElementPrototypeENS_8JSObjectEEEbPNS_9ExecStateEPKNS_9HashTableEPT_RKNS_10IdentifierERNS_18PropertyDescriptorE@Base 2.2.1
 _ZN3JSC24getStaticValueDescriptorIN7WebCore48JSSVGComponentTransferFunctionElementConstructorENS1_12JSDOMWrapperEEEbPNS_9ExecStateEPKNS_9HashTableEPT_RKNS_10IdentifierERNS_18PropertyDescriptorE@Base 2.2.1
 _ZN3JSC24getStaticValueDescriptorIN7WebCore48JSSVGPathSegCurvetoQuadraticSmoothAbsConstructorENS1_12JSDOMWrapperEEEbPNS_9ExecStateEPKNS_9HashTableEPT_RKNS_10IdentifierERNS_18PropertyDescriptorE@Base 2.2.1
 _ZN3JSC24getStaticValueDescriptorIN7WebCore48JSSVGPathSegCurvetoQuadraticSmoothRelConstructorENS1_12JSDOMWrapperEEEbPNS_9ExecStateEPKNS_9HashTableEPT_RKNS_10IdentifierERNS_18PropertyDescriptorE@Base 2.2.1
 _ZN3JSC24getStaticValueDescriptorIN7WebCore6JSAttrENS1_6JSNodeEEEbPNS_9ExecStateEPKNS_9HashTableEPT_RKNS_10IdentifierERNS_18PropertyDescriptorE@Base 2.2.1
 _ZN3JSC24getStaticValueDescriptorIN7WebCore6JSBlobENS1_12JSDOMWrapperEEEbPNS_9ExecStateEPKNS_9HashTableEPT_RKNS_10IdentifierERNS_18PropertyDescriptorE@Base 2.2.1
 _ZN3JSC24getStaticValueDescriptorIN7WebCore6JSFileENS1_6JSBlobEEEbPNS_9ExecStateEPKNS_9HashTableEPT_RKNS_10IdentifierERNS_18PropertyDescriptorE@Base 2.2.1
 _ZN3JSC24getStaticValueDescriptorIN7WebCore6JSNodeENS1_12JSDOMWrapperEEEbPNS_9ExecStateEPKNS_9HashTableEPT_RKNS_10IdentifierERNS_18PropertyDescriptorE@Base 2.2.1
 _ZN3JSC24getStaticValueDescriptorIN7WebCore6JSRectENS1_12JSDOMWrapperEEEbPNS_9ExecStateEPKNS_9HashTableEPT_RKNS_10IdentifierERNS_18PropertyDescriptorE@Base 2.2.1
 _ZN3JSC24getStaticValueDescriptorIN7WebCore6JSTextENS1_15JSCharacterDataEEEbPNS_9ExecStateEPKNS_9HashTableEPT_RKNS_10IdentifierERNS_18PropertyDescriptorE@Base 2.2.1
 _ZN3JSC24getStaticValueDescriptorIN7WebCore7JSEventENS1_12JSDOMWrapperEEEbPNS_9ExecStateEPKNS_9HashTableEPT_RKNS_10IdentifierERNS_18PropertyDescriptorE@Base 2.2.1
 _ZN3JSC24getStaticValueDescriptorIN7WebCore7JSRangeENS1_12JSDOMWrapperEEEbPNS_9ExecStateEPKNS_9HashTableEPT_RKNS_10IdentifierERNS_18PropertyDescriptorE@Base 2.2.1
 _ZN3JSC24getStaticValueDescriptorIN7WebCore7JSTouchENS1_12JSDOMWrapperEEEbPNS_9ExecStateEPKNS_9HashTableEPT_RKNS_10IdentifierERNS_18PropertyDescriptorE@Base 2.2.1
 _ZN3JSC24getStaticValueDescriptorIN7WebCore8JSEntityENS1_6JSNodeEEEbPNS_9ExecStateEPKNS_9HashTableEPT_RKNS_10IdentifierERNS_18PropertyDescriptorE@Base 2.2.1
 _ZN3JSC24getStaticValueDescriptorIN7WebCore8JSScreenENS1_12JSDOMWrapperEEEbPNS_9ExecStateEPKNS_9HashTableEPT_RKNS_10IdentifierERNS_18PropertyDescriptorE@Base 2.2.1
 _ZN3JSC24getStaticValueDescriptorIN7WebCore8JSWorkerENS1_16JSAbstractWorkerEEEbPNS_9ExecStateEPKNS_9HashTableEPT_RKNS_10IdentifierERNS_18PropertyDescriptorE@Base 2.2.1
 _ZN3JSC24getStaticValueDescriptorIN7WebCore9JSBarInfoENS1_12JSDOMWrapperEEEbPNS_9ExecStateEPKNS_9HashTableEPT_RKNS_10IdentifierERNS_18PropertyDescriptorE@Base 2.2.1
 _ZN3JSC24getStaticValueDescriptorIN7WebCore9JSCSSRuleENS1_12JSDOMWrapperEEEbPNS_9ExecStateEPKNS_9HashTableEPT_RKNS_10IdentifierERNS_18PropertyDescriptorE@Base 2.2.1
 _ZN3JSC24getStaticValueDescriptorIN7WebCore9JSCommentENS1_15JSCharacterDataEEEbPNS_9ExecStateEPKNS_9HashTableEPT_RKNS_10IdentifierERNS_18PropertyDescriptorE@Base 2.2.1
 _ZN3JSC24getStaticValueDescriptorIN7WebCore9JSConsoleENS1_12JSDOMWrapperEEEbPNS_9ExecStateEPKNS_9HashTableEPT_RKNS_10IdentifierERNS_18PropertyDescriptorE@Base 2.2.1
 _ZN3JSC24getStaticValueDescriptorIN7WebCore9JSCounterENS1_12JSDOMWrapperEEEbPNS_9ExecStateEPKNS_9HashTableEPT_RKNS_10IdentifierERNS_18PropertyDescriptorE@Base 2.2.1
 _ZN3JSC24getStaticValueDescriptorIN7WebCore9JSElementENS1_6JSNodeEEEbPNS_9ExecStateEPKNS_9HashTableEPT_RKNS_10IdentifierERNS_18PropertyDescriptorE@Base 2.2.1
 _ZN3JSC24getStaticValueDescriptorIN7WebCore9JSHistoryENS1_12JSDOMWrapperEEEbPNS_9ExecStateEPKNS_9HashTableEPT_RKNS_10IdentifierERNS_18PropertyDescriptorE@Base 2.2.1
 _ZN3JSC24getStaticValueDescriptorIN7WebCore9JSSVGRectENS1_12JSDOMWrapperEEEbPNS_9ExecStateEPKNS_9HashTableEPT_RKNS_10IdentifierERNS_18PropertyDescriptorE@Base 2.2.1
 _ZN3JSC24getStaticValueDescriptorIN7WebCore9JSStorageENS1_12JSDOMWrapperEEEbPNS_9ExecStateEPKNS_9HashTableEPT_RKNS_10IdentifierERNS_18PropertyDescriptorE@Base 2.2.1
 _ZN3JSC24getStaticValueDescriptorIN7WebCore9JSUIEventENS1_7JSEventEEEbPNS_9ExecStateEPKNS_9HashTableEPT_RKNS_10IdentifierERNS_18PropertyDescriptorE@Base 2.2.1
 _ZN3JSC27getStaticFunctionDescriptorINS_8JSObjectEEEbPNS_9ExecStateEPKNS_9HashTableEPS1_RKNS_10IdentifierERNS_18PropertyDescriptorE@Base 2.2.1
 _ZN3JSC27getStaticPropertyDescriptorIN7WebCore15JSNodePrototypeENS_8JSObjectEEEbPNS_9ExecStateEPKNS_9HashTableEPT_RKNS_10IdentifierERNS_18PropertyDescriptorE@Base 2.2.1
 _ZN3JSC27getStaticPropertyDescriptorIN7WebCore16JSEventPrototypeENS_8JSObjectEEEbPNS_9ExecStateEPKNS_9HashTableEPT_RKNS_10IdentifierERNS_18PropertyDescriptorE@Base 2.2.1
 _ZN3JSC27getStaticPropertyDescriptorIN7WebCore16JSRangePrototypeENS_8JSObjectEEEbPNS_9ExecStateEPKNS_9HashTableEPT_RKNS_10IdentifierERNS_18PropertyDescriptorE@Base 2.2.1
 _ZN3JSC27getStaticPropertyDescriptorIN7WebCore19JSSVGAnglePrototypeENS_8JSObjectEEEbPNS_9ExecStateEPKNS_9HashTableEPT_RKNS_10IdentifierERNS_18PropertyDescriptorE@Base 2.2.1
 _ZN3JSC27getStaticPropertyDescriptorIN7WebCore19JSSVGColorPrototypeENS_8JSObjectEEEbPNS_9ExecStateEPKNS_9HashTableEPT_RKNS_10IdentifierERNS_18PropertyDescriptorE@Base 2.2.1
 _ZN3JSC27getStaticPropertyDescriptorIN7WebCore19JSSVGPaintPrototypeENS_8JSObjectEEEbPNS_9ExecStateEPKNS_9HashTableEPT_RKNS_10IdentifierERNS_18PropertyDescriptorE@Base 2.2.1
 _ZN3JSC27getStaticPropertyDescriptorIN7WebCore20JSInt8ArrayPrototypeENS_8JSObjectEEEbPNS_9ExecStateEPKNS_9HashTableEPT_RKNS_10IdentifierERNS_18PropertyDescriptorE@Base 2.2.1
 _ZN3JSC27getStaticPropertyDescriptorIN7WebCore20JSSVGLengthPrototypeENS_8JSObjectEEEbPNS_9ExecStateEPKNS_9HashTableEPT_RKNS_10IdentifierERNS_18PropertyDescriptorE@Base 2.2.1
 _ZN3JSC27getStaticPropertyDescriptorIN7WebCore20JSWebSocketPrototypeENS_8JSObjectEEEbPNS_9ExecStateEPKNS_9HashTableEPT_RKNS_10IdentifierERNS_18PropertyDescriptorE@Base 2.2.1
 _ZN3JSC27getStaticPropertyDescriptorIN7WebCore21JSFileReaderPrototypeENS_8JSObjectEEEbPNS_9ExecStateEPKNS_9HashTableEPT_RKNS_10IdentifierERNS_18PropertyDescriptorE@Base 2.2.1
 _ZN3JSC27getStaticPropertyDescriptorIN7WebCore21JSInt16ArrayPrototypeENS_8JSObjectEEEbPNS_9ExecStateEPKNS_9HashTableEPT_RKNS_10IdentifierERNS_18PropertyDescriptorE@Base 2.2.1
 _ZN3JSC27getStaticPropertyDescriptorIN7WebCore21JSInt32ArrayPrototypeENS_8JSObjectEEEbPNS_9ExecStateEPKNS_9HashTableEPT_RKNS_10IdentifierERNS_18PropertyDescriptorE@Base 2.2.1
 _ZN3JSC27getStaticPropertyDescriptorIN7WebCore21JSNodeFilterPrototypeENS_8JSObjectEEEbPNS_9ExecStateEPKNS_9HashTableEPT_RKNS_10IdentifierERNS_18PropertyDescriptorE@Base 2.2.1
 _ZN3JSC27getStaticPropertyDescriptorIN7WebCore21JSUint8ArrayPrototypeENS_8JSObjectEEEbPNS_9ExecStateEPKNS_9HashTableEPT_RKNS_10IdentifierERNS_18PropertyDescriptorE@Base 2.2.1
 _ZN3JSC27getStaticPropertyDescriptorIN7WebCore22JSEventSourcePrototypeENS_8JSObjectEEEbPNS_9ExecStateEPKNS_9HashTableEPT_RKNS_10IdentifierERNS_18PropertyDescriptorE@Base 2.2.1
 _ZN3JSC27getStaticPropertyDescriptorIN7WebCore22JSUint16ArrayPrototypeENS_8JSObjectEEEbPNS_9ExecStateEPKNS_9HashTableEPT_RKNS_10IdentifierERNS_18PropertyDescriptorE@Base 2.2.1
 _ZN3JSC27getStaticPropertyDescriptorIN7WebCore22JSUint32ArrayPrototypeENS_8JSObjectEEEbPNS_9ExecStateEPKNS_9HashTableEPT_RKNS_10IdentifierERNS_18PropertyDescriptorE@Base 2.2.1
 _ZN3JSC27getStaticPropertyDescriptorIN7WebCore22JSXPathResultPrototypeENS_8JSObjectEEEbPNS_9ExecStateEPKNS_9HashTableEPT_RKNS_10IdentifierERNS_18PropertyDescriptorE@Base 2.2.1
 _ZN3JSC27getStaticPropertyDescriptorIN7WebCore23JSFloat32ArrayPrototypeENS_8JSObjectEEEbPNS_9ExecStateEPKNS_9HashTableEPT_RKNS_10IdentifierERNS_18PropertyDescriptorE@Base 2.2.1
 _ZN3JSC27getStaticPropertyDescriptorIN7WebCore23JSSVGExceptionPrototypeENS_8JSObjectEEEbPNS_9ExecStateEPKNS_9HashTableEPT_RKNS_10IdentifierERNS_18PropertyDescriptorE@Base 2.2.1
 _ZN3JSC27getStaticPropertyDescriptorIN7WebCore23JSSVGTransformPrototypeENS_8JSObjectEEEbPNS_9ExecStateEPKNS_9HashTableEPT_RKNS_10IdentifierERNS_18PropertyDescriptorE@Base 2.2.1
 _ZN3JSC27getStaticPropertyDescriptorIN7WebCore24JSFileExceptionPrototypeENS_8JSObjectEEEbPNS_9ExecStateEPKNS_9HashTableEPT_RKNS_10IdentifierERNS_18PropertyDescriptorE@Base 2.2.1
 _ZN3JSC27getStaticPropertyDescriptorIN7WebCore24JSMutationEventPrototypeENS_8JSObjectEEEbPNS_9ExecStateEPKNS_9HashTableEPT_RKNS_10IdentifierERNS_18PropertyDescriptorE@Base 2.2.1
 _ZN3JSC27getStaticPropertyDescriptorIN7WebCore24JSOverflowEventPrototypeENS_8JSObjectEEEbPNS_9ExecStateEPKNS_9HashTableEPT_RKNS_10IdentifierERNS_18PropertyDescriptorE@Base 2.2.1
 _ZN3JSC27getStaticPropertyDescriptorIN7WebCore24JSSVGSVGElementPrototypeENS_8JSObjectEEEbPNS_9ExecStateEPKNS_9HashTableEPT_RKNS_10IdentifierERNS_18PropertyDescriptorE@Base 2.2.1
 _ZN3JSC27getStaticPropertyDescriptorIN7WebCore25JSEventExceptionPrototypeENS_8JSObjectEEEbPNS_9ExecStateEPKNS_9HashTableEPT_RKNS_10IdentifierERNS_18PropertyDescriptorE@Base 2.2.1
 _ZN3JSC27getStaticPropertyDescriptorIN7WebCore25JSRangeExceptionPrototypeENS_8JSObjectEEEbPNS_9ExecStateEPKNS_9HashTableEPT_RKNS_10IdentifierERNS_18PropertyDescriptorE@Base 2.2.1
 _ZN3JSC27getStaticPropertyDescriptorIN7WebCore25JSXMLHttpRequestPrototypeENS_8JSObjectEEEbPNS_9ExecStateEPKNS_9HashTableEPT_RKNS_10IdentifierERNS_18PropertyDescriptorE@Base 2.2.1
 _ZN3JSC27getStaticPropertyDescriptorIN7WebCore25JSXPathExceptionPrototypeENS_8JSObjectEEEbPNS_9ExecStateEPKNS_9HashTableEPT_RKNS_10IdentifierERNS_18PropertyDescriptorE@Base 2.2.1
 _ZN3JSC27getStaticPropertyDescriptorIN7WebCore26JSWebKitAnimationPrototypeENS_8JSObjectEEEbPNS_9ExecStateEPKNS_9HashTableEPT_RKNS_10IdentifierERNS_18PropertyDescriptorE@Base 2.2.1
 _ZN3JSC27getStaticPropertyDescriptorIN7WebCore27JSDOMCoreExceptionPrototypeENS_8JSObjectEEEbPNS_9ExecStateEPKNS_9HashTableEPT_RKNS_10IdentifierERNS_18PropertyDescriptorE@Base 2.2.1
 _ZN3JSC27getStaticPropertyDescriptorIN7WebCore27JSHTMLMediaElementPrototypeENS_8JSObjectEEEbPNS_9ExecStateEPKNS_9HashTableEPT_RKNS_10IdentifierERNS_18PropertyDescriptorE@Base 2.2.1
 _ZN3JSC27getStaticPropertyDescriptorIN7WebCore27JSSVGMarkerElementPrototypeENS_8JSObjectEEEbPNS_9ExecStateEPKNS_9HashTableEPT_RKNS_10IdentifierERNS_18PropertyDescriptorE@Base 2.2.1
 _ZN3JSC27getStaticPropertyDescriptorIN7WebCore28JSCSSPrimitiveValuePrototypeENS_8JSObjectEEEbPNS_9ExecStateEPKNS_9HashTableEPT_RKNS_10IdentifierERNS_18PropertyDescriptorE@Base 2.2.1
 _ZN3JSC27getStaticPropertyDescriptorIN7WebCore28JSSVGFEBlendElementPrototypeENS_8JSObjectEEEbPNS_9ExecStateEPKNS_9HashTableEPT_RKNS_10IdentifierERNS_18PropertyDescriptorE@Base 2.2.1
 _ZN3JSC27getStaticPropertyDescriptorIN7WebCore29JSSVGGradientElementPrototypeENS_8JSObjectEEEbPNS_9ExecStateEPKNS_9HashTableEPT_RKNS_10IdentifierERNS_18PropertyDescriptorE@Base 2.2.1
 _ZN3JSC27getStaticPropertyDescriptorIN7WebCore30JSDOMApplicationCachePrototypeENS_8JSObjectEEEbPNS_9ExecStateEPKNS_9HashTableEPT_RKNS_10IdentifierERNS_18PropertyDescriptorE@Base 2.2.1
 _ZN3JSC27getStaticPropertyDescriptorIN7WebCore30JSJavaScriptCallFramePrototypeENS_8JSObjectEEEbPNS_9ExecStateEPKNS_9HashTableEPT_RKNS_10IdentifierERNS_18PropertyDescriptorE@Base 2.2.1
 _ZN3JSC27getStaticPropertyDescriptorIN7WebCore32JSSVGFECompositeElementPrototypeENS_8JSObjectEEEbPNS_9ExecStateEPKNS_9HashTableEPT_RKNS_10IdentifierERNS_18PropertyDescriptorE@Base 2.2.1
 _ZN3JSC27getStaticPropertyDescriptorIN7WebCore32JSSVGTextContentElementPrototypeENS_8JSObjectEEEbPNS_9ExecStateEPKNS_9HashTableEPT_RKNS_10IdentifierERNS_18PropertyDescriptorE@Base 2.2.1
 _ZN3JSC27getStaticPropertyDescriptorIN7WebCore33JSSVGFEMorphologyElementPrototypeENS_8JSObjectEEEbPNS_9ExecStateEPKNS_9HashTableEPT_RKNS_10IdentifierERNS_18PropertyDescriptorE@Base 2.2.1
 _ZN3JSC27getStaticPropertyDescriptorIN7WebCore33JSSVGFETurbulenceElementPrototypeENS_8JSObjectEEEbPNS_9ExecStateEPKNS_9HashTableEPT_RKNS_10IdentifierERNS_18PropertyDescriptorE@Base 2.2.1
 _ZN3JSC27getStaticPropertyDescriptorIN7WebCore34JSSVGFEColorMatrixElementPrototypeENS_8JSObjectEEEbPNS_9ExecStateEPKNS_9HashTableEPT_RKNS_10IdentifierERNS_18PropertyDescriptorE@Base 2.2.1
 _ZN3JSC27getStaticPropertyDescriptorIN7WebCore34JSXMLHttpRequestExceptionPrototypeENS_8JSObjectEEEbPNS_9ExecStateEPKNS_9HashTableEPT_RKNS_10IdentifierERNS_18PropertyDescriptorE@Base 2.2.1
 _ZN3JSC27getStaticPropertyDescriptorIN7WebCore37JSSVGFEConvolveMatrixElementPrototypeENS_8JSObjectEEEbPNS_9ExecStateEPKNS_9HashTableEPT_RKNS_10IdentifierERNS_18PropertyDescriptorE@Base 2.2.1
 _ZN3JSC27getStaticPropertyDescriptorIN7WebCore38JSSVGFEDisplacementMapElementPrototypeENS_8JSObjectEEEbPNS_9ExecStateEPKNS_9HashTableEPT_RKNS_10IdentifierERNS_18PropertyDescriptorE@Base 2.2.1
 _ZN3JSC7JSValueC1Es@Base 2.2.1
 _ZN3JSC7JSValueC1Et@Base 2.2.1
 _ZN3JSC7JSValueC1Ey@Base 2.2.1
 _ZN3JSC7JSValueC2Es@Base 2.2.1
 _ZN3JSC7JSValueC2Et@Base 2.2.1
 _ZN3JSC7JSValueC2Ey@Base 2.2.1
 _ZN3JSC9lookupPutIN7WebCore10JSCSSValueEEEbPNS_9ExecStateERKNS_10IdentifierENS_7JSValueEPKNS_9HashTableEPT_@Base 2.2.1
 _ZN3JSC9lookupPutIN7WebCore10JSCSSValueENS1_12JSDOMWrapperEEEvPNS_9ExecStateERKNS_10IdentifierENS_7JSValueEPKNS_9HashTableEPT_RNS_15PutPropertySlotE@Base 2.2.1
 _ZN3JSC9lookupPutIN7WebCore10JSDocumentEEEbPNS_9ExecStateERKNS_10IdentifierENS_7JSValueEPKNS_9HashTableEPT_@Base 2.2.1
 _ZN3JSC9lookupPutIN7WebCore10JSDocumentENS1_6JSNodeEEEvPNS_9ExecStateERKNS_10IdentifierENS_7JSValueEPKNS_9HashTableEPT_RNS_15PutPropertySlotE@Base 2.2.1
 _ZN3JSC9lookupPutIN7WebCore10JSLocationEEEbPNS_9ExecStateERKNS_10IdentifierENS_7JSValueEPKNS_9HashTableEPT_@Base 2.2.1
 _ZN3JSC9lookupPutIN7WebCore10JSLocationENS1_12JSDOMWrapperEEEvPNS_9ExecStateERKNS_10IdentifierENS_7JSValueEPKNS_9HashTableEPT_RNS_15PutPropertySlotE@Base 2.2.1
 _ZN3JSC9lookupPutIN7WebCore10JSSVGAngleEEEbPNS_9ExecStateERKNS_10IdentifierENS_7JSValueEPKNS_9HashTableEPT_@Base 2.2.1
 _ZN3JSC9lookupPutIN7WebCore10JSSVGAngleENS1_12JSDOMWrapperEEEvPNS_9ExecStateERKNS_10IdentifierENS_7JSValueEPKNS_9HashTableEPT_RNS_15PutPropertySlotE@Base 2.2.1
 _ZN3JSC9lookupPutIN7WebCore10JSSVGPointEEEbPNS_9ExecStateERKNS_10IdentifierENS_7JSValueEPKNS_9HashTableEPT_@Base 2.2.1
 _ZN3JSC9lookupPutIN7WebCore10JSSVGPointENS1_12JSDOMWrapperEEEvPNS_9ExecStateERKNS_10IdentifierENS_7JSValueEPKNS_9HashTableEPT_RNS_15PutPropertySlotE@Base 2.2.1
 _ZN3JSC9lookupPutIN7WebCore11JSClipboardEEEbPNS_9ExecStateERKNS_10IdentifierENS_7JSValueEPKNS_9HashTableEPT_@Base 2.2.1
 _ZN3JSC9lookupPutIN7WebCore11JSClipboardENS1_12JSDOMWrapperEEEvPNS_9ExecStateERKNS_10IdentifierENS_7JSValueEPKNS_9HashTableEPT_RNS_15PutPropertySlotE@Base 2.2.1
 _ZN3JSC9lookupPutIN7WebCore11JSMediaListEEEbPNS_9ExecStateERKNS_10IdentifierENS_7JSValueEPKNS_9HashTableEPT_@Base 2.2.1
 _ZN3JSC9lookupPutIN7WebCore11JSMediaListENS1_12JSDOMWrapperEEEvPNS_9ExecStateERKNS_10IdentifierENS_7JSValueEPKNS_9HashTableEPT_RNS_15PutPropertySlotE@Base 2.2.1
 _ZN3JSC9lookupPutIN7WebCore11JSSVGLengthEEEbPNS_9ExecStateERKNS_10IdentifierENS_7JSValueEPKNS_9HashTableEPT_@Base 2.2.1
 _ZN3JSC9lookupPutIN7WebCore11JSSVGLengthENS1_12JSDOMWrapperEEEvPNS_9ExecStateERKNS_10IdentifierENS_7JSValueEPKNS_9HashTableEPT_RNS_15PutPropertySlotE@Base 2.2.1
 _ZN3JSC9lookupPutIN7WebCore11JSSVGMatrixEEEbPNS_9ExecStateERKNS_10IdentifierENS_7JSValueEPKNS_9HashTableEPT_@Base 2.2.1
 _ZN3JSC9lookupPutIN7WebCore11JSSVGMatrixENS1_12JSDOMWrapperEEEvPNS_9ExecStateERKNS_10IdentifierENS_7JSValueEPKNS_9HashTableEPT_RNS_15PutPropertySlotE@Base 2.2.1
 _ZN3JSC9lookupPutIN7WebCore11JSSVGNumberEEEbPNS_9ExecStateERKNS_10IdentifierENS_7JSValueEPKNS_9HashTableEPT_@Base 2.2.1
 _ZN3JSC9lookupPutIN7WebCore11JSSVGNumberENS1_12JSDOMWrapperEEEvPNS_9ExecStateERKNS_10IdentifierENS_7JSValueEPKNS_9HashTableEPT_RNS_15PutPropertySlotE@Base 2.2.1
 _ZN3JSC9lookupPutIN7WebCore11JSWebSocketEEEbPNS_9ExecStateERKNS_10IdentifierENS_7JSValueEPKNS_9HashTableEPT_@Base 2.2.1
 _ZN3JSC9lookupPutIN7WebCore11JSWebSocketENS1_12JSDOMWrapperEEEvPNS_9ExecStateERKNS_10IdentifierENS_7JSValueEPKNS_9HashTableEPT_RNS_15PutPropertySlotE@Base 2.2.1
 _ZN3JSC9lookupPutIN7WebCore12JSFileReaderEEEbPNS_9ExecStateERKNS_10IdentifierENS_7JSValueEPKNS_9HashTableEPT_@Base 2.2.1
 _ZN3JSC9lookupPutIN7WebCore12JSFileReaderENS1_12JSDOMWrapperEEEvPNS_9ExecStateERKNS_10IdentifierENS_7JSValueEPKNS_9HashTableEPT_RNS_15PutPropertySlotE@Base 2.2.1
 _ZN3JSC9lookupPutIN7WebCore12JSSVGElementEEEbPNS_9ExecStateERKNS_10IdentifierENS_7JSValueEPKNS_9HashTableEPT_@Base 2.2.1
 _ZN3JSC9lookupPutIN7WebCore12JSSVGElementENS1_9JSElementEEEvPNS_9ExecStateERKNS_10IdentifierENS_7JSValueEPKNS_9HashTableEPT_RNS_15PutPropertySlotE@Base 2.2.1
 _ZN3JSC9lookupPutIN7WebCore12JSStyleSheetEEEbPNS_9ExecStateERKNS_10IdentifierENS_7JSValueEPKNS_9HashTableEPT_@Base 2.2.1
 _ZN3JSC9lookupPutIN7WebCore12JSStyleSheetENS1_12JSDOMWrapperEEEvPNS_9ExecStateERKNS_10IdentifierENS_7JSValueEPKNS_9HashTableEPT_RNS_15PutPropertySlotE@Base 2.2.1
 _ZN3JSC9lookupPutIN7WebCore12JSTreeWalkerEEEbPNS_9ExecStateERKNS_10IdentifierENS_7JSValueEPKNS_9HashTableEPT_@Base 2.2.1
 _ZN3JSC9lookupPutIN7WebCore12JSTreeWalkerENS1_12JSDOMWrapperEEEvPNS_9ExecStateERKNS_10IdentifierENS_7JSValueEPKNS_9HashTableEPT_RNS_15PutPropertySlotE@Base 2.2.1
 _ZN3JSC9lookupPutIN7WebCore13JSCSSPageRuleEEEbPNS_9ExecStateERKNS_10IdentifierENS_7JSValueEPKNS_9HashTableEPT_@Base 2.2.1
 _ZN3JSC9lookupPutIN7WebCore13JSCSSPageRuleENS1_9JSCSSRuleEEEvPNS_9ExecStateERKNS_10IdentifierENS_7JSValueEPKNS_9HashTableEPT_RNS_15PutPropertySlotE@Base 2.2.1
 _ZN3JSC9lookupPutIN7WebCore13JSEventSourceEEEbPNS_9ExecStateERKNS_10IdentifierENS_7JSValueEPKNS_9HashTableEPT_@Base 2.2.1
 _ZN3JSC9lookupPutIN7WebCore13JSEventSourceENS1_12JSDOMWrapperEEEvPNS_9ExecStateERKNS_10IdentifierENS_7JSValueEPKNS_9HashTableEPT_RNS_15PutPropertySlotE@Base 2.2.1
 _ZN3JSC9lookupPutIN7WebCore13JSHTMLElementEEEbPNS_9ExecStateERKNS_10IdentifierENS_7JSValueEPKNS_9HashTableEPT_@Base 2.2.1
 _ZN3JSC9lookupPutIN7WebCore13JSHTMLElementENS1_9JSElementEEEvPNS_9ExecStateERKNS_10IdentifierENS_7JSValueEPKNS_9HashTableEPT_RNS_15PutPropertySlotE@Base 2.2.1
 _ZN3JSC9lookupPutIN7WebCore13JSMessagePortEEEbPNS_9ExecStateERKNS_10IdentifierENS_7JSValueEPKNS_9HashTableEPT_@Base 2.2.1
 _ZN3JSC9lookupPutIN7WebCore13JSMessagePortENS1_12JSDOMWrapperEEEvPNS_9ExecStateERKNS_10IdentifierENS_7JSValueEPKNS_9HashTableEPT_RNS_15PutPropertySlotE@Base 2.2.1
 _ZN3JSC9lookupPutIN7WebCore13JSSVGAElementEEEbPNS_9ExecStateERKNS_10IdentifierENS_7JSValueEPKNS_9HashTableEPT_@Base 2.2.1
 _ZN3JSC9lookupPutIN7WebCore13JSSVGAElementENS1_12JSSVGElementEEEvPNS_9ExecStateERKNS_10IdentifierENS_7JSValueEPKNS_9HashTableEPT_RNS_15PutPropertySlotE@Base 2.2.1
 _ZN3JSC9lookupPutIN7WebCore13JSSVGGElementEEEbPNS_9ExecStateERKNS_10IdentifierENS_7JSValueEPKNS_9HashTableEPT_@Base 2.2.1
 _ZN3JSC9lookupPutIN7WebCore13JSSVGGElementENS1_12JSSVGElementEEEvPNS_9ExecStateERKNS_10IdentifierENS_7JSValueEPKNS_9HashTableEPT_RNS_15PutPropertySlotE@Base 2.2.1
 _ZN3JSC9lookupPutIN7WebCore13JSWebKitPointEEEbPNS_9ExecStateERKNS_10IdentifierENS_7JSValueEPKNS_9HashTableEPT_@Base 2.2.1
 _ZN3JSC9lookupPutIN7WebCore13JSWebKitPointENS1_12JSDOMWrapperEEEvPNS_9ExecStateERKNS_10IdentifierENS_7JSValueEPKNS_9HashTableEPT_RNS_15PutPropertySlotE@Base 2.2.1
 _ZN3JSC9lookupPutIN7WebCore14JSCSSStyleRuleEEEbPNS_9ExecStateERKNS_10IdentifierENS_7JSValueEPKNS_9HashTableEPT_@Base 2.2.1
 _ZN3JSC9lookupPutIN7WebCore14JSCSSStyleRuleENS1_9JSCSSRuleEEEvPNS_9ExecStateERKNS_10IdentifierENS_7JSValueEPKNS_9HashTableEPT_RNS_15PutPropertySlotE@Base 2.2.1
 _ZN3JSC9lookupPutIN7WebCore14JSHTMLDocumentEEEbPNS_9ExecStateERKNS_10IdentifierENS_7JSValueEPKNS_9HashTableEPT_@Base 2.2.1
 _ZN3JSC9lookupPutIN7WebCore14JSHTMLDocumentENS1_10JSDocumentEEEvPNS_9ExecStateERKNS_10IdentifierENS_7JSValueEPKNS_9HashTableEPT_RNS_15PutPropertySlotE@Base 2.2.1
 _ZN3JSC9lookupPutIN7WebCore14JSNotificationEEEbPNS_9ExecStateERKNS_10IdentifierENS_7JSValueEPKNS_9HashTableEPT_@Base 2.2.1
 _ZN3JSC9lookupPutIN7WebCore14JSNotificationENS1_12JSDOMWrapperEEEvPNS_9ExecStateERKNS_10IdentifierENS_7JSValueEPKNS_9HashTableEPT_RNS_15PutPropertySlotE@Base 2.2.1
 _ZN3JSC9lookupPutIN7WebCore15JSCharacterDataEEEbPNS_9ExecStateERKNS_10IdentifierENS_7JSValueEPKNS_9HashTableEPT_@Base 2.2.1
 _ZN3JSC9lookupPutIN7WebCore15JSCharacterDataENS1_6JSNodeEEEvPNS_9ExecStateERKNS_10IdentifierENS_7JSValueEPKNS_9HashTableEPT_RNS_15PutPropertySlotE@Base 2.2.1
 _ZN3JSC9lookupPutIN7WebCore15JSHTMLBRElementEEEbPNS_9ExecStateERKNS_10IdentifierENS_7JSValueEPKNS_9HashTableEPT_@Base 2.2.1
 _ZN3JSC9lookupPutIN7WebCore15JSHTMLBRElementENS1_13JSHTMLElementEEEvPNS_9ExecStateERKNS_10IdentifierENS_7JSValueEPKNS_9HashTableEPT_RNS_15PutPropertySlotE@Base 2.2.1
 _ZN3JSC9lookupPutIN7WebCore15JSHTMLHRElementEEEbPNS_9ExecStateERKNS_10IdentifierENS_7JSValueEPKNS_9HashTableEPT_@Base 2.2.1
 _ZN3JSC9lookupPutIN7WebCore15JSHTMLHRElementENS1_13JSHTMLElementEEEvPNS_9ExecStateERKNS_10IdentifierENS_7JSValueEPKNS_9HashTableEPT_RNS_15PutPropertySlotE@Base 2.2.1
 _ZN3JSC9lookupPutIN7WebCore15JSHTMLLIElementEEEbPNS_9ExecStateERKNS_10IdentifierENS_7JSValueEPKNS_9HashTableEPT_@Base 2.2.1
 _ZN3JSC9lookupPutIN7WebCore15JSHTMLLIElementENS1_13JSHTMLElementEEEvPNS_9ExecStateERKNS_10IdentifierENS_7JSValueEPKNS_9HashTableEPT_RNS_15PutPropertySlotE@Base 2.2.1
 _ZN3JSC9lookupPutIN7WebCore15JSSVGSVGElementEEEbPNS_9ExecStateERKNS_10IdentifierENS_7JSValueEPKNS_9HashTableEPT_@Base 2.2.1
 _ZN3JSC9lookupPutIN7WebCore15JSSVGSVGElementENS1_12JSSVGElementEEEvPNS_9ExecStateERKNS_10IdentifierENS_7JSValueEPKNS_9HashTableEPT_RNS_15PutPropertySlotE@Base 2.2.1
 _ZN3JSC9lookupPutIN7WebCore15JSSVGUseElementEEEbPNS_9ExecStateERKNS_10IdentifierENS_7JSValueEPKNS_9HashTableEPT_@Base 2.2.1
 _ZN3JSC9lookupPutIN7WebCore15JSSVGUseElementENS1_12JSSVGElementEEEvPNS_9ExecStateERKNS_10IdentifierENS_7JSValueEPKNS_9HashTableEPT_RNS_15PutPropertySlotE@Base 2.2.1
 _ZN3JSC9lookupPutIN7WebCore15JSWorkerContextEEEbPNS_9ExecStateERKNS_10IdentifierENS_7JSValueEPKNS_9HashTableEPT_@Base 2.2.1
 _ZN3JSC9lookupPutIN7WebCore15JSWorkerContextENS1_19JSWorkerContextBaseEEEvPNS_9ExecStateERKNS_10IdentifierENS_7JSValueEPKNS_9HashTableEPT_RNS_15PutPropertySlotE@Base 2.2.1
 _ZN3JSC9lookupPutIN7WebCore16JSAbstractWorkerEEEbPNS_9ExecStateERKNS_10IdentifierENS_7JSValueEPKNS_9HashTableEPT_@Base 2.2.1
 _ZN3JSC9lookupPutIN7WebCore16JSAbstractWorkerENS1_12JSDOMWrapperEEEvPNS_9ExecStateERKNS_10IdentifierENS_7JSValueEPKNS_9HashTableEPT_RNS_15PutPropertySlotE@Base 2.2.1
 _ZN3JSC9lookupPutIN7WebCore16JSCSSCharsetRuleEEEbPNS_9ExecStateERKNS_10IdentifierENS_7JSValueEPKNS_9HashTableEPT_@Base 2.2.1
 _ZN3JSC9lookupPutIN7WebCore16JSCSSCharsetRuleENS1_9JSCSSRuleEEEvPNS_9ExecStateERKNS_10IdentifierENS_7JSValueEPKNS_9HashTableEPT_RNS_15PutPropertySlotE@Base 2.2.1
 _ZN3JSC9lookupPutIN7WebCore16JSHTMLDivElementEEEbPNS_9ExecStateERKNS_10IdentifierENS_7JSValueEPKNS_9HashTableEPT_@Base 2.2.1
 _ZN3JSC9lookupPutIN7WebCore16JSHTMLDivElementENS1_13JSHTMLElementEEEvPNS_9ExecStateERKNS_10IdentifierENS_7JSValueEPKNS_9HashTableEPT_RNS_15PutPropertySlotE@Base 2.2.1
 _ZN3JSC9lookupPutIN7WebCore16JSHTMLMapElementEEEbPNS_9ExecStateERKNS_10IdentifierENS_7JSValueEPKNS_9HashTableEPT_@Base 2.2.1
 _ZN3JSC9lookupPutIN7WebCore16JSHTMLMapElementENS1_13JSHTMLElementEEEvPNS_9ExecStateERKNS_10IdentifierENS_7JSValueEPKNS_9HashTableEPT_RNS_15PutPropertySlotE@Base 2.2.1
 _ZN3JSC9lookupPutIN7WebCore16JSHTMLModElementEEEbPNS_9ExecStateERKNS_10IdentifierENS_7JSValueEPKNS_9HashTableEPT_@Base 2.2.1
 _ZN3JSC9lookupPutIN7WebCore16JSHTMLModElementENS1_13JSHTMLElementEEEvPNS_9ExecStateERKNS_10IdentifierENS_7JSValueEPKNS_9HashTableEPT_RNS_15PutPropertySlotE@Base 2.2.1
 _ZN3JSC9lookupPutIN7WebCore16JSHTMLPreElementEEEbPNS_9ExecStateERKNS_10IdentifierENS_7JSValueEPKNS_9HashTableEPT_@Base 2.2.1
 _ZN3JSC9lookupPutIN7WebCore16JSHTMLPreElementENS1_13JSHTMLElementEEEvPNS_9ExecStateERKNS_10IdentifierENS_7JSValueEPKNS_9HashTableEPT_RNS_15PutPropertySlotE@Base 2.2.1
 _ZN3JSC9lookupPutIN7WebCore16JSSVGDefsElementEEEbPNS_9ExecStateERKNS_10IdentifierENS_7JSValueEPKNS_9HashTableEPT_@Base 2.2.1
 _ZN3JSC9lookupPutIN7WebCore16JSSVGDefsElementENS1_12JSSVGElementEEEvPNS_9ExecStateERKNS_10IdentifierENS_7JSValueEPKNS_9HashTableEPT_RNS_15PutPropertySlotE@Base 2.2.1
 _ZN3JSC9lookupPutIN7WebCore16JSSVGDescElementEEEbPNS_9ExecStateERKNS_10IdentifierENS_7JSValueEPKNS_9HashTableEPT_@Base 2.2.1
 _ZN3JSC9lookupPutIN7WebCore16JSSVGDescElementENS1_12JSSVGElementEEEvPNS_9ExecStateERKNS_10IdentifierENS_7JSValueEPKNS_9HashTableEPT_RNS_15PutPropertySlotE@Base 2.2.1
 _ZN3JSC9lookupPutIN7WebCore16JSSVGLineElementEEEbPNS_9ExecStateERKNS_10IdentifierENS_7JSValueEPKNS_9HashTableEPT_@Base 2.2.1
 _ZN3JSC9lookupPutIN7WebCore16JSSVGLineElementENS1_12JSSVGElementEEEvPNS_9ExecStateERKNS_10IdentifierENS_7JSValueEPKNS_9HashTableEPT_RNS_15PutPropertySlotE@Base 2.2.1
 _ZN3JSC9lookupPutIN7WebCore16JSSVGMaskElementEEEbPNS_9ExecStateERKNS_10IdentifierENS_7JSValueEPKNS_9HashTableEPT_@Base 2.2.1
 _ZN3JSC9lookupPutIN7WebCore16JSSVGMaskElementENS1_12JSSVGElementEEEvPNS_9ExecStateERKNS_10IdentifierENS_7JSValueEPKNS_9HashTableEPT_RNS_15PutPropertySlotE@Base 2.2.1
 _ZN3JSC9lookupPutIN7WebCore16JSSVGPathElementEEEbPNS_9ExecStateERKNS_10IdentifierENS_7JSValueEPKNS_9HashTableEPT_@Base 2.2.1
 _ZN3JSC9lookupPutIN7WebCore16JSSVGPathElementENS1_12JSSVGElementEEEvPNS_9ExecStateERKNS_10IdentifierENS_7JSValueEPKNS_9HashTableEPT_RNS_15PutPropertySlotE@Base 2.2.1
 _ZN3JSC9lookupPutIN7WebCore16JSSVGRectElementEEEbPNS_9ExecStateERKNS_10IdentifierENS_7JSValueEPKNS_9HashTableEPT_@Base 2.2.1
 _ZN3JSC9lookupPutIN7WebCore16JSSVGRectElementENS1_12JSSVGElementEEEvPNS_9ExecStateERKNS_10IdentifierENS_7JSValueEPKNS_9HashTableEPT_RNS_15PutPropertySlotE@Base 2.2.1
 _ZN3JSC9lookupPutIN7WebCore16JSSVGViewElementEEEbPNS_9ExecStateERKNS_10IdentifierENS_7JSValueEPKNS_9HashTableEPT_@Base 2.2.1
 _ZN3JSC9lookupPutIN7WebCore16JSSVGViewElementENS1_12JSSVGElementEEEvPNS_9ExecStateERKNS_10IdentifierENS_7JSValueEPKNS_9HashTableEPT_RNS_15PutPropertySlotE@Base 2.2.1
 _ZN3JSC9lookupPutIN7WebCore16JSXMLHttpRequestEEEbPNS_9ExecStateERKNS_10IdentifierENS_7JSValueEPKNS_9HashTableEPT_@Base 2.2.1
 _ZN3JSC9lookupPutIN7WebCore16JSXMLHttpRequestENS1_12JSDOMWrapperEEEvPNS_9ExecStateERKNS_10IdentifierENS_7JSValueEPKNS_9HashTableEPT_RNS_15PutPropertySlotE@Base 2.2.1
 _ZN3JSC9lookupPutIN7WebCore17JSHTMLAreaElementEEEbPNS_9ExecStateERKNS_10IdentifierENS_7JSValueEPKNS_9HashTableEPT_@Base 2.2.1
 _ZN3JSC9lookupPutIN7WebCore17JSHTMLAreaElementENS1_13JSHTMLElementEEEvPNS_9ExecStateERKNS_10IdentifierENS_7JSValueEPKNS_9HashTableEPT_RNS_15PutPropertySlotE@Base 2.2.1
 _ZN3JSC9lookupPutIN7WebCore17JSHTMLBaseElementEEEbPNS_9ExecStateERKNS_10IdentifierENS_7JSValueEPKNS_9HashTableEPT_@Base 2.2.1
 _ZN3JSC9lookupPutIN7WebCore17JSHTMLBaseElementENS1_13JSHTMLElementEEEvPNS_9ExecStateERKNS_10IdentifierENS_7JSValueEPKNS_9HashTableEPT_RNS_15PutPropertySlotE@Base 2.2.1
 _ZN3JSC9lookupPutIN7WebCore17JSHTMLBodyElementEEEbPNS_9ExecStateERKNS_10IdentifierENS_7JSValueEPKNS_9HashTableEPT_@Base 2.2.1
 _ZN3JSC9lookupPutIN7WebCore17JSHTMLBodyElementENS1_13JSHTMLElementEEEvPNS_9ExecStateERKNS_10IdentifierENS_7JSValueEPKNS_9HashTableEPT_RNS_15PutPropertySlotE@Base 2.2.1
 _ZN3JSC9lookupPutIN7WebCore17JSHTMLFontElementEEEbPNS_9ExecStateERKNS_10IdentifierENS_7JSValueEPKNS_9HashTableEPT_@Base 2.2.1
 _ZN3JSC9lookupPutIN7WebCore17JSHTMLFontElementENS1_13JSHTMLElementEEEvPNS_9ExecStateERKNS_10IdentifierENS_7JSValueEPKNS_9HashTableEPT_RNS_15PutPropertySlotE@Base 2.2.1
 _ZN3JSC9lookupPutIN7WebCore17JSHTMLFormElementEEEbPNS_9ExecStateERKNS_10IdentifierENS_7JSValueEPKNS_9HashTableEPT_@Base 2.2.1
 _ZN3JSC9lookupPutIN7WebCore17JSHTMLFormElementENS1_13JSHTMLElementEEEvPNS_9ExecStateERKNS_10IdentifierENS_7JSValueEPKNS_9HashTableEPT_RNS_15PutPropertySlotE@Base 2.2.1
 _ZN3JSC9lookupPutIN7WebCore17JSHTMLHeadElementEEEbPNS_9ExecStateERKNS_10IdentifierENS_7JSValueEPKNS_9HashTableEPT_@Base 2.2.1
 _ZN3JSC9lookupPutIN7WebCore17JSHTMLHeadElementENS1_13JSHTMLElementEEEvPNS_9ExecStateERKNS_10IdentifierENS_7JSValueEPKNS_9HashTableEPT_RNS_15PutPropertySlotE@Base 2.2.1
 _ZN3JSC9lookupPutIN7WebCore17JSHTMLHtmlElementEEEbPNS_9ExecStateERKNS_10IdentifierENS_7JSValueEPKNS_9HashTableEPT_@Base 2.2.1
 _ZN3JSC9lookupPutIN7WebCore17JSHTMLHtmlElementENS1_13JSHTMLElementEEEvPNS_9ExecStateERKNS_10IdentifierENS_7JSValueEPKNS_9HashTableEPT_RNS_15PutPropertySlotE@Base 2.2.1
 _ZN3JSC9lookupPutIN7WebCore17JSHTMLLinkElementEEEbPNS_9ExecStateERKNS_10IdentifierENS_7JSValueEPKNS_9HashTableEPT_@Base 2.2.1
 _ZN3JSC9lookupPutIN7WebCore17JSHTMLLinkElementENS1_13JSHTMLElementEEEvPNS_9ExecStateERKNS_10IdentifierENS_7JSValueEPKNS_9HashTableEPT_RNS_15PutPropertySlotE@Base 2.2.1
 _ZN3JSC9lookupPutIN7WebCore17JSHTMLMenuElementEEEbPNS_9ExecStateERKNS_10IdentifierENS_7JSValueEPKNS_9HashTableEPT_@Base 2.2.1
 _ZN3JSC9lookupPutIN7WebCore17JSHTMLMenuElementENS1_13JSHTMLElementEEEvPNS_9ExecStateERKNS_10IdentifierENS_7JSValueEPKNS_9HashTableEPT_RNS_15PutPropertySlotE@Base 2.2.1
 _ZN3JSC9lookupPutIN7WebCore17JSHTMLMetaElementEEEbPNS_9ExecStateERKNS_10IdentifierENS_7JSValueEPKNS_9HashTableEPT_@Base 2.2.1
 _ZN3JSC9lookupPutIN7WebCore17JSHTMLMetaElementENS1_13JSHTMLElementEEEvPNS_9ExecStateERKNS_10IdentifierENS_7JSValueEPKNS_9HashTableEPT_RNS_15PutPropertySlotE@Base 2.2.1
 _ZN3JSC9lookupPutIN7WebCore17JSSVGImageElementEEEbPNS_9ExecStateERKNS_10IdentifierENS_7JSValueEPKNS_9HashTableEPT_@Base 2.2.1
 _ZN3JSC9lookupPutIN7WebCore17JSSVGImageElementENS1_12JSSVGElementEEEvPNS_9ExecStateERKNS_10IdentifierENS_7JSValueEPKNS_9HashTableEPT_RNS_15PutPropertySlotE@Base 2.2.1
 _ZN3JSC9lookupPutIN7WebCore17JSSVGStyleElementEEEbPNS_9ExecStateERKNS_10IdentifierENS_7JSValueEPKNS_9HashTableEPT_@Base 2.2.1
 _ZN3JSC9lookupPutIN7WebCore17JSSVGStyleElementENS1_12JSSVGElementEEEvPNS_9ExecStateERKNS_10IdentifierENS_7JSValueEPKNS_9HashTableEPT_RNS_15PutPropertySlotE@Base 2.2.1
 _ZN3JSC9lookupPutIN7WebCore17JSSVGTitleElementEEEbPNS_9ExecStateERKNS_10IdentifierENS_7JSValueEPKNS_9HashTableEPT_@Base 2.2.1
 _ZN3JSC9lookupPutIN7WebCore17JSSVGTitleElementENS1_12JSSVGElementEEEvPNS_9ExecStateERKNS_10IdentifierENS_7JSValueEPKNS_9HashTableEPT_RNS_15PutPropertySlotE@Base 2.2.1
 _ZN3JSC9lookupPutIN7WebCore17JSWebKitAnimationEEEbPNS_9ExecStateERKNS_10IdentifierENS_7JSValueEPKNS_9HashTableEPT_@Base 2.2.1
 _ZN3JSC9lookupPutIN7WebCore17JSWebKitAnimationENS1_12JSDOMWrapperEEEvPNS_9ExecStateERKNS_10IdentifierENS_7JSValueEPKNS_9HashTableEPT_RNS_15PutPropertySlotE@Base 2.2.1
 _ZN3JSC9lookupPutIN7WebCore17JSWebKitCSSMatrixEEEbPNS_9ExecStateERKNS_10IdentifierENS_7JSValueEPKNS_9HashTableEPT_@Base 2.2.1
 _ZN3JSC9lookupPutIN7WebCore17JSWebKitCSSMatrixENS1_12JSDOMWrapperEEEvPNS_9ExecStateERKNS_10IdentifierENS_7JSValueEPKNS_9HashTableEPT_RNS_15PutPropertySlotE@Base 2.2.1
 _ZN3JSC9lookupPutIN7WebCore18JSHTMLDListElementEEEbPNS_9ExecStateERKNS_10IdentifierENS_7JSValueEPKNS_9HashTableEPT_@Base 2.2.1
 _ZN3JSC9lookupPutIN7WebCore18JSHTMLDListElementENS1_13JSHTMLElementEEEvPNS_9ExecStateERKNS_10IdentifierENS_7JSValueEPKNS_9HashTableEPT_RNS_15PutPropertySlotE@Base 2.2.1
 _ZN3JSC9lookupPutIN7WebCore18JSHTMLEmbedElementEEEbPNS_9ExecStateERKNS_10IdentifierENS_7JSValueEPKNS_9HashTableEPT_@Base 2.2.1
 _ZN3JSC9lookupPutIN7WebCore18JSHTMLEmbedElementENS1_13JSHTMLElementEEEvPNS_9ExecStateERKNS_10IdentifierENS_7JSValueEPKNS_9HashTableEPT_RNS_15PutPropertySlotE@Base 2.2.1
 _ZN3JSC9lookupPutIN7WebCore18JSHTMLFrameElementEEEbPNS_9ExecStateERKNS_10IdentifierENS_7JSValueEPKNS_9HashTableEPT_@Base 2.2.1
 _ZN3JSC9lookupPutIN7WebCore18JSHTMLFrameElementENS1_13JSHTMLElementEEEvPNS_9ExecStateERKNS_10IdentifierENS_7JSValueEPKNS_9HashTableEPT_RNS_15PutPropertySlotE@Base 2.2.1
 _ZN3JSC9lookupPutIN7WebCore18JSHTMLImageElementEEEbPNS_9ExecStateERKNS_10IdentifierENS_7JSValueEPKNS_9HashTableEPT_@Base 2.2.1
 _ZN3JSC9lookupPutIN7WebCore18JSHTMLImageElementENS1_13JSHTMLElementEEEvPNS_9ExecStateERKNS_10IdentifierENS_7JSValueEPKNS_9HashTableEPT_RNS_15PutPropertySlotE@Base 2.2.1
 _ZN3JSC9lookupPutIN7WebCore18JSHTMLInputElementEEEbPNS_9ExecStateERKNS_10IdentifierENS_7JSValueEPKNS_9HashTableEPT_@Base 2.2.1
 _ZN3JSC9lookupPutIN7WebCore18JSHTMLInputElementENS1_13JSHTMLElementEEEvPNS_9ExecStateERKNS_10IdentifierENS_7JSValueEPKNS_9HashTableEPT_RNS_15PutPropertySlotE@Base 2.2.1
 _ZN3JSC9lookupPutIN7WebCore18JSHTMLLabelElementEEEbPNS_9ExecStateERKNS_10IdentifierENS_7JSValueEPKNS_9HashTableEPT_@Base 2.2.1
 _ZN3JSC9lookupPutIN7WebCore18JSHTMLLabelElementENS1_13JSHTMLElementEEEvPNS_9ExecStateERKNS_10IdentifierENS_7JSValueEPKNS_9HashTableEPT_RNS_15PutPropertySlotE@Base 2.2.1
 _ZN3JSC9lookupPutIN7WebCore18JSHTMLMediaElementEEEbPNS_9ExecStateERKNS_10IdentifierENS_7JSValueEPKNS_9HashTableEPT_@Base 2.2.1
 _ZN3JSC9lookupPutIN7WebCore18JSHTMLMediaElementENS1_13JSHTMLElementEEEvPNS_9ExecStateERKNS_10IdentifierENS_7JSValueEPKNS_9HashTableEPT_RNS_15PutPropertySlotE@Base 2.2.1
 _ZN3JSC9lookupPutIN7WebCore18JSHTMLMeterElementEEEbPNS_9ExecStateERKNS_10IdentifierENS_7JSValueEPKNS_9HashTableEPT_@Base 2.2.1
 _ZN3JSC9lookupPutIN7WebCore18JSHTMLMeterElementENS1_13JSHTMLElementEEEvPNS_9ExecStateERKNS_10IdentifierENS_7JSValueEPKNS_9HashTableEPT_RNS_15PutPropertySlotE@Base 2.2.1
 _ZN3JSC9lookupPutIN7WebCore18JSHTMLOListElementEEEbPNS_9ExecStateERKNS_10IdentifierENS_7JSValueEPKNS_9HashTableEPT_@Base 2.2.1
 _ZN3JSC9lookupPutIN7WebCore18JSHTMLOListElementENS1_13JSHTMLElementEEEvPNS_9ExecStateERKNS_10IdentifierENS_7JSValueEPKNS_9HashTableEPT_RNS_15PutPropertySlotE@Base 2.2.1
 _ZN3JSC9lookupPutIN7WebCore18JSHTMLParamElementEEEbPNS_9ExecStateERKNS_10IdentifierENS_7JSValueEPKNS_9HashTableEPT_@Base 2.2.1
 _ZN3JSC9lookupPutIN7WebCore18JSHTMLParamElementENS1_13JSHTMLElementEEEvPNS_9ExecStateERKNS_10IdentifierENS_7JSValueEPKNS_9HashTableEPT_RNS_15PutPropertySlotE@Base 2.2.1
 _ZN3JSC9lookupPutIN7WebCore18JSHTMLQuoteElementEEEbPNS_9ExecStateERKNS_10IdentifierENS_7JSValueEPKNS_9HashTableEPT_@Base 2.2.1
 _ZN3JSC9lookupPutIN7WebCore18JSHTMLQuoteElementENS1_13JSHTMLElementEEEvPNS_9ExecStateERKNS_10IdentifierENS_7JSValueEPKNS_9HashTableEPT_RNS_15PutPropertySlotE@Base 2.2.1
 _ZN3JSC9lookupPutIN7WebCore18JSHTMLStyleElementEEEbPNS_9ExecStateERKNS_10IdentifierENS_7JSValueEPKNS_9HashTableEPT_@Base 2.2.1
 _ZN3JSC9lookupPutIN7WebCore18JSHTMLStyleElementENS1_13JSHTMLElementEEEvPNS_9ExecStateERKNS_10IdentifierENS_7JSValueEPKNS_9HashTableEPT_RNS_15PutPropertySlotE@Base 2.2.1
 _ZN3JSC9lookupPutIN7WebCore18JSHTMLTableElementEEEbPNS_9ExecStateERKNS_10IdentifierENS_7JSValueEPKNS_9HashTableEPT_@Base 2.2.1
 _ZN3JSC9lookupPutIN7WebCore18JSHTMLTableElementENS1_13JSHTMLElementEEEvPNS_9ExecStateERKNS_10IdentifierENS_7JSValueEPKNS_9HashTableEPT_RNS_15PutPropertySlotE@Base 2.2.1
 _ZN3JSC9lookupPutIN7WebCore18JSHTMLTitleElementEEEbPNS_9ExecStateERKNS_10IdentifierENS_7JSValueEPKNS_9HashTableEPT_@Base 2.2.1
 _ZN3JSC9lookupPutIN7WebCore18JSHTMLTitleElementENS1_13JSHTMLElementEEEvPNS_9ExecStateERKNS_10IdentifierENS_7JSValueEPKNS_9HashTableEPT_RNS_15PutPropertySlotE@Base 2.2.1
 _ZN3JSC9lookupPutIN7WebCore18JSHTMLUListElementEEEbPNS_9ExecStateERKNS_10IdentifierENS_7JSValueEPKNS_9HashTableEPT_@Base 2.2.1
 _ZN3JSC9lookupPutIN7WebCore18JSHTMLUListElementENS1_13JSHTMLElementEEEvPNS_9ExecStateERKNS_10IdentifierENS_7JSValueEPKNS_9HashTableEPT_RNS_15PutPropertySlotE@Base 2.2.1
 _ZN3JSC9lookupPutIN7WebCore18JSHTMLVideoElementEEEbPNS_9ExecStateERKNS_10IdentifierENS_7JSValueEPKNS_9HashTableEPT_@Base 2.2.1
 _ZN3JSC9lookupPutIN7WebCore18JSHTMLVideoElementENS1_18JSHTMLMediaElementEEEvPNS_9ExecStateERKNS_10IdentifierENS_7JSValueEPKNS_9HashTableEPT_RNS_15PutPropertySlotE@Base 2.2.1
 _ZN3JSC9lookupPutIN7WebCore18JSSVGCircleElementEEEbPNS_9ExecStateERKNS_10IdentifierENS_7JSValueEPKNS_9HashTableEPT_@Base 2.2.1
 _ZN3JSC9lookupPutIN7WebCore18JSSVGCircleElementENS1_12JSSVGElementEEEvPNS_9ExecStateERKNS_10IdentifierENS_7JSValueEPKNS_9HashTableEPT_RNS_15PutPropertySlotE@Base 2.2.1
 _ZN3JSC9lookupPutIN7WebCore18JSSVGFilterElementEEEbPNS_9ExecStateERKNS_10IdentifierENS_7JSValueEPKNS_9HashTableEPT_@Base 2.2.1
 _ZN3JSC9lookupPutIN7WebCore18JSSVGFilterElementENS1_12JSSVGElementEEEvPNS_9ExecStateERKNS_10IdentifierENS_7JSValueEPKNS_9HashTableEPT_RNS_15PutPropertySlotE@Base 2.2.1
 _ZN3JSC9lookupPutIN7WebCore18JSSVGMarkerElementEEEbPNS_9ExecStateERKNS_10IdentifierENS_7JSValueEPKNS_9HashTableEPT_@Base 2.2.1
 _ZN3JSC9lookupPutIN7WebCore18JSSVGMarkerElementENS1_12JSSVGElementEEEvPNS_9ExecStateERKNS_10IdentifierENS_7JSValueEPKNS_9HashTableEPT_RNS_15PutPropertySlotE@Base 2.2.1
 _ZN3JSC9lookupPutIN7WebCore18JSSVGPathSegArcAbsEEEbPNS_9ExecStateERKNS_10IdentifierENS_7JSValueEPKNS_9HashTableEPT_@Base 2.2.1
 _ZN3JSC9lookupPutIN7WebCore18JSSVGPathSegArcAbsENS1_12JSSVGPathSegEEEvPNS_9ExecStateERKNS_10IdentifierENS_7JSValueEPKNS_9HashTableEPT_RNS_15PutPropertySlotE@Base 2.2.1
 _ZN3JSC9lookupPutIN7WebCore18JSSVGPathSegArcRelEEEbPNS_9ExecStateERKNS_10IdentifierENS_7JSValueEPKNS_9HashTableEPT_@Base 2.2.1
 _ZN3JSC9lookupPutIN7WebCore18JSSVGPathSegArcRelENS1_12JSSVGPathSegEEEvPNS_9ExecStateERKNS_10IdentifierENS_7JSValueEPKNS_9HashTableEPT_RNS_15PutPropertySlotE@Base 2.2.1
 _ZN3JSC9lookupPutIN7WebCore18JSSVGScriptElementEEEbPNS_9ExecStateERKNS_10IdentifierENS_7JSValueEPKNS_9HashTableEPT_@Base 2.2.1
 _ZN3JSC9lookupPutIN7WebCore18JSSVGScriptElementENS1_12JSSVGElementEEEvPNS_9ExecStateERKNS_10IdentifierENS_7JSValueEPKNS_9HashTableEPT_RNS_15PutPropertySlotE@Base 2.2.1
 _ZN3JSC9lookupPutIN7WebCore18JSSVGSwitchElementEEEbPNS_9ExecStateERKNS_10IdentifierENS_7JSValueEPKNS_9HashTableEPT_@Base 2.2.1
 _ZN3JSC9lookupPutIN7WebCore18JSSVGSwitchElementENS1_12JSSVGElementEEEvPNS_9ExecStateERKNS_10IdentifierENS_7JSValueEPKNS_9HashTableEPT_RNS_15PutPropertySlotE@Base 2.2.1
 _ZN3JSC9lookupPutIN7WebCore18JSSVGSymbolElementEEEbPNS_9ExecStateERKNS_10IdentifierENS_7JSValueEPKNS_9HashTableEPT_@Base 2.2.1
 _ZN3JSC9lookupPutIN7WebCore18JSSVGSymbolElementENS1_12JSSVGElementEEEvPNS_9ExecStateERKNS_10IdentifierENS_7JSValueEPKNS_9HashTableEPT_RNS_15PutPropertySlotE@Base 2.2.1
 _ZN3JSC9lookupPutIN7WebCore19JSHTMLAnchorElementEEEbPNS_9ExecStateERKNS_10IdentifierENS_7JSValueEPKNS_9HashTableEPT_@Base 2.2.1
 _ZN3JSC9lookupPutIN7WebCore19JSHTMLAnchorElementENS1_13JSHTMLElementEEEvPNS_9ExecStateERKNS_10IdentifierENS_7JSValueEPKNS_9HashTableEPT_RNS_15PutPropertySlotE@Base 2.2.1
 _ZN3JSC9lookupPutIN7WebCore19JSHTMLAppletElementEEEbPNS_9ExecStateERKNS_10IdentifierENS_7JSValueEPKNS_9HashTableEPT_@Base 2.2.1
 _ZN3JSC9lookupPutIN7WebCore19JSHTMLAppletElementENS1_13JSHTMLElementEEEvPNS_9ExecStateERKNS_10IdentifierENS_7JSValueEPKNS_9HashTableEPT_RNS_15PutPropertySlotE@Base 2.2.1
 _ZN3JSC9lookupPutIN7WebCore19JSHTMLButtonElementEEEbPNS_9ExecStateERKNS_10IdentifierENS_7JSValueEPKNS_9HashTableEPT_@Base 2.2.1
 _ZN3JSC9lookupPutIN7WebCore19JSHTMLButtonElementENS1_13JSHTMLElementEEEvPNS_9ExecStateERKNS_10IdentifierENS_7JSValueEPKNS_9HashTableEPT_RNS_15PutPropertySlotE@Base 2.2.1
 _ZN3JSC9lookupPutIN7WebCore19JSHTMLCanvasElementEEEbPNS_9ExecStateERKNS_10IdentifierENS_7JSValueEPKNS_9HashTableEPT_@Base 2.2.1
 _ZN3JSC9lookupPutIN7WebCore19JSHTMLCanvasElementENS1_13JSHTMLElementEEEvPNS_9ExecStateERKNS_10IdentifierENS_7JSValueEPKNS_9HashTableEPT_RNS_15PutPropertySlotE@Base 2.2.1
 _ZN3JSC9lookupPutIN7WebCore19JSHTMLIFrameElementEEEbPNS_9ExecStateERKNS_10IdentifierENS_7JSValueEPKNS_9HashTableEPT_@Base 2.2.1
 _ZN3JSC9lookupPutIN7WebCore19JSHTMLIFrameElementENS1_13JSHTMLElementEEEvPNS_9ExecStateERKNS_10IdentifierENS_7JSValueEPKNS_9HashTableEPT_RNS_15PutPropertySlotE@Base 2.2.1
 _ZN3JSC9lookupPutIN7WebCore19JSHTMLKeygenElementEEEbPNS_9ExecStateERKNS_10IdentifierENS_7JSValueEPKNS_9HashTableEPT_@Base 2.2.1
 _ZN3JSC9lookupPutIN7WebCore19JSHTMLKeygenElementENS1_13JSHTMLElementEEEvPNS_9ExecStateERKNS_10IdentifierENS_7JSValueEPKNS_9HashTableEPT_RNS_15PutPropertySlotE@Base 2.2.1
 _ZN3JSC9lookupPutIN7WebCore19JSHTMLLegendElementEEEbPNS_9ExecStateERKNS_10IdentifierENS_7JSValueEPKNS_9HashTableEPT_@Base 2.2.1
 _ZN3JSC9lookupPutIN7WebCore19JSHTMLLegendElementENS1_13JSHTMLElementEEEvPNS_9ExecStateERKNS_10IdentifierENS_7JSValueEPKNS_9HashTableEPT_RNS_15PutPropertySlotE@Base 2.2.1
 _ZN3JSC9lookupPutIN7WebCore19JSHTMLObjectElementEEEbPNS_9ExecStateERKNS_10IdentifierENS_7JSValueEPKNS_9HashTableEPT_@Base 2.2.1
 _ZN3JSC9lookupPutIN7WebCore19JSHTMLObjectElementENS1_13JSHTMLElementEEEvPNS_9ExecStateERKNS_10IdentifierENS_7JSValueEPKNS_9HashTableEPT_RNS_15PutPropertySlotE@Base 2.2.1
 _ZN3JSC9lookupPutIN7WebCore19JSHTMLOptionElementEEEbPNS_9ExecStateERKNS_10IdentifierENS_7JSValueEPKNS_9HashTableEPT_@Base 2.2.1
 _ZN3JSC9lookupPutIN7WebCore19JSHTMLOptionElementENS1_13JSHTMLElementEEEvPNS_9ExecStateERKNS_10IdentifierENS_7JSValueEPKNS_9HashTableEPT_RNS_15PutPropertySlotE@Base 2.2.1
 _ZN3JSC9lookupPutIN7WebCore19JSHTMLOutputElementEEEbPNS_9ExecStateERKNS_10IdentifierENS_7JSValueEPKNS_9HashTableEPT_@Base 2.2.1
 _ZN3JSC9lookupPutIN7WebCore19JSHTMLOutputElementENS1_13JSHTMLElementEEEvPNS_9ExecStateERKNS_10IdentifierENS_7JSValueEPKNS_9HashTableEPT_RNS_15PutPropertySlotE@Base 2.2.1
 _ZN3JSC9lookupPutIN7WebCore19JSHTMLScriptElementEEEbPNS_9ExecStateERKNS_10IdentifierENS_7JSValueEPKNS_9HashTableEPT_@Base 2.2.1
 _ZN3JSC9lookupPutIN7WebCore19JSHTMLScriptElementENS1_13JSHTMLElementEEEvPNS_9ExecStateERKNS_10IdentifierENS_7JSValueEPKNS_9HashTableEPT_RNS_15PutPropertySlotE@Base 2.2.1
 _ZN3JSC9lookupPutIN7WebCore19JSHTMLSelectElementEEEbPNS_9ExecStateERKNS_10IdentifierENS_7JSValueEPKNS_9HashTableEPT_@Base 2.2.1
 _ZN3JSC9lookupPutIN7WebCore19JSHTMLSelectElementENS1_13JSHTMLElementEEEvPNS_9ExecStateERKNS_10IdentifierENS_7JSValueEPKNS_9HashTableEPT_RNS_15PutPropertySlotE@Base 2.2.1
 _ZN3JSC9lookupPutIN7WebCore19JSHTMLSourceElementEEEbPNS_9ExecStateERKNS_10IdentifierENS_7JSValueEPKNS_9HashTableEPT_@Base 2.2.1
 _ZN3JSC9lookupPutIN7WebCore19JSHTMLSourceElementENS1_13JSHTMLElementEEEvPNS_9ExecStateERKNS_10IdentifierENS_7JSValueEPKNS_9HashTableEPT_RNS_15PutPropertySlotE@Base 2.2.1
 _ZN3JSC9lookupPutIN7WebCore19JSSVGAnimatedNumberEEEbPNS_9ExecStateERKNS_10IdentifierENS_7JSValueEPKNS_9HashTableEPT_@Base 2.2.1
 _ZN3JSC9lookupPutIN7WebCore19JSSVGAnimatedNumberENS1_12JSDOMWrapperEEEvPNS_9ExecStateERKNS_10IdentifierENS_7JSValueEPKNS_9HashTableEPT_RNS_15PutPropertySlotE@Base 2.2.1
 _ZN3JSC9lookupPutIN7WebCore19JSSVGAnimatedStringEEEbPNS_9ExecStateERKNS_10IdentifierENS_7JSValueEPKNS_9HashTableEPT_@Base 2.2.1
 _ZN3JSC9lookupPutIN7WebCore19JSSVGAnimatedStringENS1_12JSDOMWrapperEEEvPNS_9ExecStateERKNS_10IdentifierENS_7JSValueEPKNS_9HashTableEPT_RNS_15PutPropertySlotE@Base 2.2.1
 _ZN3JSC9lookupPutIN7WebCore19JSSVGEllipseElementEEEbPNS_9ExecStateERKNS_10IdentifierENS_7JSValueEPKNS_9HashTableEPT_@Base 2.2.1
 _ZN3JSC9lookupPutIN7WebCore19JSSVGEllipseElementENS1_12JSSVGElementEEEvPNS_9ExecStateERKNS_10IdentifierENS_7JSValueEPKNS_9HashTableEPT_RNS_15PutPropertySlotE@Base 2.2.1
 _ZN3JSC9lookupPutIN7WebCore19JSSVGFEImageElementEEEbPNS_9ExecStateERKNS_10IdentifierENS_7JSValueEPKNS_9HashTableEPT_@Base 2.2.1
 _ZN3JSC9lookupPutIN7WebCore19JSSVGFEImageElementENS1_12JSSVGElementEEEvPNS_9ExecStateERKNS_10IdentifierENS_7JSValueEPKNS_9HashTableEPT_RNS_15PutPropertySlotE@Base 2.2.1
 _ZN3JSC9lookupPutIN7WebCore19JSSVGPatternElementEEEbPNS_9ExecStateERKNS_10IdentifierENS_7JSValueEPKNS_9HashTableEPT_@Base 2.2.1
 _ZN3JSC9lookupPutIN7WebCore19JSSVGPatternElementENS1_12JSSVGElementEEEvPNS_9ExecStateERKNS_10IdentifierENS_7JSValueEPKNS_9HashTableEPT_RNS_15PutPropertySlotE@Base 2.2.1
 _ZN3JSC9lookupPutIN7WebCore19JSSVGPolygonElementEEEbPNS_9ExecStateERKNS_10IdentifierENS_7JSValueEPKNS_9HashTableEPT_@Base 2.2.1
 _ZN3JSC9lookupPutIN7WebCore19JSSVGPolygonElementENS1_12JSSVGElementEEEvPNS_9ExecStateERKNS_10IdentifierENS_7JSValueEPKNS_9HashTableEPT_RNS_15PutPropertySlotE@Base 2.2.1
 _ZN3JSC9lookupPutIN7WebCore20JSBeforeProcessEventEEEbPNS_9ExecStateERKNS_10IdentifierENS_7JSValueEPKNS_9HashTableEPT_@Base 2.2.1
 _ZN3JSC9lookupPutIN7WebCore20JSBeforeProcessEventENS1_7JSEventEEEvPNS_9ExecStateERKNS_10IdentifierENS_7JSValueEPKNS_9HashTableEPT_RNS_15PutPropertySlotE@Base 2.2.1
 _ZN3JSC9lookupPutIN7WebCore20JSHTMLDetailsElementEEEbPNS_9ExecStateERKNS_10IdentifierENS_7JSValueEPKNS_9HashTableEPT_@Base 2.2.1
 _ZN3JSC9lookupPutIN7WebCore20JSHTMLDetailsElementENS1_13JSHTMLElementEEEvPNS_9ExecStateERKNS_10IdentifierENS_7JSValueEPKNS_9HashTableEPT_RNS_15PutPropertySlotE@Base 2.2.1
 _ZN3JSC9lookupPutIN7WebCore20JSHTMLHeadingElementEEEbPNS_9ExecStateERKNS_10IdentifierENS_7JSValueEPKNS_9HashTableEPT_@Base 2.2.1
 _ZN3JSC9lookupPutIN7WebCore20JSHTMLHeadingElementENS1_13JSHTMLElementEEEvPNS_9ExecStateERKNS_10IdentifierENS_7JSValueEPKNS_9HashTableEPT_RNS_15PutPropertySlotE@Base 2.2.1
 _ZN3JSC9lookupPutIN7WebCore20JSHTMLIsIndexElementEEEbPNS_9ExecStateERKNS_10IdentifierENS_7JSValueEPKNS_9HashTableEPT_@Base 2.2.1
 _ZN3JSC9lookupPutIN7WebCore20JSHTMLIsIndexElementENS1_18JSHTMLInputElementEEEvPNS_9ExecStateERKNS_10IdentifierENS_7JSValueEPKNS_9HashTableEPT_RNS_15PutPropertySlotE@Base 2.2.1
 _ZN3JSC9lookupPutIN7WebCore20JSHTMLMarqueeElementEEEbPNS_9ExecStateERKNS_10IdentifierENS_7JSValueEPKNS_9HashTableEPT_@Base 2.2.1
 _ZN3JSC9lookupPutIN7WebCore20JSHTMLMarqueeElementENS1_13JSHTMLElementEEEvPNS_9ExecStateERKNS_10IdentifierENS_7JSValueEPKNS_9HashTableEPT_RNS_15PutPropertySlotE@Base 2.2.1
 _ZN3JSC9lookupPutIN7WebCore20JSSVGAltGlyphElementEEEbPNS_9ExecStateERKNS_10IdentifierENS_7JSValueEPKNS_9HashTableEPT_@Base 2.2.1
 _ZN3JSC9lookupPutIN7WebCore20JSSVGAltGlyphElementENS1_27JSSVGTextPositioningElementEEEvPNS_9ExecStateERKNS_10IdentifierENS_7JSValueEPKNS_9HashTableEPT_RNS_15PutPropertySlotE@Base 2.2.1
 _ZN3JSC9lookupPutIN7WebCore20JSSVGAnimatedBooleanEEEbPNS_9ExecStateERKNS_10IdentifierENS_7JSValueEPKNS_9HashTableEPT_@Base 2.2.1
 _ZN3JSC9lookupPutIN7WebCore20JSSVGAnimatedBooleanENS1_12JSDOMWrapperEEEvPNS_9ExecStateERKNS_10IdentifierENS_7JSValueEPKNS_9HashTableEPT_RNS_15PutPropertySlotE@Base 2.2.1
 _ZN3JSC9lookupPutIN7WebCore20JSSVGAnimatedIntegerEEEbPNS_9ExecStateERKNS_10IdentifierENS_7JSValueEPKNS_9HashTableEPT_@Base 2.2.1
 _ZN3JSC9lookupPutIN7WebCore20JSSVGAnimatedIntegerENS1_12JSDOMWrapperEEEvPNS_9ExecStateERKNS_10IdentifierENS_7JSValueEPKNS_9HashTableEPT_RNS_15PutPropertySlotE@Base 2.2.1
 _ZN3JSC9lookupPutIN7WebCore20JSSVGClipPathElementEEEbPNS_9ExecStateERKNS_10IdentifierENS_7JSValueEPKNS_9HashTableEPT_@Base 2.2.1
 _ZN3JSC9lookupPutIN7WebCore20JSSVGClipPathElementENS1_12JSSVGElementEEEvPNS_9ExecStateERKNS_10IdentifierENS_7JSValueEPKNS_9HashTableEPT_RNS_15PutPropertySlotE@Base 2.2.1
 _ZN3JSC9lookupPutIN7WebCore20JSSVGElementInstanceEEEbPNS_9ExecStateERKNS_10IdentifierENS_7JSValueEPKNS_9HashTableEPT_@Base 2.2.1
 _ZN3JSC9lookupPutIN7WebCore20JSSVGElementInstanceENS1_12JSDOMWrapperEEEvPNS_9ExecStateERKNS_10IdentifierENS_7JSValueEPKNS_9HashTableEPT_RNS_15PutPropertySlotE@Base 2.2.1
 _ZN3JSC9lookupPutIN7WebCore20JSSVGPolylineElementEEEbPNS_9ExecStateERKNS_10IdentifierENS_7JSValueEPKNS_9HashTableEPT_@Base 2.2.1
 _ZN3JSC9lookupPutIN7WebCore20JSSVGPolylineElementENS1_12JSSVGElementEEEvPNS_9ExecStateERKNS_10IdentifierENS_7JSValueEPKNS_9HashTableEPT_RNS_15PutPropertySlotE@Base 2.2.1
 _ZN3JSC9lookupPutIN7WebCore21JSCSSStyleDeclarationEEEbPNS_9ExecStateERKNS_10IdentifierENS_7JSValueEPKNS_9HashTableEPT_@Base 2.2.1
 _ZN3JSC9lookupPutIN7WebCore21JSCSSStyleDeclarationENS1_12JSDOMWrapperEEEvPNS_9ExecStateERKNS_10IdentifierENS_7JSValueEPKNS_9HashTableEPT_RNS_15PutPropertySlotE@Base 2.2.1
 _ZN3JSC9lookupPutIN7WebCore21JSDOMApplicationCacheEEEbPNS_9ExecStateERKNS_10IdentifierENS_7JSValueEPKNS_9HashTableEPT_@Base 2.2.1
 _ZN3JSC9lookupPutIN7WebCore21JSDOMApplicationCacheENS1_12JSDOMWrapperEEEvPNS_9ExecStateERKNS_10IdentifierENS_7JSValueEPKNS_9HashTableEPT_RNS_15PutPropertySlotE@Base 2.2.1
 _ZN3JSC9lookupPutIN7WebCore21JSHTMLBaseFontElementEEEbPNS_9ExecStateERKNS_10IdentifierENS_7JSValueEPKNS_9HashTableEPT_@Base 2.2.1
 _ZN3JSC9lookupPutIN7WebCore21JSHTMLBaseFontElementENS1_13JSHTMLElementEEEvPNS_9ExecStateERKNS_10IdentifierENS_7JSValueEPKNS_9HashTableEPT_RNS_15PutPropertySlotE@Base 2.2.1
 _ZN3JSC9lookupPutIN7WebCore21JSHTMLFrameSetElementEEEbPNS_9ExecStateERKNS_10IdentifierENS_7JSValueEPKNS_9HashTableEPT_@Base 2.2.1
 _ZN3JSC9lookupPutIN7WebCore21JSHTMLFrameSetElementENS1_13JSHTMLElementEEEvPNS_9ExecStateERKNS_10IdentifierENS_7JSValueEPKNS_9HashTableEPT_RNS_15PutPropertySlotE@Base 2.2.1
 _ZN3JSC9lookupPutIN7WebCore21JSHTMLOptGroupElementEEEbPNS_9ExecStateERKNS_10IdentifierENS_7JSValueEPKNS_9HashTableEPT_@Base 2.2.1
 _ZN3JSC9lookupPutIN7WebCore21JSHTMLOptGroupElementENS1_13JSHTMLElementEEEvPNS_9ExecStateERKNS_10IdentifierENS_7JSValueEPKNS_9HashTableEPT_RNS_15PutPropertySlotE@Base 2.2.1
 _ZN3JSC9lookupPutIN7WebCore21JSHTMLProgressElementEEEbPNS_9ExecStateERKNS_10IdentifierENS_7JSValueEPKNS_9HashTableEPT_@Base 2.2.1
 _ZN3JSC9lookupPutIN7WebCore21JSHTMLProgressElementENS1_13JSHTMLElementEEEvPNS_9ExecStateERKNS_10IdentifierENS_7JSValueEPKNS_9HashTableEPT_RNS_15PutPropertySlotE@Base 2.2.1
 _ZN3JSC9lookupPutIN7WebCore21JSHTMLTableColElementEEEbPNS_9ExecStateERKNS_10IdentifierENS_7JSValueEPKNS_9HashTableEPT_@Base 2.2.1
 _ZN3JSC9lookupPutIN7WebCore21JSHTMLTableColElementENS1_13JSHTMLElementEEEvPNS_9ExecStateERKNS_10IdentifierENS_7JSValueEPKNS_9HashTableEPT_RNS_15PutPropertySlotE@Base 2.2.1
 _ZN3JSC9lookupPutIN7WebCore21JSHTMLTableRowElementEEEbPNS_9ExecStateERKNS_10IdentifierENS_7JSValueEPKNS_9HashTableEPT_@Base 2.2.1
 _ZN3JSC9lookupPutIN7WebCore21JSHTMLTableRowElementENS1_13JSHTMLElementEEEvPNS_9ExecStateERKNS_10IdentifierENS_7JSValueEPKNS_9HashTableEPT_RNS_15PutPropertySlotE@Base 2.2.1
 _ZN3JSC9lookupPutIN7WebCore21JSHTMLTextAreaElementEEEbPNS_9ExecStateERKNS_10IdentifierENS_7JSValueEPKNS_9HashTableEPT_@Base 2.2.1
 _ZN3JSC9lookupPutIN7WebCore21JSHTMLTextAreaElementENS1_13JSHTMLElementEEEvPNS_9ExecStateERKNS_10IdentifierENS_7JSValueEPKNS_9HashTableEPT_RNS_15PutPropertySlotE@Base 2.2.1
 _ZN3JSC9lookupPutIN7WebCore21JSSVGPathSegLinetoAbsEEEbPNS_9ExecStateERKNS_10IdentifierENS_7JSValueEPKNS_9HashTableEPT_@Base 2.2.1
 _ZN3JSC9lookupPutIN7WebCore21JSSVGPathSegLinetoAbsENS1_12JSSVGPathSegEEEvPNS_9ExecStateERKNS_10IdentifierENS_7JSValueEPKNS_9HashTableEPT_RNS_15PutPropertySlotE@Base 2.2.1
 _ZN3JSC9lookupPutIN7WebCore21JSSVGPathSegLinetoRelEEEbPNS_9ExecStateERKNS_10IdentifierENS_7JSValueEPKNS_9HashTableEPT_@Base 2.2.1
 _ZN3JSC9lookupPutIN7WebCore21JSSVGPathSegLinetoRelENS1_12JSSVGPathSegEEEvPNS_9ExecStateERKNS_10IdentifierENS_7JSValueEPKNS_9HashTableEPT_RNS_15PutPropertySlotE@Base 2.2.1
 _ZN3JSC9lookupPutIN7WebCore21JSSVGPathSegMovetoAbsEEEbPNS_9ExecStateERKNS_10IdentifierENS_7JSValueEPKNS_9HashTableEPT_@Base 2.2.1
 _ZN3JSC9lookupPutIN7WebCore21JSSVGPathSegMovetoAbsENS1_12JSSVGPathSegEEEvPNS_9ExecStateERKNS_10IdentifierENS_7JSValueEPKNS_9HashTableEPT_RNS_15PutPropertySlotE@Base 2.2.1
 _ZN3JSC9lookupPutIN7WebCore21JSSVGPathSegMovetoRelEEEbPNS_9ExecStateERKNS_10IdentifierENS_7JSValueEPKNS_9HashTableEPT_@Base 2.2.1
 _ZN3JSC9lookupPutIN7WebCore21JSSVGPathSegMovetoRelENS1_12JSSVGPathSegEEEvPNS_9ExecStateERKNS_10IdentifierENS_7JSValueEPKNS_9HashTableEPT_RNS_15PutPropertySlotE@Base 2.2.1
 _ZN3JSC9lookupPutIN7WebCore21JSSharedWorkerContextEEEbPNS_9ExecStateERKNS_10IdentifierENS_7JSValueEPKNS_9HashTableEPT_@Base 2.2.1
 _ZN3JSC9lookupPutIN7WebCore21JSSharedWorkerContextENS1_15JSWorkerContextEEEvPNS_9ExecStateERKNS_10IdentifierENS_7JSValueEPKNS_9HashTableEPT_RNS_15PutPropertySlotE@Base 2.2.1
 _ZN3JSC9lookupPutIN7WebCore22JSDOMSettableTokenListEEEbPNS_9ExecStateERKNS_10IdentifierENS_7JSValueEPKNS_9HashTableEPT_@Base 2.2.1
 _ZN3JSC9lookupPutIN7WebCore22JSDOMSettableTokenListENS1_14JSDOMTokenListEEEvPNS_9ExecStateERKNS_10IdentifierENS_7JSValueEPKNS_9HashTableEPT_RNS_15PutPropertySlotE@Base 2.2.1
 _ZN3JSC9lookupPutIN7WebCore22JSHTMLDirectoryElementEEEbPNS_9ExecStateERKNS_10IdentifierENS_7JSValueEPKNS_9HashTableEPT_@Base 2.2.1
 _ZN3JSC9lookupPutIN7WebCore22JSHTMLDirectoryElementENS1_13JSHTMLElementEEEvPNS_9ExecStateERKNS_10IdentifierENS_7JSValueEPKNS_9HashTableEPT_RNS_15PutPropertySlotE@Base 2.2.1
 _ZN3JSC9lookupPutIN7WebCore22JSHTMLParagraphElementEEEbPNS_9ExecStateERKNS_10IdentifierENS_7JSValueEPKNS_9HashTableEPT_@Base 2.2.1
 _ZN3JSC9lookupPutIN7WebCore22JSHTMLParagraphElementENS1_13JSHTMLElementEEEvPNS_9ExecStateERKNS_10IdentifierENS_7JSValueEPKNS_9HashTableEPT_RNS_15PutPropertySlotE@Base 2.2.1
 _ZN3JSC9lookupPutIN7WebCore22JSHTMLTableCellElementEEEbPNS_9ExecStateERKNS_10IdentifierENS_7JSValueEPKNS_9HashTableEPT_@Base 2.2.1
 _ZN3JSC9lookupPutIN7WebCore22JSHTMLTableCellElementENS1_13JSHTMLElementEEEvPNS_9ExecStateERKNS_10IdentifierENS_7JSValueEPKNS_9HashTableEPT_RNS_15PutPropertySlotE@Base 2.2.1
 _ZN3JSC9lookupPutIN7WebCore22JSXMLHttpRequestUploadEEEbPNS_9ExecStateERKNS_10IdentifierENS_7JSValueEPKNS_9HashTableEPT_@Base 2.2.1
 _ZN3JSC9lookupPutIN7WebCore22JSXMLHttpRequestUploadENS1_12JSDOMWrapperEEEvPNS_9ExecStateERKNS_10IdentifierENS_7JSValueEPKNS_9HashTableEPT_RNS_15PutPropertySlotE@Base 2.2.1
 _ZN3JSC9lookupPutIN7WebCore23JSHTMLBlockquoteElementEEEbPNS_9ExecStateERKNS_10IdentifierENS_7JSValueEPKNS_9HashTableEPT_@Base 2.2.1
 _ZN3JSC9lookupPutIN7WebCore23JSHTMLBlockquoteElementENS1_13JSHTMLElementEEEvPNS_9ExecStateERKNS_10IdentifierENS_7JSValueEPKNS_9HashTableEPT_RNS_15PutPropertySlotE@Base 2.2.1
 _ZN3JSC9lookupPutIN7WebCore23JSHTMLOptionsCollectionEEEbPNS_9ExecStateERKNS_10IdentifierENS_7JSValueEPKNS_9HashTableEPT_@Base 2.2.1
 _ZN3JSC9lookupPutIN7WebCore23JSHTMLOptionsCollectionENS1_16JSHTMLCollectionEEEvPNS_9ExecStateERKNS_10IdentifierENS_7JSValueEPKNS_9HashTableEPT_RNS_15PutPropertySlotE@Base 2.2.1
 _ZN3JSC9lookupPutIN7WebCore23JSProcessingInstructionEEEbPNS_9ExecStateERKNS_10IdentifierENS_7JSValueEPKNS_9HashTableEPT_@Base 2.2.1
 _ZN3JSC9lookupPutIN7WebCore23JSProcessingInstructionENS1_6JSNodeEEEvPNS_9ExecStateERKNS_10IdentifierENS_7JSValueEPKNS_9HashTableEPT_RNS_15PutPropertySlotE@Base 2.2.1
 _ZN3JSC9lookupPutIN7WebCore23JSSVGTextContentElementEEEbPNS_9ExecStateERKNS_10IdentifierENS_7JSValueEPKNS_9HashTableEPT_@Base 2.2.1
 _ZN3JSC9lookupPutIN7WebCore23JSSVGTextContentElementENS1_12JSSVGElementEEEvPNS_9ExecStateERKNS_10IdentifierENS_7JSValueEPKNS_9HashTableEPT_RNS_15PutPropertySlotE@Base 2.2.1
 _ZN3JSC9lookupPutIN7WebCore23JSWebKitCSSKeyframeRuleEEEbPNS_9ExecStateERKNS_10IdentifierENS_7JSValueEPKNS_9HashTableEPT_@Base 2.2.1
 _ZN3JSC9lookupPutIN7WebCore23JSWebKitCSSKeyframeRuleENS1_9JSCSSRuleEEEvPNS_9ExecStateERKNS_10IdentifierENS_7JSValueEPKNS_9HashTableEPT_RNS_15PutPropertySlotE@Base 2.2.1
 _ZN3JSC9lookupPutIN7WebCore24JSDedicatedWorkerContextEEEbPNS_9ExecStateERKNS_10IdentifierENS_7JSValueEPKNS_9HashTableEPT_@Base 2.2.1
 _ZN3JSC9lookupPutIN7WebCore24JSDedicatedWorkerContextENS1_15JSWorkerContextEEEvPNS_9ExecStateERKNS_10IdentifierENS_7JSValueEPKNS_9HashTableEPT_RNS_15PutPropertySlotE@Base 2.2.1
 _ZN3JSC9lookupPutIN7WebCore24JSSVGAnimatedEnumerationEEEbPNS_9ExecStateERKNS_10IdentifierENS_7JSValueEPKNS_9HashTableEPT_@Base 2.2.1
 _ZN3JSC9lookupPutIN7WebCore24JSSVGAnimatedEnumerationENS1_12JSDOMWrapperEEEvPNS_9ExecStateERKNS_10IdentifierENS_7JSValueEPKNS_9HashTableEPT_RNS_15PutPropertySlotE@Base 2.2.1
 _ZN3JSC9lookupPutIN7WebCore24JSSVGPreserveAspectRatioEEEbPNS_9ExecStateERKNS_10IdentifierENS_7JSValueEPKNS_9HashTableEPT_@Base 2.2.1
 _ZN3JSC9lookupPutIN7WebCore24JSSVGPreserveAspectRatioENS1_12JSDOMWrapperEEEvPNS_9ExecStateERKNS_10IdentifierENS_7JSValueEPKNS_9HashTableEPT_RNS_15PutPropertySlotE@Base 2.2.1
 _ZN3JSC9lookupPutIN7WebCore24JSWebKitCSSKeyframesRuleEEEbPNS_9ExecStateERKNS_10IdentifierENS_7JSValueEPKNS_9HashTableEPT_@Base 2.2.1
 _ZN3JSC9lookupPutIN7WebCore24JSWebKitCSSKeyframesRuleENS1_9JSCSSRuleEEEvPNS_9ExecStateERKNS_10IdentifierENS_7JSValueEPKNS_9HashTableEPT_RNS_15PutPropertySlotE@Base 2.2.1
 _ZN3JSC9lookupPutIN7WebCore25JSHTMLTableCaptionElementEEEbPNS_9ExecStateERKNS_10IdentifierENS_7JSValueEPKNS_9HashTableEPT_@Base 2.2.1
 _ZN3JSC9lookupPutIN7WebCore25JSHTMLTableCaptionElementENS1_13JSHTMLElementEEEvPNS_9ExecStateERKNS_10IdentifierENS_7JSValueEPKNS_9HashTableEPT_RNS_15PutPropertySlotE@Base 2.2.1
 _ZN3JSC9lookupPutIN7WebCore25JSHTMLTableSectionElementEEEbPNS_9ExecStateERKNS_10IdentifierENS_7JSValueEPKNS_9HashTableEPT_@Base 2.2.1
 _ZN3JSC9lookupPutIN7WebCore25JSHTMLTableSectionElementENS1_13JSHTMLElementEEEvPNS_9ExecStateERKNS_10IdentifierENS_7JSValueEPKNS_9HashTableEPT_RNS_15PutPropertySlotE@Base 2.2.1
 _ZN3JSC9lookupPutIN7WebCore25JSSVGForeignObjectElementEEEbPNS_9ExecStateERKNS_10IdentifierENS_7JSValueEPKNS_9HashTableEPT_@Base 2.2.1
 _ZN3JSC9lookupPutIN7WebCore25JSSVGForeignObjectElementENS1_12JSSVGElementEEEvPNS_9ExecStateERKNS_10IdentifierENS_7JSValueEPKNS_9HashTableEPT_RNS_15PutPropertySlotE@Base 2.2.1
 _ZN3JSC9lookupPutIN7WebCore26JSCanvasRenderingContext2DEEEbPNS_9ExecStateERKNS_10IdentifierENS_7JSValueEPKNS_9HashTableEPT_@Base 2.2.1
 _ZN3JSC9lookupPutIN7WebCore26JSCanvasRenderingContext2DENS1_24JSCanvasRenderingContextEEEvPNS_9ExecStateERKNS_10IdentifierENS_7JSValueEPKNS_9HashTableEPT_RNS_15PutPropertySlotE@Base 2.2.1
 _ZN3JSC9lookupPutIN7WebCore27JSSVGPathSegCurvetoCubicAbsEEEbPNS_9ExecStateERKNS_10IdentifierENS_7JSValueEPKNS_9HashTableEPT_@Base 2.2.1
 _ZN3JSC9lookupPutIN7WebCore27JSSVGPathSegCurvetoCubicAbsENS1_12JSSVGPathSegEEEvPNS_9ExecStateERKNS_10IdentifierENS_7JSValueEPKNS_9HashTableEPT_RNS_15PutPropertySlotE@Base 2.2.1
 _ZN3JSC9lookupPutIN7WebCore27JSSVGPathSegCurvetoCubicRelEEEbPNS_9ExecStateERKNS_10IdentifierENS_7JSValueEPKNS_9HashTableEPT_@Base 2.2.1
 _ZN3JSC9lookupPutIN7WebCore27JSSVGPathSegCurvetoCubicRelENS1_12JSSVGPathSegEEEvPNS_9ExecStateERKNS_10IdentifierENS_7JSValueEPKNS_9HashTableEPT_RNS_15PutPropertySlotE@Base 2.2.1
 _ZN3JSC9lookupPutIN7WebCore29JSSVGPathSegLinetoVerticalAbsEEEbPNS_9ExecStateERKNS_10IdentifierENS_7JSValueEPKNS_9HashTableEPT_@Base 2.2.1
 _ZN3JSC9lookupPutIN7WebCore29JSSVGPathSegLinetoVerticalAbsENS1_12JSSVGPathSegEEEvPNS_9ExecStateERKNS_10IdentifierENS_7JSValueEPKNS_9HashTableEPT_RNS_15PutPropertySlotE@Base 2.2.1
 _ZN3JSC9lookupPutIN7WebCore29JSSVGPathSegLinetoVerticalRelEEEbPNS_9ExecStateERKNS_10IdentifierENS_7JSValueEPKNS_9HashTableEPT_@Base 2.2.1
 _ZN3JSC9lookupPutIN7WebCore29JSSVGPathSegLinetoVerticalRelENS1_12JSSVGPathSegEEEvPNS_9ExecStateERKNS_10IdentifierENS_7JSValueEPKNS_9HashTableEPT_RNS_15PutPropertySlotE@Base 2.2.1
 _ZN3JSC9lookupPutIN7WebCore31JSSVGPathSegCurvetoQuadraticAbsEEEbPNS_9ExecStateERKNS_10IdentifierENS_7JSValueEPKNS_9HashTableEPT_@Base 2.2.1
 _ZN3JSC9lookupPutIN7WebCore31JSSVGPathSegCurvetoQuadraticAbsENS1_12JSSVGPathSegEEEvPNS_9ExecStateERKNS_10IdentifierENS_7JSValueEPKNS_9HashTableEPT_RNS_15PutPropertySlotE@Base 2.2.1
 _ZN3JSC9lookupPutIN7WebCore31JSSVGPathSegCurvetoQuadraticRelEEEbPNS_9ExecStateERKNS_10IdentifierENS_7JSValueEPKNS_9HashTableEPT_@Base 2.2.1
 _ZN3JSC9lookupPutIN7WebCore31JSSVGPathSegCurvetoQuadraticRelENS1_12JSSVGPathSegEEEvPNS_9ExecStateERKNS_10IdentifierENS_7JSValueEPKNS_9HashTableEPT_RNS_15PutPropertySlotE@Base 2.2.1
 _ZN3JSC9lookupPutIN7WebCore31JSSVGPathSegLinetoHorizontalAbsEEEbPNS_9ExecStateERKNS_10IdentifierENS_7JSValueEPKNS_9HashTableEPT_@Base 2.2.1
 _ZN3JSC9lookupPutIN7WebCore31JSSVGPathSegLinetoHorizontalAbsENS1_12JSSVGPathSegEEEvPNS_9ExecStateERKNS_10IdentifierENS_7JSValueEPKNS_9HashTableEPT_RNS_15PutPropertySlotE@Base 2.2.1
 _ZN3JSC9lookupPutIN7WebCore31JSSVGPathSegLinetoHorizontalRelEEEbPNS_9ExecStateERKNS_10IdentifierENS_7JSValueEPKNS_9HashTableEPT_@Base 2.2.1
 _ZN3JSC9lookupPutIN7WebCore31JSSVGPathSegLinetoHorizontalRelENS1_12JSSVGPathSegEEEvPNS_9ExecStateERKNS_10IdentifierENS_7JSValueEPKNS_9HashTableEPT_RNS_15PutPropertySlotE@Base 2.2.1
 _ZN3JSC9lookupPutIN7WebCore33JSSVGPathSegCurvetoCubicSmoothAbsEEEbPNS_9ExecStateERKNS_10IdentifierENS_7JSValueEPKNS_9HashTableEPT_@Base 2.2.1
 _ZN3JSC9lookupPutIN7WebCore33JSSVGPathSegCurvetoCubicSmoothAbsENS1_12JSSVGPathSegEEEvPNS_9ExecStateERKNS_10IdentifierENS_7JSValueEPKNS_9HashTableEPT_RNS_15PutPropertySlotE@Base 2.2.1
 _ZN3JSC9lookupPutIN7WebCore33JSSVGPathSegCurvetoCubicSmoothRelEEEbPNS_9ExecStateERKNS_10IdentifierENS_7JSValueEPKNS_9HashTableEPT_@Base 2.2.1
 _ZN3JSC9lookupPutIN7WebCore33JSSVGPathSegCurvetoCubicSmoothRelENS1_12JSSVGPathSegEEEvPNS_9ExecStateERKNS_10IdentifierENS_7JSValueEPKNS_9HashTableEPT_RNS_15PutPropertySlotE@Base 2.2.1
 _ZN3JSC9lookupPutIN7WebCore37JSSVGPathSegCurvetoQuadraticSmoothAbsEEEbPNS_9ExecStateERKNS_10IdentifierENS_7JSValueEPKNS_9HashTableEPT_@Base 2.2.1
 _ZN3JSC9lookupPutIN7WebCore37JSSVGPathSegCurvetoQuadraticSmoothAbsENS1_12JSSVGPathSegEEEvPNS_9ExecStateERKNS_10IdentifierENS_7JSValueEPKNS_9HashTableEPT_RNS_15PutPropertySlotE@Base 2.2.1
 _ZN3JSC9lookupPutIN7WebCore37JSSVGPathSegCurvetoQuadraticSmoothRelEEEbPNS_9ExecStateERKNS_10IdentifierENS_7JSValueEPKNS_9HashTableEPT_@Base 2.2.1
 _ZN3JSC9lookupPutIN7WebCore37JSSVGPathSegCurvetoQuadraticSmoothRelENS1_12JSSVGPathSegEEEvPNS_9ExecStateERKNS_10IdentifierENS_7JSValueEPKNS_9HashTableEPT_RNS_15PutPropertySlotE@Base 2.2.1
 _ZN3JSC9lookupPutIN7WebCore6JSAttrEEEbPNS_9ExecStateERKNS_10IdentifierENS_7JSValueEPKNS_9HashTableEPT_@Base 2.2.1
 _ZN3JSC9lookupPutIN7WebCore6JSAttrENS1_6JSNodeEEEvPNS_9ExecStateERKNS_10IdentifierENS_7JSValueEPKNS_9HashTableEPT_RNS_15PutPropertySlotE@Base 2.2.1
 _ZN3JSC9lookupPutIN7WebCore6JSNodeEEEbPNS_9ExecStateERKNS_10IdentifierENS_7JSValueEPKNS_9HashTableEPT_@Base 2.2.1
 _ZN3JSC9lookupPutIN7WebCore6JSNodeENS1_12JSDOMWrapperEEEvPNS_9ExecStateERKNS_10IdentifierENS_7JSValueEPKNS_9HashTableEPT_RNS_15PutPropertySlotE@Base 2.2.1
 _ZN3JSC9lookupPutIN7WebCore7JSEventEEEbPNS_9ExecStateERKNS_10IdentifierENS_7JSValueEPKNS_9HashTableEPT_@Base 2.2.1
 _ZN3JSC9lookupPutIN7WebCore7JSEventENS1_12JSDOMWrapperEEEvPNS_9ExecStateERKNS_10IdentifierENS_7JSValueEPKNS_9HashTableEPT_RNS_15PutPropertySlotE@Base 2.2.1
 _ZN3JSC9lookupPutIN7WebCore8JSWorkerEEEbPNS_9ExecStateERKNS_10IdentifierENS_7JSValueEPKNS_9HashTableEPT_@Base 2.2.1
 _ZN3JSC9lookupPutIN7WebCore8JSWorkerENS1_16JSAbstractWorkerEEEvPNS_9ExecStateERKNS_10IdentifierENS_7JSValueEPKNS_9HashTableEPT_RNS_15PutPropertySlotE@Base 2.2.1
 _ZN3JSC9lookupPutIN7WebCore9JSCSSRuleEEEbPNS_9ExecStateERKNS_10IdentifierENS_7JSValueEPKNS_9HashTableEPT_@Base 2.2.1
 _ZN3JSC9lookupPutIN7WebCore9JSCSSRuleENS1_12JSDOMWrapperEEEvPNS_9ExecStateERKNS_10IdentifierENS_7JSValueEPKNS_9HashTableEPT_RNS_15PutPropertySlotE@Base 2.2.1
 _ZN3JSC9lookupPutIN7WebCore9JSElementEEEbPNS_9ExecStateERKNS_10IdentifierENS_7JSValueEPKNS_9HashTableEPT_@Base 2.2.1
 _ZN3JSC9lookupPutIN7WebCore9JSElementENS1_6JSNodeEEEvPNS_9ExecStateERKNS_10IdentifierENS_7JSValueEPKNS_9HashTableEPT_RNS_15PutPropertySlotE@Base 2.2.1
 _ZN3JSC9lookupPutIN7WebCore9JSSVGRectEEEbPNS_9ExecStateERKNS_10IdentifierENS_7JSValueEPKNS_9HashTableEPT_@Base 2.2.1
 _ZN3JSC9lookupPutIN7WebCore9JSSVGRectENS1_12JSDOMWrapperEEEvPNS_9ExecStateERKNS_10IdentifierENS_7JSValueEPKNS_9HashTableEPT_RNS_15PutPropertySlotE@Base 2.2.1
 _ZN3WTF10PassOwnPtrI14QWebPageClientEC1EPS1_@Base 2.2.1
 _ZN3WTF10PassOwnPtrI14QWebPageClientEC2EPS1_@Base 2.2.1
 _ZN3WTF10PassOwnPtrI14QWebPageClientED1Ev@Base 2.2.1
 _ZN3WTF10PassOwnPtrI14QWebPageClientED2Ev@Base 2.2.1
 _ZN3WTF10PassOwnPtrI15QSystemTrayIconEC1EPS1_@Base 2.2.1
 _ZN3WTF10PassOwnPtrI15QSystemTrayIconEC2EPS1_@Base 2.2.1
 _ZN3WTF10PassOwnPtrI15QSystemTrayIconED1Ev@Base 2.2.1
 _ZN3WTF10PassOwnPtrI15QSystemTrayIconED2Ev@Base 2.2.1
 _ZN3WTF10PassOwnPtrI25QWebNotificationPresenterEC1EPS1_@Base 2.2.1
 _ZN3WTF10PassOwnPtrI25QWebNotificationPresenterEC2EPS1_@Base 2.2.1
 _ZN3WTF10PassOwnPtrI25QWebNotificationPresenterED1Ev@Base 2.2.1
 _ZN3WTF10PassOwnPtrI25QWebNotificationPresenterED2Ev@Base 2.2.1
 _ZN3WTF10PassOwnPtrI8QWebViewEC1EPS1_@Base 2.2.1
 _ZN3WTF10PassOwnPtrI8QWebViewEC2EPS1_@Base 2.2.1
 _ZN3WTF10PassOwnPtrI8QWebViewED1Ev@Base 2.2.1
 _ZN3WTF10PassOwnPtrI8QWebViewED2Ev@Base 2.2.1
 _ZN3WTF10PassOwnPtrIN7WebCore18CSSParserValueListEEC1EPS2_@Base 2.2.1
 _ZN3WTF10PassOwnPtrIN7WebCore18CSSParserValueListEEC2EPS2_@Base 2.2.1
 _ZN3WTF10PassOwnPtrIN7WebCore18CSSParserValueListEED1Ev@Base 2.2.1
 _ZN3WTF10PassOwnPtrIN7WebCore18CSSParserValueListEED2Ev@Base 2.2.1
 _ZN3WTF10PassOwnPtrIN7WebCore23InspectorFrontendClientEEC1EPS2_@Base 2.2.1
 _ZN3WTF10PassOwnPtrIN7WebCore23InspectorFrontendClientEEC2EPS2_@Base 2.2.1
 _ZN3WTF10PassOwnPtrIN7WebCore23InspectorFrontendClientEED1Ev@Base 2.2.1
 _ZN3WTF10PassOwnPtrIN7WebCore23InspectorFrontendClientEED2Ev@Base 2.2.1
 _ZN3WTF10PassOwnPtrIN7WebCore28InspectorFrontendClientLocal8SettingsEEC1EPS3_@Base 2.2.1
 _ZN3WTF10PassOwnPtrIN7WebCore28InspectorFrontendClientLocal8SettingsEEC2EPS3_@Base 2.2.1
 _ZN3WTF10PassOwnPtrIN7WebCore28InspectorFrontendClientLocal8SettingsEED1Ev@Base 2.2.1
 _ZN3WTF10PassOwnPtrIN7WebCore28InspectorFrontendClientLocal8SettingsEED2Ev@Base 2.2.1
 _ZN3WTF10PassOwnPtrINS_6VectorINS_6OwnPtrIN7WebCore17CSSParserSelectorEEELj0EEEED1Ev@Base 2.2.1
 _ZN3WTF10PassOwnPtrINS_6VectorINS_6OwnPtrIN7WebCore17CSSParserSelectorEEELj0EEEED2Ev@Base 2.2.1
 _ZN3WTF10PassOwnPtrINS_6VectorINS_6StringELj0EEEEC1ESt9nullptr_t@Base 2.2.1
 _ZN3WTF10PassOwnPtrINS_6VectorINS_6StringELj0EEEEC2ESt9nullptr_t@Base 2.2.1
 _ZN3WTF10PassRefPtrIN3JSC11ProfileNodeEEC1EPS2_@Base 2.2.1
 _ZN3WTF10PassRefPtrIN3JSC11ProfileNodeEEC2EPS2_@Base 2.2.1
 _ZN3WTF10PassRefPtrIN7WebCore10FileReaderEEC1EPS2_@Base 2.2.1
 _ZN3WTF10PassRefPtrIN7WebCore10FileReaderEEC1EPS2_b@Base 2.2.1
 _ZN3WTF10PassRefPtrIN7WebCore10FileReaderEEC2EPS2_@Base 2.2.1
 _ZN3WTF10PassRefPtrIN7WebCore10FileReaderEEC2EPS2_b@Base 2.2.1
 _ZN3WTF10PassRefPtrIN7WebCore10MediaErrorEEC1EPS2_@Base 2.2.1
 _ZN3WTF10PassRefPtrIN7WebCore10MediaErrorEEC2EPS2_@Base 2.2.1
 _ZN3WTF10PassRefPtrIN7WebCore10MemoryInfoEEC1EPS2_@Base 2.2.1
 _ZN3WTF10PassRefPtrIN7WebCore10MemoryInfoEEC2EPS2_@Base 2.2.1
 _ZN3WTF10PassRefPtrIN7WebCore10SVGElementEEC1INS1_11SVGAElementEEERKNS0_IT_EE@Base 2.2.1
 _ZN3WTF10PassRefPtrIN7WebCore10SVGElementEEC1INS1_11SVGGElementEEERKNS0_IT_EE@Base 2.2.1
 _ZN3WTF10PassRefPtrIN7WebCore10SVGElementEEC1INS1_13SVGSVGElementEEERKNS0_IT_EE@Base 2.2.1
 _ZN3WTF10PassRefPtrIN7WebCore10SVGElementEEC1INS1_13SVGSetElementEEERKNS0_IT_EE@Base 2.2.1
 _ZN3WTF10PassRefPtrIN7WebCore10SVGElementEEC1INS1_13SVGUseElementEEERKNS0_IT_EE@Base 2.2.1
 _ZN3WTF10PassRefPtrIN7WebCore10SVGElementEEC1INS1_14SVGDefsElementEEERKNS0_IT_EE@Base 2.2.1
 _ZN3WTF10PassRefPtrIN7WebCore10SVGElementEEC1INS1_14SVGDescElementEEERKNS0_IT_EE@Base 2.2.1
 _ZN3WTF10PassRefPtrIN7WebCore10SVGElementEEC1INS1_14SVGFontElementEEERKNS0_IT_EE@Base 2.2.1
 _ZN3WTF10PassRefPtrIN7WebCore10SVGElementEEC1INS1_14SVGLineElementEEERKNS0_IT_EE@Base 2.2.1
 _ZN3WTF10PassRefPtrIN7WebCore10SVGElementEEC1INS1_14SVGMaskElementEEERKNS0_IT_EE@Base 2.2.1
 _ZN3WTF10PassRefPtrIN7WebCore10SVGElementEEC1INS1_14SVGPathElementEEERKNS0_IT_EE@Base 2.2.1
 _ZN3WTF10PassRefPtrIN7WebCore10SVGElementEEC1INS1_14SVGRectElementEEERKNS0_IT_EE@Base 2.2.1
 _ZN3WTF10PassRefPtrIN7WebCore10SVGElementEEC1INS1_14SVGStopElementEEERKNS0_IT_EE@Base 2.2.1
 _ZN3WTF10PassRefPtrIN7WebCore10SVGElementEEC1INS1_14SVGTRefElementEEERKNS0_IT_EE@Base 2.2.1
 _ZN3WTF10PassRefPtrIN7WebCore10SVGElementEEC1INS1_14SVGTextElementEEERKNS0_IT_EE@Base 2.2.1
 _ZN3WTF10PassRefPtrIN7WebCore10SVGElementEEC1INS1_14SVGViewElementEEERKNS0_IT_EE@Base 2.2.1
 _ZN3WTF10PassRefPtrIN7WebCore10SVGElementEEC1INS1_15SVGGlyphElementEEERKNS0_IT_EE@Base 2.2.1
 _ZN3WTF10PassRefPtrIN7WebCore10SVGElementEEC1INS1_15SVGHKernElementEEERKNS0_IT_EE@Base 2.2.1
 _ZN3WTF10PassRefPtrIN7WebCore10SVGElementEEC1INS1_15SVGImageElementEEERKNS0_IT_EE@Base 2.2.1
 _ZN3WTF10PassRefPtrIN7WebCore10SVGElementEEC1INS1_15SVGMPathElementEEERKNS0_IT_EE@Base 2.2.1
 _ZN3WTF10PassRefPtrIN7WebCore10SVGElementEEC1INS1_15SVGStyleElementEEERKNS0_IT_EE@Base 2.2.1
 _ZN3WTF10PassRefPtrIN7WebCore10SVGElementEEC1INS1_15SVGTSpanElementEEERKNS0_IT_EE@Base 2.2.1
 _ZN3WTF10PassRefPtrIN7WebCore10SVGElementEEC1INS1_15SVGTitleElementEEERKNS0_IT_EE@Base 2.2.1
 _ZN3WTF10PassRefPtrIN7WebCore10SVGElementEEC1INS1_15SVGVKernElementEEERKNS0_IT_EE@Base 2.2.1
 _ZN3WTF10PassRefPtrIN7WebCore10SVGElementEEC1INS1_16SVGCircleElementEEERKNS0_IT_EE@Base 2.2.1
 _ZN3WTF10PassRefPtrIN7WebCore10SVGElementEEC1INS1_16SVGCursorElementEEERKNS0_IT_EE@Base 2.2.1
 _ZN3WTF10PassRefPtrIN7WebCore10SVGElementEEC1INS1_16SVGFETileElementEEERKNS0_IT_EE@Base 2.2.1
 _ZN3WTF10PassRefPtrIN7WebCore10SVGElementEEC1INS1_16SVGFilterElementEEERKNS0_IT_EE@Base 2.2.1
 _ZN3WTF10PassRefPtrIN7WebCore10SVGElementEEC1INS1_16SVGMarkerElementEEERKNS0_IT_EE@Base 2.2.1
 _ZN3WTF10PassRefPtrIN7WebCore10SVGElementEEC1INS1_16SVGScriptElementEEERKNS0_IT_EE@Base 2.2.1
 _ZN3WTF10PassRefPtrIN7WebCore10SVGElementEEC1INS1_16SVGSwitchElementEEERKNS0_IT_EE@Base 2.2.1
 _ZN3WTF10PassRefPtrIN7WebCore10SVGElementEEC1INS1_16SVGSymbolElementEEERKNS0_IT_EE@Base 2.2.1
 _ZN3WTF10PassRefPtrIN7WebCore10SVGElementEEC1INS1_17SVGAnimateElementEEERKNS0_IT_EE@Base 2.2.1
 _ZN3WTF10PassRefPtrIN7WebCore10SVGElementEEC1INS1_17SVGEllipseElementEEERKNS0_IT_EE@Base 2.2.1
 _ZN3WTF10PassRefPtrIN7WebCore10SVGElementEEC1INS1_17SVGFEBlendElementEEERKNS0_IT_EE@Base 2.2.1
 _ZN3WTF10PassRefPtrIN7WebCore10SVGElementEEC1INS1_17SVGFEFloodElementEEERKNS0_IT_EE@Base 2.2.1
 _ZN3WTF10PassRefPtrIN7WebCore10SVGElementEEC1INS1_17SVGFEFuncAElementEEERKNS0_IT_EE@Base 2.2.1
 _ZN3WTF10PassRefPtrIN7WebCore10SVGElementEEC1INS1_17SVGFEFuncBElementEEERKNS0_IT_EE@Base 2.2.1
 _ZN3WTF10PassRefPtrIN7WebCore10SVGElementEEC1INS1_17SVGFEFuncGElementEEERKNS0_IT_EE@Base 2.2.1
 _ZN3WTF10PassRefPtrIN7WebCore10SVGElementEEC1INS1_17SVGFEFuncRElementEEERKNS0_IT_EE@Base 2.2.1
 _ZN3WTF10PassRefPtrIN7WebCore10SVGElementEEC1INS1_17SVGFEImageElementEEERKNS0_IT_EE@Base 2.2.1
 _ZN3WTF10PassRefPtrIN7WebCore10SVGElementEEC1INS1_17SVGFEMergeElementEEERKNS0_IT_EE@Base 2.2.1
 _ZN3WTF10PassRefPtrIN7WebCore10SVGElementEEC1INS1_17SVGPatternElementEEERKNS0_IT_EE@Base 2.2.1
 _ZN3WTF10PassRefPtrIN7WebCore10SVGElementEEC1INS1_17SVGPolygonElementEEERKNS0_IT_EE@Base 2.2.1
 _ZN3WTF10PassRefPtrIN7WebCore10SVGElementEEC1INS1_18SVGAltGlyphElementEEERKNS0_IT_EE@Base 2.2.1
 _ZN3WTF10PassRefPtrIN7WebCore10SVGElementEEC1INS1_18SVGClipPathElementEEERKNS0_IT_EE@Base 2.2.1
 _ZN3WTF10PassRefPtrIN7WebCore10SVGElementEEC1INS1_18SVGFEOffsetElementEEERKNS0_IT_EE@Base 2.2.1
 _ZN3WTF10PassRefPtrIN7WebCore10SVGElementEEC1INS1_18SVGFontFaceElementEEERKNS0_IT_EE@Base 2.2.1
 _ZN3WTF10PassRefPtrIN7WebCore10SVGElementEEC1INS1_18SVGGradientElementEEERKNS0_IT_EE@Base 2.2.1
 _ZN3WTF10PassRefPtrIN7WebCore10SVGElementEEC1INS1_18SVGMetadataElementEEERKNS0_IT_EE@Base 2.2.1
 _ZN3WTF10PassRefPtrIN7WebCore10SVGElementEEC1INS1_18SVGPolylineElementEEERKNS0_IT_EE@Base 2.2.1
 _ZN3WTF10PassRefPtrIN7WebCore10SVGElementEEC1INS1_18SVGTextPathElementEEERKNS0_IT_EE@Base 2.2.1
 _ZN3WTF10PassRefPtrIN7WebCore10SVGElementEEC1INS1_19SVGAnimationElementEEERKNS0_IT_EE@Base 2.2.1
 _ZN3WTF10PassRefPtrIN7WebCore10SVGElementEEC1INS1_21SVGFECompositeElementEEERKNS0_IT_EE@Base 2.2.1
 _ZN3WTF10PassRefPtrIN7WebCore10SVGElementEEC1INS1_21SVGFEMergeNodeElementEEERKNS0_IT_EE@Base 2.2.1
 _ZN3WTF10PassRefPtrIN7WebCore10SVGElementEEC1INS1_21SVGFESpotLightElementEEERKNS0_IT_EE@Base 2.2.1
 _ZN3WTF10PassRefPtrIN7WebCore10SVGElementEEC1INS1_21SVGFontFaceSrcElementEEERKNS0_IT_EE@Base 2.2.1
 _ZN3WTF10PassRefPtrIN7WebCore10SVGElementEEC1INS1_21SVGFontFaceUriElementEEERKNS0_IT_EE@Base 2.2.1
 _ZN3WTF10PassRefPtrIN7WebCore10SVGElementEEC1INS1_21SVGTextContentElementEEERKNS0_IT_EE@Base 2.2.1
 _ZN3WTF10PassRefPtrIN7WebCore10SVGElementEEC1INS1_22SVGAnimateColorElementEEERKNS0_IT_EE@Base 2.2.1
 _ZN3WTF10PassRefPtrIN7WebCore10SVGElementEEC1INS1_22SVGFEDropShadowElementEEERKNS0_IT_EE@Base 2.2.1
 _ZN3WTF10PassRefPtrIN7WebCore10SVGElementEEC1INS1_22SVGFEMorphologyElementEEERKNS0_IT_EE@Base 2.2.1
 _ZN3WTF10PassRefPtrIN7WebCore10SVGElementEEC1INS1_22SVGFEPointLightElementEEERKNS0_IT_EE@Base 2.2.1
 _ZN3WTF10PassRefPtrIN7WebCore10SVGElementEEC1INS1_22SVGFETurbulenceElementEEERKNS0_IT_EE@Base 2.2.1
 _ZN3WTF10PassRefPtrIN7WebCore10SVGElementEEC1INS1_22SVGFontFaceNameElementEEERKNS0_IT_EE@Base 2.2.1
 _ZN3WTF10PassRefPtrIN7WebCore10SVGElementEEC1INS1_22SVGMissingGlyphElementEEERKNS0_IT_EE@Base 2.2.1
 _ZN3WTF10PassRefPtrIN7WebCore10SVGElementEEC1INS1_23SVGAnimateMotionElementEEERKNS0_IT_EE@Base 2.2.1
 _ZN3WTF10PassRefPtrIN7WebCore10SVGElementEEC1INS1_23SVGFEColorMatrixElementEEERKNS0_IT_EE@Base 2.2.1
 _ZN3WTF10PassRefPtrIN7WebCore10SVGElementEEC1INS1_23SVGForeignObjectElementEEERKNS0_IT_EE@Base 2.2.1
 _ZN3WTF10PassRefPtrIN7WebCore10SVGElementEEC1INS1_24SVGFEDistantLightElementEEERKNS0_IT_EE@Base 2.2.1
 _ZN3WTF10PassRefPtrIN7WebCore10SVGElementEEC1INS1_24SVGFEGaussianBlurElementEEERKNS0_IT_EE@Base 2.2.1
 _ZN3WTF10PassRefPtrIN7WebCore10SVGElementEEC1INS1_24SVGFontFaceFormatElementEEERKNS0_IT_EE@Base 2.2.1
 _ZN3WTF10PassRefPtrIN7WebCore10SVGElementEEC1INS1_24SVGLinearGradientElementEEERKNS0_IT_EE@Base 2.2.1
 _ZN3WTF10PassRefPtrIN7WebCore10SVGElementEEC1INS1_24SVGRadialGradientElementEEERKNS0_IT_EE@Base 2.2.1
 _ZN3WTF10PassRefPtrIN7WebCore10SVGElementEEC1INS1_26SVGAnimateTransformElementEEERKNS0_IT_EE@Base 2.2.1
 _ZN3WTF10PassRefPtrIN7WebCore10SVGElementEEC1INS1_26SVGFEConvolveMatrixElementEEERKNS0_IT_EE@Base 2.2.1
 _ZN3WTF10PassRefPtrIN7WebCore10SVGElementEEC1INS1_27SVGFEDiffuseLightingElementEEERKNS0_IT_EE@Base 2.2.1
 _ZN3WTF10PassRefPtrIN7WebCore10SVGElementEEC1INS1_27SVGFEDisplacementMapElementEEERKNS0_IT_EE@Base 2.2.1
 _ZN3WTF10PassRefPtrIN7WebCore10SVGElementEEC1INS1_28SVGFESpecularLightingElementEEERKNS0_IT_EE@Base 2.2.1
 _ZN3WTF10PassRefPtrIN7WebCore10SVGElementEEC1INS1_29SVGFEComponentTransferElementEEERKNS0_IT_EE@Base 2.2.1
 _ZN3WTF10PassRefPtrIN7WebCore10SVGElementEEC1INS1_35SVGComponentTransferFunctionElementEEERKNS0_IT_EE@Base 2.2.1
 _ZN3WTF10PassRefPtrIN7WebCore10SVGElementEEC2INS1_11SVGAElementEEERKNS0_IT_EE@Base 2.2.1
 _ZN3WTF10PassRefPtrIN7WebCore10SVGElementEEC2INS1_11SVGGElementEEERKNS0_IT_EE@Base 2.2.1
 _ZN3WTF10PassRefPtrIN7WebCore10SVGElementEEC2INS1_13SVGSVGElementEEERKNS0_IT_EE@Base 2.2.1
 _ZN3WTF10PassRefPtrIN7WebCore10SVGElementEEC2INS1_13SVGSetElementEEERKNS0_IT_EE@Base 2.2.1
 _ZN3WTF10PassRefPtrIN7WebCore10SVGElementEEC2INS1_13SVGUseElementEEERKNS0_IT_EE@Base 2.2.1
 _ZN3WTF10PassRefPtrIN7WebCore10SVGElementEEC2INS1_14SVGDefsElementEEERKNS0_IT_EE@Base 2.2.1
 _ZN3WTF10PassRefPtrIN7WebCore10SVGElementEEC2INS1_14SVGDescElementEEERKNS0_IT_EE@Base 2.2.1
 _ZN3WTF10PassRefPtrIN7WebCore10SVGElementEEC2INS1_14SVGFontElementEEERKNS0_IT_EE@Base 2.2.1
 _ZN3WTF10PassRefPtrIN7WebCore10SVGElementEEC2INS1_14SVGLineElementEEERKNS0_IT_EE@Base 2.2.1
 _ZN3WTF10PassRefPtrIN7WebCore10SVGElementEEC2INS1_14SVGMaskElementEEERKNS0_IT_EE@Base 2.2.1
 _ZN3WTF10PassRefPtrIN7WebCore10SVGElementEEC2INS1_14SVGPathElementEEERKNS0_IT_EE@Base 2.2.1
 _ZN3WTF10PassRefPtrIN7WebCore10SVGElementEEC2INS1_14SVGRectElementEEERKNS0_IT_EE@Base 2.2.1
 _ZN3WTF10PassRefPtrIN7WebCore10SVGElementEEC2INS1_14SVGStopElementEEERKNS0_IT_EE@Base 2.2.1
 _ZN3WTF10PassRefPtrIN7WebCore10SVGElementEEC2INS1_14SVGTRefElementEEERKNS0_IT_EE@Base 2.2.1
 _ZN3WTF10PassRefPtrIN7WebCore10SVGElementEEC2INS1_14SVGTextElementEEERKNS0_IT_EE@Base 2.2.1
 _ZN3WTF10PassRefPtrIN7WebCore10SVGElementEEC2INS1_14SVGViewElementEEERKNS0_IT_EE@Base 2.2.1
 _ZN3WTF10PassRefPtrIN7WebCore10SVGElementEEC2INS1_15SVGGlyphElementEEERKNS0_IT_EE@Base 2.2.1
 _ZN3WTF10PassRefPtrIN7WebCore10SVGElementEEC2INS1_15SVGHKernElementEEERKNS0_IT_EE@Base 2.2.1
 _ZN3WTF10PassRefPtrIN7WebCore10SVGElementEEC2INS1_15SVGImageElementEEERKNS0_IT_EE@Base 2.2.1
 _ZN3WTF10PassRefPtrIN7WebCore10SVGElementEEC2INS1_15SVGMPathElementEEERKNS0_IT_EE@Base 2.2.1
 _ZN3WTF10PassRefPtrIN7WebCore10SVGElementEEC2INS1_15SVGStyleElementEEERKNS0_IT_EE@Base 2.2.1
 _ZN3WTF10PassRefPtrIN7WebCore10SVGElementEEC2INS1_15SVGTSpanElementEEERKNS0_IT_EE@Base 2.2.1
 _ZN3WTF10PassRefPtrIN7WebCore10SVGElementEEC2INS1_15SVGTitleElementEEERKNS0_IT_EE@Base 2.2.1
 _ZN3WTF10PassRefPtrIN7WebCore10SVGElementEEC2INS1_15SVGVKernElementEEERKNS0_IT_EE@Base 2.2.1
 _ZN3WTF10PassRefPtrIN7WebCore10SVGElementEEC2INS1_16SVGCircleElementEEERKNS0_IT_EE@Base 2.2.1
 _ZN3WTF10PassRefPtrIN7WebCore10SVGElementEEC2INS1_16SVGCursorElementEEERKNS0_IT_EE@Base 2.2.1
 _ZN3WTF10PassRefPtrIN7WebCore10SVGElementEEC2INS1_16SVGFETileElementEEERKNS0_IT_EE@Base 2.2.1
 _ZN3WTF10PassRefPtrIN7WebCore10SVGElementEEC2INS1_16SVGFilterElementEEERKNS0_IT_EE@Base 2.2.1
 _ZN3WTF10PassRefPtrIN7WebCore10SVGElementEEC2INS1_16SVGMarkerElementEEERKNS0_IT_EE@Base 2.2.1
 _ZN3WTF10PassRefPtrIN7WebCore10SVGElementEEC2INS1_16SVGScriptElementEEERKNS0_IT_EE@Base 2.2.1
 _ZN3WTF10PassRefPtrIN7WebCore10SVGElementEEC2INS1_16SVGSwitchElementEEERKNS0_IT_EE@Base 2.2.1
 _ZN3WTF10PassRefPtrIN7WebCore10SVGElementEEC2INS1_16SVGSymbolElementEEERKNS0_IT_EE@Base 2.2.1
 _ZN3WTF10PassRefPtrIN7WebCore10SVGElementEEC2INS1_17SVGAnimateElementEEERKNS0_IT_EE@Base 2.2.1
 _ZN3WTF10PassRefPtrIN7WebCore10SVGElementEEC2INS1_17SVGEllipseElementEEERKNS0_IT_EE@Base 2.2.1
 _ZN3WTF10PassRefPtrIN7WebCore10SVGElementEEC2INS1_17SVGFEBlendElementEEERKNS0_IT_EE@Base 2.2.1
 _ZN3WTF10PassRefPtrIN7WebCore10SVGElementEEC2INS1_17SVGFEFloodElementEEERKNS0_IT_EE@Base 2.2.1
 _ZN3WTF10PassRefPtrIN7WebCore10SVGElementEEC2INS1_17SVGFEFuncAElementEEERKNS0_IT_EE@Base 2.2.1
 _ZN3WTF10PassRefPtrIN7WebCore10SVGElementEEC2INS1_17SVGFEFuncBElementEEERKNS0_IT_EE@Base 2.2.1
 _ZN3WTF10PassRefPtrIN7WebCore10SVGElementEEC2INS1_17SVGFEFuncGElementEEERKNS0_IT_EE@Base 2.2.1
 _ZN3WTF10PassRefPtrIN7WebCore10SVGElementEEC2INS1_17SVGFEFuncRElementEEERKNS0_IT_EE@Base 2.2.1
 _ZN3WTF10PassRefPtrIN7WebCore10SVGElementEEC2INS1_17SVGFEImageElementEEERKNS0_IT_EE@Base 2.2.1
 _ZN3WTF10PassRefPtrIN7WebCore10SVGElementEEC2INS1_17SVGFEMergeElementEEERKNS0_IT_EE@Base 2.2.1
 _ZN3WTF10PassRefPtrIN7WebCore10SVGElementEEC2INS1_17SVGPatternElementEEERKNS0_IT_EE@Base 2.2.1
 _ZN3WTF10PassRefPtrIN7WebCore10SVGElementEEC2INS1_17SVGPolygonElementEEERKNS0_IT_EE@Base 2.2.1
 _ZN3WTF10PassRefPtrIN7WebCore10SVGElementEEC2INS1_18SVGAltGlyphElementEEERKNS0_IT_EE@Base 2.2.1
 _ZN3WTF10PassRefPtrIN7WebCore10SVGElementEEC2INS1_18SVGClipPathElementEEERKNS0_IT_EE@Base 2.2.1
 _ZN3WTF10PassRefPtrIN7WebCore10SVGElementEEC2INS1_18SVGFEOffsetElementEEERKNS0_IT_EE@Base 2.2.1
 _ZN3WTF10PassRefPtrIN7WebCore10SVGElementEEC2INS1_18SVGFontFaceElementEEERKNS0_IT_EE@Base 2.2.1
 _ZN3WTF10PassRefPtrIN7WebCore10SVGElementEEC2INS1_18SVGGradientElementEEERKNS0_IT_EE@Base 2.2.1
 _ZN3WTF10PassRefPtrIN7WebCore10SVGElementEEC2INS1_18SVGMetadataElementEEERKNS0_IT_EE@Base 2.2.1
 _ZN3WTF10PassRefPtrIN7WebCore10SVGElementEEC2INS1_18SVGPolylineElementEEERKNS0_IT_EE@Base 2.2.1
 _ZN3WTF10PassRefPtrIN7WebCore10SVGElementEEC2INS1_18SVGTextPathElementEEERKNS0_IT_EE@Base 2.2.1
 _ZN3WTF10PassRefPtrIN7WebCore10SVGElementEEC2INS1_19SVGAnimationElementEEERKNS0_IT_EE@Base 2.2.1
 _ZN3WTF10PassRefPtrIN7WebCore10SVGElementEEC2INS1_21SVGFECompositeElementEEERKNS0_IT_EE@Base 2.2.1
 _ZN3WTF10PassRefPtrIN7WebCore10SVGElementEEC2INS1_21SVGFEMergeNodeElementEEERKNS0_IT_EE@Base 2.2.1
 _ZN3WTF10PassRefPtrIN7WebCore10SVGElementEEC2INS1_21SVGFESpotLightElementEEERKNS0_IT_EE@Base 2.2.1
 _ZN3WTF10PassRefPtrIN7WebCore10SVGElementEEC2INS1_21SVGFontFaceSrcElementEEERKNS0_IT_EE@Base 2.2.1
 _ZN3WTF10PassRefPtrIN7WebCore10SVGElementEEC2INS1_21SVGFontFaceUriElementEEERKNS0_IT_EE@Base 2.2.1
 _ZN3WTF10PassRefPtrIN7WebCore10SVGElementEEC2INS1_21SVGTextContentElementEEERKNS0_IT_EE@Base 2.2.1
 _ZN3WTF10PassRefPtrIN7WebCore10SVGElementEEC2INS1_22SVGAnimateColorElementEEERKNS0_IT_EE@Base 2.2.1
 _ZN3WTF10PassRefPtrIN7WebCore10SVGElementEEC2INS1_22SVGFEDropShadowElementEEERKNS0_IT_EE@Base 2.2.1
 _ZN3WTF10PassRefPtrIN7WebCore10SVGElementEEC2INS1_22SVGFEMorphologyElementEEERKNS0_IT_EE@Base 2.2.1
 _ZN3WTF10PassRefPtrIN7WebCore10SVGElementEEC2INS1_22SVGFEPointLightElementEEERKNS0_IT_EE@Base 2.2.1
 _ZN3WTF10PassRefPtrIN7WebCore10SVGElementEEC2INS1_22SVGFETurbulenceElementEEERKNS0_IT_EE@Base 2.2.1
 _ZN3WTF10PassRefPtrIN7WebCore10SVGElementEEC2INS1_22SVGFontFaceNameElementEEERKNS0_IT_EE@Base 2.2.1
 _ZN3WTF10PassRefPtrIN7WebCore10SVGElementEEC2INS1_22SVGMissingGlyphElementEEERKNS0_IT_EE@Base 2.2.1
 _ZN3WTF10PassRefPtrIN7WebCore10SVGElementEEC2INS1_23SVGAnimateMotionElementEEERKNS0_IT_EE@Base 2.2.1
 _ZN3WTF10PassRefPtrIN7WebCore10SVGElementEEC2INS1_23SVGFEColorMatrixElementEEERKNS0_IT_EE@Base 2.2.1
 _ZN3WTF10PassRefPtrIN7WebCore10SVGElementEEC2INS1_23SVGForeignObjectElementEEERKNS0_IT_EE@Base 2.2.1
 _ZN3WTF10PassRefPtrIN7WebCore10SVGElementEEC2INS1_24SVGFEDistantLightElementEEERKNS0_IT_EE@Base 2.2.1
 _ZN3WTF10PassRefPtrIN7WebCore10SVGElementEEC2INS1_24SVGFEGaussianBlurElementEEERKNS0_IT_EE@Base 2.2.1
 _ZN3WTF10PassRefPtrIN7WebCore10SVGElementEEC2INS1_24SVGFontFaceFormatElementEEERKNS0_IT_EE@Base 2.2.1
 _ZN3WTF10PassRefPtrIN7WebCore10SVGElementEEC2INS1_24SVGLinearGradientElementEEERKNS0_IT_EE@Base 2.2.1
 _ZN3WTF10PassRefPtrIN7WebCore10SVGElementEEC2INS1_24SVGRadialGradientElementEEERKNS0_IT_EE@Base 2.2.1
 _ZN3WTF10PassRefPtrIN7WebCore10SVGElementEEC2INS1_26SVGAnimateTransformElementEEERKNS0_IT_EE@Base 2.2.1
 _ZN3WTF10PassRefPtrIN7WebCore10SVGElementEEC2INS1_26SVGFEConvolveMatrixElementEEERKNS0_IT_EE@Base 2.2.1
 _ZN3WTF10PassRefPtrIN7WebCore10SVGElementEEC2INS1_27SVGFEDiffuseLightingElementEEERKNS0_IT_EE@Base 2.2.1
 _ZN3WTF10PassRefPtrIN7WebCore10SVGElementEEC2INS1_27SVGFEDisplacementMapElementEEERKNS0_IT_EE@Base 2.2.1
 _ZN3WTF10PassRefPtrIN7WebCore10SVGElementEEC2INS1_28SVGFESpecularLightingElementEEERKNS0_IT_EE@Base 2.2.1
 _ZN3WTF10PassRefPtrIN7WebCore10SVGElementEEC2INS1_29SVGFEComponentTransferElementEEERKNS0_IT_EE@Base 2.2.1
 _ZN3WTF10PassRefPtrIN7WebCore10SVGElementEEC2INS1_35SVGComponentTransferFunctionElementEEERKNS0_IT_EE@Base 2.2.1
 _ZN3WTF10PassRefPtrIN7WebCore10SVGPathSegEEC1INS1_16SVGPathSegArcAbsEEERKNS0_IT_EE@Base 2.2.1
 _ZN3WTF10PassRefPtrIN7WebCore10SVGPathSegEEC1INS1_16SVGPathSegArcRelEEERKNS0_IT_EE@Base 2.2.1
 _ZN3WTF10PassRefPtrIN7WebCore10SVGPathSegEEC1INS1_19SVGPathSegClosePathEEERKNS0_IT_EE@Base 2.2.1
 _ZN3WTF10PassRefPtrIN7WebCore10SVGPathSegEEC1INS1_19SVGPathSegLinetoAbsEEERKNS0_IT_EE@Base 2.2.1
 _ZN3WTF10PassRefPtrIN7WebCore10SVGPathSegEEC1INS1_19SVGPathSegLinetoRelEEERKNS0_IT_EE@Base 2.2.1
 _ZN3WTF10PassRefPtrIN7WebCore10SVGPathSegEEC1INS1_19SVGPathSegMovetoAbsEEERKNS0_IT_EE@Base 2.2.1
 _ZN3WTF10PassRefPtrIN7WebCore10SVGPathSegEEC1INS1_19SVGPathSegMovetoRelEEERKNS0_IT_EE@Base 2.2.1
 _ZN3WTF10PassRefPtrIN7WebCore10SVGPathSegEEC1INS1_25SVGPathSegCurvetoCubicAbsEEERKNS0_IT_EE@Base 2.2.1
 _ZN3WTF10PassRefPtrIN7WebCore10SVGPathSegEEC1INS1_25SVGPathSegCurvetoCubicRelEEERKNS0_IT_EE@Base 2.2.1
 _ZN3WTF10PassRefPtrIN7WebCore10SVGPathSegEEC1INS1_27SVGPathSegLinetoVerticalAbsEEERKNS0_IT_EE@Base 2.2.1
 _ZN3WTF10PassRefPtrIN7WebCore10SVGPathSegEEC1INS1_27SVGPathSegLinetoVerticalRelEEERKNS0_IT_EE@Base 2.2.1
 _ZN3WTF10PassRefPtrIN7WebCore10SVGPathSegEEC1INS1_29SVGPathSegCurvetoQuadraticAbsEEERKNS0_IT_EE@Base 2.2.1
 _ZN3WTF10PassRefPtrIN7WebCore10SVGPathSegEEC1INS1_29SVGPathSegCurvetoQuadraticRelEEERKNS0_IT_EE@Base 2.2.1
 _ZN3WTF10PassRefPtrIN7WebCore10SVGPathSegEEC1INS1_29SVGPathSegLinetoHorizontalAbsEEERKNS0_IT_EE@Base 2.2.1
 _ZN3WTF10PassRefPtrIN7WebCore10SVGPathSegEEC1INS1_29SVGPathSegLinetoHorizontalRelEEERKNS0_IT_EE@Base 2.2.1
 _ZN3WTF10PassRefPtrIN7WebCore10SVGPathSegEEC1INS1_31SVGPathSegCurvetoCubicSmoothAbsEEERKNS0_IT_EE@Base 2.2.1
 _ZN3WTF10PassRefPtrIN7WebCore10SVGPathSegEEC1INS1_31SVGPathSegCurvetoCubicSmoothRelEEERKNS0_IT_EE@Base 2.2.1
 _ZN3WTF10PassRefPtrIN7WebCore10SVGPathSegEEC1INS1_35SVGPathSegCurvetoQuadraticSmoothAbsEEERKNS0_IT_EE@Base 2.2.1
 _ZN3WTF10PassRefPtrIN7WebCore10SVGPathSegEEC1INS1_35SVGPathSegCurvetoQuadraticSmoothRelEEERKNS0_IT_EE@Base 2.2.1
 _ZN3WTF10PassRefPtrIN7WebCore10SVGPathSegEEC1IS2_EERKNS_6RefPtrIT_EE@Base 2.2.1
 _ZN3WTF10PassRefPtrIN7WebCore10SVGPathSegEEC2INS1_16SVGPathSegArcAbsEEERKNS0_IT_EE@Base 2.2.1
 _ZN3WTF10PassRefPtrIN7WebCore10SVGPathSegEEC2INS1_16SVGPathSegArcRelEEERKNS0_IT_EE@Base 2.2.1
 _ZN3WTF10PassRefPtrIN7WebCore10SVGPathSegEEC2INS1_19SVGPathSegClosePathEEERKNS0_IT_EE@Base 2.2.1
 _ZN3WTF10PassRefPtrIN7WebCore10SVGPathSegEEC2INS1_19SVGPathSegLinetoAbsEEERKNS0_IT_EE@Base 2.2.1
 _ZN3WTF10PassRefPtrIN7WebCore10SVGPathSegEEC2INS1_19SVGPathSegLinetoRelEEERKNS0_IT_EE@Base 2.2.1
 _ZN3WTF10PassRefPtrIN7WebCore10SVGPathSegEEC2INS1_19SVGPathSegMovetoAbsEEERKNS0_IT_EE@Base 2.2.1
 _ZN3WTF10PassRefPtrIN7WebCore10SVGPathSegEEC2INS1_19SVGPathSegMovetoRelEEERKNS0_IT_EE@Base 2.2.1
 _ZN3WTF10PassRefPtrIN7WebCore10SVGPathSegEEC2INS1_25SVGPathSegCurvetoCubicAbsEEERKNS0_IT_EE@Base 2.2.1
 _ZN3WTF10PassRefPtrIN7WebCore10SVGPathSegEEC2INS1_25SVGPathSegCurvetoCubicRelEEERKNS0_IT_EE@Base 2.2.1
 _ZN3WTF10PassRefPtrIN7WebCore10SVGPathSegEEC2INS1_27SVGPathSegLinetoVerticalAbsEEERKNS0_IT_EE@Base 2.2.1
 _ZN3WTF10PassRefPtrIN7WebCore10SVGPathSegEEC2INS1_27SVGPathSegLinetoVerticalRelEEERKNS0_IT_EE@Base 2.2.1
 _ZN3WTF10PassRefPtrIN7WebCore10SVGPathSegEEC2INS1_29SVGPathSegCurvetoQuadraticAbsEEERKNS0_IT_EE@Base 2.2.1
 _ZN3WTF10PassRefPtrIN7WebCore10SVGPathSegEEC2INS1_29SVGPathSegCurvetoQuadraticRelEEERKNS0_IT_EE@Base 2.2.1
 _ZN3WTF10PassRefPtrIN7WebCore10SVGPathSegEEC2INS1_29SVGPathSegLinetoHorizontalAbsEEERKNS0_IT_EE@Base 2.2.1
 _ZN3WTF10PassRefPtrIN7WebCore10SVGPathSegEEC2INS1_29SVGPathSegLinetoHorizontalRelEEERKNS0_IT_EE@Base 2.2.1
 _ZN3WTF10PassRefPtrIN7WebCore10SVGPathSegEEC2INS1_31SVGPathSegCurvetoCubicSmoothAbsEEERKNS0_IT_EE@Base 2.2.1
 _ZN3WTF10PassRefPtrIN7WebCore10SVGPathSegEEC2INS1_31SVGPathSegCurvetoCubicSmoothRelEEERKNS0_IT_EE@Base 2.2.1
 _ZN3WTF10PassRefPtrIN7WebCore10SVGPathSegEEC2INS1_35SVGPathSegCurvetoQuadraticSmoothAbsEEERKNS0_IT_EE@Base 2.2.1
 _ZN3WTF10PassRefPtrIN7WebCore10SVGPathSegEEC2INS1_35SVGPathSegCurvetoQuadraticSmoothRelEEERKNS0_IT_EE@Base 2.2.1
 _ZN3WTF10PassRefPtrIN7WebCore10SVGPathSegEEC2IS2_EERKNS_6RefPtrIT_EE@Base 2.2.1
 _ZN3WTF10PassRefPtrIN7WebCore10StyleSheetEEC1INS1_13CSSStyleSheetEEERKNS0_IT_EE@Base 2.2.1
 _ZN3WTF10PassRefPtrIN7WebCore10StyleSheetEEC2INS1_13CSSStyleSheetEEERKNS0_IT_EE@Base 2.2.1
 _ZN3WTF10PassRefPtrIN7WebCore10TimeRangesEEC1EPS2_@Base 2.2.1
 _ZN3WTF10PassRefPtrIN7WebCore10TimeRangesEEC2EPS2_@Base 2.2.1
 _ZN3WTF10PassRefPtrIN7WebCore11CoordinatesEEC1EPS2_@Base 2.2.1
 _ZN3WTF10PassRefPtrIN7WebCore11CoordinatesEEC2EPS2_@Base 2.2.1
 _ZN3WTF10PassRefPtrIN7WebCore11DOMFormDataEEC1EPS2_@Base 2.2.1
 _ZN3WTF10PassRefPtrIN7WebCore11DOMFormDataEEC2EPS2_@Base 2.2.1
 _ZN3WTF10PassRefPtrIN7WebCore11HTMLElementEEC1INS1_13HTMLHRElementEEERKNS0_IT_EE@Base 2.2.1
 _ZN3WTF10PassRefPtrIN7WebCore11HTMLElementEEC1INS1_14HTMLMapElementEEERKNS0_IT_EE@Base 2.2.1
 _ZN3WTF10PassRefPtrIN7WebCore11HTMLElementEEC1INS1_14HTMLModElementEEERKNS0_IT_EE@Base 2.2.1
 _ZN3WTF10PassRefPtrIN7WebCore11HTMLElementEEC1INS1_14HTMLPreElementEEERKNS0_IT_EE@Base 2.2.1
 _ZN3WTF10PassRefPtrIN7WebCore11HTMLElementEEC1INS1_15HTMLAreaElementEEERKNS0_IT_EE@Base 2.2.1
 _ZN3WTF10PassRefPtrIN7WebCore11HTMLElementEEC1INS1_15HTMLBaseElementEEERKNS0_IT_EE@Base 2.2.1
 _ZN3WTF10PassRefPtrIN7WebCore11HTMLElementEEC1INS1_15HTMLBodyElementEEERKNS0_IT_EE@Base 2.2.1
 _ZN3WTF10PassRefPtrIN7WebCore11HTMLElementEEC1INS1_15HTMLFontElementEEERKNS0_IT_EE@Base 2.2.1
 _ZN3WTF10PassRefPtrIN7WebCore11HTMLElementEEC1INS1_15HTMLFormElementEEERKNS0_IT_EE@Base 2.2.1
 _ZN3WTF10PassRefPtrIN7WebCore11HTMLElementEEC1INS1_15HTMLHeadElementEEERKNS0_IT_EE@Base 2.2.1
 _ZN3WTF10PassRefPtrIN7WebCore11HTMLElementEEC1INS1_15HTMLHtmlElementEEERKNS0_IT_EE@Base 2.2.1
 _ZN3WTF10PassRefPtrIN7WebCore11HTMLElementEEC1INS1_15HTMLLinkElementEEERKNS0_IT_EE@Base 2.2.1
 _ZN3WTF10PassRefPtrIN7WebCore11HTMLElementEEC1INS1_15HTMLMenuElementEEERKNS0_IT_EE@Base 2.2.1
 _ZN3WTF10PassRefPtrIN7WebCore11HTMLElementEEC1INS1_15HTMLMetaElementEEERKNS0_IT_EE@Base 2.2.1
 _ZN3WTF10PassRefPtrIN7WebCore11HTMLElementEEC1INS1_16HTMLAudioElementEEERKNS0_IT_EE@Base 2.2.1
 _ZN3WTF10PassRefPtrIN7WebCore11HTMLElementEEC1INS1_16HTMLDListElementEEERKNS0_IT_EE@Base 2.2.1
 _ZN3WTF10PassRefPtrIN7WebCore11HTMLElementEEC1INS1_16HTMLEmbedElementEEERKNS0_IT_EE@Base 2.2.1
 _ZN3WTF10PassRefPtrIN7WebCore11HTMLElementEEC1INS1_16HTMLFrameElementEEERKNS0_IT_EE@Base 2.2.1
 _ZN3WTF10PassRefPtrIN7WebCore11HTMLElementEEC1INS1_16HTMLImageElementEEERKNS0_IT_EE@Base 2.2.1
 _ZN3WTF10PassRefPtrIN7WebCore11HTMLElementEEC1INS1_16HTMLInputElementEEERKNS0_IT_EE@Base 2.2.1
 _ZN3WTF10PassRefPtrIN7WebCore11HTMLElementEEC1INS1_16HTMLLabelElementEEERKNS0_IT_EE@Base 2.2.1
 _ZN3WTF10PassRefPtrIN7WebCore11HTMLElementEEC1INS1_16HTMLMediaElementEEERKNS0_IT_EE@Base 2.2.1
 _ZN3WTF10PassRefPtrIN7WebCore11HTMLElementEEC1INS1_16HTMLMeterElementEEERKNS0_IT_EE@Base 2.2.1
 _ZN3WTF10PassRefPtrIN7WebCore11HTMLElementEEC1INS1_16HTMLParamElementEEERKNS0_IT_EE@Base 2.2.1
 _ZN3WTF10PassRefPtrIN7WebCore11HTMLElementEEC1INS1_16HTMLQuoteElementEEERKNS0_IT_EE@Base 2.2.1
 _ZN3WTF10PassRefPtrIN7WebCore11HTMLElementEEC1INS1_16HTMLStyleElementEEERKNS0_IT_EE@Base 2.2.1
 _ZN3WTF10PassRefPtrIN7WebCore11HTMLElementEEC1INS1_16HTMLTableElementEEERKNS0_IT_EE@Base 2.2.1
 _ZN3WTF10PassRefPtrIN7WebCore11HTMLElementEEC1INS1_16HTMLTitleElementEEERKNS0_IT_EE@Base 2.2.1
 _ZN3WTF10PassRefPtrIN7WebCore11HTMLElementEEC1INS1_16HTMLVideoElementEEERKNS0_IT_EE@Base 2.2.1
 _ZN3WTF10PassRefPtrIN7WebCore11HTMLElementEEC1INS1_17HTMLAnchorElementEEERKNS0_IT_EE@Base 2.2.1
 _ZN3WTF10PassRefPtrIN7WebCore11HTMLElementEEC1INS1_17HTMLAppletElementEEERKNS0_IT_EE@Base 2.2.1
 _ZN3WTF10PassRefPtrIN7WebCore11HTMLElementEEC1INS1_17HTMLButtonElementEEERKNS0_IT_EE@Base 2.2.1
 _ZN3WTF10PassRefPtrIN7WebCore11HTMLElementEEC1INS1_17HTMLCanvasElementEEERKNS0_IT_EE@Base 2.2.1
 _ZN3WTF10PassRefPtrIN7WebCore11HTMLElementEEC1INS1_17HTMLIFrameElementEEERKNS0_IT_EE@Base 2.2.1
 _ZN3WTF10PassRefPtrIN7WebCore11HTMLElementEEC1INS1_17HTMLKeygenElementEEERKNS0_IT_EE@Base 2.2.1
 _ZN3WTF10PassRefPtrIN7WebCore11HTMLElementEEC1INS1_17HTMLLegendElementEEERKNS0_IT_EE@Base 2.2.1
 _ZN3WTF10PassRefPtrIN7WebCore11HTMLElementEEC1INS1_17HTMLObjectElementEEERKNS0_IT_EE@Base 2.2.1
 _ZN3WTF10PassRefPtrIN7WebCore11HTMLElementEEC1INS1_17HTMLOptionElementEEERKNS0_IT_EE@Base 2.2.1
 _ZN3WTF10PassRefPtrIN7WebCore11HTMLElementEEC1INS1_17HTMLOutputElementEEERKNS0_IT_EE@Base 2.2.1
 _ZN3WTF10PassRefPtrIN7WebCore11HTMLElementEEC1INS1_17HTMLScriptElementEEERKNS0_IT_EE@Base 2.2.1
 _ZN3WTF10PassRefPtrIN7WebCore11HTMLElementEEC1INS1_17HTMLSelectElementEEERKNS0_IT_EE@Base 2.2.1
 _ZN3WTF10PassRefPtrIN7WebCore11HTMLElementEEC1INS1_17HTMLSourceElementEEERKNS0_IT_EE@Base 2.2.1
 _ZN3WTF10PassRefPtrIN7WebCore11HTMLElementEEC1INS1_18HTMLDetailsElementEEERKNS0_IT_EE@Base 2.2.1
 _ZN3WTF10PassRefPtrIN7WebCore11HTMLElementEEC1INS1_18HTMLHeadingElementEEERKNS0_IT_EE@Base 2.2.1
 _ZN3WTF10PassRefPtrIN7WebCore11HTMLElementEEC1INS1_18HTMLIsIndexElementEEERKNS0_IT_EE@Base 2.2.1
 _ZN3WTF10PassRefPtrIN7WebCore11HTMLElementEEC1INS1_18HTMLMarqueeElementEEERKNS0_IT_EE@Base 2.2.1
 _ZN3WTF10PassRefPtrIN7WebCore11HTMLElementEEC1INS1_18HTMLSummaryElementEEERKNS0_IT_EE@Base 2.2.1
 _ZN3WTF10PassRefPtrIN7WebCore11HTMLElementEEC1INS1_19HTMLBaseFontElementEEERKNS0_IT_EE@Base 2.2.1
 _ZN3WTF10PassRefPtrIN7WebCore11HTMLElementEEC1INS1_19HTMLDataListElementEEERKNS0_IT_EE@Base 2.2.1
 _ZN3WTF10PassRefPtrIN7WebCore11HTMLElementEEC1INS1_19HTMLFieldSetElementEEERKNS0_IT_EE@Base 2.2.1
 _ZN3WTF10PassRefPtrIN7WebCore11HTMLElementEEC1INS1_19HTMLFrameSetElementEEERKNS0_IT_EE@Base 2.2.1
 _ZN3WTF10PassRefPtrIN7WebCore11HTMLElementEEC1INS1_19HTMLOptGroupElementEEERKNS0_IT_EE@Base 2.2.1
 _ZN3WTF10PassRefPtrIN7WebCore11HTMLElementEEC1INS1_19HTMLProgressElementEEERKNS0_IT_EE@Base 2.2.1
 _ZN3WTF10PassRefPtrIN7WebCore11HTMLElementEEC1INS1_19HTMLTableColElementEEERKNS0_IT_EE@Base 2.2.1
 _ZN3WTF10PassRefPtrIN7WebCore11HTMLElementEEC1INS1_19HTMLTextAreaElementEEERKNS0_IT_EE@Base 2.2.1
 _ZN3WTF10PassRefPtrIN7WebCore11HTMLElementEEC1INS1_20HTMLDirectoryElementEEERKNS0_IT_EE@Base 2.2.1
 _ZN3WTF10PassRefPtrIN7WebCore11HTMLElementEEC1INS1_20HTMLParagraphElementEEERKNS0_IT_EE@Base 2.2.1
 _ZN3WTF10PassRefPtrIN7WebCore11HTMLElementEEC1INS1_21HTMLBlockquoteElementEEERKNS0_IT_EE@Base 2.2.1
 _ZN3WTF10PassRefPtrIN7WebCore11HTMLElementEEC2INS1_13HTMLHRElementEEERKNS0_IT_EE@Base 2.2.1
 _ZN3WTF10PassRefPtrIN7WebCore11HTMLElementEEC2INS1_14HTMLMapElementEEERKNS0_IT_EE@Base 2.2.1
 _ZN3WTF10PassRefPtrIN7WebCore11HTMLElementEEC2INS1_14HTMLModElementEEERKNS0_IT_EE@Base 2.2.1
 _ZN3WTF10PassRefPtrIN7WebCore11HTMLElementEEC2INS1_14HTMLPreElementEEERKNS0_IT_EE@Base 2.2.1
 _ZN3WTF10PassRefPtrIN7WebCore11HTMLElementEEC2INS1_15HTMLAreaElementEEERKNS0_IT_EE@Base 2.2.1
 _ZN3WTF10PassRefPtrIN7WebCore11HTMLElementEEC2INS1_15HTMLBaseElementEEERKNS0_IT_EE@Base 2.2.1
 _ZN3WTF10PassRefPtrIN7WebCore11HTMLElementEEC2INS1_15HTMLBodyElementEEERKNS0_IT_EE@Base 2.2.1
 _ZN3WTF10PassRefPtrIN7WebCore11HTMLElementEEC2INS1_15HTMLFontElementEEERKNS0_IT_EE@Base 2.2.1
 _ZN3WTF10PassRefPtrIN7WebCore11HTMLElementEEC2INS1_15HTMLFormElementEEERKNS0_IT_EE@Base 2.2.1
 _ZN3WTF10PassRefPtrIN7WebCore11HTMLElementEEC2INS1_15HTMLHeadElementEEERKNS0_IT_EE@Base 2.2.1
 _ZN3WTF10PassRefPtrIN7WebCore11HTMLElementEEC2INS1_15HTMLHtmlElementEEERKNS0_IT_EE@Base 2.2.1
 _ZN3WTF10PassRefPtrIN7WebCore11HTMLElementEEC2INS1_15HTMLLinkElementEEERKNS0_IT_EE@Base 2.2.1
 _ZN3WTF10PassRefPtrIN7WebCore11HTMLElementEEC2INS1_15HTMLMenuElementEEERKNS0_IT_EE@Base 2.2.1
 _ZN3WTF10PassRefPtrIN7WebCore11HTMLElementEEC2INS1_15HTMLMetaElementEEERKNS0_IT_EE@Base 2.2.1
 _ZN3WTF10PassRefPtrIN7WebCore11HTMLElementEEC2INS1_16HTMLAudioElementEEERKNS0_IT_EE@Base 2.2.1
 _ZN3WTF10PassRefPtrIN7WebCore11HTMLElementEEC2INS1_16HTMLDListElementEEERKNS0_IT_EE@Base 2.2.1
 _ZN3WTF10PassRefPtrIN7WebCore11HTMLElementEEC2INS1_16HTMLEmbedElementEEERKNS0_IT_EE@Base 2.2.1
 _ZN3WTF10PassRefPtrIN7WebCore11HTMLElementEEC2INS1_16HTMLFrameElementEEERKNS0_IT_EE@Base 2.2.1
 _ZN3WTF10PassRefPtrIN7WebCore11HTMLElementEEC2INS1_16HTMLImageElementEEERKNS0_IT_EE@Base 2.2.1
 _ZN3WTF10PassRefPtrIN7WebCore11HTMLElementEEC2INS1_16HTMLInputElementEEERKNS0_IT_EE@Base 2.2.1
 _ZN3WTF10PassRefPtrIN7WebCore11HTMLElementEEC2INS1_16HTMLLabelElementEEERKNS0_IT_EE@Base 2.2.1
 _ZN3WTF10PassRefPtrIN7WebCore11HTMLElementEEC2INS1_16HTMLMediaElementEEERKNS0_IT_EE@Base 2.2.1
 _ZN3WTF10PassRefPtrIN7WebCore11HTMLElementEEC2INS1_16HTMLMeterElementEEERKNS0_IT_EE@Base 2.2.1
 _ZN3WTF10PassRefPtrIN7WebCore11HTMLElementEEC2INS1_16HTMLParamElementEEERKNS0_IT_EE@Base 2.2.1
 _ZN3WTF10PassRefPtrIN7WebCore11HTMLElementEEC2INS1_16HTMLQuoteElementEEERKNS0_IT_EE@Base 2.2.1
 _ZN3WTF10PassRefPtrIN7WebCore11HTMLElementEEC2INS1_16HTMLStyleElementEEERKNS0_IT_EE@Base 2.2.1
 _ZN3WTF10PassRefPtrIN7WebCore11HTMLElementEEC2INS1_16HTMLTableElementEEERKNS0_IT_EE@Base 2.2.1
 _ZN3WTF10PassRefPtrIN7WebCore11HTMLElementEEC2INS1_16HTMLTitleElementEEERKNS0_IT_EE@Base 2.2.1
 _ZN3WTF10PassRefPtrIN7WebCore11HTMLElementEEC2INS1_16HTMLVideoElementEEERKNS0_IT_EE@Base 2.2.1
 _ZN3WTF10PassRefPtrIN7WebCore11HTMLElementEEC2INS1_17HTMLAnchorElementEEERKNS0_IT_EE@Base 2.2.1
 _ZN3WTF10PassRefPtrIN7WebCore11HTMLElementEEC2INS1_17HTMLAppletElementEEERKNS0_IT_EE@Base 2.2.1
 _ZN3WTF10PassRefPtrIN7WebCore11HTMLElementEEC2INS1_17HTMLButtonElementEEERKNS0_IT_EE@Base 2.2.1
 _ZN3WTF10PassRefPtrIN7WebCore11HTMLElementEEC2INS1_17HTMLCanvasElementEEERKNS0_IT_EE@Base 2.2.1
 _ZN3WTF10PassRefPtrIN7WebCore11HTMLElementEEC2INS1_17HTMLIFrameElementEEERKNS0_IT_EE@Base 2.2.1
 _ZN3WTF10PassRefPtrIN7WebCore11HTMLElementEEC2INS1_17HTMLKeygenElementEEERKNS0_IT_EE@Base 2.2.1
 _ZN3WTF10PassRefPtrIN7WebCore11HTMLElementEEC2INS1_17HTMLLegendElementEEERKNS0_IT_EE@Base 2.2.1
 _ZN3WTF10PassRefPtrIN7WebCore11HTMLElementEEC2INS1_17HTMLObjectElementEEERKNS0_IT_EE@Base 2.2.1
 _ZN3WTF10PassRefPtrIN7WebCore11HTMLElementEEC2INS1_17HTMLOptionElementEEERKNS0_IT_EE@Base 2.2.1
 _ZN3WTF10PassRefPtrIN7WebCore11HTMLElementEEC2INS1_17HTMLOutputElementEEERKNS0_IT_EE@Base 2.2.1
 _ZN3WTF10PassRefPtrIN7WebCore11HTMLElementEEC2INS1_17HTMLScriptElementEEERKNS0_IT_EE@Base 2.2.1
 _ZN3WTF10PassRefPtrIN7WebCore11HTMLElementEEC2INS1_17HTMLSelectElementEEERKNS0_IT_EE@Base 2.2.1
 _ZN3WTF10PassRefPtrIN7WebCore11HTMLElementEEC2INS1_17HTMLSourceElementEEERKNS0_IT_EE@Base 2.2.1
 _ZN3WTF10PassRefPtrIN7WebCore11HTMLElementEEC2INS1_18HTMLDetailsElementEEERKNS0_IT_EE@Base 2.2.1
 _ZN3WTF10PassRefPtrIN7WebCore11HTMLElementEEC2INS1_18HTMLHeadingElementEEERKNS0_IT_EE@Base 2.2.1
 _ZN3WTF10PassRefPtrIN7WebCore11HTMLElementEEC2INS1_18HTMLIsIndexElementEEERKNS0_IT_EE@Base 2.2.1
 _ZN3WTF10PassRefPtrIN7WebCore11HTMLElementEEC2INS1_18HTMLMarqueeElementEEERKNS0_IT_EE@Base 2.2.1
 _ZN3WTF10PassRefPtrIN7WebCore11HTMLElementEEC2INS1_18HTMLSummaryElementEEERKNS0_IT_EE@Base 2.2.1
 _ZN3WTF10PassRefPtrIN7WebCore11HTMLElementEEC2INS1_19HTMLBaseFontElementEEERKNS0_IT_EE@Base 2.2.1
 _ZN3WTF10PassRefPtrIN7WebCore11HTMLElementEEC2INS1_19HTMLDataListElementEEERKNS0_IT_EE@Base 2.2.1
 _ZN3WTF10PassRefPtrIN7WebCore11HTMLElementEEC2INS1_19HTMLFieldSetElementEEERKNS0_IT_EE@Base 2.2.1
 _ZN3WTF10PassRefPtrIN7WebCore11HTMLElementEEC2INS1_19HTMLFrameSetElementEEERKNS0_IT_EE@Base 2.2.1
 _ZN3WTF10PassRefPtrIN7WebCore11HTMLElementEEC2INS1_19HTMLOptGroupElementEEERKNS0_IT_EE@Base 2.2.1
 _ZN3WTF10PassRefPtrIN7WebCore11HTMLElementEEC2INS1_19HTMLProgressElementEEERKNS0_IT_EE@Base 2.2.1
 _ZN3WTF10PassRefPtrIN7WebCore11HTMLElementEEC2INS1_19HTMLTableColElementEEERKNS0_IT_EE@Base 2.2.1
 _ZN3WTF10PassRefPtrIN7WebCore11HTMLElementEEC2INS1_19HTMLTextAreaElementEEERKNS0_IT_EE@Base 2.2.1
 _ZN3WTF10PassRefPtrIN7WebCore11HTMLElementEEC2INS1_20HTMLDirectoryElementEEERKNS0_IT_EE@Base 2.2.1
 _ZN3WTF10PassRefPtrIN7WebCore11HTMLElementEEC2INS1_20HTMLParagraphElementEEERKNS0_IT_EE@Base 2.2.1
 _ZN3WTF10PassRefPtrIN7WebCore11HTMLElementEEC2INS1_21HTMLBlockquoteElementEEERKNS0_IT_EE@Base 2.2.1
 _ZN3WTF10PassRefPtrIN7WebCore11PopupMenuQtEEC1EPS2_b@Base 2.2.1
 _ZN3WTF10PassRefPtrIN7WebCore11PopupMenuQtEEC2EPS2_b@Base 2.2.1
 _ZN3WTF10PassRefPtrIN7WebCore11SVGAElementEEC1EPS2_@Base 2.2.1
 _ZN3WTF10PassRefPtrIN7WebCore11SVGAElementEEC2EPS2_@Base 2.2.1
 _ZN3WTF10PassRefPtrIN7WebCore11SVGGElementEEC1EPS2_@Base 2.2.1
 _ZN3WTF10PassRefPtrIN7WebCore11SVGGElementEEC2EPS2_@Base 2.2.1
 _ZN3WTF10PassRefPtrIN7WebCore11TextMetricsEEC1EPS2_@Base 2.2.1
 _ZN3WTF10PassRefPtrIN7WebCore11TextMetricsEEC2EPS2_@Base 2.2.1
 _ZN3WTF10PassRefPtrIN7WebCore12CSSValueListEEC1INS1_23WebKitCSSTransformValueEEERKNS0_IT_EE@Base 2.2.1
 _ZN3WTF10PassRefPtrIN7WebCore12CSSValueListEEC2INS1_23WebKitCSSTransformValueEEERKNS0_IT_EE@Base 2.2.1
 _ZN3WTF10PassRefPtrIN7WebCore12DOMSelectionEEC1EPS2_@Base 2.2.1
 _ZN3WTF10PassRefPtrIN7WebCore12DOMSelectionEEC2EPS2_@Base 2.2.1
 _ZN3WTF10PassRefPtrIN7WebCore12DOMStringMapEEC1EPS2_@Base 2.2.1
 _ZN3WTF10PassRefPtrIN7WebCore12DOMStringMapEEC2EPS2_@Base 2.2.1
 _ZN3WTF10PassRefPtrIN7WebCore12DOMTokenListEEC1EPS2_@Base 2.2.1
 _ZN3WTF10PassRefPtrIN7WebCore12DOMTokenListEEC1INS1_20DOMSettableTokenListEEERKNS0_IT_EE@Base 2.2.1
 _ZN3WTF10PassRefPtrIN7WebCore12DOMTokenListEEC2EPS2_@Base 2.2.1
 _ZN3WTF10PassRefPtrIN7WebCore12DOMTokenListEEC2INS1_20DOMSettableTokenListEEERKNS0_IT_EE@Base 2.2.1
 _ZN3WTF10PassRefPtrIN7WebCore12NotificationEEC1EPS2_@Base 2.2.1
 _ZN3WTF10PassRefPtrIN7WebCore12NotificationEEC2EPS2_@Base 2.2.1
 _ZN3WTF10PassRefPtrIN7WebCore12SQLExceptionEEC1EPS2_@Base 2.2.1
 _ZN3WTF10PassRefPtrIN7WebCore12SQLExceptionEEC2EPS2_@Base 2.2.1
 _ZN3WTF10PassRefPtrIN7WebCore12SVGExceptionEEC1EPS2_@Base 2.2.1
 _ZN3WTF10PassRefPtrIN7WebCore12SVGExceptionEEC2EPS2_@Base 2.2.1
 _ZN3WTF10PassRefPtrIN7WebCore12SVGUnitTypesEEC1EPS2_@Base 2.2.1
 _ZN3WTF10PassRefPtrIN7WebCore12SVGUnitTypesEEC2EPS2_@Base 2.2.1
 _ZN3WTF10PassRefPtrIN7WebCore12VoidCallbackEEC1EPS2_@Base 2.2.1
 _ZN3WTF10PassRefPtrIN7WebCore12VoidCallbackEEC1IS2_EERKNS_6RefPtrIT_EE@Base 2.2.1
 _ZN3WTF10PassRefPtrIN7WebCore12VoidCallbackEEC2EPS2_@Base 2.2.1
 _ZN3WTF10PassRefPtrIN7WebCore12VoidCallbackEEC2IS2_EERKNS_6RefPtrIT_EE@Base 2.2.1
 _ZN3WTF10PassRefPtrIN7WebCore13CharacterDataEEC1INS1_4TextEEERKNS0_IT_EE@Base 2.2.1
 _ZN3WTF10PassRefPtrIN7WebCore13CharacterDataEEC1INS1_7CommentEEERKNS0_IT_EE@Base 2.2.1
 _ZN3WTF10PassRefPtrIN7WebCore13CharacterDataEEC2INS1_4TextEEERKNS0_IT_EE@Base 2.2.1
 _ZN3WTF10PassRefPtrIN7WebCore13CharacterDataEEC2INS1_7CommentEEERKNS0_IT_EE@Base 2.2.1
 _ZN3WTF10PassRefPtrIN7WebCore13DOMStringListEEC1EPS2_@Base 2.2.1
 _ZN3WTF10PassRefPtrIN7WebCore13DOMStringListEEC2EPS2_@Base 2.2.1
 _ZN3WTF10PassRefPtrIN7WebCore13EventListenerEEC1INS1_14JSErrorHandlerEEERKNS0_IT_EE@Base 2.2.1
 _ZN3WTF10PassRefPtrIN7WebCore13EventListenerEEC2INS1_14JSErrorHandlerEEERKNS0_IT_EE@Base 2.2.1
 _ZN3WTF10PassRefPtrIN7WebCore13FileExceptionEEC1EPS2_@Base 2.2.1
 _ZN3WTF10PassRefPtrIN7WebCore13FileExceptionEEC2EPS2_@Base 2.2.1
 _ZN3WTF10PassRefPtrIN7WebCore13HTMLBRElementEEC1EPS2_@Base 2.2.1
 _ZN3WTF10PassRefPtrIN7WebCore13HTMLBRElementEEC2EPS2_@Base 2.2.1
 _ZN3WTF10PassRefPtrIN7WebCore13HTMLHRElementEEC1EPS2_@Base 2.2.1
 _ZN3WTF10PassRefPtrIN7WebCore13HTMLHRElementEEC2EPS2_@Base 2.2.1
 _ZN3WTF10PassRefPtrIN7WebCore13HTMLLIElementEEC1EPS2_@Base 2.2.1
 _ZN3WTF10PassRefPtrIN7WebCore13HTMLLIElementEEC2EPS2_@Base 2.2.1
 _ZN3WTF10PassRefPtrIN7WebCore13ProgressEventEEC1INS1_27XMLHttpRequestProgressEventEEERKNS0_IT_EE@Base 2.2.1
 _ZN3WTF10PassRefPtrIN7WebCore13ProgressEventEEC2INS1_27XMLHttpRequestProgressEventEEERKNS0_IT_EE@Base 2.2.1
 _ZN3WTF10PassRefPtrIN7WebCore13SVGSVGElementEEC1EPS2_@Base 2.2.1
 _ZN3WTF10PassRefPtrIN7WebCore13SVGSVGElementEEC2EPS2_@Base 2.2.1
 _ZN3WTF10PassRefPtrIN7WebCore13SVGSetElementEEC1EPS2_@Base 2.2.1
 _ZN3WTF10PassRefPtrIN7WebCore13SVGSetElementEEC2EPS2_@Base 2.2.1
 _ZN3WTF10PassRefPtrIN7WebCore13SVGUseElementEEC1EPS2_@Base 2.2.1
 _ZN3WTF10PassRefPtrIN7WebCore13SVGUseElementEEC2EPS2_@Base 2.2.1
 _ZN3WTF10PassRefPtrIN7WebCore13ValidityStateEEC1EPS2_@Base 2.2.1
 _ZN3WTF10PassRefPtrIN7WebCore13ValidityStateEEC2EPS2_@Base 2.2.1
 _ZN3WTF10PassRefPtrIN7WebCore13XMLSerializerEEC1EPS2_@Base 2.2.1
 _ZN3WTF10PassRefPtrIN7WebCore13XMLSerializerEEC1EPS2_b@Base 2.2.1
 _ZN3WTF10PassRefPtrIN7WebCore13XMLSerializerEEC2EPS2_@Base 2.2.1
 _ZN3WTF10PassRefPtrIN7WebCore13XMLSerializerEEC2EPS2_b@Base 2.2.1
 _ZN3WTF10PassRefPtrIN7WebCore14AbstractWorkerEEC1INS1_12SharedWorkerEEERKNS0_IT_EE@Base 2.2.1
 _ZN3WTF10PassRefPtrIN7WebCore14AbstractWorkerEEC1INS1_6WorkerEEERKNS0_IT_EE@Base 2.2.1
 _ZN3WTF10PassRefPtrIN7WebCore14AbstractWorkerEEC2INS1_12SharedWorkerEEERKNS0_IT_EE@Base 2.2.1
 _ZN3WTF10PassRefPtrIN7WebCore14AbstractWorkerEEC2INS1_6WorkerEEERKNS0_IT_EE@Base 2.2.1
 _ZN3WTF10PassRefPtrIN7WebCore14DOMPluginArrayEEC1EPS2_@Base 2.2.1
 _ZN3WTF10PassRefPtrIN7WebCore14DOMPluginArrayEEC2EPS2_@Base 2.2.1
 _ZN3WTF10PassRefPtrIN7WebCore14EventExceptionEEC1EPS2_@Base 2.2.1
 _ZN3WTF10PassRefPtrIN7WebCore14EventExceptionEEC2EPS2_@Base 2.2.1
 _ZN3WTF10PassRefPtrIN7WebCore14FileReaderSyncEEC1EPS2_@Base 2.2.1
 _ZN3WTF10PassRefPtrIN7WebCore14FileReaderSyncEEC1EPS2_b@Base 2.2.1
 _ZN3WTF10PassRefPtrIN7WebCore14FileReaderSyncEEC2EPS2_@Base 2.2.1
 _ZN3WTF10PassRefPtrIN7WebCore14FileReaderSyncEEC2EPS2_b@Base 2.2.1
 _ZN3WTF10PassRefPtrIN7WebCore14HTMLCollectionEEC1INS1_21HTMLOptionsCollectionEEERKNS0_IT_EE@Base 2.2.1
 _ZN3WTF10PassRefPtrIN7WebCore14HTMLCollectionEEC2INS1_21HTMLOptionsCollectionEEERKNS0_IT_EE@Base 2.2.1
 _ZN3WTF10PassRefPtrIN7WebCore14HTMLDivElementEEC1EPS2_@Base 2.2.1
 _ZN3WTF10PassRefPtrIN7WebCore14HTMLDivElementEEC2EPS2_@Base 2.2.1
 _ZN3WTF10PassRefPtrIN7WebCore14HTMLMapElementEEC1EPS2_@Base 2.2.1
 _ZN3WTF10PassRefPtrIN7WebCore14HTMLMapElementEEC2EPS2_@Base 2.2.1
 _ZN3WTF10PassRefPtrIN7WebCore14HTMLModElementEEC1EPS2_@Base 2.2.1
 _ZN3WTF10PassRefPtrIN7WebCore14HTMLModElementEEC2EPS2_@Base 2.2.1
 _ZN3WTF10PassRefPtrIN7WebCore14HTMLPreElementEEC1EPS2_@Base 2.2.1
 _ZN3WTF10PassRefPtrIN7WebCore14HTMLPreElementEEC2EPS2_@Base 2.2.1
 _ZN3WTF10PassRefPtrIN7WebCore14InspectorArrayEEC1ERKS3_@Base 2.2.1
 _ZN3WTF10PassRefPtrIN7WebCore14InspectorArrayEEC2ERKS3_@Base 2.2.1
 _ZN3WTF10PassRefPtrIN7WebCore14JSErrorHandlerEEC1EPS2_@Base 2.2.1
 _ZN3WTF10PassRefPtrIN7WebCore14JSErrorHandlerEEC1EPS2_b@Base 2.2.1
 _ZN3WTF10PassRefPtrIN7WebCore14JSErrorHandlerEEC2EPS2_@Base 2.2.1
 _ZN3WTF10PassRefPtrIN7WebCore14JSErrorHandlerEEC2EPS2_b@Base 2.2.1
 _ZN3WTF10PassRefPtrIN7WebCore14MessageChannelEEC1EPS2_@Base 2.2.1
 _ZN3WTF10PassRefPtrIN7WebCore14MessageChannelEEC2EPS2_@Base 2.2.1
 _ZN3WTF10PassRefPtrIN7WebCore14QtPluginWidgetEEC1EPS2_b@Base 2.2.1
 _ZN3WTF10PassRefPtrIN7WebCore14QtPluginWidgetEEC2EPS2_b@Base 2.2.1
 _ZN3WTF10PassRefPtrIN7WebCore14RangeExceptionEEC1EPS2_@Base 2.2.1
 _ZN3WTF10PassRefPtrIN7WebCore14RangeExceptionEEC2EPS2_@Base 2.2.1
 _ZN3WTF10PassRefPtrIN7WebCore14SVGDefsElementEEC1EPS2_@Base 2.2.1
 _ZN3WTF10PassRefPtrIN7WebCore14SVGDefsElementEEC2EPS2_@Base 2.2.1
 _ZN3WTF10PassRefPtrIN7WebCore14SVGDescElementEEC1EPS2_@Base 2.2.1
 _ZN3WTF10PassRefPtrIN7WebCore14SVGDescElementEEC2EPS2_@Base 2.2.1
 _ZN3WTF10PassRefPtrIN7WebCore14SVGFontElementEEC1EPS2_@Base 2.2.1
 _ZN3WTF10PassRefPtrIN7WebCore14SVGFontElementEEC2EPS2_@Base 2.2.1
 _ZN3WTF10PassRefPtrIN7WebCore14SVGLineElementEEC1EPS2_@Base 2.2.1
 _ZN3WTF10PassRefPtrIN7WebCore14SVGLineElementEEC2EPS2_@Base 2.2.1
 _ZN3WTF10PassRefPtrIN7WebCore14SVGMaskElementEEC1EPS2_@Base 2.2.1
 _ZN3WTF10PassRefPtrIN7WebCore14SVGMaskElementEEC2EPS2_@Base 2.2.1
 _ZN3WTF10PassRefPtrIN7WebCore14SVGPathElementEEC1EPS2_@Base 2.2.1
 _ZN3WTF10PassRefPtrIN7WebCore14SVGPathElementEEC2EPS2_@Base 2.2.1
 _ZN3WTF10PassRefPtrIN7WebCore14SVGRectElementEEC1EPS2_@Base 2.2.1
 _ZN3WTF10PassRefPtrIN7WebCore14SVGRectElementEEC2EPS2_@Base 2.2.1
 _ZN3WTF10PassRefPtrIN7WebCore14SVGStopElementEEC1EPS2_@Base 2.2.1
 _ZN3WTF10PassRefPtrIN7WebCore14SVGStopElementEEC2EPS2_@Base 2.2.1
 _ZN3WTF10PassRefPtrIN7WebCore14SVGTRefElementEEC1EPS2_@Base 2.2.1
 _ZN3WTF10PassRefPtrIN7WebCore14SVGTRefElementEEC2EPS2_@Base 2.2.1
 _ZN3WTF10PassRefPtrIN7WebCore14SVGTextElementEEC1EPS2_@Base 2.2.1
 _ZN3WTF10PassRefPtrIN7WebCore14SVGTextElementEEC2EPS2_@Base 2.2.1
 _ZN3WTF10PassRefPtrIN7WebCore14SVGViewElementEEC1EPS2_@Base 2.2.1
 _ZN3WTF10PassRefPtrIN7WebCore14SVGViewElementEEC2EPS2_@Base 2.2.1
 _ZN3WTF10PassRefPtrIN7WebCore14StyleSheetListEEC1EPS2_@Base 2.2.1
 _ZN3WTF10PassRefPtrIN7WebCore14StyleSheetListEEC2EPS2_@Base 2.2.1
 _ZN3WTF10PassRefPtrIN7WebCore14WorkerLocationEEC1EPS2_@Base 2.2.1
 _ZN3WTF10PassRefPtrIN7WebCore14WorkerLocationEEC2EPS2_@Base 2.2.1
 _ZN3WTF10PassRefPtrIN7WebCore14XPathEvaluatorEEC1EPS2_@Base 2.2.1
 _ZN3WTF10PassRefPtrIN7WebCore14XPathEvaluatorEEC2EPS2_@Base 2.2.1
 _ZN3WTF10PassRefPtrIN7WebCore14XPathExceptionEEC1EPS2_@Base 2.2.1
 _ZN3WTF10PassRefPtrIN7WebCore14XPathExceptionEEC2EPS2_@Base 2.2.1
 _ZN3WTF10PassRefPtrIN7WebCore15ArrayBufferViewEEC1INS1_10Int16ArrayEEERKNS0_IT_EE@Base 2.2.1
 _ZN3WTF10PassRefPtrIN7WebCore15ArrayBufferViewEEC1INS1_10Int32ArrayEEERKNS0_IT_EE@Base 2.2.1
 _ZN3WTF10PassRefPtrIN7WebCore15ArrayBufferViewEEC1INS1_10Uint8ArrayEEERKNS0_IT_EE@Base 2.2.1
 _ZN3WTF10PassRefPtrIN7WebCore15ArrayBufferViewEEC1INS1_11Uint16ArrayEEERKNS0_IT_EE@Base 2.2.1
 _ZN3WTF10PassRefPtrIN7WebCore15ArrayBufferViewEEC1INS1_11Uint32ArrayEEERKNS0_IT_EE@Base 2.2.1
 _ZN3WTF10PassRefPtrIN7WebCore15ArrayBufferViewEEC1INS1_12Float32ArrayEEERKNS0_IT_EE@Base 2.2.1
 _ZN3WTF10PassRefPtrIN7WebCore15ArrayBufferViewEEC1INS1_8DataViewEEERKNS0_IT_EE@Base 2.2.1
 _ZN3WTF10PassRefPtrIN7WebCore15ArrayBufferViewEEC1INS1_9Int8ArrayEEERKNS0_IT_EE@Base 2.2.1
 _ZN3WTF10PassRefPtrIN7WebCore15ArrayBufferViewEEC2INS1_10Int16ArrayEEERKNS0_IT_EE@Base 2.2.1
 _ZN3WTF10PassRefPtrIN7WebCore15ArrayBufferViewEEC2INS1_10Int32ArrayEEERKNS0_IT_EE@Base 2.2.1
 _ZN3WTF10PassRefPtrIN7WebCore15ArrayBufferViewEEC2INS1_10Uint8ArrayEEERKNS0_IT_EE@Base 2.2.1
 _ZN3WTF10PassRefPtrIN7WebCore15ArrayBufferViewEEC2INS1_11Uint16ArrayEEERKNS0_IT_EE@Base 2.2.1
 _ZN3WTF10PassRefPtrIN7WebCore15ArrayBufferViewEEC2INS1_11Uint32ArrayEEERKNS0_IT_EE@Base 2.2.1
 _ZN3WTF10PassRefPtrIN7WebCore15ArrayBufferViewEEC2INS1_12Float32ArrayEEERKNS0_IT_EE@Base 2.2.1
 _ZN3WTF10PassRefPtrIN7WebCore15ArrayBufferViewEEC2INS1_8DataViewEEERKNS0_IT_EE@Base 2.2.1
 _ZN3WTF10PassRefPtrIN7WebCore15ArrayBufferViewEEC2INS1_9Int8ArrayEEERKNS0_IT_EE@Base 2.2.1
 _ZN3WTF10PassRefPtrIN7WebCore15HTMLAreaElementEEC1EPS2_@Base 2.2.1
 _ZN3WTF10PassRefPtrIN7WebCore15HTMLAreaElementEEC2EPS2_@Base 2.2.1
 _ZN3WTF10PassRefPtrIN7WebCore15HTMLBaseElementEEC1EPS2_@Base 2.2.1
 _ZN3WTF10PassRefPtrIN7WebCore15HTMLBaseElementEEC2EPS2_@Base 2.2.1
 _ZN3WTF10PassRefPtrIN7WebCore15HTMLBodyElementEEC1EPS2_@Base 2.2.1
 _ZN3WTF10PassRefPtrIN7WebCore15HTMLBodyElementEEC2EPS2_@Base 2.2.1
 _ZN3WTF10PassRefPtrIN7WebCore15HTMLFontElementEEC1EPS2_@Base 2.2.1
 _ZN3WTF10PassRefPtrIN7WebCore15HTMLFontElementEEC2EPS2_@Base 2.2.1
 _ZN3WTF10PassRefPtrIN7WebCore15HTMLHeadElementEEC1EPS2_@Base 2.2.1
 _ZN3WTF10PassRefPtrIN7WebCore15HTMLHeadElementEEC2EPS2_@Base 2.2.1
 _ZN3WTF10PassRefPtrIN7WebCore15HTMLHtmlElementEEC1EPS2_@Base 2.2.1
 _ZN3WTF10PassRefPtrIN7WebCore15HTMLHtmlElementEEC2EPS2_@Base 2.2.1
 _ZN3WTF10PassRefPtrIN7WebCore15HTMLLinkElementEEC1EPS2_@Base 2.2.1
 _ZN3WTF10PassRefPtrIN7WebCore15HTMLLinkElementEEC2EPS2_@Base 2.2.1
 _ZN3WTF10PassRefPtrIN7WebCore15HTMLMenuElementEEC1EPS2_@Base 2.2.1
 _ZN3WTF10PassRefPtrIN7WebCore15HTMLMenuElementEEC2EPS2_@Base 2.2.1
 _ZN3WTF10PassRefPtrIN7WebCore15HTMLMetaElementEEC1EPS2_@Base 2.2.1
 _ZN3WTF10PassRefPtrIN7WebCore15HTMLMetaElementEEC2EPS2_@Base 2.2.1
 _ZN3WTF10PassRefPtrIN7WebCore15JSEventListenerEEC1EPS2_@Base 2.2.1
 _ZN3WTF10PassRefPtrIN7WebCore15JSEventListenerEEC2EPS2_@Base 2.2.1
 _ZN3WTF10PassRefPtrIN7WebCore15SVGGlyphElementEEC1EPS2_@Base 2.2.1
 _ZN3WTF10PassRefPtrIN7WebCore15SVGGlyphElementEEC2EPS2_@Base 2.2.1
 _ZN3WTF10PassRefPtrIN7WebCore15SVGImageElementEEC1EPS2_@Base 2.2.1
 _ZN3WTF10PassRefPtrIN7WebCore15SVGImageElementEEC2EPS2_@Base 2.2.1
 _ZN3WTF10PassRefPtrIN7WebCore15SVGStyleElementEEC1EPS2_@Base 2.2.1
 _ZN3WTF10PassRefPtrIN7WebCore15SVGStyleElementEEC2EPS2_@Base 2.2.1
 _ZN3WTF10PassRefPtrIN7WebCore15SVGTSpanElementEEC1EPS2_@Base 2.2.1
 _ZN3WTF10PassRefPtrIN7WebCore15SVGTSpanElementEEC2EPS2_@Base 2.2.1
 _ZN3WTF10PassRefPtrIN7WebCore15SVGTitleElementEEC1EPS2_@Base 2.2.1
 _ZN3WTF10PassRefPtrIN7WebCore15SVGTitleElementEEC2EPS2_@Base 2.2.1
 _ZN3WTF10PassRefPtrIN7WebCore15SVGVKernElementEEC1EPS2_@Base 2.2.1
 _ZN3WTF10PassRefPtrIN7WebCore15SVGVKernElementEEC2EPS2_@Base 2.2.1
 _ZN3WTF10PassRefPtrIN7WebCore15SearchPopupMenuEEC1INS1_17SearchPopupMenuQtEEERKNS0_IT_EE@Base 2.2.1
 _ZN3WTF10PassRefPtrIN7WebCore15SearchPopupMenuEEC2INS1_17SearchPopupMenuQtEEERKNS0_IT_EE@Base 2.2.1
 _ZN3WTF10PassRefPtrIN7WebCore15WebKitAnimationEEC1EPS2_@Base 2.2.1
 _ZN3WTF10PassRefPtrIN7WebCore15WebKitAnimationEEC2EPS2_@Base 2.2.1
 _ZN3WTF10PassRefPtrIN7WebCore15WorkerNavigatorEEC1EPS2_@Base 2.2.1
 _ZN3WTF10PassRefPtrIN7WebCore15WorkerNavigatorEEC2EPS2_@Base 2.2.1
 _ZN3WTF10PassRefPtrIN7WebCore16DOMCoreExceptionEEC1EPS2_@Base 2.2.1
 _ZN3WTF10PassRefPtrIN7WebCore16DOMCoreExceptionEEC2EPS2_@Base 2.2.1
 _ZN3WTF10PassRefPtrIN7WebCore16DOMMimeTypeArrayEEC1EPS2_@Base 2.2.1
 _ZN3WTF10PassRefPtrIN7WebCore16DOMMimeTypeArrayEEC2EPS2_@Base 2.2.1
 _ZN3WTF10PassRefPtrIN7WebCore16DatabaseCallbackEEC1IS2_EERKNS_6RefPtrIT_EE@Base 2.2.1
 _ZN3WTF10PassRefPtrIN7WebCore16DatabaseCallbackEEC2IS2_EERKNS_6RefPtrIT_EE@Base 2.2.1
 _ZN3WTF10PassRefPtrIN7WebCore16HTMLAudioElementEEC1EPS2_@Base 2.2.1
 _ZN3WTF10PassRefPtrIN7WebCore16HTMLAudioElementEEC2EPS2_@Base 2.2.1
 _ZN3WTF10PassRefPtrIN7WebCore16HTMLDListElementEEC1EPS2_@Base 2.2.1
 _ZN3WTF10PassRefPtrIN7WebCore16HTMLDListElementEEC2EPS2_@Base 2.2.1
 _ZN3WTF10PassRefPtrIN7WebCore16HTMLEmbedElementEEC1EPS2_@Base 2.2.1
 _ZN3WTF10PassRefPtrIN7WebCore16HTMLEmbedElementEEC2EPS2_@Base 2.2.1
 _ZN3WTF10PassRefPtrIN7WebCore16HTMLFrameElementEEC1EPS2_@Base 2.2.1
 _ZN3WTF10PassRefPtrIN7WebCore16HTMLFrameElementEEC2EPS2_@Base 2.2.1
 _ZN3WTF10PassRefPtrIN7WebCore16HTMLImageElementEEC1EPS2_@Base 2.2.1
 _ZN3WTF10PassRefPtrIN7WebCore16HTMLImageElementEEC2EPS2_@Base 2.2.1
 _ZN3WTF10PassRefPtrIN7WebCore16HTMLInputElementEEC1EPS2_@Base 2.2.1
 _ZN3WTF10PassRefPtrIN7WebCore16HTMLInputElementEEC1INS1_18HTMLIsIndexElementEEERKNS0_IT_EE@Base 2.2.1
 _ZN3WTF10PassRefPtrIN7WebCore16HTMLInputElementEEC2EPS2_@Base 2.2.1
 _ZN3WTF10PassRefPtrIN7WebCore16HTMLInputElementEEC2INS1_18HTMLIsIndexElementEEERKNS0_IT_EE@Base 2.2.1
 _ZN3WTF10PassRefPtrIN7WebCore16HTMLLabelElementEEC1EPS2_@Base 2.2.1
 _ZN3WTF10PassRefPtrIN7WebCore16HTMLLabelElementEEC2EPS2_@Base 2.2.1
 _ZN3WTF10PassRefPtrIN7WebCore16HTMLMediaElementEEC1INS1_16HTMLAudioElementEEERKNS0_IT_EE@Base 2.2.1
 _ZN3WTF10PassRefPtrIN7WebCore16HTMLMediaElementEEC1INS1_16HTMLVideoElementEEERKNS0_IT_EE@Base 2.2.1
 _ZN3WTF10PassRefPtrIN7WebCore16HTMLMediaElementEEC2INS1_16HTMLAudioElementEEERKNS0_IT_EE@Base 2.2.1
 _ZN3WTF10PassRefPtrIN7WebCore16HTMLMediaElementEEC2INS1_16HTMLVideoElementEEERKNS0_IT_EE@Base 2.2.1
 _ZN3WTF10PassRefPtrIN7WebCore16HTMLMeterElementEEC1EPS2_@Base 2.2.1
 _ZN3WTF10PassRefPtrIN7WebCore16HTMLMeterElementEEC2EPS2_@Base 2.2.1
 _ZN3WTF10PassRefPtrIN7WebCore16HTMLOListElementEEC1EPS2_@Base 2.2.1
 _ZN3WTF10PassRefPtrIN7WebCore16HTMLOListElementEEC2EPS2_@Base 2.2.1
 _ZN3WTF10PassRefPtrIN7WebCore16HTMLParamElementEEC1EPS2_@Base 2.2.1
 _ZN3WTF10PassRefPtrIN7WebCore16HTMLParamElementEEC2EPS2_@Base 2.2.1
 _ZN3WTF10PassRefPtrIN7WebCore16HTMLQuoteElementEEC1EPS2_@Base 2.2.1
 _ZN3WTF10PassRefPtrIN7WebCore16HTMLQuoteElementEEC2EPS2_@Base 2.2.1
 _ZN3WTF10PassRefPtrIN7WebCore16HTMLStyleElementEEC1EPS2_@Base 2.2.1
 _ZN3WTF10PassRefPtrIN7WebCore16HTMLStyleElementEEC2EPS2_@Base 2.2.1
 _ZN3WTF10PassRefPtrIN7WebCore16HTMLTitleElementEEC1EPS2_@Base 2.2.1
 _ZN3WTF10PassRefPtrIN7WebCore16HTMLTitleElementEEC2EPS2_@Base 2.2.1
 _ZN3WTF10PassRefPtrIN7WebCore16HTMLUListElementEEC1EPS2_@Base 2.2.1
 _ZN3WTF10PassRefPtrIN7WebCore16HTMLUListElementEEC2EPS2_@Base 2.2.1
 _ZN3WTF10PassRefPtrIN7WebCore16HTMLVideoElementEEC1EPS2_@Base 2.2.1
 _ZN3WTF10PassRefPtrIN7WebCore16HTMLVideoElementEEC2EPS2_@Base 2.2.1
 _ZN3WTF10PassRefPtrIN7WebCore16SVGCircleElementEEC1EPS2_@Base 2.2.1
 _ZN3WTF10PassRefPtrIN7WebCore16SVGCircleElementEEC2EPS2_@Base 2.2.1
 _ZN3WTF10PassRefPtrIN7WebCore16SVGCursorElementEEC1EPS2_@Base 2.2.1
 _ZN3WTF10PassRefPtrIN7WebCore16SVGCursorElementEEC2EPS2_@Base 2.2.1
 _ZN3WTF10PassRefPtrIN7WebCore16SVGFETileElementEEC1EPS2_@Base 2.2.1
 _ZN3WTF10PassRefPtrIN7WebCore16SVGFETileElementEEC2EPS2_@Base 2.2.1
 _ZN3WTF10PassRefPtrIN7WebCore16SVGFilterElementEEC1EPS2_@Base 2.2.1
 _ZN3WTF10PassRefPtrIN7WebCore16SVGFilterElementEEC2EPS2_@Base 2.2.1
 _ZN3WTF10PassRefPtrIN7WebCore16SVGMarkerElementEEC1EPS2_@Base 2.2.1
 _ZN3WTF10PassRefPtrIN7WebCore16SVGMarkerElementEEC2EPS2_@Base 2.2.1
 _ZN3WTF10PassRefPtrIN7WebCore16SVGScriptElementEEC1EPS2_@Base 2.2.1
 _ZN3WTF10PassRefPtrIN7WebCore16SVGScriptElementEEC2EPS2_@Base 2.2.1
 _ZN3WTF10PassRefPtrIN7WebCore16SVGSwitchElementEEC1EPS2_@Base 2.2.1
 _ZN3WTF10PassRefPtrIN7WebCore16SVGSwitchElementEEC2EPS2_@Base 2.2.1
 _ZN3WTF10PassRefPtrIN7WebCore16SVGSymbolElementEEC1EPS2_@Base 2.2.1
 _ZN3WTF10PassRefPtrIN7WebCore16SVGSymbolElementEEC2EPS2_@Base 2.2.1
 _ZN3WTF10PassRefPtrIN7WebCore17DOMImplementationEEC1EPS2_@Base 2.2.1
 _ZN3WTF10PassRefPtrIN7WebCore17DOMImplementationEEC2EPS2_@Base 2.2.1
 _ZN3WTF10PassRefPtrIN7WebCore17HTMLAnchorElementEEC1EPS2_@Base 2.2.1
 _ZN3WTF10PassRefPtrIN7WebCore17HTMLAnchorElementEEC2EPS2_@Base 2.2.1
 _ZN3WTF10PassRefPtrIN7WebCore17HTMLAppletElementEEC1EPS2_@Base 2.2.1
 _ZN3WTF10PassRefPtrIN7WebCore17HTMLAppletElementEEC2EPS2_@Base 2.2.1
 _ZN3WTF10PassRefPtrIN7WebCore17HTMLButtonElementEEC1EPS2_@Base 2.2.1
 _ZN3WTF10PassRefPtrIN7WebCore17HTMLButtonElementEEC2EPS2_@Base 2.2.1
 _ZN3WTF10PassRefPtrIN7WebCore17HTMLCanvasElementEEC1EPS2_@Base 2.2.1
 _ZN3WTF10PassRefPtrIN7WebCore17HTMLCanvasElementEEC2EPS2_@Base 2.2.1
 _ZN3WTF10PassRefPtrIN7WebCore17HTMLIFrameElementEEC1EPS2_@Base 2.2.1
 _ZN3WTF10PassRefPtrIN7WebCore17HTMLIFrameElementEEC2EPS2_@Base 2.2.1
 _ZN3WTF10PassRefPtrIN7WebCore17HTMLKeygenElementEEC1EPS2_@Base 2.2.1
 _ZN3WTF10PassRefPtrIN7WebCore17HTMLKeygenElementEEC2EPS2_@Base 2.2.1
 _ZN3WTF10PassRefPtrIN7WebCore17HTMLLegendElementEEC1EPS2_@Base 2.2.1
 _ZN3WTF10PassRefPtrIN7WebCore17HTMLLegendElementEEC2EPS2_@Base 2.2.1
 _ZN3WTF10PassRefPtrIN7WebCore17HTMLObjectElementEEC1EPS2_@Base 2.2.1
 _ZN3WTF10PassRefPtrIN7WebCore17HTMLObjectElementEEC2EPS2_@Base 2.2.1
 _ZN3WTF10PassRefPtrIN7WebCore17HTMLOutputElementEEC1EPS2_@Base 2.2.1
 _ZN3WTF10PassRefPtrIN7WebCore17HTMLOutputElementEEC2EPS2_@Base 2.2.1
 _ZN3WTF10PassRefPtrIN7WebCore17HTMLScriptElementEEC1EPS2_@Base 2.2.1
 _ZN3WTF10PassRefPtrIN7WebCore17HTMLScriptElementEEC2EPS2_@Base 2.2.1
 _ZN3WTF10PassRefPtrIN7WebCore17HTMLSourceElementEEC1EPS2_@Base 2.2.1
 _ZN3WTF10PassRefPtrIN7WebCore17HTMLSourceElementEEC2EPS2_@Base 2.2.1
 _ZN3WTF10PassRefPtrIN7WebCore17SVGAnimateElementEEC1EPS2_@Base 2.2.1
 _ZN3WTF10PassRefPtrIN7WebCore17SVGAnimateElementEEC2EPS2_@Base 2.2.1
 _ZN3WTF10PassRefPtrIN7WebCore17SVGEllipseElementEEC1EPS2_@Base 2.2.1
 _ZN3WTF10PassRefPtrIN7WebCore17SVGEllipseElementEEC2EPS2_@Base 2.2.1
 _ZN3WTF10PassRefPtrIN7WebCore17SVGFEBlendElementEEC1EPS2_@Base 2.2.1
 _ZN3WTF10PassRefPtrIN7WebCore17SVGFEBlendElementEEC2EPS2_@Base 2.2.1
 _ZN3WTF10PassRefPtrIN7WebCore17SVGFEFloodElementEEC1EPS2_@Base 2.2.1
 _ZN3WTF10PassRefPtrIN7WebCore17SVGFEFloodElementEEC2EPS2_@Base 2.2.1
 _ZN3WTF10PassRefPtrIN7WebCore17SVGFEFuncAElementEEC1EPS2_@Base 2.2.1
 _ZN3WTF10PassRefPtrIN7WebCore17SVGFEFuncAElementEEC2EPS2_@Base 2.2.1
 _ZN3WTF10PassRefPtrIN7WebCore17SVGFEFuncBElementEEC1EPS2_@Base 2.2.1
 _ZN3WTF10PassRefPtrIN7WebCore17SVGFEFuncBElementEEC2EPS2_@Base 2.2.1
 _ZN3WTF10PassRefPtrIN7WebCore17SVGFEFuncGElementEEC1EPS2_@Base 2.2.1
 _ZN3WTF10PassRefPtrIN7WebCore17SVGFEFuncGElementEEC2EPS2_@Base 2.2.1
 _ZN3WTF10PassRefPtrIN7WebCore17SVGFEFuncRElementEEC1EPS2_@Base 2.2.1
 _ZN3WTF10PassRefPtrIN7WebCore17SVGFEFuncRElementEEC2EPS2_@Base 2.2.1
 _ZN3WTF10PassRefPtrIN7WebCore17SVGFEImageElementEEC1EPS2_@Base 2.2.1
 _ZN3WTF10PassRefPtrIN7WebCore17SVGFEImageElementEEC2EPS2_@Base 2.2.1
 _ZN3WTF10PassRefPtrIN7WebCore17SVGFEMergeElementEEC1EPS2_@Base 2.2.1
 _ZN3WTF10PassRefPtrIN7WebCore17SVGFEMergeElementEEC2EPS2_@Base 2.2.1
 _ZN3WTF10PassRefPtrIN7WebCore17SVGPatternElementEEC1EPS2_@Base 2.2.1
 _ZN3WTF10PassRefPtrIN7WebCore17SVGPatternElementEEC2EPS2_@Base 2.2.1
 _ZN3WTF10PassRefPtrIN7WebCore17SVGPolygonElementEEC1EPS2_@Base 2.2.1
 _ZN3WTF10PassRefPtrIN7WebCore17SVGPolygonElementEEC2EPS2_@Base 2.2.1
 _ZN3WTF10PassRefPtrIN7WebCore17SearchPopupMenuQtEEC1EPS2_b@Base 2.2.1
 _ZN3WTF10PassRefPtrIN7WebCore17SearchPopupMenuQtEEC2EPS2_b@Base 2.2.1
 _ZN3WTF10PassRefPtrIN7WebCore17WebKitBlobBuilderEEC1EPS2_@Base 2.2.1
 _ZN3WTF10PassRefPtrIN7WebCore17WebKitBlobBuilderEEC1EPS2_b@Base 2.2.1
 _ZN3WTF10PassRefPtrIN7WebCore17WebKitBlobBuilderEEC2EPS2_@Base 2.2.1
 _ZN3WTF10PassRefPtrIN7WebCore17WebKitBlobBuilderEEC2EPS2_b@Base 2.2.1
 _ZN3WTF10PassRefPtrIN7WebCore18HTMLDetailsElementEEC1EPS2_@Base 2.2.1
 _ZN3WTF10PassRefPtrIN7WebCore18HTMLDetailsElementEEC2EPS2_@Base 2.2.1
 _ZN3WTF10PassRefPtrIN7WebCore18HTMLHeadingElementEEC1EPS2_@Base 2.2.1
 _ZN3WTF10PassRefPtrIN7WebCore18HTMLHeadingElementEEC2EPS2_@Base 2.2.1
 _ZN3WTF10PassRefPtrIN7WebCore18HTMLIsIndexElementEEC1EPS2_@Base 2.2.1
 _ZN3WTF10PassRefPtrIN7WebCore18HTMLIsIndexElementEEC2EPS2_@Base 2.2.1
 _ZN3WTF10PassRefPtrIN7WebCore18HTMLMarqueeElementEEC1EPS2_@Base 2.2.1
 _ZN3WTF10PassRefPtrIN7WebCore18HTMLMarqueeElementEEC2EPS2_@Base 2.2.1
 _ZN3WTF10PassRefPtrIN7WebCore18InjectedScriptHostEEC1EPS2_@Base 2.2.1
 _ZN3WTF10PassRefPtrIN7WebCore18InjectedScriptHostEEC2EPS2_@Base 2.2.1
 _ZN3WTF10PassRefPtrIN7WebCore18JSDatabaseCallbackEEC1EPS2_b@Base 2.2.1
 _ZN3WTF10PassRefPtrIN7WebCore18JSDatabaseCallbackEEC2EPS2_b@Base 2.2.1
 _ZN3WTF10PassRefPtrIN7WebCore18NotificationCenterEEC1EPS2_@Base 2.2.1
 _ZN3WTF10PassRefPtrIN7WebCore18NotificationCenterEEC2EPS2_@Base 2.2.1
 _ZN3WTF10PassRefPtrIN7WebCore18SQLTransactionSyncEEC1EPS2_@Base 2.2.1
 _ZN3WTF10PassRefPtrIN7WebCore18SQLTransactionSyncEEC2EPS2_@Base 2.2.1
 _ZN3WTF10PassRefPtrIN7WebCore18SVGAltGlyphElementEEC1EPS2_@Base 2.2.1
 _ZN3WTF10PassRefPtrIN7WebCore18SVGAltGlyphElementEEC2EPS2_@Base 2.2.1
 _ZN3WTF10PassRefPtrIN7WebCore18SVGClipPathElementEEC1EPS2_@Base 2.2.1
 _ZN3WTF10PassRefPtrIN7WebCore18SVGClipPathElementEEC2EPS2_@Base 2.2.1
 _ZN3WTF10PassRefPtrIN7WebCore18SVGFEOffsetElementEEC1EPS2_@Base 2.2.1
 _ZN3WTF10PassRefPtrIN7WebCore18SVGFEOffsetElementEEC2EPS2_@Base 2.2.1
 _ZN3WTF10PassRefPtrIN7WebCore18SVGGradientElementEEC1INS1_24SVGLinearGradientElementEEERKNS0_IT_EE@Base 2.2.1
 _ZN3WTF10PassRefPtrIN7WebCore18SVGGradientElementEEC1INS1_24SVGRadialGradientElementEEERKNS0_IT_EE@Base 2.2.1
 _ZN3WTF10PassRefPtrIN7WebCore18SVGGradientElementEEC2INS1_24SVGLinearGradientElementEEERKNS0_IT_EE@Base 2.2.1
 _ZN3WTF10PassRefPtrIN7WebCore18SVGGradientElementEEC2INS1_24SVGRadialGradientElementEEERKNS0_IT_EE@Base 2.2.1
 _ZN3WTF10PassRefPtrIN7WebCore18SVGMetadataElementEEC1EPS2_@Base 2.2.1
 _ZN3WTF10PassRefPtrIN7WebCore18SVGMetadataElementEEC2EPS2_@Base 2.2.1
 _ZN3WTF10PassRefPtrIN7WebCore18SVGPolylineElementEEC1EPS2_@Base 2.2.1
 _ZN3WTF10PassRefPtrIN7WebCore18SVGPolylineElementEEC2EPS2_@Base 2.2.1
 _ZN3WTF10PassRefPtrIN7WebCore18SVGPropertyTearOffINS1_10FloatPointEEEEC1EPS4_@Base 2.2.1
 _ZN3WTF10PassRefPtrIN7WebCore18SVGPropertyTearOffINS1_10FloatPointEEEEC1ERKS5_@Base 2.2.1
 _ZN3WTF10PassRefPtrIN7WebCore18SVGPropertyTearOffINS1_10FloatPointEEEEC2EPS4_@Base 2.2.1
 _ZN3WTF10PassRefPtrIN7WebCore18SVGPropertyTearOffINS1_10FloatPointEEEEC2ERKS5_@Base 2.2.1
 _ZN3WTF10PassRefPtrIN7WebCore18SVGPropertyTearOffINS1_12SVGTransformEEEEC1EPS4_@Base 2.2.1
 _ZN3WTF10PassRefPtrIN7WebCore18SVGPropertyTearOffINS1_12SVGTransformEEEEC1EPS4_b@Base 2.2.1
 _ZN3WTF10PassRefPtrIN7WebCore18SVGPropertyTearOffINS1_12SVGTransformEEEEC1ERKS5_@Base 2.2.1
 _ZN3WTF10PassRefPtrIN7WebCore18SVGPropertyTearOffINS1_12SVGTransformEEEEC2EPS4_@Base 2.2.1
 _ZN3WTF10PassRefPtrIN7WebCore18SVGPropertyTearOffINS1_12SVGTransformEEEEC2EPS4_b@Base 2.2.1
 _ZN3WTF10PassRefPtrIN7WebCore18SVGPropertyTearOffINS1_12SVGTransformEEEEC2ERKS5_@Base 2.2.1
 _ZN3WTF10PassRefPtrIN7WebCore18SVGPropertyTearOffINS1_22SVGPreserveAspectRatioEEEEC1EPS4_@Base 2.2.1
 _ZN3WTF10PassRefPtrIN7WebCore18SVGPropertyTearOffINS1_22SVGPreserveAspectRatioEEEEC1EPS4_b@Base 2.2.1
 _ZN3WTF10PassRefPtrIN7WebCore18SVGPropertyTearOffINS1_22SVGPreserveAspectRatioEEEEC2EPS4_@Base 2.2.1
 _ZN3WTF10PassRefPtrIN7WebCore18SVGPropertyTearOffINS1_22SVGPreserveAspectRatioEEEEC2EPS4_b@Base 2.2.1
 _ZN3WTF10PassRefPtrIN7WebCore18SVGPropertyTearOffINS1_8SVGAngleEEEEC1EPS4_@Base 2.2.1
 _ZN3WTF10PassRefPtrIN7WebCore18SVGPropertyTearOffINS1_8SVGAngleEEEEC1EPS4_b@Base 2.2.1
 _ZN3WTF10PassRefPtrIN7WebCore18SVGPropertyTearOffINS1_8SVGAngleEEEEC2EPS4_@Base 2.2.1
 _ZN3WTF10PassRefPtrIN7WebCore18SVGPropertyTearOffINS1_8SVGAngleEEEEC2EPS4_b@Base 2.2.1
 _ZN3WTF10PassRefPtrIN7WebCore18SVGPropertyTearOffINS1_9FloatRectEEEEC1EPS4_@Base 2.2.1
 _ZN3WTF10PassRefPtrIN7WebCore18SVGPropertyTearOffINS1_9FloatRectEEEEC1EPS4_b@Base 2.2.1
 _ZN3WTF10PassRefPtrIN7WebCore18SVGPropertyTearOffINS1_9FloatRectEEEEC2EPS4_@Base 2.2.1
 _ZN3WTF10PassRefPtrIN7WebCore18SVGPropertyTearOffINS1_9FloatRectEEEEC2EPS4_b@Base 2.2.1
 _ZN3WTF10PassRefPtrIN7WebCore18SVGPropertyTearOffINS1_9SVGLengthEEEEC1EPS4_@Base 2.2.1
 _ZN3WTF10PassRefPtrIN7WebCore18SVGPropertyTearOffINS1_9SVGLengthEEEEC1EPS4_b@Base 2.2.1
 _ZN3WTF10PassRefPtrIN7WebCore18SVGPropertyTearOffINS1_9SVGLengthEEEEC1ERKS5_@Base 2.2.1
 _ZN3WTF10PassRefPtrIN7WebCore18SVGPropertyTearOffINS1_9SVGLengthEEEEC2EPS4_@Base 2.2.1
 _ZN3WTF10PassRefPtrIN7WebCore18SVGPropertyTearOffINS1_9SVGLengthEEEEC2EPS4_b@Base 2.2.1
 _ZN3WTF10PassRefPtrIN7WebCore18SVGPropertyTearOffINS1_9SVGLengthEEEEC2ERKS5_@Base 2.2.1
 _ZN3WTF10PassRefPtrIN7WebCore18SVGPropertyTearOffINS1_9SVGMatrixEEEEC1EPS4_@Base 2.2.1
 _ZN3WTF10PassRefPtrIN7WebCore18SVGPropertyTearOffINS1_9SVGMatrixEEEEC1EPS4_b@Base 2.2.1
 _ZN3WTF10PassRefPtrIN7WebCore18SVGPropertyTearOffINS1_9SVGMatrixEEEEC2EPS4_@Base 2.2.1
 _ZN3WTF10PassRefPtrIN7WebCore18SVGPropertyTearOffINS1_9SVGMatrixEEEEC2EPS4_b@Base 2.2.1
 _ZN3WTF10PassRefPtrIN7WebCore18SVGPropertyTearOffIfEEEC1EPS3_@Base 2.2.1
 _ZN3WTF10PassRefPtrIN7WebCore18SVGPropertyTearOffIfEEEC1EPS3_b@Base 2.2.1
 _ZN3WTF10PassRefPtrIN7WebCore18SVGPropertyTearOffIfEEEC1ERKS4_@Base 2.2.1
 _ZN3WTF10PassRefPtrIN7WebCore18SVGPropertyTearOffIfEEEC2EPS3_@Base 2.2.1
 _ZN3WTF10PassRefPtrIN7WebCore18SVGPropertyTearOffIfEEEC2EPS3_b@Base 2.2.1
 _ZN3WTF10PassRefPtrIN7WebCore18SVGPropertyTearOffIfEEEC2ERKS4_@Base 2.2.1
 _ZN3WTF10PassRefPtrIN7WebCore18SVGRenderingIntentEEC1EPS2_@Base 2.2.1
 _ZN3WTF10PassRefPtrIN7WebCore18SVGRenderingIntentEEC2EPS2_@Base 2.2.1
 _ZN3WTF10PassRefPtrIN7WebCore18SVGTextPathElementEEC1EPS2_@Base 2.2.1
 _ZN3WTF10PassRefPtrIN7WebCore18SVGTextPathElementEEC2EPS2_@Base 2.2.1
 _ZN3WTF10PassRefPtrIN7WebCore19DOMApplicationCacheEEC1EPS2_@Base 2.2.1
 _ZN3WTF10PassRefPtrIN7WebCore19DOMApplicationCacheEEC2EPS2_@Base 2.2.1
 _ZN3WTF10PassRefPtrIN7WebCore19HTMLBaseFontElementEEC1EPS2_@Base 2.2.1
 _ZN3WTF10PassRefPtrIN7WebCore19HTMLBaseFontElementEEC2EPS2_@Base 2.2.1
 _ZN3WTF10PassRefPtrIN7WebCore19HTMLDataListElementEEC1EPS2_@Base 2.2.1
 _ZN3WTF10PassRefPtrIN7WebCore19HTMLDataListElementEEC2EPS2_@Base 2.2.1
 _ZN3WTF10PassRefPtrIN7WebCore19HTMLFieldSetElementEEC1EPS2_@Base 2.2.1
 _ZN3WTF10PassRefPtrIN7WebCore19HTMLFieldSetElementEEC2EPS2_@Base 2.2.1
 _ZN3WTF10PassRefPtrIN7WebCore19HTMLFrameSetElementEEC1EPS2_@Base 2.2.1
 _ZN3WTF10PassRefPtrIN7WebCore19HTMLFrameSetElementEEC2EPS2_@Base 2.2.1
 _ZN3WTF10PassRefPtrIN7WebCore19HTMLOptGroupElementEEC1EPS2_@Base 2.2.1
 _ZN3WTF10PassRefPtrIN7WebCore19HTMLOptGroupElementEEC2EPS2_@Base 2.2.1
 _ZN3WTF10PassRefPtrIN7WebCore19HTMLProgressElementEEC1EPS2_@Base 2.2.1
 _ZN3WTF10PassRefPtrIN7WebCore19HTMLProgressElementEEC2EPS2_@Base 2.2.1
 _ZN3WTF10PassRefPtrIN7WebCore19HTMLTableColElementEEC1EPS2_@Base 2.2.1
 _ZN3WTF10PassRefPtrIN7WebCore19HTMLTableColElementEEC2EPS2_@Base 2.2.1
 _ZN3WTF10PassRefPtrIN7WebCore19HTMLTableRowElementEEC1EPS2_@Base 2.2.1
 _ZN3WTF10PassRefPtrIN7WebCore19HTMLTableRowElementEEC2EPS2_@Base 2.2.1
 _ZN3WTF10PassRefPtrIN7WebCore19HTMLTextAreaElementEEC1EPS2_@Base 2.2.1
 _ZN3WTF10PassRefPtrIN7WebCore19HTMLTextAreaElementEEC2EPS2_@Base 2.2.1
 _ZN3WTF10PassRefPtrIN7WebCore19JavaScriptCallFrameEEC1EPS2_@Base 2.2.1
 _ZN3WTF10PassRefPtrIN7WebCore19JavaScriptCallFrameEEC2EPS2_@Base 2.2.1
 _ZN3WTF10PassRefPtrIN7WebCore19SQLResultSetRowListEEC1EPS2_@Base 2.2.1
 _ZN3WTF10PassRefPtrIN7WebCore19SQLResultSetRowListEEC2EPS2_@Base 2.2.1
 _ZN3WTF10PassRefPtrIN7WebCore19SVGAnimationElementEEC1INS1_13SVGSetElementEEERKNS0_IT_EE@Base 2.2.1
 _ZN3WTF10PassRefPtrIN7WebCore19SVGAnimationElementEEC1INS1_17SVGAnimateElementEEERKNS0_IT_EE@Base 2.2.1
 _ZN3WTF10PassRefPtrIN7WebCore19SVGAnimationElementEEC1INS1_22SVGAnimateColorElementEEERKNS0_IT_EE@Base 2.2.1
 _ZN3WTF10PassRefPtrIN7WebCore19SVGAnimationElementEEC1INS1_26SVGAnimateTransformElementEEERKNS0_IT_EE@Base 2.2.1
 _ZN3WTF10PassRefPtrIN7WebCore19SVGAnimationElementEEC2INS1_13SVGSetElementEEERKNS0_IT_EE@Base 2.2.1
 _ZN3WTF10PassRefPtrIN7WebCore19SVGAnimationElementEEC2INS1_17SVGAnimateElementEEERKNS0_IT_EE@Base 2.2.1
 _ZN3WTF10PassRefPtrIN7WebCore19SVGAnimationElementEEC2INS1_22SVGAnimateColorElementEEERKNS0_IT_EE@Base 2.2.1
 _ZN3WTF10PassRefPtrIN7WebCore19SVGAnimationElementEEC2INS1_26SVGAnimateTransformElementEEERKNS0_IT_EE@Base 2.2.1
 _ZN3WTF10PassRefPtrIN7WebCore20DOMSettableTokenListEEC1EPS2_@Base 2.2.1
 _ZN3WTF10PassRefPtrIN7WebCore20DOMSettableTokenListEEC2EPS2_@Base 2.2.1
 _ZN3WTF10PassRefPtrIN7WebCore20HTMLDirectoryElementEEC1EPS2_@Base 2.2.1
 _ZN3WTF10PassRefPtrIN7WebCore20HTMLDirectoryElementEEC2EPS2_@Base 2.2.1
 _ZN3WTF10PassRefPtrIN7WebCore20HTMLParagraphElementEEC1EPS2_@Base 2.2.1
 _ZN3WTF10PassRefPtrIN7WebCore20HTMLParagraphElementEEC2EPS2_@Base 2.2.1
 _ZN3WTF10PassRefPtrIN7WebCore20HTMLTableCellElementEEC1EPS2_@Base 2.2.1
 _ZN3WTF10PassRefPtrIN7WebCore20HTMLTableCellElementEEC2EPS2_@Base 2.2.1
 _ZN3WTF10PassRefPtrIN7WebCore20XMLHttpRequestUploadEEC1EPS2_@Base 2.2.1
 _ZN3WTF10PassRefPtrIN7WebCore20XMLHttpRequestUploadEEC2EPS2_@Base 2.2.1
 _ZN3WTF10PassRefPtrIN7WebCore21HTMLBlockquoteElementEEC1EPS2_@Base 2.2.1
 _ZN3WTF10PassRefPtrIN7WebCore21HTMLBlockquoteElementEEC2EPS2_@Base 2.2.1
 _ZN3WTF10PassRefPtrIN7WebCore21InspectorFrontendHostEEC1EPS2_@Base 2.2.1
 _ZN3WTF10PassRefPtrIN7WebCore21InspectorFrontendHostEEC2EPS2_@Base 2.2.1
 _ZN3WTF10PassRefPtrIN7WebCore21SVGFECompositeElementEEC1EPS2_@Base 2.2.1
 _ZN3WTF10PassRefPtrIN7WebCore21SVGFECompositeElementEEC2EPS2_@Base 2.2.1
 _ZN3WTF10PassRefPtrIN7WebCore21SVGFEMergeNodeElementEEC1EPS2_@Base 2.2.1
 _ZN3WTF10PassRefPtrIN7WebCore21SVGFEMergeNodeElementEEC2EPS2_@Base 2.2.1
 _ZN3WTF10PassRefPtrIN7WebCore21SVGFESpotLightElementEEC1EPS2_@Base 2.2.1
 _ZN3WTF10PassRefPtrIN7WebCore21SVGFESpotLightElementEEC2EPS2_@Base 2.2.1
 _ZN3WTF10PassRefPtrIN7WebCore21SVGFontFaceSrcElementEEC1EPS2_@Base 2.2.1
 _ZN3WTF10PassRefPtrIN7WebCore21SVGFontFaceSrcElementEEC2EPS2_@Base 2.2.1
 _ZN3WTF10PassRefPtrIN7WebCore21SVGFontFaceUriElementEEC1EPS2_@Base 2.2.1
 _ZN3WTF10PassRefPtrIN7WebCore21SVGFontFaceUriElementEEC2EPS2_@Base 2.2.1
 _ZN3WTF10PassRefPtrIN7WebCore21SVGTextContentElementEEC1INS1_18SVGTextPathElementEEERKNS0_IT_EE@Base 2.2.1
 _ZN3WTF10PassRefPtrIN7WebCore21SVGTextContentElementEEC1INS1_25SVGTextPositioningElementEEERKNS0_IT_EE@Base 2.2.1
 _ZN3WTF10PassRefPtrIN7WebCore21SVGTextContentElementEEC2INS1_18SVGTextPathElementEEERKNS0_IT_EE@Base 2.2.1
 _ZN3WTF10PassRefPtrIN7WebCore21SVGTextContentElementEEC2INS1_25SVGTextPositioningElementEEERKNS0_IT_EE@Base 2.2.1
 _ZN3WTF10PassRefPtrIN7WebCore22CanvasRenderingContextEEC1INS1_24CanvasRenderingContext2DEEERKNS0_IT_EE@Base 2.2.1
 _ZN3WTF10PassRefPtrIN7WebCore22CanvasRenderingContextEEC2INS1_24CanvasRenderingContext2DEEERKNS0_IT_EE@Base 2.2.1
 _ZN3WTF10PassRefPtrIN7WebCore22FrameNetworkingContextEEC1INS1_24FrameNetworkingContextQtEEERKNS0_IT_EE@Base 2.2.1
 _ZN3WTF10PassRefPtrIN7WebCore22FrameNetworkingContextEEC2INS1_24FrameNetworkingContextQtEEERKNS0_IT_EE@Base 2.2.1
 _ZN3WTF10PassRefPtrIN7WebCore22MediaQueryListListenerEEC1EPS2_@Base 2.2.1
 _ZN3WTF10PassRefPtrIN7WebCore22MediaQueryListListenerEEC1EPS2_b@Base 2.2.1
 _ZN3WTF10PassRefPtrIN7WebCore22MediaQueryListListenerEEC1IS2_EERKNS_6RefPtrIT_EE@Base 2.2.1
 _ZN3WTF10PassRefPtrIN7WebCore22MediaQueryListListenerEEC2EPS2_@Base 2.2.1
 _ZN3WTF10PassRefPtrIN7WebCore22MediaQueryListListenerEEC2EPS2_b@Base 2.2.1
 _ZN3WTF10PassRefPtrIN7WebCore22MediaQueryListListenerEEC2IS2_EERKNS_6RefPtrIT_EE@Base 2.2.1
 _ZN3WTF10PassRefPtrIN7WebCore22QtPluginGraphicsWidgetEEC1EPS2_b@Base 2.2.1
 _ZN3WTF10PassRefPtrIN7WebCore22QtPluginGraphicsWidgetEEC2EPS2_b@Base 2.2.1
 _ZN3WTF10PassRefPtrIN7WebCore22SQLTransactionCallbackEEC1IS2_EERKNS_6RefPtrIT_EE@Base 2.2.1
 _ZN3WTF10PassRefPtrIN7WebCore22SQLTransactionCallbackEEC2IS2_EERKNS_6RefPtrIT_EE@Base 2.2.1
 _ZN3WTF10PassRefPtrIN7WebCore22SVGAnimateColorElementEEC1EPS2_@Base 2.2.1
 _ZN3WTF10PassRefPtrIN7WebCore22SVGAnimateColorElementEEC2EPS2_@Base 2.2.1
 _ZN3WTF10PassRefPtrIN7WebCore22SVGElementInstanceListEEC1EPS2_@Base 2.2.1
 _ZN3WTF10PassRefPtrIN7WebCore22SVGElementInstanceListEEC2EPS2_@Base 2.2.1
 _ZN3WTF10PassRefPtrIN7WebCore22SVGFEDropShadowElementEEC1EPS2_@Base 2.2.1
 _ZN3WTF10PassRefPtrIN7WebCore22SVGFEDropShadowElementEEC2EPS2_@Base 2.2.1
 _ZN3WTF10PassRefPtrIN7WebCore22SVGFEMorphologyElementEEC1EPS2_@Base 2.2.1
 _ZN3WTF10PassRefPtrIN7WebCore22SVGFEMorphologyElementEEC2EPS2_@Base 2.2.1
 _ZN3WTF10PassRefPtrIN7WebCore22SVGFEPointLightElementEEC1EPS2_@Base 2.2.1
 _ZN3WTF10PassRefPtrIN7WebCore22SVGFEPointLightElementEEC2EPS2_@Base 2.2.1
 _ZN3WTF10PassRefPtrIN7WebCore22SVGFETurbulenceElementEEC1EPS2_@Base 2.2.1
 _ZN3WTF10PassRefPtrIN7WebCore22SVGFETurbulenceElementEEC2EPS2_@Base 2.2.1
 _ZN3WTF10PassRefPtrIN7WebCore22SVGFontFaceNameElementEEC1EPS2_@Base 2.2.1
 _ZN3WTF10PassRefPtrIN7WebCore22SVGFontFaceNameElementEEC2EPS2_@Base 2.2.1
 _ZN3WTF10PassRefPtrIN7WebCore22SVGListPropertyTearOffINS1_12SVGPointListEEEEC1EPS4_@Base 2.2.1
 _ZN3WTF10PassRefPtrIN7WebCore22SVGListPropertyTearOffINS1_12SVGPointListEEEEC2EPS4_@Base 2.2.1
 _ZN3WTF10PassRefPtrIN7WebCore22SVGListPropertyTearOffINS1_13SVGLengthListEEEEC1EPS4_@Base 2.2.1
 _ZN3WTF10PassRefPtrIN7WebCore22SVGListPropertyTearOffINS1_13SVGLengthListEEEEC1EPS4_b@Base 2.2.1
 _ZN3WTF10PassRefPtrIN7WebCore22SVGListPropertyTearOffINS1_13SVGLengthListEEEEC2EPS4_@Base 2.2.1
 _ZN3WTF10PassRefPtrIN7WebCore22SVGListPropertyTearOffINS1_13SVGLengthListEEEEC2EPS4_b@Base 2.2.1
 _ZN3WTF10PassRefPtrIN7WebCore22SVGListPropertyTearOffINS1_13SVGNumberListEEEEC1EPS4_@Base 2.2.1
 _ZN3WTF10PassRefPtrIN7WebCore22SVGListPropertyTearOffINS1_13SVGNumberListEEEEC1EPS4_b@Base 2.2.1
 _ZN3WTF10PassRefPtrIN7WebCore22SVGListPropertyTearOffINS1_13SVGNumberListEEEEC2EPS4_@Base 2.2.1
 _ZN3WTF10PassRefPtrIN7WebCore22SVGListPropertyTearOffINS1_13SVGNumberListEEEEC2EPS4_b@Base 2.2.1
 _ZN3WTF10PassRefPtrIN7WebCore22SVGListPropertyTearOffINS1_16SVGTransformListEEEEC1INS1_31SVGTransformListPropertyTearOffEEERKNS0_IT_EE@Base 2.2.1
 _ZN3WTF10PassRefPtrIN7WebCore22SVGListPropertyTearOffINS1_16SVGTransformListEEEEC2INS1_31SVGTransformListPropertyTearOffEEERKNS0_IT_EE@Base 2.2.1
 _ZN3WTF10PassRefPtrIN7WebCore22SVGMissingGlyphElementEEC1EPS2_@Base 2.2.1
 _ZN3WTF10PassRefPtrIN7WebCore22SVGMissingGlyphElementEEC2EPS2_@Base 2.2.1
 _ZN3WTF10PassRefPtrIN7WebCore23HTMLTableCaptionElementEEC1EPS2_@Base 2.2.1
 _ZN3WTF10PassRefPtrIN7WebCore23HTMLTableCaptionElementEEC2EPS2_@Base 2.2.1
 _ZN3WTF10PassRefPtrIN7WebCore23HTMLTableSectionElementEEC1EPS2_@Base 2.2.1
 _ZN3WTF10PassRefPtrIN7WebCore23HTMLTableSectionElementEEC2EPS2_@Base 2.2.1
 _ZN3WTF10PassRefPtrIN7WebCore23SVGFEColorMatrixElementEEC1EPS2_@Base 2.2.1
 _ZN3WTF10PassRefPtrIN7WebCore23SVGFEColorMatrixElementEEC2EPS2_@Base 2.2.1
 _ZN3WTF10PassRefPtrIN7WebCore23SVGForeignObjectElementEEC1EPS2_@Base 2.2.1
 _ZN3WTF10PassRefPtrIN7WebCore23SVGForeignObjectElementEEC2EPS2_@Base 2.2.1
 _ZN3WTF10PassRefPtrIN7WebCore23XMLHttpRequestExceptionEEC1EPS2_@Base 2.2.1
 _ZN3WTF10PassRefPtrIN7WebCore23XMLHttpRequestExceptionEEC2EPS2_@Base 2.2.1
 _ZN3WTF10PassRefPtrIN7WebCore24FrameNetworkingContextQtEEC1EPS2_b@Base 2.2.1
 _ZN3WTF10PassRefPtrIN7WebCore24FrameNetworkingContextQtEEC2EPS2_b@Base 2.2.1
 _ZN3WTF10PassRefPtrIN7WebCore24JSSQLTransactionCallbackEEC1EPS2_b@Base 2.2.1
 _ZN3WTF10PassRefPtrIN7WebCore24JSSQLTransactionCallbackEEC2EPS2_b@Base 2.2.1
 _ZN3WTF10PassRefPtrIN7WebCore24SVGFEDistantLightElementEEC1EPS2_@Base 2.2.1
 _ZN3WTF10PassRefPtrIN7WebCore24SVGFEDistantLightElementEEC2EPS2_@Base 2.2.1
 _ZN3WTF10PassRefPtrIN7WebCore24SVGFEGaussianBlurElementEEC1EPS2_@Base 2.2.1
 _ZN3WTF10PassRefPtrIN7WebCore24SVGFEGaussianBlurElementEEC2EPS2_@Base 2.2.1
 _ZN3WTF10PassRefPtrIN7WebCore24SVGFontFaceFormatElementEEC1EPS2_@Base 2.2.1
 _ZN3WTF10PassRefPtrIN7WebCore24SVGFontFaceFormatElementEEC2EPS2_@Base 2.2.1
 _ZN3WTF10PassRefPtrIN7WebCore24SVGLinearGradientElementEEC1EPS2_@Base 2.2.1
 _ZN3WTF10PassRefPtrIN7WebCore24SVGLinearGradientElementEEC2EPS2_@Base 2.2.1
 _ZN3WTF10PassRefPtrIN7WebCore24SVGRadialGradientElementEEC1EPS2_@Base 2.2.1
 _ZN3WTF10PassRefPtrIN7WebCore24SVGRadialGradientElementEEC2EPS2_@Base 2.2.1
 _ZN3WTF10PassRefPtrIN7WebCore24SVGStaticPropertyTearOffINS1_13SVGSVGElementENS1_10FloatPointEEEEC1EPS5_b@Base 2.2.1
 _ZN3WTF10PassRefPtrIN7WebCore24SVGStaticPropertyTearOffINS1_13SVGSVGElementENS1_10FloatPointEEEEC2EPS5_b@Base 2.2.1
 _ZN3WTF10PassRefPtrIN7WebCore25SVGTextPositioningElementEEC1INS1_14SVGTRefElementEEERKNS0_IT_EE@Base 2.2.1
 _ZN3WTF10PassRefPtrIN7WebCore25SVGTextPositioningElementEEC1INS1_14SVGTextElementEEERKNS0_IT_EE@Base 2.2.1
 _ZN3WTF10PassRefPtrIN7WebCore25SVGTextPositioningElementEEC1INS1_15SVGTSpanElementEEERKNS0_IT_EE@Base 2.2.1
 _ZN3WTF10PassRefPtrIN7WebCore25SVGTextPositioningElementEEC1INS1_18SVGAltGlyphElementEEERKNS0_IT_EE@Base 2.2.1
 _ZN3WTF10PassRefPtrIN7WebCore25SVGTextPositioningElementEEC2INS1_14SVGTRefElementEEERKNS0_IT_EE@Base 2.2.1
 _ZN3WTF10PassRefPtrIN7WebCore25SVGTextPositioningElementEEC2INS1_14SVGTextElementEEERKNS0_IT_EE@Base 2.2.1
 _ZN3WTF10PassRefPtrIN7WebCore25SVGTextPositioningElementEEC2INS1_15SVGTSpanElementEEERKNS0_IT_EE@Base 2.2.1
 _ZN3WTF10PassRefPtrIN7WebCore25SVGTextPositioningElementEEC2INS1_18SVGAltGlyphElementEEERKNS0_IT_EE@Base 2.2.1
 _ZN3WTF10PassRefPtrIN7WebCore26SQLTransactionSyncCallbackEEC1IS2_EERKNS_6RefPtrIT_EE@Base 2.2.1
 _ZN3WTF10PassRefPtrIN7WebCore26SQLTransactionSyncCallbackEEC2IS2_EERKNS_6RefPtrIT_EE@Base 2.2.1
 _ZN3WTF10PassRefPtrIN7WebCore26SVGAnimateTransformElementEEC1EPS2_@Base 2.2.1
 _ZN3WTF10PassRefPtrIN7WebCore26SVGAnimateTransformElementEEC2EPS2_@Base 2.2.1
 _ZN3WTF10PassRefPtrIN7WebCore26SVGAnimatedPropertyTearOffINS1_22SVGPreserveAspectRatioEEEEC1EPS4_@Base 2.2.1
 _ZN3WTF10PassRefPtrIN7WebCore26SVGAnimatedPropertyTearOffINS1_22SVGPreserveAspectRatioEEEEC2EPS4_@Base 2.2.1
 _ZN3WTF10PassRefPtrIN7WebCore26SVGAnimatedPropertyTearOffINS1_8SVGAngleEEEEC1EPS4_@Base 2.2.1
 _ZN3WTF10PassRefPtrIN7WebCore26SVGAnimatedPropertyTearOffINS1_8SVGAngleEEEEC2EPS4_@Base 2.2.1
 _ZN3WTF10PassRefPtrIN7WebCore26SVGAnimatedPropertyTearOffINS1_9FloatRectEEEEC1EPS4_@Base 2.2.1
 _ZN3WTF10PassRefPtrIN7WebCore26SVGAnimatedPropertyTearOffINS1_9FloatRectEEEEC2EPS4_@Base 2.2.1
 _ZN3WTF10PassRefPtrIN7WebCore26SVGAnimatedPropertyTearOffINS1_9SVGLengthEEEEC1EPS4_@Base 2.2.1
 _ZN3WTF10PassRefPtrIN7WebCore26SVGAnimatedPropertyTearOffINS1_9SVGLengthEEEEC2EPS4_@Base 2.2.1
 _ZN3WTF10PassRefPtrIN7WebCore26SVGFEConvolveMatrixElementEEC1EPS2_@Base 2.2.1
 _ZN3WTF10PassRefPtrIN7WebCore26SVGFEConvolveMatrixElementEEC2EPS2_@Base 2.2.1
 _ZN3WTF10PassRefPtrIN7WebCore27SQLTransactionErrorCallbackEEC1IS2_EERKNS_6RefPtrIT_EE@Base 2.2.1
 _ZN3WTF10PassRefPtrIN7WebCore27SQLTransactionErrorCallbackEEC2IS2_EERKNS_6RefPtrIT_EE@Base 2.2.1
 _ZN3WTF10PassRefPtrIN7WebCore27SVGFEDiffuseLightingElementEEC1EPS2_@Base 2.2.1
 _ZN3WTF10PassRefPtrIN7WebCore27SVGFEDiffuseLightingElementEEC2EPS2_@Base 2.2.1
 _ZN3WTF10PassRefPtrIN7WebCore27SVGFEDisplacementMapElementEEC1EPS2_@Base 2.2.1
 _ZN3WTF10PassRefPtrIN7WebCore27SVGFEDisplacementMapElementEEC2EPS2_@Base 2.2.1
 _ZN3WTF10PassRefPtrIN7WebCore28JSSQLTransactionSyncCallbackEEC1EPS2_b@Base 2.2.1
 _ZN3WTF10PassRefPtrIN7WebCore28JSSQLTransactionSyncCallbackEEC2EPS2_b@Base 2.2.1
 _ZN3WTF10PassRefPtrIN7WebCore28SVGFESpecularLightingElementEEC1EPS2_@Base 2.2.1
 _ZN3WTF10PassRefPtrIN7WebCore28SVGFESpecularLightingElementEEC2EPS2_@Base 2.2.1
 _ZN3WTF10PassRefPtrIN7WebCore28SVGStaticListPropertyTearOffINS1_13SVGStringListEEEEC1EPS4_@Base 2.2.1
 _ZN3WTF10PassRefPtrIN7WebCore28SVGStaticListPropertyTearOffINS1_13SVGStringListEEEEC1EPS4_b@Base 2.2.1
 _ZN3WTF10PassRefPtrIN7WebCore28SVGStaticListPropertyTearOffINS1_13SVGStringListEEEEC2EPS4_@Base 2.2.1
 _ZN3WTF10PassRefPtrIN7WebCore28SVGStaticListPropertyTearOffINS1_13SVGStringListEEEEC2EPS4_b@Base 2.2.1
 _ZN3WTF10PassRefPtrIN7WebCore29JSSQLTransactionErrorCallbackEEC1EPS2_b@Base 2.2.1
 _ZN3WTF10PassRefPtrIN7WebCore29JSSQLTransactionErrorCallbackEEC2EPS2_b@Base 2.2.1
 _ZN3WTF10PassRefPtrIN7WebCore29SVGFEComponentTransferElementEEC1EPS2_@Base 2.2.1
 _ZN3WTF10PassRefPtrIN7WebCore29SVGFEComponentTransferElementEEC2EPS2_@Base 2.2.1
 _ZN3WTF10PassRefPtrIN7WebCore29SVGPathSegListPropertyTearOffEEC1EPS2_@Base 2.2.1
 _ZN3WTF10PassRefPtrIN7WebCore29SVGPathSegListPropertyTearOffEEC2EPS2_@Base 2.2.1
 _ZN3WTF10PassRefPtrIN7WebCore30SVGAnimatedListPropertyTearOffINS1_13SVGLengthListEEEEC1EPS4_@Base 2.2.1
 _ZN3WTF10PassRefPtrIN7WebCore30SVGAnimatedListPropertyTearOffINS1_13SVGLengthListEEEEC2EPS4_@Base 2.2.1
 _ZN3WTF10PassRefPtrIN7WebCore30SVGAnimatedListPropertyTearOffINS1_13SVGNumberListEEEEC1EPS4_@Base 2.2.1
 _ZN3WTF10PassRefPtrIN7WebCore30SVGAnimatedListPropertyTearOffINS1_13SVGNumberListEEEEC2EPS4_@Base 2.2.1
 _ZN3WTF10PassRefPtrIN7WebCore31SVGTransformListPropertyTearOffEEC1EPS2_@Base 2.2.1
 _ZN3WTF10PassRefPtrIN7WebCore31SVGTransformListPropertyTearOffEEC1EPS2_b@Base 2.2.1
 _ZN3WTF10PassRefPtrIN7WebCore31SVGTransformListPropertyTearOffEEC2EPS2_@Base 2.2.1
 _ZN3WTF10PassRefPtrIN7WebCore31SVGTransformListPropertyTearOffEEC2EPS2_b@Base 2.2.1
 _ZN3WTF10PassRefPtrIN7WebCore32SVGAnimatedStaticPropertyTearOffINS_6StringEEEEC1EPS4_@Base 2.2.1
 _ZN3WTF10PassRefPtrIN7WebCore32SVGAnimatedStaticPropertyTearOffINS_6StringEEEEC2EPS4_@Base 2.2.1
 _ZN3WTF10PassRefPtrIN7WebCore32SVGAnimatedStaticPropertyTearOffIbEEEC1EPS3_@Base 2.2.1
 _ZN3WTF10PassRefPtrIN7WebCore32SVGAnimatedStaticPropertyTearOffIbEEEC2EPS3_@Base 2.2.1
 _ZN3WTF10PassRefPtrIN7WebCore32SVGAnimatedStaticPropertyTearOffIfEEEC1EPS3_@Base 2.2.1
 _ZN3WTF10PassRefPtrIN7WebCore32SVGAnimatedStaticPropertyTearOffIfEEEC2EPS3_@Base 2.2.1
 _ZN3WTF10PassRefPtrIN7WebCore32SVGAnimatedStaticPropertyTearOffIiEEEC1EPS3_@Base 2.2.1
 _ZN3WTF10PassRefPtrIN7WebCore32SVGAnimatedStaticPropertyTearOffIiEEEC2EPS3_@Base 2.2.1
 _ZN3WTF10PassRefPtrIN7WebCore32SVGAnimatedStaticPropertyTearOffIlEEEC1EPS3_@Base 2.2.1
 _ZN3WTF10PassRefPtrIN7WebCore32SVGAnimatedStaticPropertyTearOffIlEEEC2EPS3_@Base 2.2.1
 _ZN3WTF10PassRefPtrIN7WebCore34SVGStaticPropertyWithParentTearOffINS1_12SVGTransformENS1_9SVGMatrixEEEEC1EPS5_b@Base 2.2.1
 _ZN3WTF10PassRefPtrIN7WebCore34SVGStaticPropertyWithParentTearOffINS1_12SVGTransformENS1_9SVGMatrixEEEEC2EPS5_b@Base 2.2.1
 _ZN3WTF10PassRefPtrIN7WebCore35SVGComponentTransferFunctionElementEEC1INS1_17SVGFEFuncAElementEEERKNS0_IT_EE@Base 2.2.1
 _ZN3WTF10PassRefPtrIN7WebCore35SVGComponentTransferFunctionElementEEC1INS1_17SVGFEFuncBElementEEERKNS0_IT_EE@Base 2.2.1
 _ZN3WTF10PassRefPtrIN7WebCore35SVGComponentTransferFunctionElementEEC1INS1_17SVGFEFuncGElementEEERKNS0_IT_EE@Base 2.2.1
 _ZN3WTF10PassRefPtrIN7WebCore35SVGComponentTransferFunctionElementEEC1INS1_17SVGFEFuncRElementEEERKNS0_IT_EE@Base 2.2.1
 _ZN3WTF10PassRefPtrIN7WebCore35SVGComponentTransferFunctionElementEEC2INS1_17SVGFEFuncAElementEEERKNS0_IT_EE@Base 2.2.1
 _ZN3WTF10PassRefPtrIN7WebCore35SVGComponentTransferFunctionElementEEC2INS1_17SVGFEFuncBElementEEERKNS0_IT_EE@Base 2.2.1
 _ZN3WTF10PassRefPtrIN7WebCore35SVGComponentTransferFunctionElementEEC2INS1_17SVGFEFuncGElementEEERKNS0_IT_EE@Base 2.2.1
 _ZN3WTF10PassRefPtrIN7WebCore35SVGComponentTransferFunctionElementEEC2INS1_17SVGFEFuncRElementEEERKNS0_IT_EE@Base 2.2.1
 _ZN3WTF10PassRefPtrIN7WebCore39SVGAnimatedTransformListPropertyTearOffEEC1EPS2_@Base 2.2.1
 _ZN3WTF10PassRefPtrIN7WebCore39SVGAnimatedTransformListPropertyTearOffEEC2EPS2_@Base 2.2.1
 _ZN3WTF10PassRefPtrIN7WebCore4NodeEEC1INS1_6EntityEEERKNS0_IT_EE@Base 2.2.1
 _ZN3WTF10PassRefPtrIN7WebCore4NodeEEC1INS1_8DocumentEEERKNS0_IT_EE@Base 2.2.1
 _ZN3WTF10PassRefPtrIN7WebCore4NodeEEC1INS1_8NotationEEERKNS0_IT_EE@Base 2.2.1
 _ZN3WTF10PassRefPtrIN7WebCore4NodeEEC2INS1_6EntityEEERKNS0_IT_EE@Base 2.2.1
 _ZN3WTF10PassRefPtrIN7WebCore4NodeEEC2INS1_8DocumentEEERKNS0_IT_EE@Base 2.2.1
 _ZN3WTF10PassRefPtrIN7WebCore4NodeEEC2INS1_8NotationEEERKNS0_IT_EE@Base 2.2.1
 _ZN3WTF10PassRefPtrIN7WebCore4RectEEC1EPS2_@Base 2.2.1
 _ZN3WTF10PassRefPtrIN7WebCore4RectEEC2EPS2_@Base 2.2.1
 _ZN3WTF10PassRefPtrIN7WebCore5EventEEC1INS1_11CustomEventEEERKNS0_IT_EE@Base 2.2.1
 _ZN3WTF10PassRefPtrIN7WebCore5EventEEC1INS1_15BeforeLoadEventEEERKNS0_IT_EE@Base 2.2.1
 _ZN3WTF10PassRefPtrIN7WebCore5EventEEC1INS1_18BeforeProcessEventEEERKNS0_IT_EE@Base 2.2.1
 _ZN3WTF10PassRefPtrIN7WebCore5EventEEC2INS1_11CustomEventEEERKNS0_IT_EE@Base 2.2.1
 _ZN3WTF10PassRefPtrIN7WebCore5EventEEC2INS1_15BeforeLoadEventEEERKNS0_IT_EE@Base 2.2.1
 _ZN3WTF10PassRefPtrIN7WebCore5EventEEC2INS1_18BeforeProcessEventEEERKNS0_IT_EE@Base 2.2.1
 _ZN3WTF10PassRefPtrIN7WebCore6CryptoEEC1EPS2_@Base 2.2.1
 _ZN3WTF10PassRefPtrIN7WebCore6CryptoEEC2EPS2_@Base 2.2.1
 _ZN3WTF10PassRefPtrIN7WebCore6DOMURLEEC1EPS2_@Base 2.2.1
 _ZN3WTF10PassRefPtrIN7WebCore6DOMURLEEC2EPS2_@Base 2.2.1
 _ZN3WTF10PassRefPtrIN7WebCore6ScreenEEC1EPS2_@Base 2.2.1
 _ZN3WTF10PassRefPtrIN7WebCore6ScreenEEC2EPS2_@Base 2.2.1
 _ZN3WTF10PassRefPtrIN7WebCore6WidgetEEC1INS1_10PluginViewEEERKNS_6RefPtrIT_EE@Base 2.2.1
 _ZN3WTF10PassRefPtrIN7WebCore6WidgetEEC1INS1_14QtPluginWidgetEEERKNS_6RefPtrIT_EE@Base 2.2.1
 _ZN3WTF10PassRefPtrIN7WebCore6WidgetEEC1INS1_22QtPluginGraphicsWidgetEEERKNS_6RefPtrIT_EE@Base 2.2.1
 _ZN3WTF10PassRefPtrIN7WebCore6WidgetEEC2INS1_10PluginViewEEERKNS_6RefPtrIT_EE@Base 2.2.1
 _ZN3WTF10PassRefPtrIN7WebCore6WidgetEEC2INS1_14QtPluginWidgetEEERKNS_6RefPtrIT_EE@Base 2.2.1
 _ZN3WTF10PassRefPtrIN7WebCore6WidgetEEC2INS1_22QtPluginGraphicsWidgetEEERKNS_6RefPtrIT_EE@Base 2.2.1
 _ZN3WTF10PassRefPtrIN7WebCore7BarInfoEEC1EPS2_@Base 2.2.1
 _ZN3WTF10PassRefPtrIN7WebCore7BarInfoEEC2EPS2_@Base 2.2.1
 _ZN3WTF10PassRefPtrIN7WebCore7CSSRuleEEC1INS1_11CSSPageRuleEEERKNS0_IT_EE@Base 2.2.1
 _ZN3WTF10PassRefPtrIN7WebCore7CSSRuleEEC1INS1_12CSSMediaRuleEEERKNS0_IT_EE@Base 2.2.1
 _ZN3WTF10PassRefPtrIN7WebCore7CSSRuleEEC1INS1_12CSSStyleRuleEEERKNS0_IT_EE@Base 2.2.1
 _ZN3WTF10PassRefPtrIN7WebCore7CSSRuleEEC1INS1_13CSSImportRuleEEERKNS0_IT_EE@Base 2.2.1
 _ZN3WTF10PassRefPtrIN7WebCore7CSSRuleEEC1INS1_14CSSCharsetRuleEEERKNS0_IT_EE@Base 2.2.1
 _ZN3WTF10PassRefPtrIN7WebCore7CSSRuleEEC1INS1_15CSSFontFaceRuleEEERKNS0_IT_EE@Base 2.2.1
 _ZN3WTF10PassRefPtrIN7WebCore7CSSRuleEEC1INS1_21WebKitCSSKeyframeRuleEEERKNS0_IT_EE@Base 2.2.1
 _ZN3WTF10PassRefPtrIN7WebCore7CSSRuleEEC1INS1_22WebKitCSSKeyframesRuleEEERKNS0_IT_EE@Base 2.2.1
 _ZN3WTF10PassRefPtrIN7WebCore7CSSRuleEEC2INS1_11CSSPageRuleEEERKNS0_IT_EE@Base 2.2.1
 _ZN3WTF10PassRefPtrIN7WebCore7CSSRuleEEC2INS1_12CSSMediaRuleEEERKNS0_IT_EE@Base 2.2.1
 _ZN3WTF10PassRefPtrIN7WebCore7CSSRuleEEC2INS1_12CSSStyleRuleEEERKNS0_IT_EE@Base 2.2.1
 _ZN3WTF10PassRefPtrIN7WebCore7CSSRuleEEC2INS1_13CSSImportRuleEEERKNS0_IT_EE@Base 2.2.1
 _ZN3WTF10PassRefPtrIN7WebCore7CSSRuleEEC2INS1_14CSSCharsetRuleEEERKNS0_IT_EE@Base 2.2.1
 _ZN3WTF10PassRefPtrIN7WebCore7CSSRuleEEC2INS1_15CSSFontFaceRuleEEERKNS0_IT_EE@Base 2.2.1
 _ZN3WTF10PassRefPtrIN7WebCore7CSSRuleEEC2INS1_21WebKitCSSKeyframeRuleEEERKNS0_IT_EE@Base 2.2.1
 _ZN3WTF10PassRefPtrIN7WebCore7CSSRuleEEC2INS1_22WebKitCSSKeyframesRuleEEERKNS0_IT_EE@Base 2.2.1
 _ZN3WTF10PassRefPtrIN7WebCore7ConsoleEEC1EPS2_@Base 2.2.1
 _ZN3WTF10PassRefPtrIN7WebCore7ConsoleEEC2EPS2_@Base 2.2.1
 _ZN3WTF10PassRefPtrIN7WebCore7CounterEEC1EPS2_@Base 2.2.1
 _ZN3WTF10PassRefPtrIN7WebCore7CounterEEC2EPS2_@Base 2.2.1
 _ZN3WTF10PassRefPtrIN7WebCore7ElementEEC1INS1_10SVGElementEEERKNS0_IT_EE@Base 2.2.1
 _ZN3WTF10PassRefPtrIN7WebCore7ElementEEC2INS1_10SVGElementEEERKNS0_IT_EE@Base 2.2.1
 _ZN3WTF10PassRefPtrIN7WebCore7StorageEEC1EPS2_@Base 2.2.1
 _ZN3WTF10PassRefPtrIN7WebCore7StorageEEC2EPS2_@Base 2.2.1
 _ZN3WTF10PassRefPtrIN7WebCore7UIEventEEC1INS1_10MouseEventEEERKNS0_IT_EE@Base 2.2.1
 _ZN3WTF10PassRefPtrIN7WebCore7UIEventEEC1INS1_10TouchEventEEERKNS0_IT_EE@Base 2.2.1
 _ZN3WTF10PassRefPtrIN7WebCore7UIEventEEC1INS1_10WheelEventEEERKNS0_IT_EE@Base 2.2.1
 _ZN3WTF10PassRefPtrIN7WebCore7UIEventEEC1INS1_12SVGZoomEventEEERKNS0_IT_EE@Base 2.2.1
 _ZN3WTF10PassRefPtrIN7WebCore7UIEventEEC1INS1_13KeyboardEventEEERKNS0_IT_EE@Base 2.2.1
 _ZN3WTF10PassRefPtrIN7WebCore7UIEventEEC1INS1_16CompositionEventEEERKNS0_IT_EE@Base 2.2.1
 _ZN3WTF10PassRefPtrIN7WebCore7UIEventEEC1INS1_9TextEventEEERKNS0_IT_EE@Base 2.2.1
 _ZN3WTF10PassRefPtrIN7WebCore7UIEventEEC2INS1_10MouseEventEEERKNS0_IT_EE@Base 2.2.1
 _ZN3WTF10PassRefPtrIN7WebCore7UIEventEEC2INS1_10TouchEventEEERKNS0_IT_EE@Base 2.2.1
 _ZN3WTF10PassRefPtrIN7WebCore7UIEventEEC2INS1_10WheelEventEEERKNS0_IT_EE@Base 2.2.1
 _ZN3WTF10PassRefPtrIN7WebCore7UIEventEEC2INS1_12SVGZoomEventEEERKNS0_IT_EE@Base 2.2.1
 _ZN3WTF10PassRefPtrIN7WebCore7UIEventEEC2INS1_13KeyboardEventEEERKNS0_IT_EE@Base 2.2.1
 _ZN3WTF10PassRefPtrIN7WebCore7UIEventEEC2INS1_16CompositionEventEEERKNS0_IT_EE@Base 2.2.1
 _ZN3WTF10PassRefPtrIN7WebCore7UIEventEEC2INS1_9TextEventEEERKNS0_IT_EE@Base 2.2.1
 _ZN3WTF10PassRefPtrIN7WebCore8FileListEEC1EPS2_@Base 2.2.1
 _ZN3WTF10PassRefPtrIN7WebCore8FileListEEC2EPS2_@Base 2.2.1
 _ZN3WTF10PassRefPtrIN7WebCore8SQLErrorEEC1EPS2_@Base 2.2.1
 _ZN3WTF10PassRefPtrIN7WebCore8SQLErrorEEC2EPS2_@Base 2.2.1
 _ZN3WTF10PassRefPtrIN7WebCore8SVGColorEEC1INS1_8SVGPaintEEERKNS0_IT_EE@Base 2.2.1
 _ZN3WTF10PassRefPtrIN7WebCore8SVGColorEEC2INS1_8SVGPaintEEERKNS0_IT_EE@Base 2.2.1
 _ZN3WTF10PassRefPtrIN7WebCore9DOMParserEEC1EPS2_@Base 2.2.1
 _ZN3WTF10PassRefPtrIN7WebCore9DOMParserEEC1EPS2_b@Base 2.2.1
 _ZN3WTF10PassRefPtrIN7WebCore9DOMParserEEC2EPS2_@Base 2.2.1
 _ZN3WTF10PassRefPtrIN7WebCore9DOMParserEEC2EPS2_b@Base 2.2.1
 _ZN3WTF10PassRefPtrIN7WebCore9FileErrorEEC1EPS2_@Base 2.2.1
 _ZN3WTF10PassRefPtrIN7WebCore9FileErrorEEC1IS2_EERKNS_6RefPtrIT_EE@Base 2.2.1
 _ZN3WTF10PassRefPtrIN7WebCore9FileErrorEEC2EPS2_@Base 2.2.1
 _ZN3WTF10PassRefPtrIN7WebCore9FileErrorEEC2IS2_EERKNS_6RefPtrIT_EE@Base 2.2.1
 _ZN3WTF10PassRefPtrIN7WebCore9InternalsEEC1EPS2_@Base 2.2.1
 _ZN3WTF10PassRefPtrIN7WebCore9InternalsEEC2EPS2_@Base 2.2.1
 _ZN3WTF10PassRefPtrIN7WebCore9NavigatorEEC1EPS2_@Base 2.2.1
 _ZN3WTF10PassRefPtrIN7WebCore9NavigatorEEC2EPS2_@Base 2.2.1
 _ZN3WTF10PassRefPtrIN7WebCore9PopupMenuEEC1INS1_11PopupMenuQtEEERKNS0_IT_EE@Base 2.2.1
 _ZN3WTF10PassRefPtrIN7WebCore9PopupMenuEEC2INS1_11PopupMenuQtEEERKNS0_IT_EE@Base 2.2.1
 _ZN3WTF10PassRefPtrIN7WebCore9StyleBaseEEC1EPS2_@Base 2.2.1
 _ZN3WTF10PassRefPtrIN7WebCore9StyleBaseEEC2EPS2_@Base 2.2.1
 _ZN3WTF10PassRefPtrIN7WebCore9TouchListEEC1EPS2_@Base 2.2.1
 _ZN3WTF10PassRefPtrIN7WebCore9TouchListEEC2EPS2_@Base 2.2.1
 _ZN3WTF10RefCountedIN3JSC11ProfileNodeEE5derefEv@Base 2.2.1
 _ZN3WTF10RefCountedIN3JSC11ProfileNodeEED1Ev@Base 2.2.1
 _ZN3WTF10RefCountedIN3JSC11ProfileNodeEED2Ev@Base 2.2.1
 _ZN3WTF10RefCountedIN3JSC11ProfileNodeEEdlEPv@Base 2.2.1
 _ZN3WTF10RefCountedIN7WebCore10FileReaderEEnwEj@Base 2.2.1
 _ZN3WTF10RefCountedIN7WebCore10TreeWalkerEE5derefEv@Base 2.2.1
 _ZN3WTF10RefCountedIN7WebCore12NodeIteratorEE5derefEv@Base 2.2.1
 _ZN3WTF10RefCountedIN7WebCore12SVGUnitTypesEE5derefEv@Base 2.2.1
 _ZN3WTF10RefCountedIN7WebCore12SVGUnitTypesEED1Ev@Base 2.2.1
 _ZN3WTF10RefCountedIN7WebCore12SVGUnitTypesEED2Ev@Base 2.2.1
 _ZN3WTF10RefCountedIN7WebCore12SVGUnitTypesEEdlEPv@Base 2.2.1
 _ZN3WTF10RefCountedIN7WebCore13DOMStringListEE5derefEv@Base 2.2.1
 _ZN3WTF10RefCountedIN7WebCore13DOMStringListEED1Ev@Base 2.2.1
 _ZN3WTF10RefCountedIN7WebCore13DOMStringListEED2Ev@Base 2.2.1
 _ZN3WTF10RefCountedIN7WebCore13DOMStringListEEdlEPv@Base 2.2.1
 _ZN3WTF10RefCountedIN7WebCore13XMLSerializerEE5derefEv@Base 2.2.1
 _ZN3WTF10RefCountedIN7WebCore13XMLSerializerEEC1Ev@Base 2.2.1
 _ZN3WTF10RefCountedIN7WebCore13XMLSerializerEEC2Ev@Base 2.2.1
 _ZN3WTF10RefCountedIN7WebCore13XMLSerializerEED1Ev@Base 2.2.1
 _ZN3WTF10RefCountedIN7WebCore13XMLSerializerEED2Ev@Base 2.2.1
 _ZN3WTF10RefCountedIN7WebCore13XMLSerializerEEdlEPv@Base 2.2.1
 _ZN3WTF10RefCountedIN7WebCore13XMLSerializerEEnwEj@Base 2.2.1
 _ZN3WTF10RefCountedIN7WebCore14ClientRectListEE5derefEv@Base 2.2.1
 _ZN3WTF10RefCountedIN7WebCore14FileReaderSyncEE5derefEv@Base 2.2.1
 _ZN3WTF10RefCountedIN7WebCore14FileReaderSyncEEnwEj@Base 2.2.1
 _ZN3WTF10RefCountedIN7WebCore14StringCallbackEE5derefEv@Base 2.2.1
 _ZN3WTF10RefCountedIN7WebCore14StringCallbackEEC1Ev@Base 2.2.1
 _ZN3WTF10RefCountedIN7WebCore14StringCallbackEEC2Ev@Base 2.2.1
 _ZN3WTF10RefCountedIN7WebCore14StringCallbackEED1Ev@Base 2.2.1
 _ZN3WTF10RefCountedIN7WebCore14StringCallbackEED2Ev@Base 2.2.1
 _ZN3WTF10RefCountedIN7WebCore14StringCallbackEEdlEPv@Base 2.2.1
 _ZN3WTF10RefCountedIN7WebCore17NetworkingContextEEC1Ev@Base 2.2.1
 _ZN3WTF10RefCountedIN7WebCore17NetworkingContextEEC2Ev@Base 2.2.1
 _ZN3WTF10RefCountedIN7WebCore17NetworkingContextEED1Ev@Base 2.2.1
 _ZN3WTF10RefCountedIN7WebCore17NetworkingContextEED2Ev@Base 2.2.1
 _ZN3WTF10RefCountedIN7WebCore17NetworkingContextEEdlEPv@Base 2.2.1
 _ZN3WTF10RefCountedIN7WebCore17NetworkingContextEEnwEj@Base 2.2.1
 _ZN3WTF10RefCountedIN7WebCore17WebKitBlobBuilderEE5derefEv@Base 2.2.1
 _ZN3WTF10RefCountedIN7WebCore17WebKitBlobBuilderEEdlEPv@Base 2.2.1
 _ZN3WTF10RefCountedIN7WebCore17WebKitBlobBuilderEEnwEj@Base 2.2.1
 _ZN3WTF10RefCountedIN7WebCore18SVGRenderingIntentEE5derefEv@Base 2.2.1
 _ZN3WTF10RefCountedIN7WebCore18SVGRenderingIntentEED1Ev@Base 2.2.1
 _ZN3WTF10RefCountedIN7WebCore18SVGRenderingIntentEED2Ev@Base 2.2.1
 _ZN3WTF10RefCountedIN7WebCore18SVGRenderingIntentEEdlEPv@Base 2.2.1
 _ZN3WTF10RefCountedIN7WebCore22MediaQueryListListenerEEC1Ev@Base 2.2.1
 _ZN3WTF10RefCountedIN7WebCore22MediaQueryListListenerEEC2Ev@Base 2.2.1
 _ZN3WTF10RefCountedIN7WebCore22MediaQueryListListenerEEnwEj@Base 2.2.1
 _ZN3WTF10RefCountedIN7WebCore22SVGElementInstanceListEE5derefEv@Base 2.2.1
 _ZN3WTF10RefCountedIN7WebCore26SQLTransactionSyncCallbackEEC1Ev@Base 2.2.1
 _ZN3WTF10RefCountedIN7WebCore26SQLTransactionSyncCallbackEEC2Ev@Base 2.2.1
 _ZN3WTF10RefCountedIN7WebCore26SQLTransactionSyncCallbackEED1Ev@Base 2.2.1
 _ZN3WTF10RefCountedIN7WebCore26SQLTransactionSyncCallbackEED2Ev@Base 2.2.1
 _ZN3WTF10RefCountedIN7WebCore26SQLTransactionSyncCallbackEEdlEPv@Base 2.2.1
 _ZN3WTF10RefCountedIN7WebCore26SQLTransactionSyncCallbackEEnwEj@Base 2.2.1
 _ZN3WTF10RefCountedIN7WebCore8RGBColorEE5derefEv@Base 2.2.1
 _ZN3WTF10RefCountedIN7WebCore8RGBColorEED1Ev@Base 2.2.1
 _ZN3WTF10RefCountedIN7WebCore8RGBColorEED2Ev@Base 2.2.1
 _ZN3WTF10RefCountedIN7WebCore9DOMParserEE5derefEv@Base 2.2.1
 _ZN3WTF10RefCountedIN7WebCore9DOMParserEEC1Ev@Base 2.2.1
 _ZN3WTF10RefCountedIN7WebCore9DOMParserEEC2Ev@Base 2.2.1
 _ZN3WTF10RefCountedIN7WebCore9DOMParserEED1Ev@Base 2.2.1
 _ZN3WTF10RefCountedIN7WebCore9DOMParserEED2Ev@Base 2.2.1
 _ZN3WTF10RefCountedIN7WebCore9DOMParserEEdlEPv@Base 2.2.1
 _ZN3WTF10RefCountedIN7WebCore9DOMParserEEnwEj@Base 2.2.1
 _ZN3WTF11VectorMoverILb0EN7WebCore10PluginInfoEE4moveEPKS2_S5_PS2_@Base 2.2.1
 _ZN3WTF11VectorMoverILb0EN7WebCore12SVGTransformEE15moveOverlappingEPKS2_S5_PS2_@Base 2.2.1
 _ZN3WTF11VectorMoverILb0EN7WebCore9SVGLengthEE15moveOverlappingEPKS2_S5_PS2_@Base 2.2.1
 _ZN3WTF11VectorMoverILb1ENS_6OwnPtrIN7WebCore13MediaQueryExpEEEE4moveEPKS4_S7_PS4_@Base 2.2.1
 _ZN3WTF11VectorMoverILb1ENS_6RefPtrIN7WebCore18SVGPropertyTearOffINS2_12SVGTransformEEEEEE15moveOverlappingEPKS6_S9_PS6_@Base 2.2.1
 _ZN3WTF11VectorMoverILb1ENS_6RefPtrIN7WebCore18SVGPropertyTearOffINS2_9SVGLengthEEEEEE15moveOverlappingEPKS6_S9_PS6_@Base 2.2.1
 _ZN3WTF11VectorMoverILb1ENS_6RefPtrIN7WebCore18SVGPropertyTearOffIfEEEEE15moveOverlappingEPKS5_S8_PS5_@Base 2.2.1
 _ZN3WTF11VectorMoverILb1EfE15moveOverlappingEPKfS3_Pf@Base 2.2.1
 _ZN3WTF11addIteratorINS_6StringESt4pairIS1_MN7WebCore26InspectorBackendDispatcherEFvlPNS3_15InspectorObjectEEENS_18PairFirstExtractorIS9_EENS_10StringHashENS_14PairHashTraitsINS_10HashTraitsIS1_EENSE_IS8_EEEESF_EEvPKNS_9HashTableIT_T0_T1_T2_T3_T4_EEPNS_22HashTableConstIteratorISJ_SK_SL_SM_SN_SO_EE@Base 2.2.1
 _ZN3WTF11addIteratorIPNS_16AtomicStringImplESt4pairIS2_PFNS_10PassRefPtrIN7WebCore10SVGElementEEERKNS5_13QualifiedNameEPNS5_8DocumentEbEENS_18PairFirstExtractorISF_EENS_7PtrHashIS2_EENS_14PairHashTraitsINS_10HashTraitsIS2_EENSL_ISE_EEEESM_EEvPKNS_9HashTableIT_T0_T1_T2_T3_T4_EEPNS_22HashTableConstIteratorISQ_SR_SS_ST_SU_SV_EE@Base 2.2.1
 _ZN3WTF11addIteratorIPNS_16AtomicStringImplESt4pairIS2_PFNS_10PassRefPtrIN7WebCore11HTMLElementEEERKNS5_13QualifiedNameEPNS5_8DocumentEPNS5_15HTMLFormElementEbEENS_18PairFirstExtractorISH_EENS_7PtrHashIS2_EENS_14PairHashTraitsINS_10HashTraitsIS2_EENSN_ISG_EEEESO_EEvPKNS_9HashTableIT_T0_T1_T2_T3_T4_EEPNS_22HashTableConstIteratorISS_ST_SU_SV_SW_SX_EE@Base 2.2.1
 _ZN3WTF11addIteratorIPNS_16AtomicStringImplESt4pairIS2_PFPN7WebCore12JSDOMWrapperEPN3JSC9ExecStateEPNS4_17JSDOMGlobalObjectENS_10PassRefPtrINS4_10SVGElementEEEEENS_18PairFirstExtractorISH_EENS_7PtrHashIS2_EENS_14PairHashTraitsINS_10HashTraitsIS2_EENSN_ISG_EEEESO_EEvPKNS_9HashTableIT_T0_T1_T2_T3_T4_EEPNS_22HashTableConstIteratorISS_ST_SU_SV_SW_SX_EE@Base 2.2.1
 _ZN3WTF11addIteratorIPNS_16AtomicStringImplESt4pairIS2_PFPN7WebCore12JSDOMWrapperEPN3JSC9ExecStateEPNS4_17JSDOMGlobalObjectENS_10PassRefPtrINS4_11HTMLElementEEEEENS_18PairFirstExtractorISH_EENS_7PtrHashIS2_EENS_14PairHashTraitsINS_10HashTraitsIS2_EENSN_ISG_EEEESO_EEvPKNS_9HashTableIT_T0_T1_T2_T3_T4_EEPNS_22HashTableConstIteratorISS_ST_SU_SV_SW_SX_EE@Base 2.2.1
 _ZN3WTF11addIteratorIiSt4pairIiPKcENS_18PairFirstExtractorIS4_EENS_7IntHashIjEENS_14PairHashTraitsINS_10HashTraitsIiEENSA_IS3_EEEESB_EEvPKNS_9HashTableIT_T0_T1_T2_T3_T4_EEPNS_22HashTableConstIteratorISF_SG_SH_SI_SJ_SK_EE@Base 2.2.1
 _ZN3WTF12VectorBufferIN7WebCore13MimeClassInfoELj0EEC1Ej@Base 2.2.1
 _ZN3WTF12VectorBufferIN7WebCore13MimeClassInfoELj0EEC2Ej@Base 2.2.1
 _ZN3WTF12VectorBufferINS_6RefPtrIN3JSC11ProfileNodeEEELj0EED1Ev@Base 2.2.1
 _ZN3WTF12VectorBufferINS_6RefPtrIN3JSC11ProfileNodeEEELj0EED2Ev@Base 2.2.1
 _ZN3WTF12VectorBufferINS_6RefPtrIN7WebCore11HistoryItemEEELj0EEC1Ej@Base 2.2.1
 _ZN3WTF12VectorBufferINS_6RefPtrIN7WebCore11HistoryItemEEELj0EEC2Ej@Base 2.2.1
 _ZN3WTF12VectorCopierILb0EN7WebCore13MimeClassInfoEE17uninitializedCopyEPKS2_S5_PS2_@Base 2.2.1
 _ZN3WTF12refIfNotNullIN3JSC11ProfileNodeEEEvPT_@Base 2.2.1
 _ZN3WTF12refIfNotNullIN7WebCore10FileReaderEEEvPT_@Base 2.2.1
 _ZN3WTF12refIfNotNullIN7WebCore10TimeRangesEEEvPT_@Base 2.2.1
 _ZN3WTF12refIfNotNullIN7WebCore11CoordinatesEEEvPT_@Base 2.2.1
 _ZN3WTF12refIfNotNullIN7WebCore11DOMFormDataEEEvPT_@Base 2.2.1
 _ZN3WTF12refIfNotNullIN7WebCore11SVGAElementEEEvPT_@Base 2.2.1
 _ZN3WTF12refIfNotNullIN7WebCore11SVGGElementEEEvPT_@Base 2.2.1
 _ZN3WTF12refIfNotNullIN7WebCore11SVGPropertyEEEvPT_@Base 2.2.1
 _ZN3WTF12refIfNotNullIN7WebCore11TextMetricsEEEvPT_@Base 2.2.1
 _ZN3WTF12refIfNotNullIN7WebCore12DOMStringMapEEEvPT_@Base 2.2.1
 _ZN3WTF12refIfNotNullIN7WebCore12DOMTokenListEEEvPT_@Base 2.2.1
 _ZN3WTF12refIfNotNullIN7WebCore12NotificationEEEvPT_@Base 2.2.1
 _ZN3WTF12refIfNotNullIN7WebCore12SQLExceptionEEEvPT_@Base 2.2.1
 _ZN3WTF12refIfNotNullIN7WebCore12SVGExceptionEEEvPT_@Base 2.2.1
 _ZN3WTF12refIfNotNullIN7WebCore12SVGUnitTypesEEEvPT_@Base 2.2.1
 _ZN3WTF12refIfNotNullIN7WebCore13DOMStringListEEEvPT_@Base 2.2.1
 _ZN3WTF12refIfNotNullIN7WebCore13FileExceptionEEEvPT_@Base 2.2.1
 _ZN3WTF12refIfNotNullIN7WebCore13HTMLBRElementEEEvPT_@Base 2.2.1
 _ZN3WTF12refIfNotNullIN7WebCore13HTMLHRElementEEEvPT_@Base 2.2.1
 _ZN3WTF12refIfNotNullIN7WebCore13HTMLLIElementEEEvPT_@Base 2.2.1
 _ZN3WTF12refIfNotNullIN7WebCore13SVGSetElementEEEvPT_@Base 2.2.1
 _ZN3WTF12refIfNotNullIN7WebCore13SVGUseElementEEEvPT_@Base 2.2.1
 _ZN3WTF12refIfNotNullIN7WebCore13ValidityStateEEEvPT_@Base 2.2.1
 _ZN3WTF12refIfNotNullIN7WebCore13XMLSerializerEEEvPT_@Base 2.2.1
 _ZN3WTF12refIfNotNullIN7WebCore14EventExceptionEEEvPT_@Base 2.2.1
 _ZN3WTF12refIfNotNullIN7WebCore14FileReaderSyncEEEvPT_@Base 2.2.1
 _ZN3WTF12refIfNotNullIN7WebCore14HTMLDivElementEEEvPT_@Base 2.2.1
 _ZN3WTF12refIfNotNullIN7WebCore14HTMLModElementEEEvPT_@Base 2.2.1
 _ZN3WTF12refIfNotNullIN7WebCore14HTMLPreElementEEEvPT_@Base 2.2.1
 _ZN3WTF12refIfNotNullIN7WebCore14MessageChannelEEEvPT_@Base 2.2.1
 _ZN3WTF12refIfNotNullIN7WebCore14RangeExceptionEEEvPT_@Base 2.2.1
 _ZN3WTF12refIfNotNullIN7WebCore14SVGDefsElementEEEvPT_@Base 2.2.1
 _ZN3WTF12refIfNotNullIN7WebCore14SVGDescElementEEEvPT_@Base 2.2.1
 _ZN3WTF12refIfNotNullIN7WebCore14SVGLineElementEEEvPT_@Base 2.2.1
 _ZN3WTF12refIfNotNullIN7WebCore14SVGMaskElementEEEvPT_@Base 2.2.1
 _ZN3WTF12refIfNotNullIN7WebCore14SVGRectElementEEEvPT_@Base 2.2.1
 _ZN3WTF12refIfNotNullIN7WebCore14SVGStopElementEEEvPT_@Base 2.2.1
 _ZN3WTF12refIfNotNullIN7WebCore14SVGTRefElementEEEvPT_@Base 2.2.1
 _ZN3WTF12refIfNotNullIN7WebCore14SVGTextElementEEEvPT_@Base 2.2.1
 _ZN3WTF12refIfNotNullIN7WebCore14StyleSheetListEEEvPT_@Base 2.2.1
 _ZN3WTF12refIfNotNullIN7WebCore14WorkerLocationEEEvPT_@Base 2.2.1
 _ZN3WTF12refIfNotNullIN7WebCore14XPathEvaluatorEEEvPT_@Base 2.2.1
 _ZN3WTF12refIfNotNullIN7WebCore14XPathExceptionEEEvPT_@Base 2.2.1
 _ZN3WTF12refIfNotNullIN7WebCore15HTMLBaseElementEEEvPT_@Base 2.2.1
 _ZN3WTF12refIfNotNullIN7WebCore15HTMLBodyElementEEEvPT_@Base 2.2.1
 _ZN3WTF12refIfNotNullIN7WebCore15HTMLFontElementEEEvPT_@Base 2.2.1
 _ZN3WTF12refIfNotNullIN7WebCore15HTMLHeadElementEEEvPT_@Base 2.2.1
 _ZN3WTF12refIfNotNullIN7WebCore15HTMLHtmlElementEEEvPT_@Base 2.2.1
 _ZN3WTF12refIfNotNullIN7WebCore15HTMLLinkElementEEEvPT_@Base 2.2.1
 _ZN3WTF12refIfNotNullIN7WebCore15HTMLMenuElementEEEvPT_@Base 2.2.1
 _ZN3WTF12refIfNotNullIN7WebCore15HTMLMetaElementEEEvPT_@Base 2.2.1
 _ZN3WTF12refIfNotNullIN7WebCore15JSEventListenerEEEvPT_@Base 2.2.1
 _ZN3WTF12refIfNotNullIN7WebCore15SVGGlyphElementEEEvPT_@Base 2.2.1
 _ZN3WTF12refIfNotNullIN7WebCore15SVGImageElementEEEvPT_@Base 2.2.1
 _ZN3WTF12refIfNotNullIN7WebCore15SVGStyleElementEEEvPT_@Base 2.2.1
 _ZN3WTF12refIfNotNullIN7WebCore15SVGTSpanElementEEEvPT_@Base 2.2.1
 _ZN3WTF12refIfNotNullIN7WebCore15SVGTitleElementEEEvPT_@Base 2.2.1
 _ZN3WTF12refIfNotNullIN7WebCore15SVGVKernElementEEEvPT_@Base 2.2.1
 _ZN3WTF12refIfNotNullIN7WebCore15WorkerNavigatorEEEvPT_@Base 2.2.1
 _ZN3WTF12refIfNotNullIN7WebCore16DOMCoreExceptionEEEvPT_@Base 2.2.1
 _ZN3WTF12refIfNotNullIN7WebCore16DatabaseCallbackEEEvPT_@Base 2.2.1
 _ZN3WTF12refIfNotNullIN7WebCore16HTMLAudioElementEEEvPT_@Base 2.2.1
 _ZN3WTF12refIfNotNullIN7WebCore16HTMLDListElementEEEvPT_@Base 2.2.1
 _ZN3WTF12refIfNotNullIN7WebCore16HTMLEmbedElementEEEvPT_@Base 2.2.1
 _ZN3WTF12refIfNotNullIN7WebCore16HTMLFrameElementEEEvPT_@Base 2.2.1
 _ZN3WTF12refIfNotNullIN7WebCore16HTMLImageElementEEEvPT_@Base 2.2.1
 _ZN3WTF12refIfNotNullIN7WebCore16HTMLLabelElementEEEvPT_@Base 2.2.1
 _ZN3WTF12refIfNotNullIN7WebCore16HTMLOListElementEEEvPT_@Base 2.2.1
 _ZN3WTF12refIfNotNullIN7WebCore16HTMLParamElementEEEvPT_@Base 2.2.1
 _ZN3WTF12refIfNotNullIN7WebCore16HTMLQuoteElementEEEvPT_@Base 2.2.1
 _ZN3WTF12refIfNotNullIN7WebCore16HTMLStyleElementEEEvPT_@Base 2.2.1
 _ZN3WTF12refIfNotNullIN7WebCore16HTMLTitleElementEEEvPT_@Base 2.2.1
 _ZN3WTF12refIfNotNullIN7WebCore16HTMLUListElementEEEvPT_@Base 2.2.1
 _ZN3WTF12refIfNotNullIN7WebCore16HTMLVideoElementEEEvPT_@Base 2.2.1
 _ZN3WTF12refIfNotNullIN7WebCore16JSStringCallbackEEEvPT_@Base 2.2.1
 _ZN3WTF12refIfNotNullIN7WebCore16SVGCircleElementEEEvPT_@Base 2.2.1
 _ZN3WTF12refIfNotNullIN7WebCore16SVGCursorElementEEEvPT_@Base 2.2.1
 _ZN3WTF12refIfNotNullIN7WebCore16SVGFETileElementEEEvPT_@Base 2.2.1
 _ZN3WTF12refIfNotNullIN7WebCore16SVGFilterElementEEEvPT_@Base 2.2.1
 _ZN3WTF12refIfNotNullIN7WebCore16SVGMarkerElementEEEvPT_@Base 2.2.1
 _ZN3WTF12refIfNotNullIN7WebCore16SVGScriptElementEEEvPT_@Base 2.2.1
 _ZN3WTF12refIfNotNullIN7WebCore16SVGSwitchElementEEEvPT_@Base 2.2.1
 _ZN3WTF12refIfNotNullIN7WebCore16SVGSymbolElementEEEvPT_@Base 2.2.1
 _ZN3WTF12refIfNotNullIN7WebCore17DOMImplementationEEEvPT_@Base 2.2.1
 _ZN3WTF12refIfNotNullIN7WebCore17HTMLAnchorElementEEEvPT_@Base 2.2.1
 _ZN3WTF12refIfNotNullIN7WebCore17HTMLAppletElementEEEvPT_@Base 2.2.1
 _ZN3WTF12refIfNotNullIN7WebCore17HTMLButtonElementEEEvPT_@Base 2.2.1
 _ZN3WTF12refIfNotNullIN7WebCore17HTMLIFrameElementEEEvPT_@Base 2.2.1
 _ZN3WTF12refIfNotNullIN7WebCore17HTMLKeygenElementEEEvPT_@Base 2.2.1
 _ZN3WTF12refIfNotNullIN7WebCore17HTMLLegendElementEEEvPT_@Base 2.2.1
 _ZN3WTF12refIfNotNullIN7WebCore17HTMLObjectElementEEEvPT_@Base 2.2.1
 _ZN3WTF12refIfNotNullIN7WebCore17HTMLOutputElementEEEvPT_@Base 2.2.1
 _ZN3WTF12refIfNotNullIN7WebCore17HTMLScriptElementEEEvPT_@Base 2.2.1
 _ZN3WTF12refIfNotNullIN7WebCore17HTMLSourceElementEEEvPT_@Base 2.2.1
 _ZN3WTF12refIfNotNullIN7WebCore17SVGAnimateElementEEEvPT_@Base 2.2.1
 _ZN3WTF12refIfNotNullIN7WebCore17SVGEllipseElementEEEvPT_@Base 2.2.1
 _ZN3WTF12refIfNotNullIN7WebCore17SVGFEBlendElementEEEvPT_@Base 2.2.1
 _ZN3WTF12refIfNotNullIN7WebCore17SVGFEFloodElementEEEvPT_@Base 2.2.1
 _ZN3WTF12refIfNotNullIN7WebCore17SVGFEFuncAElementEEEvPT_@Base 2.2.1
 _ZN3WTF12refIfNotNullIN7WebCore17SVGFEFuncBElementEEEvPT_@Base 2.2.1
 _ZN3WTF12refIfNotNullIN7WebCore17SVGFEFuncGElementEEEvPT_@Base 2.2.1
 _ZN3WTF12refIfNotNullIN7WebCore17SVGFEFuncRElementEEEvPT_@Base 2.2.1
 _ZN3WTF12refIfNotNullIN7WebCore17SVGFEImageElementEEEvPT_@Base 2.2.1
 _ZN3WTF12refIfNotNullIN7WebCore17SVGFEMergeElementEEEvPT_@Base 2.2.1
 _ZN3WTF12refIfNotNullIN7WebCore17SVGPatternElementEEEvPT_@Base 2.2.1
 _ZN3WTF12refIfNotNullIN7WebCore17SVGPolygonElementEEEvPT_@Base 2.2.1
 _ZN3WTF12refIfNotNullIN7WebCore17WebKitBlobBuilderEEEvPT_@Base 2.2.1
 _ZN3WTF12refIfNotNullIN7WebCore18HTMLHeadingElementEEEvPT_@Base 2.2.1
 _ZN3WTF12refIfNotNullIN7WebCore18HTMLIsIndexElementEEEvPT_@Base 2.2.1
 _ZN3WTF12refIfNotNullIN7WebCore18HTMLMarqueeElementEEEvPT_@Base 2.2.1
 _ZN3WTF12refIfNotNullIN7WebCore18InjectedScriptHostEEEvPT_@Base 2.2.1
 _ZN3WTF12refIfNotNullIN7WebCore18JSDatabaseCallbackEEEvPT_@Base 2.2.1
 _ZN3WTF12refIfNotNullIN7WebCore18SQLTransactionSyncEEEvPT_@Base 2.2.1
 _ZN3WTF12refIfNotNullIN7WebCore18SVGAltGlyphElementEEEvPT_@Base 2.2.1
 _ZN3WTF12refIfNotNullIN7WebCore18SVGClipPathElementEEEvPT_@Base 2.2.1
 _ZN3WTF12refIfNotNullIN7WebCore18SVGFEOffsetElementEEEvPT_@Base 2.2.1
 _ZN3WTF12refIfNotNullIN7WebCore18SVGMetadataElementEEEvPT_@Base 2.2.1
 _ZN3WTF12refIfNotNullIN7WebCore18SVGPolylineElementEEEvPT_@Base 2.2.1
 _ZN3WTF12refIfNotNullIN7WebCore18SVGPropertyTearOffINS1_22SVGPreserveAspectRatioEEEEEvPT_@Base 2.2.1
 _ZN3WTF12refIfNotNullIN7WebCore18SVGPropertyTearOffINS1_8SVGAngleEEEEEvPT_@Base 2.2.1
 _ZN3WTF12refIfNotNullIN7WebCore18SVGPropertyTearOffINS1_9FloatRectEEEEEvPT_@Base 2.2.1
 _ZN3WTF12refIfNotNullIN7WebCore18SVGPropertyTearOffINS1_9SVGMatrixEEEEEvPT_@Base 2.2.1
 _ZN3WTF12refIfNotNullIN7WebCore18SVGRenderingIntentEEEvPT_@Base 2.2.1
 _ZN3WTF12refIfNotNullIN7WebCore18SVGTextPathElementEEEvPT_@Base 2.2.1
 _ZN3WTF12refIfNotNullIN7WebCore19HTMLBaseFontElementEEEvPT_@Base 2.2.1
 _ZN3WTF12refIfNotNullIN7WebCore19HTMLDataListElementEEEvPT_@Base 2.2.1
 _ZN3WTF12refIfNotNullIN7WebCore19HTMLFieldSetElementEEEvPT_@Base 2.2.1
 _ZN3WTF12refIfNotNullIN7WebCore19HTMLOptGroupElementEEEvPT_@Base 2.2.1
 _ZN3WTF12refIfNotNullIN7WebCore19HTMLTableColElementEEEvPT_@Base 2.2.1
 _ZN3WTF12refIfNotNullIN7WebCore19HTMLTableRowElementEEEvPT_@Base 2.2.1
 _ZN3WTF12refIfNotNullIN7WebCore19HTMLTextAreaElementEEEvPT_@Base 2.2.1
 _ZN3WTF12refIfNotNullIN7WebCore19SQLResultSetRowListEEEvPT_@Base 2.2.1
 _ZN3WTF12refIfNotNullIN7WebCore20DOMSettableTokenListEEEvPT_@Base 2.2.1
 _ZN3WTF12refIfNotNullIN7WebCore20HTMLDirectoryElementEEEvPT_@Base 2.2.1
 _ZN3WTF12refIfNotNullIN7WebCore20HTMLParagraphElementEEEvPT_@Base 2.2.1
 _ZN3WTF12refIfNotNullIN7WebCore20XMLHttpRequestUploadEEEvPT_@Base 2.2.1
 _ZN3WTF12refIfNotNullIN7WebCore21HTMLBlockquoteElementEEEvPT_@Base 2.2.1
 _ZN3WTF12refIfNotNullIN7WebCore21InspectorFrontendHostEEEvPT_@Base 2.2.1
 _ZN3WTF12refIfNotNullIN7WebCore21SVGFECompositeElementEEEvPT_@Base 2.2.1
 _ZN3WTF12refIfNotNullIN7WebCore21SVGFEMergeNodeElementEEEvPT_@Base 2.2.1
 _ZN3WTF12refIfNotNullIN7WebCore21SVGFESpotLightElementEEEvPT_@Base 2.2.1
 _ZN3WTF12refIfNotNullIN7WebCore21SVGFontFaceSrcElementEEEvPT_@Base 2.2.1
 _ZN3WTF12refIfNotNullIN7WebCore21SVGFontFaceUriElementEEEvPT_@Base 2.2.1
 _ZN3WTF12refIfNotNullIN7WebCore22JSSQLStatementCallbackEEEvPT_@Base 2.2.1
 _ZN3WTF12refIfNotNullIN7WebCore22MediaQueryListListenerEEEvPT_@Base 2.2.1
 _ZN3WTF12refIfNotNullIN7WebCore22SVGAnimateColorElementEEEvPT_@Base 2.2.1
 _ZN3WTF12refIfNotNullIN7WebCore22SVGElementInstanceListEEEvPT_@Base 2.2.1
 _ZN3WTF12refIfNotNullIN7WebCore22SVGFEDropShadowElementEEEvPT_@Base 2.2.1
 _ZN3WTF12refIfNotNullIN7WebCore22SVGFEMorphologyElementEEEvPT_@Base 2.2.1
 _ZN3WTF12refIfNotNullIN7WebCore22SVGFEPointLightElementEEEvPT_@Base 2.2.1
 _ZN3WTF12refIfNotNullIN7WebCore22SVGFETurbulenceElementEEEvPT_@Base 2.2.1
 _ZN3WTF12refIfNotNullIN7WebCore22SVGFontFaceNameElementEEEvPT_@Base 2.2.1
 _ZN3WTF12refIfNotNullIN7WebCore22SVGListPropertyTearOffINS1_13SVGLengthListEEEEEvPT_@Base 2.2.1
 _ZN3WTF12refIfNotNullIN7WebCore22SVGListPropertyTearOffINS1_13SVGNumberListEEEEEvPT_@Base 2.2.1
 _ZN3WTF12refIfNotNullIN7WebCore22SVGListPropertyTearOffINS1_16SVGTransformListEEEEEvPT_@Base 2.2.1
 _ZN3WTF12refIfNotNullIN7WebCore22SVGMissingGlyphElementEEEvPT_@Base 2.2.1
 _ZN3WTF12refIfNotNullIN7WebCore23SVGFEColorMatrixElementEEEvPT_@Base 2.2.1
 _ZN3WTF12refIfNotNullIN7WebCore23SVGForeignObjectElementEEEvPT_@Base 2.2.1
 _ZN3WTF12refIfNotNullIN7WebCore23XMLHttpRequestExceptionEEEvPT_@Base 2.2.1
 _ZN3WTF12refIfNotNullIN7WebCore24JSSQLTransactionCallbackEEEvPT_@Base 2.2.1
 _ZN3WTF12refIfNotNullIN7WebCore24SVGFEDistantLightElementEEEvPT_@Base 2.2.1
 _ZN3WTF12refIfNotNullIN7WebCore24SVGFEGaussianBlurElementEEEvPT_@Base 2.2.1
 _ZN3WTF12refIfNotNullIN7WebCore24SVGFontFaceFormatElementEEEvPT_@Base 2.2.1
 _ZN3WTF12refIfNotNullIN7WebCore24SVGLinearGradientElementEEEvPT_@Base 2.2.1
 _ZN3WTF12refIfNotNullIN7WebCore24SVGRadialGradientElementEEEvPT_@Base 2.2.1
 _ZN3WTF12refIfNotNullIN7WebCore26SVGAnimateTransformElementEEEvPT_@Base 2.2.1
 _ZN3WTF12refIfNotNullIN7WebCore26SVGFEConvolveMatrixElementEEEvPT_@Base 2.2.1
 _ZN3WTF12refIfNotNullIN7WebCore27SVGFEDiffuseLightingElementEEEvPT_@Base 2.2.1
 _ZN3WTF12refIfNotNullIN7WebCore27SVGFEDisplacementMapElementEEEvPT_@Base 2.2.1
 _ZN3WTF12refIfNotNullIN7WebCore28JSSQLTransactionSyncCallbackEEEvPT_@Base 2.2.1
 _ZN3WTF12refIfNotNullIN7WebCore28SVGFESpecularLightingElementEEEvPT_@Base 2.2.1
 _ZN3WTF12refIfNotNullIN7WebCore28SVGStaticListPropertyTearOffINS1_13SVGStringListEEEEEvPT_@Base 2.2.1
 _ZN3WTF12refIfNotNullIN7WebCore29JSSQLTransactionErrorCallbackEEEvPT_@Base 2.2.1
 _ZN3WTF12refIfNotNullIN7WebCore29SVGFEComponentTransferElementEEEvPT_@Base 2.2.1
 _ZN3WTF12refIfNotNullIN7WebCore30SVGAnimatedListPropertyTearOffINS1_16SVGTransformListEEEEEvPT_@Base 2.2.1
 _ZN3WTF12refIfNotNullIN7WebCore31SVGTransformListPropertyTearOffEEEvPT_@Base 2.2.1
 _ZN3WTF12refIfNotNullIN7WebCore6DOMURLEEEvPT_@Base 2.2.1
 _ZN3WTF12refIfNotNullIN7WebCore7CounterEEEvPT_@Base 2.2.1
 _ZN3WTF12refIfNotNullIN7WebCore8FileListEEEvPT_@Base 2.2.1
 _ZN3WTF12refIfNotNullIN7WebCore9DOMParserEEEvPT_@Base 2.2.1
 _ZN3WTF12refIfNotNullIN7WebCore9FileErrorEEEvPT_@Base 2.2.1
 _ZN3WTF12refIfNotNullIN7WebCore9InternalsEEEvPT_@Base 2.2.1
 _ZN3WTF13hashTableSwapINS_6StringEMN7WebCore26InspectorBackendDispatcherEFvlPNS2_15InspectorObjectEEEEvRSt4pairIT_T0_ESC_@Base 2.2.1
 _ZN3WTF14PairHashTraitsINS_10HashTraitsINS_6StringEEENS1_IMN7WebCore26InspectorBackendDispatcherEFvlPNS4_15InspectorObjectEEEEE10emptyValueEv@Base 2.2.1
 _ZN3WTF14PairHashTraitsINS_10HashTraitsIPNS_16AtomicStringImplEEENS1_IPFNS_10PassRefPtrIN7WebCore10SVGElementEEERKNS6_13QualifiedNameEPNS6_8DocumentEbEEEE10emptyValueEv@Base 2.2.1
 _ZN3WTF14PairHashTraitsINS_10HashTraitsIPNS_16AtomicStringImplEEENS1_IPFNS_10PassRefPtrIN7WebCore11HTMLElementEEERKNS6_13QualifiedNameEPNS6_8DocumentEPNS6_15HTMLFormElementEbEEEE10emptyValueEv@Base 2.2.1
 _ZN3WTF14PairHashTraitsINS_10HashTraitsIPNS_16AtomicStringImplEEENS1_IPFPN7WebCore12JSDOMWrapperEPN3JSC9ExecStateEPNS5_17JSDOMGlobalObjectENS_10PassRefPtrINS5_10SVGElementEEEEEEE10emptyValueEv@Base 2.2.1
 _ZN3WTF14PairHashTraitsINS_10HashTraitsIPNS_16AtomicStringImplEEENS1_IPFPN7WebCore12JSDOMWrapperEPN3JSC9ExecStateEPNS5_17JSDOMGlobalObjectENS_10PassRefPtrINS5_11HTMLElementEEEEEEE10emptyValueEv@Base 2.2.1
 _ZN3WTF14PairHashTraitsINS_10HashTraitsIiEENS1_IPKcEEE10emptyValueEv@Base 2.2.1
 _ZN3WTF14deleteOwnedPtrI14QWebPageClientEEvPT_@Base 2.2.1
 _ZN3WTF14deleteOwnedPtrI15QSystemTrayIconEEvPT_@Base 2.2.1
 _ZN3WTF14deleteOwnedPtrI25QWebNotificationPresenterEEvPT_@Base 2.2.1
 _ZN3WTF14deleteOwnedPtrI8QWebViewEEvPT_@Base 2.2.1
 _ZN3WTF14deleteOwnedPtrINS_6VectorINS_6OwnPtrIN7WebCore17CSSParserSelectorEEELj0EEEEEvPT_@Base 2.2.1
 _ZN3WTF14derefIfNotNullIN7WebCore10FileReaderEEEvPT_@Base 2.2.1
 _ZN3WTF14derefIfNotNullIN7WebCore10TreeWalkerEEEvPT_@Base 2.2.1
 _ZN3WTF14derefIfNotNullIN7WebCore11PopupMenuQtEEEvPT_@Base 2.2.1
 _ZN3WTF14derefIfNotNullIN7WebCore11SVGAElementEEEvPT_@Base 2.2.1
 _ZN3WTF14derefIfNotNullIN7WebCore11SVGGElementEEEvPT_@Base 2.2.1
 _ZN3WTF14derefIfNotNullIN7WebCore12DOMStringMapEEEvPT_@Base 2.2.1
 _ZN3WTF14derefIfNotNullIN7WebCore12DOMTokenListEEEvPT_@Base 2.2.1
 _ZN3WTF14derefIfNotNullIN7WebCore12NodeIteratorEEEvPT_@Base 2.2.1
 _ZN3WTF14derefIfNotNullIN7WebCore12NotificationEEEvPT_@Base 2.2.1
 _ZN3WTF14derefIfNotNullIN7WebCore12SVGUnitTypesEEEvPT_@Base 2.2.1
 _ZN3WTF14derefIfNotNullIN7WebCore13DOMStringListEEEvPT_@Base 2.2.1
 _ZN3WTF14derefIfNotNullIN7WebCore13SVGSetElementEEEvPT_@Base 2.2.1
 _ZN3WTF14derefIfNotNullIN7WebCore13SVGUseElementEEEvPT_@Base 2.2.1
 _ZN3WTF14derefIfNotNullIN7WebCore13ValidityStateEEEvPT_@Base 2.2.1
 _ZN3WTF14derefIfNotNullIN7WebCore13XMLSerializerEEEvPT_@Base 2.2.1
 _ZN3WTF14derefIfNotNullIN7WebCore14AbstractWorkerEEEvPT_@Base 2.2.1
 _ZN3WTF14derefIfNotNullIN7WebCore14ClientRectListEEEvPT_@Base 2.2.1
 _ZN3WTF14derefIfNotNullIN7WebCore14FileReaderSyncEEEvPT_@Base 2.2.1
 _ZN3WTF14derefIfNotNullIN7WebCore14HTMLModElementEEEvPT_@Base 2.2.1
 _ZN3WTF14derefIfNotNullIN7WebCore14HTMLPreElementEEEvPT_@Base 2.2.1
 _ZN3WTF14derefIfNotNullIN7WebCore14QtPluginWidgetEEEvPT_@Base 2.2.1
 _ZN3WTF14derefIfNotNullIN7WebCore14SVGDefsElementEEEvPT_@Base 2.2.1
 _ZN3WTF14derefIfNotNullIN7WebCore14SVGDescElementEEEvPT_@Base 2.2.1
 _ZN3WTF14derefIfNotNullIN7WebCore14SVGLineElementEEEvPT_@Base 2.2.1
 _ZN3WTF14derefIfNotNullIN7WebCore14SVGMaskElementEEEvPT_@Base 2.2.1
 _ZN3WTF14derefIfNotNullIN7WebCore14SVGRectElementEEEvPT_@Base 2.2.1
 _ZN3WTF14derefIfNotNullIN7WebCore14SVGStopElementEEEvPT_@Base 2.2.1
 _ZN3WTF14derefIfNotNullIN7WebCore14SVGTRefElementEEEvPT_@Base 2.2.1
 _ZN3WTF14derefIfNotNullIN7WebCore14SVGTextElementEEEvPT_@Base 2.2.1
 _ZN3WTF14derefIfNotNullIN7WebCore15ArrayBufferViewEEEvPT_@Base 2.2.1
 _ZN3WTF14derefIfNotNullIN7WebCore15HTMLFontElementEEEvPT_@Base 2.2.1
 _ZN3WTF14derefIfNotNullIN7WebCore15HTMLHeadElementEEEvPT_@Base 2.2.1
 _ZN3WTF14derefIfNotNullIN7WebCore15HTMLLinkElementEEEvPT_@Base 2.2.1
 _ZN3WTF14derefIfNotNullIN7WebCore15HTMLMenuElementEEEvPT_@Base 2.2.1
 _ZN3WTF14derefIfNotNullIN7WebCore15HTMLMetaElementEEEvPT_@Base 2.2.1
 _ZN3WTF14derefIfNotNullIN7WebCore15SVGGlyphElementEEEvPT_@Base 2.2.1
 _ZN3WTF14derefIfNotNullIN7WebCore15SVGHKernElementEEEvPT_@Base 2.2.1
 _ZN3WTF14derefIfNotNullIN7WebCore15SVGImageElementEEEvPT_@Base 2.2.1
 _ZN3WTF14derefIfNotNullIN7WebCore15SVGMPathElementEEEvPT_@Base 2.2.1
 _ZN3WTF14derefIfNotNullIN7WebCore15SVGStyleElementEEEvPT_@Base 2.2.1
 _ZN3WTF14derefIfNotNullIN7WebCore15SVGTSpanElementEEEvPT_@Base 2.2.1
 _ZN3WTF14derefIfNotNullIN7WebCore15SVGTitleElementEEEvPT_@Base 2.2.1
 _ZN3WTF14derefIfNotNullIN7WebCore15SVGVKernElementEEEvPT_@Base 2.2.1
 _ZN3WTF14derefIfNotNullIN7WebCore16HTMLDListElementEEEvPT_@Base 2.2.1
 _ZN3WTF14derefIfNotNullIN7WebCore16HTMLEmbedElementEEEvPT_@Base 2.2.1
 _ZN3WTF14derefIfNotNullIN7WebCore16HTMLFrameElementEEEvPT_@Base 2.2.1
 _ZN3WTF14derefIfNotNullIN7WebCore16HTMLLabelElementEEEvPT_@Base 2.2.1
 _ZN3WTF14derefIfNotNullIN7WebCore16HTMLMediaElementEEEvPT_@Base 2.2.1
 _ZN3WTF14derefIfNotNullIN7WebCore16HTMLParamElementEEEvPT_@Base 2.2.1
 _ZN3WTF14derefIfNotNullIN7WebCore16HTMLQuoteElementEEEvPT_@Base 2.2.1
 _ZN3WTF14derefIfNotNullIN7WebCore16HTMLStyleElementEEEvPT_@Base 2.2.1
 _ZN3WTF14derefIfNotNullIN7WebCore16HTMLTitleElementEEEvPT_@Base 2.2.1
 _ZN3WTF14derefIfNotNullIN7WebCore16HTMLVideoElementEEEvPT_@Base 2.2.1
 _ZN3WTF14derefIfNotNullIN7WebCore16JSStringCallbackEEEvPT_@Base 2.2.1
 _ZN3WTF14derefIfNotNullIN7WebCore16SVGCircleElementEEEvPT_@Base 2.2.1
 _ZN3WTF14derefIfNotNullIN7WebCore16SVGCursorElementEEEvPT_@Base 2.2.1
 _ZN3WTF14derefIfNotNullIN7WebCore16SVGFETileElementEEEvPT_@Base 2.2.1
 _ZN3WTF14derefIfNotNullIN7WebCore16SVGFilterElementEEEvPT_@Base 2.2.1
 _ZN3WTF14derefIfNotNullIN7WebCore16SVGMarkerElementEEEvPT_@Base 2.2.1
 _ZN3WTF14derefIfNotNullIN7WebCore16SVGSwitchElementEEEvPT_@Base 2.2.1
 _ZN3WTF14derefIfNotNullIN7WebCore16SVGSymbolElementEEEvPT_@Base 2.2.1
 _ZN3WTF14derefIfNotNullIN7WebCore17DOMImplementationEEEvPT_@Base 2.2.1
 _ZN3WTF14derefIfNotNullIN7WebCore17HTMLAppletElementEEEvPT_@Base 2.2.1
 _ZN3WTF14derefIfNotNullIN7WebCore17HTMLButtonElementEEEvPT_@Base 2.2.1
 _ZN3WTF14derefIfNotNullIN7WebCore17HTMLIFrameElementEEEvPT_@Base 2.2.1
 _ZN3WTF14derefIfNotNullIN7WebCore17HTMLKeygenElementEEEvPT_@Base 2.2.1
 _ZN3WTF14derefIfNotNullIN7WebCore17HTMLLegendElementEEEvPT_@Base 2.2.1
 _ZN3WTF14derefIfNotNullIN7WebCore17HTMLObjectElementEEEvPT_@Base 2.2.1
 _ZN3WTF14derefIfNotNullIN7WebCore17HTMLOutputElementEEEvPT_@Base 2.2.1
 _ZN3WTF14derefIfNotNullIN7WebCore17HTMLSourceElementEEEvPT_@Base 2.2.1
 _ZN3WTF14derefIfNotNullIN7WebCore17SVGAnimateElementEEEvPT_@Base 2.2.1
 _ZN3WTF14derefIfNotNullIN7WebCore17SVGEllipseElementEEEvPT_@Base 2.2.1
 _ZN3WTF14derefIfNotNullIN7WebCore17SVGFEBlendElementEEEvPT_@Base 2.2.1
 _ZN3WTF14derefIfNotNullIN7WebCore17SVGFEFloodElementEEEvPT_@Base 2.2.1
 _ZN3WTF14derefIfNotNullIN7WebCore17SVGFEFuncAElementEEEvPT_@Base 2.2.1
 _ZN3WTF14derefIfNotNullIN7WebCore17SVGFEFuncBElementEEEvPT_@Base 2.2.1
 _ZN3WTF14derefIfNotNullIN7WebCore17SVGFEFuncGElementEEEvPT_@Base 2.2.1
 _ZN3WTF14derefIfNotNullIN7WebCore17SVGFEFuncRElementEEEvPT_@Base 2.2.1
 _ZN3WTF14derefIfNotNullIN7WebCore17SVGFEImageElementEEEvPT_@Base 2.2.1
 _ZN3WTF14derefIfNotNullIN7WebCore17SVGFEMergeElementEEEvPT_@Base 2.2.1
 _ZN3WTF14derefIfNotNullIN7WebCore17SVGPatternElementEEEvPT_@Base 2.2.1
 _ZN3WTF14derefIfNotNullIN7WebCore17SVGPolygonElementEEEvPT_@Base 2.2.1
 _ZN3WTF14derefIfNotNullIN7WebCore17SearchPopupMenuQtEEEvPT_@Base 2.2.1
 _ZN3WTF14derefIfNotNullIN7WebCore17WebKitBlobBuilderEEEvPT_@Base 2.2.1
 _ZN3WTF14derefIfNotNullIN7WebCore18HTMLHeadingElementEEEvPT_@Base 2.2.1
 _ZN3WTF14derefIfNotNullIN7WebCore18HTMLIsIndexElementEEEvPT_@Base 2.2.1
 _ZN3WTF14derefIfNotNullIN7WebCore18HTMLMarqueeElementEEEvPT_@Base 2.2.1
 _ZN3WTF14derefIfNotNullIN7WebCore18JSDatabaseCallbackEEEvPT_@Base 2.2.1
 _ZN3WTF14derefIfNotNullIN7WebCore18SVGAltGlyphElementEEEvPT_@Base 2.2.1
 _ZN3WTF14derefIfNotNullIN7WebCore18SVGClipPathElementEEEvPT_@Base 2.2.1
 _ZN3WTF14derefIfNotNullIN7WebCore18SVGFEOffsetElementEEEvPT_@Base 2.2.1
 _ZN3WTF14derefIfNotNullIN7WebCore18SVGGradientElementEEEvPT_@Base 2.2.1
 _ZN3WTF14derefIfNotNullIN7WebCore18SVGMetadataElementEEEvPT_@Base 2.2.1
 _ZN3WTF14derefIfNotNullIN7WebCore18SVGPolylineElementEEEvPT_@Base 2.2.1
 _ZN3WTF14derefIfNotNullIN7WebCore18SVGPropertyTearOffINS1_22SVGPreserveAspectRatioEEEEEvPT_@Base 2.2.1
 _ZN3WTF14derefIfNotNullIN7WebCore18SVGPropertyTearOffINS1_8SVGAngleEEEEEvPT_@Base 2.2.1
 _ZN3WTF14derefIfNotNullIN7WebCore18SVGPropertyTearOffINS1_9FloatRectEEEEEvPT_@Base 2.2.1
 _ZN3WTF14derefIfNotNullIN7WebCore18SVGPropertyTearOffINS1_9SVGMatrixEEEEEvPT_@Base 2.2.1
 _ZN3WTF14derefIfNotNullIN7WebCore18SVGRenderingIntentEEEvPT_@Base 2.2.1
 _ZN3WTF14derefIfNotNullIN7WebCore18SVGTextPathElementEEEvPT_@Base 2.2.1
 _ZN3WTF14derefIfNotNullIN7WebCore19HTMLBaseFontElementEEEvPT_@Base 2.2.1
 _ZN3WTF14derefIfNotNullIN7WebCore19HTMLDataListElementEEEvPT_@Base 2.2.1
 _ZN3WTF14derefIfNotNullIN7WebCore19HTMLFieldSetElementEEEvPT_@Base 2.2.1
 _ZN3WTF14derefIfNotNullIN7WebCore19HTMLOptGroupElementEEEvPT_@Base 2.2.1
 _ZN3WTF14derefIfNotNullIN7WebCore19HTMLTableColElementEEEvPT_@Base 2.2.1
 _ZN3WTF14derefIfNotNullIN7WebCore19HTMLTextAreaElementEEEvPT_@Base 2.2.1
 _ZN3WTF14derefIfNotNullIN7WebCore19SVGAnimationElementEEEvPT_@Base 2.2.1
 _ZN3WTF14derefIfNotNullIN7WebCore20HTMLDirectoryElementEEEvPT_@Base 2.2.1
 _ZN3WTF14derefIfNotNullIN7WebCore20HTMLParagraphElementEEEvPT_@Base 2.2.1
 _ZN3WTF14derefIfNotNullIN7WebCore20XMLHttpRequestUploadEEEvPT_@Base 2.2.1
 _ZN3WTF14derefIfNotNullIN7WebCore21HTMLBlockquoteElementEEEvPT_@Base 2.2.1
 _ZN3WTF14derefIfNotNullIN7WebCore21SVGFECompositeElementEEEvPT_@Base 2.2.1
 _ZN3WTF14derefIfNotNullIN7WebCore21SVGFEMergeNodeElementEEEvPT_@Base 2.2.1
 _ZN3WTF14derefIfNotNullIN7WebCore21SVGFESpotLightElementEEEvPT_@Base 2.2.1
 _ZN3WTF14derefIfNotNullIN7WebCore21SVGFontFaceSrcElementEEEvPT_@Base 2.2.1
 _ZN3WTF14derefIfNotNullIN7WebCore21SVGFontFaceUriElementEEEvPT_@Base 2.2.1
 _ZN3WTF14derefIfNotNullIN7WebCore21SVGTextContentElementEEEvPT_@Base 2.2.1
 _ZN3WTF14derefIfNotNullIN7WebCore22CanvasRenderingContextEEEvPT_@Base 2.2.1
 _ZN3WTF14derefIfNotNullIN7WebCore22QtPluginGraphicsWidgetEEEvPT_@Base 2.2.1
 _ZN3WTF14derefIfNotNullIN7WebCore22SVGAnimateColorElementEEEvPT_@Base 2.2.1
 _ZN3WTF14derefIfNotNullIN7WebCore22SVGElementInstanceListEEEvPT_@Base 2.2.1
 _ZN3WTF14derefIfNotNullIN7WebCore22SVGFEDropShadowElementEEEvPT_@Base 2.2.1
