libqca.so.2 libqca2 #MINVER#
* Build-Depends-Package: libqca2-dev
 _Z10qcaVersionv@Base 2.0.2
 _Z13qvariant_castI5QListIN3QCA13KeyStoreEntryEEET_RK8QVariant@Base 2.0.3-2
 _Z15qca_secure_freePv@Base 2.0.2
 _Z16qVariantSetValueIN3QCA11CertificateEEvR8QVariantRKT_@Base 2.0.3-2
 _Z16qVariantSetValueIN3QCA3CRLEEvR8QVariantRKT_@Base 2.0.3-2
 _Z16qVariantSetValueIN3QCA6PGPKeyEEvR8QVariantRKT_@Base 2.0.3-2
 _Z16qVariantSetValueIN3QCA9KeyBundleEEvR8QVariantRKT_@Base 2.0.3-2
 _Z16qca_secure_alloci@Base 2.0.2
 _Z17qRegisterMetaTypeIN3QCA11SecureArrayEEiPKcPT_@Base 2.0.3-2
 _Z18qca_secure_reallocPvi@Base 2.0.2
 _Z21qMetaTypeDeleteHelperI5QListIN3QCA13KeyStoreEntry4TypeEEEvPT_@Base 2.0.3-2
 _Z21qMetaTypeDeleteHelperI5QListIN3QCA13KeyStoreEntryEEEvPT_@Base 2.0.3-2
 _Z21qMetaTypeDeleteHelperIN3QCA11CertificateEEvPT_@Base 2.0.3-2
 _Z21qMetaTypeDeleteHelperIN3QCA11SecureArrayEEvPT_@Base 2.0.3-2
 _Z21qMetaTypeDeleteHelperIN3QCA13KeyStoreEntryEEvPT_@Base 2.0.3-2
 _Z21qMetaTypeDeleteHelperIN3QCA3CRLEEvPT_@Base 2.0.3-2
 _Z21qMetaTypeDeleteHelperIN3QCA5EventEEvPT_@Base 2.0.3-2
 _Z21qMetaTypeDeleteHelperIN3QCA6PGPKeyEEvPT_@Base 2.0.3-2
 _Z21qMetaTypeDeleteHelperIN3QCA9KeyBundleEEvPT_@Base 2.0.3-2
 _Z24qMetaTypeConstructHelperI5QListIN3QCA13KeyStoreEntry4TypeEEEPvPKT_@Base 2.0.3-2
 _Z24qMetaTypeConstructHelperI5QListIN3QCA13KeyStoreEntryEEEPvPKT_@Base 2.0.3-2
 _Z24qMetaTypeConstructHelperIN3QCA11CertificateEEPvPKT_@Base 2.0.3-2
 _Z24qMetaTypeConstructHelperIN3QCA11SecureArrayEEPvPKT_@Base 2.0.3-2
 _Z24qMetaTypeConstructHelperIN3QCA13KeyStoreEntryEEPvPKT_@Base 2.0.3-2
 _Z24qMetaTypeConstructHelperIN3QCA3CRLEEPvPKT_@Base 2.0.3-2
 _Z24qMetaTypeConstructHelperIN3QCA5EventEEPvPKT_@Base 2.0.3-2
 _Z24qMetaTypeConstructHelperIN3QCA6PGPKeyEEPvPKT_@Base 2.0.3-2
 _Z24qMetaTypeConstructHelperIN3QCA9KeyBundleEEPvPKT_@Base 2.0.3-2
 _ZN10QByteArrayD1Ev@Base 2.0.3-2
 _ZN10QByteArrayD2Ev@Base 2.0.3-2
 _ZN10QMultiHashIiPN3QCA8KeyStoreEED1Ev@Base 2.0.3-2
 _ZN10QMultiHashIiPN3QCA8KeyStoreEED2Ev@Base 2.0.3-2
 _ZN11QStringListD1Ev@Base 2.0.3-2
 _ZN11QStringListD2Ev@Base 2.0.3-2
 _ZN12QMutexLockerD1Ev@Base 2.0.3-2
 _ZN12QMutexLockerD2Ev@Base 2.0.3-2
 _ZN17QForeachContainerI11QStringListEC1ERKS0_@Base 2.0.3-2
 _ZN17QForeachContainerI11QStringListEC2ERKS0_@Base 2.0.3-2
 _ZN17QForeachContainerI5QListI7QStringEEC1ERKS2_@Base 2.0.3-2
 _ZN17QForeachContainerI5QListI7QStringEEC2ERKS2_@Base 2.0.3-2
 _ZN18QSharedDataPointerIN3QCA10BigInteger7PrivateEE13detach_helperEv@Base 2.0.3-2
 _ZN18QSharedDataPointerIN3QCA10BigInteger7PrivateEED1Ev@Base 2.0.3-2
 _ZN18QSharedDataPointerIN3QCA10BigInteger7PrivateEED2Ev@Base 2.0.3-2
 _ZN18QSharedDataPointerIN3QCA11Certificate7PrivateEE13detach_helperEv@Base 2.0.3-2
 _ZN18QSharedDataPointerIN3QCA11Certificate7PrivateEED1Ev@Base 2.0.3-2
 _ZN18QSharedDataPointerIN3QCA11Certificate7PrivateEED2Ev@Base 2.0.3-2
 _ZN18QSharedDataPointerIN3QCA12KeyStoreInfo7PrivateEE13detach_helperEv@Base 2.0.3-2
 _ZN18QSharedDataPointerIN3QCA12KeyStoreInfo7PrivateEED1Ev@Base 2.0.3-2
 _ZN18QSharedDataPointerIN3QCA12KeyStoreInfo7PrivateEED2Ev@Base 2.0.3-2
 _ZN18QSharedDataPointerIN3QCA12MemoryRegion7PrivateEE13detach_helperEv@Base 2.0.3-2
 _ZN18QSharedDataPointerIN3QCA14ConstraintType7PrivateEE13detach_helperEv@Base 2.0.3-2
 _ZN18QSharedDataPointerIN3QCA14ConstraintType7PrivateEED1Ev@Base 2.0.3-2
 _ZN18QSharedDataPointerIN3QCA14ConstraintType7PrivateEED2Ev@Base 2.0.3-2
 _ZN18QSharedDataPointerIN3QCA18CertificateRequest7PrivateEE13detach_helperEv@Base 2.0.3-2
 _ZN18QSharedDataPointerIN3QCA18CertificateRequest7PrivateEED1Ev@Base 2.0.3-2
 _ZN18QSharedDataPointerIN3QCA18CertificateRequest7PrivateEED2Ev@Base 2.0.3-2
 _ZN18QSharedDataPointerIN3QCA19CertificateInfoPair7PrivateEE13detach_helperEv@Base 2.0.3-2
 _ZN18QSharedDataPointerIN3QCA19CertificateInfoPair7PrivateEED1Ev@Base 2.0.3-2
 _ZN18QSharedDataPointerIN3QCA19CertificateInfoPair7PrivateEED2Ev@Base 2.0.3-2
 _ZN18QSharedDataPointerIN3QCA19CertificateInfoType7PrivateEE13detach_helperEv@Base 2.0.3-2
 _ZN18QSharedDataPointerIN3QCA19CertificateInfoType7PrivateEED1Ev@Base 2.0.3-2
 _ZN18QSharedDataPointerIN3QCA19CertificateInfoType7PrivateEED2Ev@Base 2.0.3-2
 _ZN18QSharedDataPointerIN3QCA21CertificateCollection7PrivateEE13detach_helperEv@Base 2.0.3-2
 _ZN18QSharedDataPointerIN3QCA22SecureMessageSignature7PrivateEE13detach_helperEv@Base 2.0.3-2
 _ZN18QSharedDataPointerIN3QCA3CRL7PrivateEE13detach_helperEv@Base 2.0.3-2
 _ZN18QSharedDataPointerIN3QCA5Event7PrivateEE6detachEv@Base 2.0.3-2
 _ZN18QSharedDataPointerIN3QCA5Event7PrivateEEaSEPS2_@Base 2.0.3-2
 _ZN18QSharedDataPointerIN3QCA9Algorithm7PrivateEE13detach_helperEv@Base 2.0.3-2
 _ZN18QSharedDataPointerIN3QCA9Algorithm7PrivateEED1Ev@Base 2.0.3-2
 _ZN18QSharedDataPointerIN3QCA9Algorithm7PrivateEED2Ev@Base 2.0.3-2
 _ZN18QSharedDataPointerIN3QCA9KeyBundle7PrivateEE5cloneEv@Base 2.0.3-2
 _ZN18QSharedDataPointerIN3QCA9KeyBundle7PrivateEED1Ev@Base 2.0.3-2
 _ZN18QSharedDataPointerIN3QCA9KeyBundle7PrivateEED2Ev@Base 2.0.3-2
 _ZN20QGlobalStaticDeleterI6QMutexED1Ev@Base 2.0.3-2
 _ZN20QGlobalStaticDeleterI6QMutexED2Ev@Base 2.0.3-2
 _ZN3QCA10BigInteger10fromStringERK7QString@Base 2.0.2
 _ZN3QCA10BigInteger9fromArrayERKNS_11SecureArrayE@Base 2.0.2
 _ZN3QCA10BigIntegerC1EPKc@Base 2.0.2
 _ZN3QCA10BigIntegerC1ERK7QString@Base 2.0.2
 _ZN3QCA10BigIntegerC1ERKNS_11SecureArrayE@Base 2.0.2
 _ZN3QCA10BigIntegerC1ERKS0_@Base 2.0.2
 _ZN3QCA10BigIntegerC1Ei@Base 2.0.2
 _ZN3QCA10BigIntegerC1Ev@Base 2.0.2
 _ZN3QCA10BigIntegerC2EPKc@Base 2.0.2
 _ZN3QCA10BigIntegerC2ERK7QString@Base 2.0.2
 _ZN3QCA10BigIntegerC2ERKNS_11SecureArrayE@Base 2.0.2
 _ZN3QCA10BigIntegerC2ERKS0_@Base 2.0.2
 _ZN3QCA10BigIntegerC2Ei@Base 2.0.2
 _ZN3QCA10BigIntegerC2Ev@Base 2.0.2
 _ZN3QCA10BigIntegerD1Ev@Base 2.0.2
 _ZN3QCA10BigIntegerD2Ev@Base 2.0.2
 _ZN3QCA10BigIntegeraSERK7QString@Base 2.0.2
 _ZN3QCA10BigIntegeraSERKS0_@Base 2.0.2
 _ZN3QCA10BigIntegerdVERKS0_@Base 2.0.2
 _ZN3QCA10BigIntegermIERKS0_@Base 2.0.2
 _ZN3QCA10BigIntegermLERKS0_@Base 2.0.2
 _ZN3QCA10BigIntegerpLERKS0_@Base 2.0.2
 _ZN3QCA10BigIntegerrMERKS0_@Base 2.0.2
 _ZN3QCA10CRLContext11qt_metacallEN11QMetaObject4CallEiPPv@Base 2.0.2
 _ZN3QCA10CRLContext11qt_metacastEPKc@Base 2.0.2
 _ZN3QCA10CRLContext16staticMetaObjectE@Base 2.0.2
 _ZN3QCA10CRLContextD0Ev@Base 2.0.3-2
 _ZN3QCA10CRLContextD1Ev@Base 2.0.3-2
 _ZN3QCA10CRLContextD2Ev@Base 2.0.3-2
 _ZN3QCA10CSRContext11qt_metacallEN11QMetaObject4CallEiPPv@Base 2.0.2
 _ZN3QCA10CSRContext11qt_metacastEPKc@Base 2.0.2
 _ZN3QCA10CSRContext16staticMetaObjectE@Base 2.0.2
 _ZN3QCA10CSRContextD0Ev@Base 2.0.3-2
 _ZN3QCA10CSRContextD1Ev@Base 2.0.3-2
 _ZN3QCA10CSRContextD2Ev@Base 2.0.3-2
 _ZN3QCA10DSAContext11qt_metacallEN11QMetaObject4CallEiPPv@Base 2.0.2
 _ZN3QCA10DSAContext11qt_metacastEPKc@Base 2.0.2
 _ZN3QCA10DSAContext16staticMetaObjectE@Base 2.0.2
 _ZN3QCA10DSAContextD0Ev@Base 2.0.3-2
 _ZN3QCA10DSAContextD1Ev@Base 2.0.3-2
 _ZN3QCA10DSAContextD2Ev@Base 2.0.3-2
 _ZN3QCA10KDFContext11qt_metacallEN11QMetaObject4CallEiPPv@Base 2.0.2
 _ZN3QCA10KDFContext11qt_metacastEPKc@Base 2.0.2
 _ZN3QCA10KDFContext16staticMetaObjectE@Base 2.0.2
 _ZN3QCA10KDFContextD0Ev@Base 2.0.3-2
 _ZN3QCA10KDFContextD1Ev@Base 2.0.3-2
 _ZN3QCA10KDFContextD2Ev@Base 2.0.3-2
 _ZN3QCA10MACContext11qt_metacallEN11QMetaObject4CallEiPPv@Base 2.0.2
 _ZN3QCA10MACContext11qt_metacastEPKc@Base 2.0.2
 _ZN3QCA10MACContext16staticMetaObjectE@Base 2.0.2
 _ZN3QCA10MACContextD0Ev@Base 2.0.3-2
 _ZN3QCA10MACContextD1Ev@Base 2.0.3-2
 _ZN3QCA10MACContextD2Ev@Base 2.0.3-2
 _ZN3QCA10PrivateKey11fromPEMFileERK7QStringRKNS_11SecureArrayEPNS_13ConvertResultES3_@Base 2.0.2
 _ZN3QCA10PrivateKey11signMessageERKNS_12MemoryRegionENS_18SignatureAlgorithmENS_15SignatureFormatE@Base 2.0.2
 _ZN3QCA10PrivateKey22supportedPBEAlgorithmsERK7QString@Base 2.0.2
 _ZN3QCA10PrivateKey6updateERKNS_12MemoryRegionE@Base 2.0.2
 _ZN3QCA10PrivateKey7decryptERKNS_11SecureArrayEPS1_NS_19EncryptionAlgorithmE@Base 2.0.2
 _ZN3QCA10PrivateKey7fromDERERKNS_11SecureArrayES3_PNS_13ConvertResultERK7QString@Base 2.0.2
 _ZN3QCA10PrivateKey7fromPEMERK7QStringRKNS_11SecureArrayEPNS_13ConvertResultES3_@Base 2.0.2
 _ZN3QCA10PrivateKey9deriveKeyERKNS_9PublicKeyE@Base 2.0.2
 _ZN3QCA10PrivateKey9signatureEv@Base 2.0.2
 _ZN3QCA10PrivateKey9startSignENS_18SignatureAlgorithmENS_15SignatureFormatE@Base 2.0.2
 _ZN3QCA10PrivateKeyC1ERK7QStringRKNS_11SecureArrayE@Base 2.0.2
 _ZN3QCA10PrivateKeyC1ERK7QStringS3_@Base 2.0.2
 _ZN3QCA10PrivateKeyC1ERKS0_@Base 2.0.2
 _ZN3QCA10PrivateKeyC1Ev@Base 2.0.2
 _ZN3QCA10PrivateKeyC2ERK7QStringRKNS_11SecureArrayE@Base 2.0.2
 _ZN3QCA10PrivateKeyC2ERK7QStringS3_@Base 2.0.2
 _ZN3QCA10PrivateKeyC2ERKS0_@Base 2.0.2
 _ZN3QCA10PrivateKeyC2Ev@Base 2.0.2
 _ZN3QCA10PrivateKeyD0Ev@Base 2.0.2
 _ZN3QCA10PrivateKeyD1Ev@Base 2.0.2
 _ZN3QCA10PrivateKeyD2Ev@Base 2.0.2
 _ZN3QCA10PrivateKeyaSERKS0_@Base 2.0.2
 _ZN3QCA10RSAContext11qt_metacallEN11QMetaObject4CallEiPPv@Base 2.0.2
 _ZN3QCA10RSAContext11qt_metacastEPKc@Base 2.0.2
 _ZN3QCA10RSAContext16staticMetaObjectE@Base 2.0.2
 _ZN3QCA10RSAContextD0Ev@Base 2.0.3-2
 _ZN3QCA10RSAContextD1Ev@Base 2.0.3-2
 _ZN3QCA10RSAContextD2Ev@Base 2.0.3-2
 _ZN3QCA10SMSContext11qt_metacallEN11QMetaObject4CallEiPPv@Base 2.0.2
 _ZN3QCA10SMSContext11qt_metacastEPKc@Base 2.0.2
 _ZN3QCA10SMSContext14setPrivateKeysERK5QListINS_16SecureMessageKeyEE@Base 2.0.2
 _ZN3QCA10SMSContext16staticMetaObjectE@Base 2.0.2
 _ZN3QCA10SMSContext22setTrustedCertificatesERKNS_21CertificateCollectionE@Base 2.0.2
 _ZN3QCA10SMSContext24setUntrustedCertificatesERKNS_21CertificateCollectionE@Base 2.0.2
 _ZN3QCA10SMSContextD0Ev@Base 2.0.3-2
 _ZN3QCA10SMSContextD1Ev@Base 2.0.3-2
 _ZN3QCA10SMSContextD2Ev@Base 2.0.3-2
 _ZN3QCA10SyncThread11qt_metacallEN11QMetaObject4CallEiPPv@Base 2.0.2
 _ZN3QCA10SyncThread11qt_metacastEPKc@Base 2.0.2
 _ZN3QCA10SyncThread16staticMetaObjectE@Base 2.0.2
 _ZN3QCA10SyncThread3runEv@Base 2.0.2
 _ZN3QCA10SyncThread4callEP7QObjectRK10QByteArrayRK5QListI8QVariantEPb@Base 2.0.2
 _ZN3QCA10SyncThread4stopEv@Base 2.0.2
 _ZN3QCA10SyncThread5startEv@Base 2.0.2
 _ZN3QCA10SyncThread7Private11qt_metacallEN11QMetaObject4CallEiPPv@Base 2.0.2
 _ZN3QCA10SyncThread7Private11qt_metacastEPKc@Base 2.0.2
 _ZN3QCA10SyncThread7Private13agent_startedEv@Base 2.0.2
 _ZN3QCA10SyncThread7Private14agent_call_retEbRK8QVariant@Base 2.0.2
 _ZN3QCA10SyncThread7Private16staticMetaObjectE@Base 2.0.2
 _ZN3QCA10SyncThread7PrivateD0Ev@Base 2.0.3-2
 _ZN3QCA10SyncThread7PrivateD1Ev@Base 2.0.3-2
 _ZN3QCA10SyncThread7PrivateD2Ev@Base 2.0.3-2
 _ZN3QCA10SyncThreadC1EP7QObject@Base 2.0.2
 _ZN3QCA10SyncThreadC2EP7QObject@Base 2.0.2
 _ZN3QCA10SyncThreadD0Ev@Base 2.0.2
 _ZN3QCA10SyncThreadD1Ev@Base 2.0.2
 _ZN3QCA10SyncThreadD2Ev@Base 2.0.2
 _ZN3QCA10TLSContext11dtlsTimeoutEv@Base 2.0.2
 _ZN3QCA10TLSContext11qt_metacallEN11QMetaObject4CallEiPPv@Base 2.0.2
 _ZN3QCA10TLSContext11qt_metacastEPKc@Base 2.0.2
 _ZN3QCA10TLSContext12resultsReadyEv@Base 2.0.2
 _ZN3QCA10TLSContext16staticMetaObjectE@Base 2.0.2
 _ZN3QCA10TLSContext6setMTUEi@Base 2.0.2
 _ZN3QCA10TLSContextD0Ev@Base 2.0.3-2
 _ZN3QCA10TLSContextD1Ev@Base 2.0.3-2
 _ZN3QCA10TLSContextD2Ev@Base 2.0.3-2
 _ZN3QCA10TLSSessionC1ERKS0_@Base 2.0.2
 _ZN3QCA10TLSSessionC1Ev@Base 2.0.2
 _ZN3QCA10TLSSessionC2ERKS0_@Base 2.0.2
 _ZN3QCA10TLSSessionC2Ev@Base 2.0.2
 _ZN3QCA10TLSSessionD0Ev@Base 2.0.2
 _ZN3QCA10TLSSessionD1Ev@Base 2.0.2
 _ZN3QCA10TLSSessionD2Ev@Base 2.0.2
 _ZN3QCA10TLSSessionaSERKS0_@Base 2.0.2
 _ZN3QCA10TextFilter12decodeStringERK7QString@Base 2.0.2
 _ZN3QCA10TextFilter12encodeStringERK7QString@Base 2.0.2
 _ZN3QCA10TextFilter13arrayToStringERKNS_12MemoryRegionE@Base 2.0.2
 _ZN3QCA10TextFilter13stringToArrayERK7QString@Base 2.0.2
 _ZN3QCA10TextFilter5setupENS_9DirectionE@Base 2.0.2
 _ZN3QCA10TextFilter6decodeERKNS_12MemoryRegionE@Base 2.0.2
 _ZN3QCA10TextFilter6encodeERKNS_12MemoryRegionE@Base 2.0.2
 _ZN3QCA10TextFilterC1ENS_9DirectionE@Base 2.0.2
 _ZN3QCA10TextFilterC2ENS_9DirectionE@Base 2.0.2
 _ZN3QCA10TextFilterD0Ev@Base 2.0.3-2
 _ZN3QCA10TextFilterD1Ev@Base 2.0.3-2
 _ZN3QCA10TextFilterD2Ev@Base 2.0.3-2
 _ZN3QCA10TimerFixer11eventFilterEP7QObjectP6QEvent@Base 2.0.3-2
 _ZN3QCA10TimerFixer11qt_metacallEN11QMetaObject4CallEiPPv@Base 2.0.3-2
 _ZN3QCA10TimerFixer11qt_metacastEPKc@Base 2.0.3-2
 _ZN3QCA10TimerFixer16staticMetaObjectE@Base 2.0.3-2
 _ZN3QCA10TimerFixer5eventEP6QEvent@Base 2.0.3-2
 _ZN3QCA10TimerFixerC1EP7QObjectPS0_@Base 2.0.3-2
 _ZN3QCA10TimerFixerC2EP7QObjectPS0_@Base 2.0.3-2
 _ZN3QCA10TimerFixerD0Ev@Base 2.0.3-2
 _ZN3QCA10TimerFixerD1Ev@Base 2.0.3-2
 _ZN3QCA10TimerFixerD2Ev@Base 2.0.3-2
 _ZN3QCA10TokenAsker11qt_metacallEN11QMetaObject4CallEiPPv@Base 2.0.2
 _ZN3QCA10TokenAsker11qt_metacastEPKc@Base 2.0.2
 _ZN3QCA10TokenAsker13responseReadyEv@Base 2.0.2
 _ZN3QCA10TokenAsker15waitForResponseEv@Base 2.0.2
 _ZN3QCA10TokenAsker16staticMetaObjectE@Base 2.0.2
 _ZN3QCA10TokenAsker3askERKNS_12KeyStoreInfoERKNS_13KeyStoreEntryEPv@Base 2.0.2
 _ZN3QCA10TokenAsker6cancelEv@Base 2.0.2
 _ZN3QCA10TokenAsker7Private17emitResponseReadyEv@Base 2.0.3-2
 _ZN3QCA10TokenAsker7PrivateD0Ev@Base 2.0.3-2
 _ZN3QCA10TokenAsker7PrivateD1Ev@Base 2.0.3-2
 _ZN3QCA10TokenAsker7PrivateD2Ev@Base 2.0.3-2
 _ZN3QCA10TokenAskerC1EP7QObject@Base 2.0.2
 _ZN3QCA10TokenAskerC2EP7QObject@Base 2.0.2
 _ZN3QCA10TokenAskerD0Ev@Base 2.0.2
 _ZN3QCA10TokenAskerD1Ev@Base 2.0.2
 _ZN3QCA10TokenAskerD2Ev@Base 2.0.2
 _ZN3QCA10arrayToHexERK10QByteArray@Base 2.0.2
 _ZN3QCA10botan_initEib@Base 2.0.3-2
 _ZN3QCA10getContextERK7QStringPNS_8ProviderE@Base 2.0.3-2
 _ZN3QCA10getContextERK7QStringS2_@Base 2.0.3-2
 _ZN3QCA10hexToArrayERK7QString@Base 2.0.2
 _ZN3QCA10md5_appendEPNS_11md5_state_tEPKhi@Base 2.0.3-2
 _ZN3QCA10md5_finishEPNS_11md5_state_tEPh@Base 2.0.3-2
 _ZN3QCA10setAppNameERK7QString@Base 2.0.2
 _ZN3QCA11CertContext11qt_metacallEN11QMetaObject4CallEiPPv@Base 2.0.2
 _ZN3QCA11CertContext11qt_metacastEPKc@Base 2.0.2
 _ZN3QCA11CertContext16staticMetaObjectE@Base 2.0.2
 _ZN3QCA11CertContextD0Ev@Base 2.0.3-2
 _ZN3QCA11CertContextD1Ev@Base 2.0.3-2
 _ZN3QCA11CertContextD2Ev@Base 2.0.3-2
 _ZN3QCA11Certificate11fromPEMFileERK7QStringPNS_13ConvertResultES3_@Base 2.0.2
 _ZN3QCA11Certificate6changeEPNS_11CertContextE@Base 2.0.2
 _ZN3QCA11Certificate7Private6updateEPNS_11CertContextE@Base 2.0.3-2
 _ZN3QCA11Certificate7fromDERERK10QByteArrayPNS_13ConvertResultERK7QString@Base 2.0.2
 _ZN3QCA11Certificate7fromPEMERK7QStringPNS_13ConvertResultES3_@Base 2.0.2
 _ZN3QCA11CertificateC1ERK7QString@Base 2.0.2
 _ZN3QCA11CertificateC1ERKNS_18CertificateOptionsERKNS_10PrivateKeyERK7QString@Base 2.0.2
 _ZN3QCA11CertificateC1ERKS0_@Base 2.0.2
 _ZN3QCA11CertificateC1Ev@Base 2.0.2
 _ZN3QCA11CertificateC2ERK7QString@Base 2.0.2
 _ZN3QCA11CertificateC2ERKNS_18CertificateOptionsERKNS_10PrivateKeyERK7QString@Base 2.0.2
 _ZN3QCA11CertificateC2ERKS0_@Base 2.0.2
 _ZN3QCA11CertificateC2Ev@Base 2.0.2
 _ZN3QCA11CertificateD0Ev@Base 2.0.2
 _ZN3QCA11CertificateD1Ev@Base 2.0.2
 _ZN3QCA11CertificateD2Ev@Base 2.0.2
 _ZN3QCA11CertificateaSERKS0_@Base 2.0.2
 _ZN3QCA11DHPublicKeyC1ERKNS_12DHPrivateKeyE@Base 2.0.2
 _ZN3QCA11DHPublicKeyC1ERKNS_7DLGroupERKNS_10BigIntegerERK7QString@Base 2.0.2
 _ZN3QCA11DHPublicKeyC1Ev@Base 2.0.2
 _ZN3QCA11DHPublicKeyC2ERKNS_12DHPrivateKeyE@Base 2.0.2
 _ZN3QCA11DHPublicKeyC2ERKNS_7DLGroupERKNS_10BigIntegerERK7QString@Base 2.0.2
 _ZN3QCA11DHPublicKeyC2Ev@Base 2.0.2
 _ZN3QCA11DHPublicKeyD0Ev@Base 2.0.3-2
 _ZN3QCA11DHPublicKeyD1Ev@Base 2.0.3-2
 _ZN3QCA11DHPublicKeyD2Ev@Base 2.0.3-2
 _ZN3QCA11EventGlobal3askEi@Base 2.0.3-2
 _ZN3QCA11EventGlobal6rejectEi@Base 2.0.3-2
 _ZN3QCA11HandlerBase11qt_metacallEN11QMetaObject4CallEiPPv@Base 2.0.3-2
 _ZN3QCA11HandlerBase11qt_metacastEPKc@Base 2.0.3-2
 _ZN3QCA11HandlerBase16staticMetaObjectE@Base 2.0.3-2
 _ZN3QCA11HandlerBaseD0Ev@Base 2.0.3-2
 _ZN3QCA11HandlerBaseD1Ev@Base 2.0.3-2
 _ZN3QCA11HandlerBaseD2Ev@Base 2.0.3-2
 _ZN3QCA11HashContext11qt_metacallEN11QMetaObject4CallEiPPv@Base 2.0.2
 _ZN3QCA11HashContext11qt_metacastEPKc@Base 2.0.2
 _ZN3QCA11HashContext16staticMetaObjectE@Base 2.0.2
 _ZN3QCA11HashContextD0Ev@Base 2.0.3-2
 _ZN3QCA11HashContextD1Ev@Base 2.0.3-2
 _ZN3QCA11HashContextD2Ev@Base 2.0.3-2
 _ZN3QCA11InfoContext11qt_metacallEN11QMetaObject4CallEiPPv@Base 2.0.2
 _ZN3QCA11InfoContext11qt_metacastEPKc@Base 2.0.2
 _ZN3QCA11InfoContext16staticMetaObjectE@Base 2.0.2
 _ZN3QCA11InfoContextD0Ev@Base 2.0.3-2
 _ZN3QCA11InfoContextD1Ev@Base 2.0.3-2
 _ZN3QCA11InfoContextD2Ev@Base 2.0.3-2
 _ZN3QCA11InitializerC1ENS_10MemoryModeEi@Base 2.0.2
 _ZN3QCA11InitializerC2ENS_10MemoryModeEi@Base 2.0.2
 _ZN3QCA11InitializerD1Ev@Base 2.0.2
 _ZN3QCA11InitializerD2Ev@Base 2.0.2
 _ZN3QCA11PKeyContext11qt_metacallEN11QMetaObject4CallEiPPv@Base 2.0.2
 _ZN3QCA11PKeyContext11qt_metacastEPKc@Base 2.0.2
 _ZN3QCA11PKeyContext13publicFromDERERK10QByteArray@Base 2.0.2
 _ZN3QCA11PKeyContext13publicFromPEMERK7QString@Base 2.0.2
 _ZN3QCA11PKeyContext14privateFromDERERKNS_11SecureArrayES3_@Base 2.0.2
 _ZN3QCA11PKeyContext14privateFromPEMERK7QStringRKNS_11SecureArrayE@Base 2.0.2
 _ZN3QCA11PKeyContext16staticMetaObjectE@Base 2.0.2
 _ZN3QCA11PKeyContextD0Ev@Base 2.0.3-2
 _ZN3QCA11PKeyContextD1Ev@Base 2.0.3-2
 _ZN3QCA11PKeyContextD2Ev@Base 2.0.3-2
 _ZN3QCA11QPipeDevice11qt_metacallEN11QMetaObject4CallEiPPv@Base 2.0.2
 _ZN3QCA11QPipeDevice11qt_metacastEPKc@Base 2.0.2
 _ZN3QCA11QPipeDevice14setInheritableEb@Base 2.0.2
 _ZN3QCA11QPipeDevice16staticMetaObjectE@Base 2.0.2
 _ZN3QCA11QPipeDevice4readEPci@Base 2.0.2
 _ZN3QCA11QPipeDevice4takeEiNS0_4TypeE@Base 2.0.2
 _ZN3QCA11QPipeDevice5closeEv@Base 2.0.2
 _ZN3QCA11QPipeDevice5writeEPKci@Base 2.0.2
 _ZN3QCA11QPipeDevice6enableEv@Base 2.0.2
 _ZN3QCA11QPipeDevice6notifyEv@Base 2.0.2
 _ZN3QCA11QPipeDevice7Private11qt_metacallEN11QMetaObject4CallEiPPv@Base 2.0.2
 _ZN3QCA11QPipeDevice7Private11qt_metacastEPKc@Base 2.0.2
 _ZN3QCA11QPipeDevice7Private16staticMetaObjectE@Base 2.0.2
 _ZN3QCA11QPipeDevice7PrivateD0Ev@Base 2.0.3-2
 _ZN3QCA11QPipeDevice7PrivateD1Ev@Base 2.0.3-2
 _ZN3QCA11QPipeDevice7PrivateD2Ev@Base 2.0.3-2
 _ZN3QCA11QPipeDevice7releaseEv@Base 2.0.2
 _ZN3QCA11QPipeDeviceC1EP7QObject@Base 2.0.2
 _ZN3QCA11QPipeDeviceC2EP7QObject@Base 2.0.2
 _ZN3QCA11QPipeDeviceD0Ev@Base 2.0.2
 _ZN3QCA11QPipeDeviceD1Ev@Base 2.0.2
 _ZN3QCA11QPipeDeviceD2Ev@Base 2.0.2
 _ZN3QCA11SASLContext11qt_metacallEN11QMetaObject4CallEiPPv@Base 2.0.2
 _ZN3QCA11SASLContext11qt_metacastEPKc@Base 2.0.2
 _ZN3QCA11SASLContext12resultsReadyEv@Base 2.0.2
 _ZN3QCA11SASLContext16staticMetaObjectE@Base 2.0.2
 _ZN3QCA11SASLContextD0Ev@Base 2.0.3-2
 _ZN3QCA11SASLContextD1Ev@Base 2.0.3-2
 _ZN3QCA11SASLContextD2Ev@Base 2.0.3-2
 _ZN3QCA11SecureArray2atEi@Base 2.0.2
 _ZN3QCA11SecureArray3setERK10QByteArray@Base 2.0.2
 _ZN3QCA11SecureArray3setERKS0_@Base 2.0.2
 _ZN3QCA11SecureArray4dataEv@Base 2.0.2
 _ZN3QCA11SecureArray4fillEci@Base 2.0.2
 _ZN3QCA11SecureArray5clearEv@Base 2.0.2
 _ZN3QCA11SecureArray6appendERKS0_@Base 2.0.2
 _ZN3QCA11SecureArray6resizeEi@Base 2.0.2
 _ZN3QCA11SecureArrayC1EPKc@Base 2.0.2
 _ZN3QCA11SecureArrayC1ERK10QByteArray@Base 2.0.2
 _ZN3QCA11SecureArrayC1ERKNS_12MemoryRegionE@Base 2.0.2
 _ZN3QCA11SecureArrayC1ERKS0_@Base 2.0.2
 _ZN3QCA11SecureArrayC1Eic@Base 2.0.2
 _ZN3QCA11SecureArrayC1Ev@Base 2.0.2
 _ZN3QCA11SecureArrayC2EPKc@Base 2.0.2
 _ZN3QCA11SecureArrayC2ERK10QByteArray@Base 2.0.2
 _ZN3QCA11SecureArrayC2ERKNS_12MemoryRegionE@Base 2.0.2
 _ZN3QCA11SecureArrayC2ERKS0_@Base 2.0.2
 _ZN3QCA11SecureArrayC2Eic@Base 2.0.2
 _ZN3QCA11SecureArrayC2Ev@Base 2.0.2
 _ZN3QCA11SecureArrayD1Ev@Base 2.0.2
 _ZN3QCA11SecureArrayD2Ev@Base 2.0.2
 _ZN3QCA11SecureArrayaSERK10QByteArray@Base 2.0.2
 _ZN3QCA11SecureArrayaSERKS0_@Base 2.0.2
 _ZN3QCA11SecureArrayixEi@Base 2.0.2
 _ZN3QCA11SecureArraypLERKS0_@Base 2.0.2
 _ZN3QCA11SecureLayer11qt_metacallEN11QMetaObject4CallEiPPv@Base 2.0.2
 _ZN3QCA11SecureLayer11qt_metacastEPKc@Base 2.0.2
 _ZN3QCA11SecureLayer15readUnprocessedEv@Base 2.0.2
 _ZN3QCA11SecureLayer16staticMetaObjectE@Base 2.0.2
 _ZN3QCA11SecureLayer17readyReadOutgoingEv@Base 2.0.2
 _ZN3QCA11SecureLayer5closeEv@Base 2.0.2
 _ZN3QCA11SecureLayer5errorEv@Base 2.0.2
 _ZN3QCA11SecureLayer6closedEv@Base 2.0.2
 _ZN3QCA11SecureLayer9readyReadEv@Base 2.0.2
 _ZN3QCA11SecureLayerC1EP7QObject@Base 2.0.2
 _ZN3QCA11SecureLayerC2EP7QObject@Base 2.0.2
 _ZN3QCA11SecureLayerD0Ev@Base 2.0.3-2
 _ZN3QCA11SecureLayerD1Ev@Base 2.0.3-2
 _ZN3QCA11SecureLayerD2Ev@Base 2.0.3-2
 _ZN3QCA11arrayToFileERK7QStringRK10QByteArray@Base 2.0.3-2
 _ZN3QCA11emsa3EncodeERK7QStringRK10QByteArrayi@Base 2.0.2
 _ZN3QCA11getPropertyERK7QString@Base 2.0.2
 _ZN3QCA11get_hash_idERK7QString@Base 2.0.3-2
 _ZN3QCA11isSupportedEPKcRK7QString@Base 2.0.2
 _ZN3QCA11isSupportedERK11QStringListRK7QString@Base 2.0.2
 _ZN3QCA11setPropertyERK7QStringRK8QVariant@Base 2.0.2
 _ZN3QCA11systemStoreEv@Base 2.0.2
 _ZN3QCA12AskerPrivate11qt_metacallEN11QMetaObject4CallEiPPv@Base 2.0.3-2
 _ZN3QCA12AskerPrivate11qt_metacastEPKc@Base 2.0.3-2
 _ZN3QCA12AskerPrivate12set_acceptedERKNS_11SecureArrayE@Base 2.0.3-2
 _ZN3QCA12AskerPrivate12set_rejectedEv@Base 2.0.3-2
 _ZN3QCA12AskerPrivate16staticMetaObjectE@Base 2.0.3-2
 _ZN3QCA12AskerPrivateD0Ev@Base 2.0.3-2
 _ZN3QCA12AskerPrivateD1Ev@Base 2.0.3-2
 _ZN3QCA12AskerPrivateD2Ev@Base 2.0.3-2
 _ZN3QCA12BasicContext11qt_metacallEN11QMetaObject4CallEiPPv@Base 2.0.2
 _ZN3QCA12BasicContext11qt_metacastEPKc@Base 2.0.2
 _ZN3QCA12BasicContext16staticMetaObjectE@Base 2.0.2
 _ZN3QCA12BasicContextC1EPNS_8ProviderERK7QString@Base 2.0.2
 _ZN3QCA12BasicContextC1ERKS0_@Base 2.0.2
 _ZN3QCA12BasicContextC2EPNS_8ProviderERK7QString@Base 2.0.2
 _ZN3QCA12BasicContextC2ERKS0_@Base 2.0.2
 _ZN3QCA12BasicContextD0Ev@Base 2.0.2
 _ZN3QCA12BasicContextD1Ev@Base 2.0.2
 _ZN3QCA12BasicContextD2Ev@Base 2.0.2
 _ZN3QCA12DHPrivateKeyC1ERKNS_7DLGroupERKNS_10BigIntegerES6_RK7QString@Base 2.0.2
 _ZN3QCA12DHPrivateKeyC1Ev@Base 2.0.2
 _ZN3QCA12DHPrivateKeyC2ERKNS_7DLGroupERKNS_10BigIntegerES6_RK7QString@Base 2.0.2
 _ZN3QCA12DHPrivateKeyC2Ev@Base 2.0.2
 _ZN3QCA12DHPrivateKeyD0Ev@Base 2.0.3-2
 _ZN3QCA12DHPrivateKeyD1Ev@Base 2.0.3-2
 _ZN3QCA12DHPrivateKeyD2Ev@Base 2.0.3-2
 _ZN3QCA12DSAPublicKeyC1ERKNS_13DSAPrivateKeyE@Base 2.0.2
 _ZN3QCA12DSAPublicKeyC1ERKNS_7DLGroupERKNS_10BigIntegerERK7QString@Base 2.0.2
 _ZN3QCA12DSAPublicKeyC1Ev@Base 2.0.2
 _ZN3QCA12DSAPublicKeyC2ERKNS_13DSAPrivateKeyE@Base 2.0.2
 _ZN3QCA12DSAPublicKeyC2ERKNS_7DLGroupERKNS_10BigIntegerERK7QString@Base 2.0.2
 _ZN3QCA12DSAPublicKeyC2Ev@Base 2.0.2
 _ZN3QCA12DSAPublicKeyD0Ev@Base 2.0.3-2
 _ZN3QCA12DSAPublicKeyD1Ev@Base 2.0.3-2
 _ZN3QCA12DSAPublicKeyD2Ev@Base 2.0.3-2
 _ZN3QCA12EventHandler10eventReadyEiRKNS_5EventE@Base 2.0.2
 _ZN3QCA12EventHandler11qt_metacallEN11QMetaObject4CallEiPPv@Base 2.0.2
 _ZN3QCA12EventHandler11qt_metacastEPKc@Base 2.0.2
 _ZN3QCA12EventHandler14submitPasswordEiRKNS_11SecureArrayE@Base 2.0.2
 _ZN3QCA12EventHandler16staticMetaObjectE@Base 2.0.2
 _ZN3QCA12EventHandler5startEv@Base 2.0.2
 _ZN3QCA12EventHandler6rejectEi@Base 2.0.2
 _ZN3QCA12EventHandler7Private11qt_metacallEN11QMetaObject4CallEiPPv@Base 2.0.2
 _ZN3QCA12EventHandler7Private11qt_metacastEPKc@Base 2.0.2
 _ZN3QCA12EventHandler7Private16staticMetaObjectE@Base 2.0.2
 _ZN3QCA12EventHandler7Private3askEiRKNS_5EventE@Base 2.0.3-2
 _ZN3QCA12EventHandler7PrivateD0Ev@Base 2.0.3-2
 _ZN3QCA12EventHandler7PrivateD1Ev@Base 2.0.3-2
 _ZN3QCA12EventHandler7PrivateD2Ev@Base 2.0.3-2
 _ZN3QCA12EventHandler9tokenOkayEi@Base 2.0.2
 _ZN3QCA12EventHandlerC1EP7QObject@Base 2.0.2
 _ZN3QCA12EventHandlerC2EP7QObject@Base 2.0.2
 _ZN3QCA12EventHandlerD0Ev@Base 2.0.2
 _ZN3QCA12EventHandlerD1Ev@Base 2.0.2
 _ZN3QCA12EventHandlerD2Ev@Base 2.0.2
 _ZN3QCA12KeyGenerator11qt_metacallEN11QMetaObject4CallEiPPv@Base 2.0.2
 _ZN3QCA12KeyGenerator11qt_metacastEPKc@Base 2.0.2
 _ZN3QCA12KeyGenerator13createDLGroupENS_10DLGroupSetERK7QString@Base 2.0.2
 _ZN3QCA12KeyGenerator16staticMetaObjectE@Base 2.0.2
 _ZN3QCA12KeyGenerator18setBlockingEnabledEb@Base 2.0.2
 _ZN3QCA12KeyGenerator7Private11qt_metacallEN11QMetaObject4CallEiPPv@Base 2.0.2
 _ZN3QCA12KeyGenerator7Private11qt_metacastEPKc@Base 2.0.2
 _ZN3QCA12KeyGenerator7Private16staticMetaObjectE@Base 2.0.2
 _ZN3QCA12KeyGenerator7PrivateD0Ev@Base 2.0.3-2
 _ZN3QCA12KeyGenerator7PrivateD1Ev@Base 2.0.3-2
 _ZN3QCA12KeyGenerator7PrivateD2Ev@Base 2.0.3-2
 _ZN3QCA12KeyGenerator8createDHERKNS_7DLGroupERK7QString@Base 2.0.2
 _ZN3QCA12KeyGenerator8finishedEv@Base 2.0.2
 _ZN3QCA12KeyGenerator9createDSAERKNS_7DLGroupERK7QString@Base 2.0.2
 _ZN3QCA12KeyGenerator9createRSAEiiRK7QString@Base 2.0.2
 _ZN3QCA12KeyGeneratorC1EP7QObject@Base 2.0.2
 _ZN3QCA12KeyGeneratorC2EP7QObject@Base 2.0.2
 _ZN3QCA12KeyGeneratorD0Ev@Base 2.0.2
 _ZN3QCA12KeyGeneratorD1Ev@Base 2.0.2
 _ZN3QCA12KeyGeneratorD2Ev@Base 2.0.2
 _ZN3QCA12KeyStoreInfoC1ENS_8KeyStore4TypeERK7QStringS5_@Base 2.0.2
 _ZN3QCA12KeyStoreInfoC1ERKS0_@Base 2.0.2
 _ZN3QCA12KeyStoreInfoC1Ev@Base 2.0.2
 _ZN3QCA12KeyStoreInfoC2ENS_8KeyStore4TypeERK7QStringS5_@Base 2.0.2
 _ZN3QCA12KeyStoreInfoC2ERKS0_@Base 2.0.2
 _ZN3QCA12KeyStoreInfoC2Ev@Base 2.0.2
 _ZN3QCA12KeyStoreInfoD1Ev@Base 2.0.2
 _ZN3QCA12KeyStoreInfoD2Ev@Base 2.0.2
 _ZN3QCA12KeyStoreInfoaSERKS0_@Base 2.0.2
 _ZN3QCA12MemoryRegion2atEi@Base 2.0.2
 _ZN3QCA12MemoryRegion3setERK10QByteArrayb@Base 2.0.2
 _ZN3QCA12MemoryRegion4dataEv@Base 2.0.2
 _ZN3QCA12MemoryRegion6resizeEi@Base 2.0.2
 _ZN3QCA12MemoryRegion9setSecureEb@Base 2.0.2
 _ZN3QCA12MemoryRegionC1EPKc@Base 2.0.2
 _ZN3QCA12MemoryRegionC1ERK10QByteArray@Base 2.0.2
 _ZN3QCA12MemoryRegionC1ERK10QByteArrayb@Base 2.0.2
 _ZN3QCA12MemoryRegionC1ERKS0_@Base 2.0.2
 _ZN3QCA12MemoryRegionC1Eb@Base 2.0.2
 _ZN3QCA12MemoryRegionC1Eib@Base 2.0.2
 _ZN3QCA12MemoryRegionC1Ev@Base 2.0.2
 _ZN3QCA12MemoryRegionC2EPKc@Base 2.0.2
 _ZN3QCA12MemoryRegionC2ERK10QByteArray@Base 2.0.2
 _ZN3QCA12MemoryRegionC2ERK10QByteArrayb@Base 2.0.2
 _ZN3QCA12MemoryRegionC2ERKS0_@Base 2.0.2
 _ZN3QCA12MemoryRegionC2Eb@Base 2.0.2
 _ZN3QCA12MemoryRegionC2Eib@Base 2.0.2
 _ZN3QCA12MemoryRegionC2Ev@Base 2.0.2
 _ZN3QCA12MemoryRegionD1Ev@Base 2.0.2
 _ZN3QCA12MemoryRegionD2Ev@Base 2.0.2
 _ZN3QCA12MemoryRegionaSERK10QByteArray@Base 2.0.2
 _ZN3QCA12MemoryRegionaSERKS0_@Base 2.0.2
 _ZN3QCA12RSAPublicKeyC1ERKNS_10BigIntegerES3_RK7QString@Base 2.0.2
 _ZN3QCA12RSAPublicKeyC1ERKNS_13RSAPrivateKeyE@Base 2.0.2
 _ZN3QCA12RSAPublicKeyC1Ev@Base 2.0.2
 _ZN3QCA12RSAPublicKeyC2ERKNS_10BigIntegerES3_RK7QString@Base 2.0.2
 _ZN3QCA12RSAPublicKeyC2ERKNS_13RSAPrivateKeyE@Base 2.0.2
 _ZN3QCA12RSAPublicKeyC2Ev@Base 2.0.2
 _ZN3QCA12RSAPublicKeyD0Ev@Base 2.0.3-2
 _ZN3QCA12RSAPublicKeyD1Ev@Base 2.0.3-2
 _ZN3QCA12RSAPublicKeyD2Ev@Base 2.0.3-2
 _ZN3QCA12SymmetricKey12isWeakDESKeyEv@Base 2.0.2
 _ZN3QCA12SymmetricKeyC1ERK10QByteArray@Base 2.0.2
 _ZN3QCA12SymmetricKeyC1ERKNS_11SecureArrayE@Base 2.0.2
 _ZN3QCA12SymmetricKeyC1Ei@Base 2.0.2
 _ZN3QCA12SymmetricKeyC1Ev@Base 2.0.2
 _ZN3QCA12SymmetricKeyC2ERK10QByteArray@Base 2.0.2
 _ZN3QCA12SymmetricKeyC2ERKNS_11SecureArrayE@Base 2.0.2
 _ZN3QCA12SymmetricKeyC2Ei@Base 2.0.2
 _ZN3QCA12SymmetricKeyC2Ev@Base 2.0.2
 _ZN3QCA12Synchronizer11qt_metacallEN11QMetaObject4CallEiPPv@Base 2.0.2
 _ZN3QCA12Synchronizer11qt_metacastEPKc@Base 2.0.2
 _ZN3QCA12Synchronizer12conditionMetEv@Base 2.0.2
 _ZN3QCA12Synchronizer16staticMetaObjectE@Base 2.0.2
 _ZN3QCA12Synchronizer16waitForConditionEi@Base 2.0.2
 _ZN3QCA12Synchronizer7Private11qt_metacallEN11QMetaObject4CallEiPPv@Base 2.0.2
 _ZN3QCA12Synchronizer7Private11qt_metacastEPKc@Base 2.0.2
 _ZN3QCA12Synchronizer7Private16staticMetaObjectE@Base 2.0.2
 _ZN3QCA12Synchronizer7Private3runEv@Base 2.0.3-2
 _ZN3QCA12Synchronizer7PrivateD0Ev@Base 2.0.3-2
 _ZN3QCA12Synchronizer7PrivateD1Ev@Base 2.0.3-2
 _ZN3QCA12Synchronizer7PrivateD2Ev@Base 2.0.3-2
 _ZN3QCA12SynchronizerC1EP7QObject@Base 2.0.2
 _ZN3QCA12SynchronizerC2EP7QObject@Base 2.0.2
 _ZN3QCA12SynchronizerD0Ev@Base 2.0.2
 _ZN3QCA12SynchronizerD1Ev@Base 2.0.2
 _ZN3QCA12SynchronizerD2Ev@Base 2.0.2
 _ZN3QCA12allProvidersEv@Base 2.0.3-2
 _ZN3QCA12botan_deinitEv@Base 2.0.3-2
 _ZN3QCA12findProviderERK7QString@Base 2.0.2
 _ZN3QCA12skip_pluginsEPNS_8ProviderE@Base 2.0.3-2
 _ZN3QCA12stringToFileERK7QStringS2_@Base 2.0.3-2
 _ZN3QCA12truncate_logERK7QStringi@Base 2.0.3-2
 _ZN3QCA13CipherContext11qt_metacallEN11QMetaObject4CallEiPPv@Base 2.0.2
 _ZN3QCA13CipherContext11qt_metacastEPKc@Base 2.0.2
 _ZN3QCA13CipherContext16staticMetaObjectE@Base 2.0.2
 _ZN3QCA13CipherContextD0Ev@Base 2.0.3-2
 _ZN3QCA13CipherContextD1Ev@Base 2.0.3-2
 _ZN3QCA13CipherContextD2Ev@Base 2.0.3-2
 _ZN3QCA13ConsolePrompt11qt_metacallEN11QMetaObject4CallEiPPv@Base 2.0.2
 _ZN3QCA13ConsolePrompt11qt_metacastEPKc@Base 2.0.2
 _ZN3QCA13ConsolePrompt15waitForFinishedEv@Base 2.0.2
 _ZN3QCA13ConsolePrompt16staticMetaObjectE@Base 2.0.2
 _ZN3QCA13ConsolePrompt7Private11qt_metacallEN11QMetaObject4CallEiPPv@Base 2.0.2
 _ZN3QCA13ConsolePrompt7Private11qt_metacastEPKc@Base 2.0.2
 _ZN3QCA13ConsolePrompt7Private13con_readyReadEv@Base 2.0.3-2
 _ZN3QCA13ConsolePrompt7Private16staticMetaObjectE@Base 2.0.2
 _ZN3QCA13ConsolePrompt7PrivateD0Ev@Base 2.0.3-2
 _ZN3QCA13ConsolePrompt7PrivateD1Ev@Base 2.0.3-2
 _ZN3QCA13ConsolePrompt7PrivateD2Ev@Base 2.0.3-2
 _ZN3QCA13ConsolePrompt7getCharEv@Base 2.0.2
 _ZN3QCA13ConsolePrompt8finishedEv@Base 2.0.2
 _ZN3QCA13ConsolePrompt9getHiddenERK7QString@Base 2.0.2
 _ZN3QCA13ConsolePromptC1EP7QObject@Base 2.0.2
 _ZN3QCA13ConsolePromptC2EP7QObject@Base 2.0.2
 _ZN3QCA13ConsolePromptD0Ev@Base 2.0.2
 _ZN3QCA13ConsolePromptD1Ev@Base 2.0.2
 _ZN3QCA13ConsolePromptD2Ev@Base 2.0.2
 _ZN3QCA13ConsoleThread11inputClosedEv@Base 2.0.3-2
 _ZN3QCA13ConsoleThread11qt_metacallEN11QMetaObject4CallEiPPv@Base 2.0.3-2
 _ZN3QCA13ConsoleThread11qt_metacastEPKc@Base 2.0.3-2
 _ZN3QCA13ConsoleThread12bytesWrittenEi@Base 2.0.3-2
 _ZN3QCA13ConsoleThread12outputClosedEv@Base 2.0.3-2
 _ZN3QCA13ConsoleThread16staticMetaObjectE@Base 2.0.3-2
 _ZN3QCA13ConsoleThread5atEndEv@Base 2.0.3-2
 _ZN3QCA13ConsoleThread7atStartEv@Base 2.0.3-2
 _ZN3QCA13ConsoleThread9readyReadEv@Base 2.0.3-2
 _ZN3QCA13ConsoleThreadD0Ev@Base 2.0.3-2
 _ZN3QCA13ConsoleThreadD1Ev@Base 2.0.3-2
 _ZN3QCA13ConsoleThreadD2Ev@Base 2.0.3-2
 _ZN3QCA13ConsoleWorker11inputClosedEv@Base 2.0.3-2
 _ZN3QCA13ConsoleWorker11qt_metacallEN11QMetaObject4CallEiPPv@Base 2.0.3-2
 _ZN3QCA13ConsoleWorker11qt_metacastEPKc@Base 2.0.3-2
 _ZN3QCA13ConsoleWorker12bytesWrittenEi@Base 2.0.3-2
 _ZN3QCA13ConsoleWorker12outputClosedEv@Base 2.0.3-2
 _ZN3QCA13ConsoleWorker16staticMetaObjectE@Base 2.0.3-2
 _ZN3QCA13ConsoleWorker9readyReadEv@Base 2.0.3-2
 _ZN3QCA13ConsoleWorkerD0Ev@Base 2.0.3-2
 _ZN3QCA13ConsoleWorkerD1Ev@Base 2.0.3-2
 _ZN3QCA13ConsoleWorkerD2Ev@Base 2.0.3-2
 _ZN3QCA13DSAPrivateKeyC1ERKNS_7DLGroupERKNS_10BigIntegerES6_RK7QString@Base 2.0.2
 _ZN3QCA13DSAPrivateKeyC1Ev@Base 2.0.2
 _ZN3QCA13DSAPrivateKeyC2ERKNS_7DLGroupERKNS_10BigIntegerES6_RK7QString@Base 2.0.2
 _ZN3QCA13DSAPrivateKeyC2Ev@Base 2.0.2
 _ZN3QCA13DSAPrivateKeyD0Ev@Base 2.0.3-2
 _ZN3QCA13DSAPrivateKeyD1Ev@Base 2.0.3-2
 _ZN3QCA13DSAPrivateKeyD2Ev@Base 2.0.3-2
 _ZN3QCA13KeyStoreEntry10fromStringERK7QString@Base 2.0.2
 _ZN3QCA13KeyStoreEntry12ensureAccessEv@Base 2.0.2
 _ZN3QCA13KeyStoreEntry15ensureAvailableEv@Base 2.0.2
 _ZN3QCA13KeyStoreEntryC1ERK7QString@Base 2.0.2
 _ZN3QCA13KeyStoreEntryC1ERKS0_@Base 2.0.2
 _ZN3QCA13KeyStoreEntryC1Ev@Base 2.0.2
 _ZN3QCA13KeyStoreEntryC2ERK7QString@Base 2.0.2
 _ZN3QCA13KeyStoreEntryC2ERKS0_@Base 2.0.2
 _ZN3QCA13KeyStoreEntryC2Ev@Base 2.0.2
 _ZN3QCA13KeyStoreEntryD0Ev@Base 2.0.2
 _ZN3QCA13KeyStoreEntryD1Ev@Base 2.0.2
 _ZN3QCA13KeyStoreEntryD2Ev@Base 2.0.2
 _ZN3QCA13KeyStoreEntryaSERKS0_@Base 2.0.2
 _ZN3QCA13PGPKeyContext11qt_metacallEN11QMetaObject4CallEiPPv@Base 2.0.2
 _ZN3QCA13PGPKeyContext11qt_metacastEPKc@Base 2.0.2
 _ZN3QCA13PGPKeyContext16staticMetaObjectE@Base 2.0.2
 _ZN3QCA13PGPKeyContextD0Ev@Base 2.0.3-2
 _ZN3QCA13PGPKeyContextD1Ev@Base 2.0.3-2
 _ZN3QCA13PGPKeyContextD2Ev@Base 2.0.3-2
 _ZN3QCA13PKCS12Context11qt_metacallEN11QMetaObject4CallEiPPv@Base 2.0.2
 _ZN3QCA13PKCS12Context11qt_metacastEPKc@Base 2.0.2
 _ZN3QCA13PKCS12Context16staticMetaObjectE@Base 2.0.2
 _ZN3QCA13PKCS12ContextD0Ev@Base 2.0.3-2
 _ZN3QCA13PKCS12ContextD1Ev@Base 2.0.3-2
 _ZN3QCA13PKCS12ContextD2Ev@Base 2.0.3-2
 _ZN3QCA13PasswordAsker11qt_metacallEN11QMetaObject4CallEiPPv@Base 2.0.2
 _ZN3QCA13PasswordAsker11qt_metacastEPKc@Base 2.0.2
 _ZN3QCA13PasswordAsker13responseReadyEv@Base 2.0.2
 _ZN3QCA13PasswordAsker15waitForResponseEv@Base 2.0.2
 _ZN3QCA13PasswordAsker16staticMetaObjectE@Base 2.0.2
 _ZN3QCA13PasswordAsker3askENS_5Event13PasswordStyleERK7QStringPv@Base 2.0.2
 _ZN3QCA13PasswordAsker3askENS_5Event13PasswordStyleERKNS_12KeyStoreInfoERKNS_13KeyStoreEntryEPv@Base 2.0.2
 _ZN3QCA13PasswordAsker6cancelEv@Base 2.0.2
 _ZN3QCA13PasswordAsker7Private17emitResponseReadyEv@Base 2.0.3-2
 _ZN3QCA13PasswordAsker7PrivateD0Ev@Base 2.0.3-2
 _ZN3QCA13PasswordAsker7PrivateD1Ev@Base 2.0.3-2
 _ZN3QCA13PasswordAsker7PrivateD2Ev@Base 2.0.3-2
 _ZN3QCA13PasswordAskerC1EP7QObject@Base 2.0.2
 _ZN3QCA13PasswordAskerC2EP7QObject@Base 2.0.2
 _ZN3QCA13PasswordAskerD0Ev@Base 2.0.2
 _ZN3QCA13PasswordAskerD1Ev@Base 2.0.2
 _ZN3QCA13PasswordAskerD2Ev@Base 2.0.2
 _ZN3QCA13RSAPrivateKeyC1ERKNS_10BigIntegerES3_S3_S3_S3_RK7QString@Base 2.0.2
 _ZN3QCA13RSAPrivateKeyC1Ev@Base 2.0.2
 _ZN3QCA13RSAPrivateKeyC2ERKNS_10BigIntegerES3_S3_S3_S3_RK7QString@Base 2.0.2
 _ZN3QCA13RSAPrivateKeyC2Ev@Base 2.0.2
 _ZN3QCA13RSAPrivateKeyD0Ev@Base 2.0.3-2
 _ZN3QCA13RSAPrivateKeyD1Ev@Base 2.0.3-2
 _ZN3QCA13RSAPrivateKeyD2Ev@Base 2.0.3-2
 _ZN3QCA13RandomContext11qt_metacallEN11QMetaObject4CallEiPPv@Base 2.0.2
 _ZN3QCA13RandomContext11qt_metacastEPKc@Base 2.0.2
 _ZN3QCA13RandomContext16staticMetaObjectE@Base 2.0.2
 _ZN3QCA13RandomContextD0Ev@Base 2.0.3-2
 _ZN3QCA13RandomContextD1Ev@Base 2.0.3-2
 _ZN3QCA13RandomContextD2Ev@Base 2.0.3-2
 _ZN3QCA13SecureMessage10setSignersERK5QListINS_16SecureMessageKeyEE@Base 2.0.2
 _ZN3QCA13SecureMessage11qt_metacallEN11QMetaObject4CallEiPPv@Base 2.0.2
 _ZN3QCA13SecureMessage11qt_metacastEPKc@Base 2.0.2
 _ZN3QCA13SecureMessage11startVerifyERK10QByteArray@Base 2.0.2
 _ZN3QCA13SecureMessage12bytesWrittenEi@Base 2.0.2
 _ZN3QCA13SecureMessage12setRecipientERKNS_16SecureMessageKeyE@Base 2.0.2
 _ZN3QCA13SecureMessage12startDecryptEv@Base 2.0.2
 _ZN3QCA13SecureMessage12startEncryptEv@Base 2.0.2
 _ZN3QCA13SecureMessage13setRecipientsERK5QListINS_16SecureMessageKeyEE@Base 2.0.2
 _ZN3QCA13SecureMessage15waitForFinishedEi@Base 2.0.2
 _ZN3QCA13SecureMessage16staticMetaObjectE@Base 2.0.2
 _ZN3QCA13SecureMessage19startSignAndEncryptEv@Base 2.0.2
 _ZN3QCA13SecureMessage22setBundleSignerEnabledEb@Base 2.0.2
 _ZN3QCA13SecureMessage25setSMIMEAttributesEnabledEb@Base 2.0.2
 _ZN3QCA13SecureMessage3endEv@Base 2.0.2
 _ZN3QCA13SecureMessage4readEv@Base 2.0.2
 _ZN3QCA13SecureMessage5resetEv@Base 2.0.2
 _ZN3QCA13SecureMessage6updateERK10QByteArray@Base 2.0.2
 _ZN3QCA13SecureMessage7Private11qt_metacallEN11QMetaObject4CallEiPPv@Base 2.0.2
 _ZN3QCA13SecureMessage7Private11qt_metacastEPKc@Base 2.0.2
 _ZN3QCA13SecureMessage7Private16staticMetaObjectE@Base 2.0.2
 _ZN3QCA13SecureMessage7PrivateC1EPS0_@Base 2.0.3-2
 _ZN3QCA13SecureMessage7PrivateC2EPS0_@Base 2.0.3-2
 _ZN3QCA13SecureMessage7PrivateD0Ev@Base 2.0.3-2
 _ZN3QCA13SecureMessage7PrivateD1Ev@Base 2.0.3-2
 _ZN3QCA13SecureMessage7PrivateD2Ev@Base 2.0.3-2
 _ZN3QCA13SecureMessage8finishedEv@Base 2.0.2
 _ZN3QCA13SecureMessage9readyReadEv@Base 2.0.2
 _ZN3QCA13SecureMessage9setFormatENS0_6FormatE@Base 2.0.2
 _ZN3QCA13SecureMessage9setSignerERKNS_16SecureMessageKeyE@Base 2.0.2
 _ZN3QCA13SecureMessage9startSignENS0_8SignModeE@Base 2.0.2
 _ZN3QCA13SecureMessageC1EPNS_19SecureMessageSystemE@Base 2.0.2
 _ZN3QCA13SecureMessageC2EPNS_19SecureMessageSystemE@Base 2.0.2
 _ZN3QCA13SecureMessageD0Ev@Base 2.0.2
 _ZN3QCA13SecureMessageD1Ev@Base 2.0.2
 _ZN3QCA13SecureMessageD2Ev@Base 2.0.2
 _ZN3QCA13arrayFromFileERK7QStringP10QByteArray@Base 2.0.3-2
 _ZN3QCA13global_randomEv@Base 2.0.3-2
 _ZN3QCA13orderedDNOnlyERKNS_22CertificateInfoOrderedE@Base 2.0.2
 _ZN3QCA14ConsolePrivate11qt_metacallEN11QMetaObject4CallEiPPv@Base 2.0.3-2
 _ZN3QCA14ConsolePrivate11qt_metacastEPKc@Base 2.0.3-2
 _ZN3QCA14ConsolePrivate16staticMetaObjectE@Base 2.0.3-2
 _ZN3QCA14ConsolePrivateD0Ev@Base 2.0.3-2
 _ZN3QCA14ConsolePrivateD1Ev@Base 2.0.3-2
 _ZN3QCA14ConsolePrivateD2Ev@Base 2.0.3-2
 _ZN3QCA14ConstraintTypeC1ENS_19ConstraintTypeKnownE@Base 2.0.2
 _ZN3QCA14ConstraintTypeC1ERK7QStringNS0_7SectionE@Base 2.0.2
 _ZN3QCA14ConstraintTypeC1ERKS0_@Base 2.0.2
 _ZN3QCA14ConstraintTypeC1Ev@Base 2.0.2
 _ZN3QCA14ConstraintTypeC2ENS_19ConstraintTypeKnownE@Base 2.0.2
 _ZN3QCA14ConstraintTypeC2ERK7QStringNS0_7SectionE@Base 2.0.2
 _ZN3QCA14ConstraintTypeC2ERKS0_@Base 2.0.2
 _ZN3QCA14ConstraintTypeC2Ev@Base 2.0.2
 _ZN3QCA14ConstraintTypeD1Ev@Base 2.0.2
 _ZN3QCA14ConstraintTypeD2Ev@Base 2.0.2
 _ZN3QCA14ConstraintTypeaSERKS0_@Base 2.0.2
 _ZN3QCA14DLGroupContext11qt_metacallEN11QMetaObject4CallEiPPv@Base 2.0.2
 _ZN3QCA14DLGroupContext11qt_metacastEPKc@Base 2.0.2
 _ZN3QCA14DLGroupContext16staticMetaObjectE@Base 2.0.2
 _ZN3QCA14DLGroupContext8finishedEv@Base 2.0.2
 _ZN3QCA14DLGroupContextD0Ev@Base 2.0.3-2
 _ZN3QCA14DLGroupContextD1Ev@Base 2.0.3-2
 _ZN3QCA14DLGroupContextD2Ev@Base 2.0.3-2
 _ZN3QCA14KeyStoreThread11qt_metacallEN11QMetaObject4CallEiPPv@Base 2.0.3-2
 _ZN3QCA14KeyStoreThread11qt_metacastEPKc@Base 2.0.3-2
 _ZN3QCA14KeyStoreThread16staticMetaObjectE@Base 2.0.3-2
 _ZN3QCA14KeyStoreThread5atEndEv@Base 2.0.3-2
 _ZN3QCA14KeyStoreThread7atStartEv@Base 2.0.3-2
 _ZN3QCA14KeyStoreThreadD0Ev@Base 2.0.3-2
 _ZN3QCA14KeyStoreThreadD1Ev@Base 2.0.3-2
 _ZN3QCA14KeyStoreThreadD2Ev@Base 2.0.3-2
 _ZN3QCA14MessageContext11qt_metacallEN11QMetaObject4CallEiPPv@Base 2.0.2
 _ZN3QCA14MessageContext11qt_metacastEPKc@Base 2.0.2
 _ZN3QCA14MessageContext16staticMetaObjectE@Base 2.0.2
 _ZN3QCA14MessageContext7updatedEv@Base 2.0.2
 _ZN3QCA14MessageContextD0Ev@Base 2.0.3-2
 _ZN3QCA14MessageContextD1Ev@Base 2.0.3-2
 _ZN3QCA14MessageContextD2Ev@Base 2.0.3-2
 _ZN3QCA14ask_passphraseERK7QStringPvPNS_11SecureArrayE@Base 2.0.3-2
 _ZN3QCA14insertProviderEPNS_8ProviderEi@Base 2.0.2
 _ZN3QCA14providerForPBEENS_12PBEAlgorithmENS_4PKey4TypeEPKNS_11PKeyContextE@Base 2.0.3-2
 _ZN3QCA14scanForPluginsEv@Base 2.0.2
 _ZN3QCA14stringFromFileERK7QStringPS0_@Base 2.0.3-2
 _ZN3QCA15DefaultProvider13configChangedERK4QMapI7QString8QVariantE@Base 2.0.3-2
 _ZN3QCA15DefaultProvider13createContextERK7QString@Base 2.0.3-2
 _ZN3QCA15DefaultProvider4initEv@Base 2.0.3-2
 _ZN3QCA15DefaultProviderD0Ev@Base 2.0.3-2
 _ZN3QCA15DefaultProviderD1Ev@Base 2.0.3-2
 _ZN3QCA15DefaultProviderD2Ev@Base 2.0.3-2
 _ZN3QCA15KeyLoaderThread11qt_metacallEN11QMetaObject4CallEiPPv@Base 2.0.3-2
 _ZN3QCA15KeyLoaderThread11qt_metacastEPKc@Base 2.0.3-2
 _ZN3QCA15KeyLoaderThread16staticMetaObjectE@Base 2.0.3-2
 _ZN3QCA15KeyLoaderThread2InD1Ev@Base 2.0.3-2
 _ZN3QCA15KeyLoaderThread2InD2Ev@Base 2.0.3-2
 _ZN3QCA15KeyLoaderThread3OutD1Ev@Base 2.0.3-2
 _ZN3QCA15KeyLoaderThread3OutD2Ev@Base 2.0.3-2
 _ZN3QCA15KeyLoaderThread3runEv@Base 2.0.3-2
 _ZN3QCA15KeyLoaderThreadD0Ev@Base 2.0.3-2
 _ZN3QCA15KeyLoaderThreadD1Ev@Base 2.0.3-2
 _ZN3QCA15KeyLoaderThreadD2Ev@Base 2.0.3-2
 _ZN3QCA15KeyStoreManager11busyStartedEv@Base 2.0.2
 _ZN3QCA15KeyStoreManager11qt_metacallEN11QMetaObject4CallEiPPv@Base 2.0.2
 _ZN3QCA15KeyStoreManager11qt_metacastEPKc@Base 2.0.2
 _ZN3QCA15KeyStoreManager12busyFinishedEv@Base 2.0.2
 _ZN3QCA15KeyStoreManager14diagnosticTextEv@Base 2.0.2
 _ZN3QCA15KeyStoreManager16staticMetaObjectE@Base 2.0.2
 _ZN3QCA15KeyStoreManager17keyStoreAvailableERK7QString@Base 2.0.2
 _ZN3QCA15KeyStoreManager19clearDiagnosticTextEv@Base 2.0.2
 _ZN3QCA15KeyStoreManager19waitForBusyFinishedEv@Base 2.0.2
 _ZN3QCA15KeyStoreManager4scanEv@Base 2.0.2
 _ZN3QCA15KeyStoreManager4syncEv@Base 2.0.2
 _ZN3QCA15KeyStoreManager5startERK7QString@Base 2.0.2
 _ZN3QCA15KeyStoreManager5startEv@Base 2.0.2
 _ZN3QCA15KeyStoreManager8shutdownEv@Base 2.0.2
 _ZN3QCA15KeyStoreManagerC1EP7QObject@Base 2.0.2
 _ZN3QCA15KeyStoreManagerC2EP7QObject@Base 2.0.2
 _ZN3QCA15KeyStoreManagerD0Ev@Base 2.0.2
 _ZN3QCA15KeyStoreManagerD1Ev@Base 2.0.2
 _ZN3QCA15KeyStoreManagerD2Ev@Base 2.0.2
 _ZN3QCA15KeyStorePrivate11op_finishedEv@Base 2.0.3-2
 _ZN3QCA15KeyStorePrivate11qt_metacallEN11QMetaObject4CallEiPPv@Base 2.0.3-2
 _ZN3QCA15KeyStorePrivate11qt_metacastEPKc@Base 2.0.3-2
 _ZN3QCA15KeyStorePrivate15async_entryListEv@Base 2.0.3-2
 _ZN3QCA15KeyStorePrivate16async_writeEntryERKNS_18KeyStoreWriteEntryE@Base 2.0.3-2
 _ZN3QCA15KeyStorePrivate16staticMetaObjectE@Base 2.0.3-2
 _ZN3QCA15KeyStorePrivate17async_removeEntryERK7QString@Base 2.0.3-2
 _ZN3QCA15KeyStorePrivate3regEv@Base 2.0.3-2
 _ZN3QCA15KeyStorePrivate5unregEv@Base 2.0.3-2
 _ZN3QCA15KeyStorePrivate7getItemERK7QString@Base 2.0.3-2
 _ZN3QCA15KeyStorePrivate7getItemEi@Base 2.0.3-2
 _ZN3QCA15KeyStorePrivateD0Ev@Base 2.0.3-2
 _ZN3QCA15KeyStorePrivateD1Ev@Base 2.0.3-2
 _ZN3QCA15KeyStorePrivateD2Ev@Base 2.0.3-2
 _ZN3QCA15KeyStoreTracker10entryTypesEi@Base 2.0.3-2
 _ZN3QCA15KeyStoreTracker10writeEntryEiRK8QVariant@Base 2.0.3-2
 _ZN3QCA15KeyStoreTracker11ksl_busyEndEv@Base 2.0.3-2
 _ZN3QCA15KeyStoreTracker11ksl_updatedEv@Base 2.0.3-2
 _ZN3QCA15KeyStoreTracker11qt_metacallEN11QMetaObject4CallEiPPv@Base 2.0.3-2
 _ZN3QCA15KeyStoreTracker11qt_metacastEPKc@Base 2.0.3-2
 _ZN3QCA15KeyStoreTracker12entryPassiveERK7QString@Base 2.0.3-2
 _ZN3QCA15KeyStoreTracker12updateStoresEPNS_19KeyStoreListContextE@Base 2.0.3-2
 _ZN3QCA15KeyStoreTracker13ksl_busyStartEv@Base 2.0.3-2
 _ZN3QCA15KeyStoreTracker13startProviderEPNS_8ProviderE@Base 2.0.3-2
 _ZN3QCA15KeyStoreTracker16ksl_storeUpdatedEi@Base 2.0.3-2
 _ZN3QCA15KeyStoreTracker16staticMetaObjectE@Base 2.0.3-2
 _ZN3QCA15KeyStoreTracker4ItemD1Ev@Base 2.0.3-2
 _ZN3QCA15KeyStoreTracker4ItemD2Ev@Base 2.0.3-2
 _ZN3QCA15KeyStoreTracker4selfE@Base 2.0.3-2
 _ZN3QCA15KeyStoreTracker5entryERK7QStringS3_@Base 2.0.3-2
 _ZN3QCA15KeyStoreTracker5startERK7QString@Base 2.0.3-2
 _ZN3QCA15KeyStoreTracker5startEv@Base 2.0.3-2
 _ZN3QCA15KeyStoreTracker7updatedEv@Base 2.0.3-2
 _ZN3QCA15KeyStoreTracker8findItemEi@Base 2.0.3-2
 _ZN3QCA15KeyStoreTracker9entryListEi@Base 2.0.3-2
 _ZN3QCA15KeyStoreTracker9updated_pEv@Base 2.0.3-2
 _ZN3QCA15KeyStoreTrackerC1Ev@Base 2.0.3-2
 _ZN3QCA15KeyStoreTrackerC2Ev@Base 2.0.3-2
 _ZN3QCA15KeyStoreTrackerD0Ev@Base 2.0.3-2
 _ZN3QCA15KeyStoreTrackerD1Ev@Base 2.0.3-2
 _ZN3QCA15KeyStoreTrackerD2Ev@Base 2.0.3-2
 _ZN3QCA15ProviderManager10setDefaultEPNS_8ProviderE@Base 2.0.3-2
 _ZN3QCA15ProviderManager11getPriorityERK7QString@Base 2.0.3-2
 _ZN3QCA15ProviderManager13mergeFeaturesEP11QStringListRKS1_@Base 2.0.3-2
 _ZN3QCA15ProviderManager14changePriorityERK7QStringi@Base 2.0.3-2
 _ZN3QCA15ProviderManager19clearDiagnosticTextEv@Base 2.0.3-2
 _ZN3QCA15ProviderManager20appendDiagnosticTextERK7QString@Base 2.0.3-2
 _ZN3QCA15ProviderManager3addEPNS_8ProviderEi@Base 2.0.3-2
 _ZN3QCA15ProviderManager4scanEv@Base 2.0.3-2
 _ZN3QCA15ProviderManager6unloadERK7QString@Base 2.0.3-2
 _ZN3QCA15ProviderManager7addItemEPNS_12ProviderItemEi@Base 2.0.3-2
 _ZN3QCA15ProviderManager9unloadAllEv@Base 2.0.3-2
 _ZN3QCA15ProviderManagerC1Ev@Base 2.0.3-2
 _ZN3QCA15ProviderManagerC2Ev@Base 2.0.3-2
 _ZN3QCA15ProviderManagerD1Ev@Base 2.0.3-2
 _ZN3QCA15ProviderManagerD2Ev@Base 2.0.3-2
 _ZN3QCA15SyncThreadAgent11qt_metacallEN11QMetaObject4CallEiPPv@Base 2.0.3-2
 _ZN3QCA15SyncThreadAgent11qt_metacastEPKc@Base 2.0.3-2
 _ZN3QCA15SyncThreadAgent16staticMetaObjectE@Base 2.0.3-2
 _ZN3QCA15SyncThreadAgent7startedEv@Base 2.0.3-2
 _ZN3QCA15SyncThreadAgent8call_retEbRK8QVariant@Base 2.0.3-2
 _ZN3QCA15SyncThreadAgentD0Ev@Base 2.0.3-2
 _ZN3QCA15SyncThreadAgentD1Ev@Base 2.0.3-2
 _ZN3QCA15SyncThreadAgentD2Ev@Base 2.0.3-2
 _ZN3QCA15defaultFeaturesEv@Base 2.0.2
 _ZN3QCA15defaultProviderEv@Base 2.0.2
 _ZN3QCA15get_pbe_defaultEv@Base 2.0.3-2
 _ZN3QCA15haveSystemStoreEv@Base 2.0.2
 _ZN3QCA15providerForNameERK7QString@Base 2.0.3-2
 _ZN3QCA16CertificateChainD1Ev@Base 2.0.3-2
 _ZN3QCA16CertificateChainD2Ev@Base 2.0.3-2
 _ZN3QCA16ConsoleReference10readSecureEi@Base 2.0.2
 _ZN3QCA16ConsoleReference11closeOutputEv@Base 2.0.2
 _ZN3QCA16ConsoleReference11inputClosedEv@Base 2.0.2
 _ZN3QCA16ConsoleReference11qt_metacallEN11QMetaObject4CallEiPPv@Base 2.0.2
 _ZN3QCA16ConsoleReference11qt_metacastEPKc@Base 2.0.2
 _ZN3QCA16ConsoleReference11writeSecureERKNS_11SecureArrayE@Base 2.0.2
 _ZN3QCA16ConsoleReference12bytesWrittenEi@Base 2.0.2
 _ZN3QCA16ConsoleReference12outputClosedEv@Base 2.0.2
 _ZN3QCA16ConsoleReference16staticMetaObjectE@Base 2.0.2
 _ZN3QCA16ConsoleReference4readEi@Base 2.0.2
 _ZN3QCA16ConsoleReference4stopEv@Base 2.0.2
 _ZN3QCA16ConsoleReference5startEPNS_7ConsoleENS0_12SecurityModeE@Base 2.0.2
 _ZN3QCA16ConsoleReference5writeERK10QByteArray@Base 2.0.2
 _ZN3QCA16ConsoleReference9readyReadEv@Base 2.0.2
 _ZN3QCA16ConsoleReferenceC1EP7QObject@Base 2.0.2
 _ZN3QCA16ConsoleReferenceC2EP7QObject@Base 2.0.2
 _ZN3QCA16ConsoleReferenceD0Ev@Base 2.0.2
 _ZN3QCA16ConsoleReferenceD1Ev@Base 2.0.2
 _ZN3QCA16ConsoleReferenceD2Ev@Base 2.0.2
 _ZN3QCA16SecureMessageKey15setPGPPublicKeyERKNS_6PGPKeyE@Base 2.0.2
 _ZN3QCA16SecureMessageKey15setPGPSecretKeyERKNS_6PGPKeyE@Base 2.0.2
 _ZN3QCA16SecureMessageKey16setX509KeyBundleERKNS_9KeyBundleE@Base 2.0.2
 _ZN3QCA16SecureMessageKey17setX509PrivateKeyERKNS_10PrivateKeyE@Base 2.0.2
 _ZN3QCA16SecureMessageKey23setX509CertificateChainERKNS_16CertificateChainE@Base 2.0.2
 _ZN3QCA16SecureMessageKeyC1ERKS0_@Base 2.0.2
 _ZN3QCA16SecureMessageKeyC1Ev@Base 2.0.2
 _ZN3QCA16SecureMessageKeyC2ERKS0_@Base 2.0.2
 _ZN3QCA16SecureMessageKeyC2Ev@Base 2.0.2
 _ZN3QCA16SecureMessageKeyD1Ev@Base 2.0.2
 _ZN3QCA16SecureMessageKeyD2Ev@Base 2.0.2
 _ZN3QCA16SecureMessageKeyaSERKS0_@Base 2.0.2
 _ZN3QCA16haveSecureMemoryEv@Base 2.0.2
 _ZN3QCA16haveSecureRandomEv@Base 2.0.2
 _ZN3QCA16methodReturnTypeEPK11QMetaObjectRK10QByteArray5QListIS3_E@Base 2.0.2
 _ZN3QCA16providerPriorityERK7QString@Base 2.0.2
 _ZN3QCA16unloadAllPluginsEv@Base 2.0.2
 _ZN3QCA17AbstractLogDevice11qt_metacallEN11QMetaObject4CallEiPPv@Base 2.0.2
 _ZN3QCA17AbstractLogDevice11qt_metacastEPKc@Base 2.0.2
 _ZN3QCA17AbstractLogDevice14logTextMessageERK7QStringNS_6Logger8SeverityE@Base 2.0.2
 _ZN3QCA17AbstractLogDevice16logBinaryMessageERK10QByteArrayNS_6Logger8SeverityE@Base 2.0.2
 _ZN3QCA17AbstractLogDevice16staticMetaObjectE@Base 2.0.2
 _ZN3QCA17AbstractLogDeviceC1ERK7QStringP7QObject@Base 2.0.2
 _ZN3QCA17AbstractLogDeviceC2ERK7QStringP7QObject@Base 2.0.2
 _ZN3QCA17AbstractLogDeviceD0Ev@Base 2.0.2
 _ZN3QCA17AbstractLogDeviceD1Ev@Base 2.0.2
 _ZN3QCA17AbstractLogDeviceD2Ev@Base 2.0.2
 _ZN3QCA17DefaultMD5Context5clearEv@Base 2.0.3-2
 _ZN3QCA17DefaultMD5Context5finalEv@Base 2.0.3-2
 _ZN3QCA17DefaultMD5Context6updateERKNS_12MemoryRegionE@Base 2.0.3-2
 _ZN3QCA17DefaultMD5ContextD0Ev@Base 2.0.3-2
 _ZN3QCA17DefaultMD5ContextD1Ev@Base 2.0.3-2
 _ZN3QCA17DefaultMD5ContextD2Ev@Base 2.0.3-2
 _ZN3QCA17KeyStoreOperation11qt_metacallEN11QMetaObject4CallEiPPv@Base 2.0.3-2
 _ZN3QCA17KeyStoreOperation11qt_metacastEPKc@Base 2.0.3-2
 _ZN3QCA17KeyStoreOperation16staticMetaObjectE@Base 2.0.3-2
 _ZN3QCA17KeyStoreOperation3runEv@Base 2.0.3-2
 _ZN3QCA17KeyStoreOperationD0Ev@Base 2.0.3-2
 _ZN3QCA17KeyStoreOperationD1Ev@Base 2.0.3-2
 _ZN3QCA17KeyStoreOperationD2Ev@Base 2.0.3-2
 _ZN3QCA17SynchronizerAgent11qt_metacallEN11QMetaObject4CallEiPPv@Base 2.0.3-2
 _ZN3QCA17SynchronizerAgent11qt_metacastEPKc@Base 2.0.3-2
 _ZN3QCA17SynchronizerAgent16staticMetaObjectE@Base 2.0.3-2
 _ZN3QCA17SynchronizerAgent7startedEv@Base 2.0.3-2
 _ZN3QCA17SynchronizerAgentD0Ev@Base 2.0.3-2
 _ZN3QCA17SynchronizerAgentD1Ev@Base 2.0.3-2
 _ZN3QCA17SynchronizerAgentD2Ev@Base 2.0.3-2
 _ZN3QCA17TLSSessionContext11qt_metacallEN11QMetaObject4CallEiPPv@Base 2.0.2
 _ZN3QCA17TLSSessionContext11qt_metacastEPKc@Base 2.0.2
 _ZN3QCA17TLSSessionContext16staticMetaObjectE@Base 2.0.2
 _ZN3QCA17TLSSessionContextD0Ev@Base 2.0.3-2
 _ZN3QCA17TLSSessionContextD1Ev@Base 2.0.3-2
 _ZN3QCA17TLSSessionContextD2Ev@Base 2.0.3-2
 _ZN3QCA17botan_secure_freeEPvi@Base 2.0.3-2
 _ZN3QCA17botan_throw_abortEv@Base 2.0.3-2
 _ZN3QCA17getProviderConfigERK7QString@Base 2.0.2
 _ZN3QCA17makeFriendlyNamesERK5QListINS_11CertificateEE@Base 2.0.2
 _ZN3QCA17orderedToDNStringERKNS_22CertificateInfoOrderedE@Base 2.0.2
 _ZN3QCA17plugin_prioritiesEPNS_8ProviderE@Base 2.0.3-2
 _ZN3QCA17providerForIOTypeENS_4PKey4TypeEPKNS_11PKeyContextE@Base 2.0.3-2
 _ZN3QCA17setProviderConfigERK7QStringRK4QMapIS0_8QVariantE@Base 2.0.2
 _ZN3QCA17supportedFeaturesEv@Base 2.0.2
 _ZN3QCA18CertificateOptions11setPoliciesERK11QStringList@Base 2.0.2
 _ZN3QCA18CertificateOptions12setChallengeERK7QString@Base 2.0.2
 _ZN3QCA18CertificateOptions14setConstraintsERK5QListINS_14ConstraintTypeEE@Base 2.0.2
 _ZN3QCA18CertificateOptions14setInfoOrderedERKNS_22CertificateInfoOrderedE@Base 2.0.2
 _ZN3QCA18CertificateOptions15setCRLLocationsERK11QStringList@Base 2.0.2
 _ZN3QCA18CertificateOptions15setSerialNumberERKNS_10BigIntegerE@Base 2.0.2
 _ZN3QCA18CertificateOptions16setOCSPLocationsERK11QStringList@Base 2.0.2
 _ZN3QCA18CertificateOptions17setValidityPeriodERK9QDateTimeS3_@Base 2.0.2
 _ZN3QCA18CertificateOptions18setIssuerLocationsERK11QStringList@Base 2.0.2
 _ZN3QCA18CertificateOptions7PrivateC1ERKS1_@Base 2.0.3-2
 _ZN3QCA18CertificateOptions7PrivateC2ERKS1_@Base 2.0.3-2
 _ZN3QCA18CertificateOptions7PrivateD1Ev@Base 2.0.3-2
 _ZN3QCA18CertificateOptions7PrivateD2Ev@Base 2.0.3-2
 _ZN3QCA18CertificateOptions7setAsCAEi@Base 2.0.2
 _ZN3QCA18CertificateOptions7setInfoERK9QMultiMapINS_19CertificateInfoTypeE7QStringE@Base 2.0.2
 _ZN3QCA18CertificateOptions9setAsUserEv@Base 2.0.2
 _ZN3QCA18CertificateOptions9setFormatENS_24CertificateRequestFormatE@Base 2.0.2
 _ZN3QCA18CertificateOptionsC1ENS_24CertificateRequestFormatE@Base 2.0.2
 _ZN3QCA18CertificateOptionsC1ERKS0_@Base 2.0.2
 _ZN3QCA18CertificateOptionsC2ENS_24CertificateRequestFormatE@Base 2.0.2
 _ZN3QCA18CertificateOptionsC2ERKS0_@Base 2.0.2
 _ZN3QCA18CertificateOptionsD1Ev@Base 2.0.2
 _ZN3QCA18CertificateOptionsD2Ev@Base 2.0.2
 _ZN3QCA18CertificateOptionsaSERKS0_@Base 2.0.2
 _ZN3QCA18CertificateRequest10fromStringERK7QStringPNS_13ConvertResultES3_@Base 2.0.2
 _ZN3QCA18CertificateRequest11fromPEMFileERK7QStringPNS_13ConvertResultES3_@Base 2.0.2
 _ZN3QCA18CertificateRequest12canUseFormatENS_24CertificateRequestFormatERK7QString@Base 2.0.2
 _ZN3QCA18CertificateRequest6changeEPNS_10CSRContextE@Base 2.0.2
 _ZN3QCA18CertificateRequest7fromDERERK10QByteArrayPNS_13ConvertResultERK7QString@Base 2.0.2
 _ZN3QCA18CertificateRequest7fromPEMERK7QStringPNS_13ConvertResultES3_@Base 2.0.2
 _ZN3QCA18CertificateRequestC1ERK7QString@Base 2.0.2
 _ZN3QCA18CertificateRequestC1ERKNS_18CertificateOptionsERKNS_10PrivateKeyERK7QString@Base 2.0.2
 _ZN3QCA18CertificateRequestC1ERKS0_@Base 2.0.2
 _ZN3QCA18CertificateRequestC1Ev@Base 2.0.2
 _ZN3QCA18CertificateRequestC2ERK7QString@Base 2.0.2
 _ZN3QCA18CertificateRequestC2ERKNS_18CertificateOptionsERKNS_10PrivateKeyERK7QString@Base 2.0.2
 _ZN3QCA18CertificateRequestC2ERKS0_@Base 2.0.2
 _ZN3QCA18CertificateRequestC2Ev@Base 2.0.2
 _ZN3QCA18CertificateRequestD0Ev@Base 2.0.2
 _ZN3QCA18CertificateRequestD1Ev@Base 2.0.2
 _ZN3QCA18CertificateRequestD2Ev@Base 2.0.2
 _ZN3QCA18CertificateRequestaSERKS0_@Base 2.0.2
 _ZN3QCA18DefaultSHA1Context10sha1_finalEPhPNS_12SHA1_CONTEXTE@Base 2.0.3-2
 _ZN3QCA18DefaultSHA1Context5clearEv@Base 2.0.3-2
 _ZN3QCA18DefaultSHA1Context5finalEv@Base 2.0.3-2
 _ZN3QCA18DefaultSHA1Context6updateERKNS_12MemoryRegionE@Base 2.0.3-2
 _ZN3QCA18DefaultSHA1Context9transformEPjPh@Base 2.0.3-2
 _ZN3QCA18DefaultSHA1ContextD0Ev@Base 2.0.3-2
 _ZN3QCA18DefaultSHA1ContextD1Ev@Base 2.0.3-2
 _ZN3QCA18DefaultSHA1ContextD2Ev@Base 2.0.3-2
 _ZN3QCA18KeyStoreWriteEntryD1Ev@Base 2.0.3-2
 _ZN3QCA18KeyStoreWriteEntryD2Ev@Base 2.0.3-2
 _ZN3QCA18SafeSocketNotifier11qt_metacallEN11QMetaObject4CallEiPPv@Base 2.0.3-2
 _ZN3QCA18SafeSocketNotifier11qt_metacastEPKc@Base 2.0.3-2
 _ZN3QCA18SafeSocketNotifier16staticMetaObjectE@Base 2.0.3-2
 _ZN3QCA18SafeSocketNotifier9activatedEi@Base 2.0.3-2
 _ZN3QCA18SafeSocketNotifierD0Ev@Base 2.0.3-2
 _ZN3QCA18SafeSocketNotifierD1Ev@Base 2.0.3-2
 _ZN3QCA18SafeSocketNotifierD2Ev@Base 2.0.3-2
 _ZN3QCA18botan_secure_allocEi@Base 2.0.3-2
 _ZN3QCA18saveProviderConfigERK7QString@Base 2.0.2
 _ZN3QCA18use_asker_fallbackENS_13ConvertResultE@Base 2.0.3-2
 _ZN3QCA19BufferedComputation7processERKNS_12MemoryRegionE@Base 2.0.2
 _ZN3QCA19BufferedComputationD0Ev@Base 2.0.2
 _ZN3QCA19BufferedComputationD1Ev@Base 2.0.2
 _ZN3QCA19BufferedComputationD2Ev@Base 2.0.2
 _ZN3QCA19CertificateInfoPairC1ERKNS_19CertificateInfoTypeERK7QString@Base 2.0.2
 _ZN3QCA19CertificateInfoPairC1ERKS0_@Base 2.0.2
 _ZN3QCA19CertificateInfoPairC1Ev@Base 2.0.2
 _ZN3QCA19CertificateInfoPairC2ERKNS_19CertificateInfoTypeERK7QString@Base 2.0.2
 _ZN3QCA19CertificateInfoPairC2ERKS0_@Base 2.0.2
 _ZN3QCA19CertificateInfoPairC2Ev@Base 2.0.2
 _ZN3QCA19CertificateInfoPairD1Ev@Base 2.0.2
 _ZN3QCA19CertificateInfoPairD2Ev@Base 2.0.2
 _ZN3QCA19CertificateInfoPairaSERKS0_@Base 2.0.2
 _ZN3QCA19CertificateInfoTypeC1ENS_24CertificateInfoTypeKnownE@Base 2.0.2
 _ZN3QCA19CertificateInfoTypeC1ERK7QStringNS0_7SectionE@Base 2.0.2
 _ZN3QCA19CertificateInfoTypeC1ERKS0_@Base 2.0.2
 _ZN3QCA19CertificateInfoTypeC1Ev@Base 2.0.2
 _ZN3QCA19CertificateInfoTypeC2ENS_24CertificateInfoTypeKnownE@Base 2.0.2
 _ZN3QCA19CertificateInfoTypeC2ERK7QStringNS0_7SectionE@Base 2.0.2
 _ZN3QCA19CertificateInfoTypeC2ERKS0_@Base 2.0.2
 _ZN3QCA19CertificateInfoTypeC2Ev@Base 2.0.2
 _ZN3QCA19CertificateInfoTypeD1Ev@Base 2.0.2
 _ZN3QCA19CertificateInfoTypeD2Ev@Base 2.0.2
 _ZN3QCA19CertificateInfoTypeaSERKS0_@Base 2.0.2
 _ZN3QCA19DefaultKeyStoreList11qt_metacallEN11QMetaObject4CallEiPPv@Base 2.0.3-2
 _ZN3QCA19DefaultKeyStoreList11qt_metacastEPKc@Base 2.0.3-2
 _ZN3QCA19DefaultKeyStoreList12entryPassiveERK7QString@Base 2.0.3-2
 _ZN3QCA19DefaultKeyStoreList16staticMetaObjectE@Base 2.0.3-2
 _ZN3QCA19DefaultKeyStoreList5startEv@Base 2.0.3-2
 _ZN3QCA19DefaultKeyStoreList9entryListEi@Base 2.0.3-2
 _ZN3QCA19DefaultKeyStoreList9keyStoresEv@Base 2.0.3-2
 _ZN3QCA19DefaultKeyStoreListD0Ev@Base 2.0.3-2
 _ZN3QCA19DefaultKeyStoreListD1Ev@Base 2.0.3-2
 _ZN3QCA19DefaultKeyStoreListD2Ev@Base 2.0.3-2
 _ZN3QCA19KeyStoreListContext10writeEntryEiRKNS_11CertificateE@Base 2.0.2
 _ZN3QCA19KeyStoreListContext10writeEntryEiRKNS_3CRLE@Base 2.0.2
 _ZN3QCA19KeyStoreListContext10writeEntryEiRKNS_6PGPKeyE@Base 2.0.2
 _ZN3QCA19KeyStoreListContext10writeEntryEiRKNS_9KeyBundleE@Base 2.0.2
 _ZN3QCA19KeyStoreListContext11qt_metacallEN11QMetaObject4CallEiPPv@Base 2.0.2
 _ZN3QCA19KeyStoreListContext11qt_metacastEPKc@Base 2.0.2
 _ZN3QCA19KeyStoreListContext11removeEntryEiRK7QString@Base 2.0.2
 _ZN3QCA19KeyStoreListContext12entryPassiveERK7QString@Base 2.0.2
 _ZN3QCA19KeyStoreListContext12storeUpdatedEi@Base 2.0.2
 _ZN3QCA19KeyStoreListContext14diagnosticTextERK7QString@Base 2.0.2
 _ZN3QCA19KeyStoreListContext16staticMetaObjectE@Base 2.0.2
 _ZN3QCA19KeyStoreListContext17setUpdatesEnabledEb@Base 2.0.2
 _ZN3QCA19KeyStoreListContext5entryEiRK7QString@Base 2.0.2
 _ZN3QCA19KeyStoreListContext5startEv@Base 2.0.2
 _ZN3QCA19KeyStoreListContext7busyEndEv@Base 2.0.2
 _ZN3QCA19KeyStoreListContext7updatedEv@Base 2.0.2
 _ZN3QCA19KeyStoreListContext9busyStartEv@Base 2.0.2
 _ZN3QCA19KeyStoreListContextD0Ev@Base 2.0.3-2
 _ZN3QCA19KeyStoreListContextD1Ev@Base 2.0.3-2
 _ZN3QCA19KeyStoreListContextD2Ev@Base 2.0.3-2
 _ZN3QCA19SecureMessageSystem11qt_metacallEN11QMetaObject4CallEiPPv@Base 2.0.2
 _ZN3QCA19SecureMessageSystem11qt_metacastEPKc@Base 2.0.2
 _ZN3QCA19SecureMessageSystem16staticMetaObjectE@Base 2.0.2
 _ZN3QCA19SecureMessageSystemC1EP7QObjectRK7QStringS5_@Base 2.0.2
 _ZN3QCA19SecureMessageSystemC2EP7QObjectRK7QStringS5_@Base 2.0.2
 _ZN3QCA19SecureMessageSystemD0Ev@Base 2.0.2
 _ZN3QCA19SecureMessageSystemD1Ev@Base 2.0.2
 _ZN3QCA19SecureMessageSystemD2Ev@Base 2.0.2
 _ZN3QCA19global_random_mutexEv@Base 2.0.3-2
 _ZN3QCA19providerForGroupSetENS_10DLGroupSetE@Base 2.0.3-2
 _ZN3QCA19qca_get_systemstoreERK7QString@Base 2.0.3-2
 _ZN3QCA19setProviderPriorityERK7QStringi@Base 2.0.2
 _ZN3QCA20CertificateAuthorityC1ERKNS_11CertificateERKNS_10PrivateKeyERK7QString@Base 2.0.2
 _ZN3QCA20CertificateAuthorityC1ERKS0_@Base 2.0.2
 _ZN3QCA20CertificateAuthorityC2ERKNS_11CertificateERKNS_10PrivateKeyERK7QString@Base 2.0.2
 _ZN3QCA20CertificateAuthorityC2ERKS0_@Base 2.0.2
 _ZN3QCA20CertificateAuthorityD0Ev@Base 2.0.2
 _ZN3QCA20CertificateAuthorityD1Ev@Base 2.0.2
 _ZN3QCA20CertificateAuthorityD2Ev@Base 2.0.2
 _ZN3QCA20CertificateAuthorityaSERKS0_@Base 2.0.2
 _ZN3QCA20DefaultKeyStoreEntry11deserializeERK7QStringPNS_8ProviderE@Base 2.0.3-2
 _ZN3QCA20DefaultKeyStoreEntryC1ERKNS_11CertificateERK7QStringS6_PNS_8ProviderE@Base 2.0.3-2
 _ZN3QCA20DefaultKeyStoreEntryC1ERKNS_3CRLERK7QStringS6_PNS_8ProviderE@Base 2.0.3-2
 _ZN3QCA20DefaultKeyStoreEntryC2ERKNS_11CertificateERK7QStringS6_PNS_8ProviderE@Base 2.0.3-2
 _ZN3QCA20DefaultKeyStoreEntryC2ERKNS_3CRLERK7QStringS6_PNS_8ProviderE@Base 2.0.3-2
 _ZN3QCA20DefaultKeyStoreEntryD0Ev@Base 2.0.3-2
 _ZN3QCA20DefaultKeyStoreEntryD1Ev@Base 2.0.3-2
 _ZN3QCA20DefaultKeyStoreEntryD2Ev@Base 2.0.3-2
 _ZN3QCA20DefaultRandomContext9nextBytesEi@Base 2.0.3-2
 _ZN3QCA20DefaultRandomContextD0Ev@Base 2.0.3-2
 _ZN3QCA20DefaultRandomContextD1Ev@Base 2.0.3-2
 _ZN3QCA20DefaultRandomContextD2Ev@Base 2.0.3-2
 _ZN3QCA20InitializationVectorC1ERK10QByteArray@Base 2.0.2
 _ZN3QCA20InitializationVectorC1ERKNS_11SecureArrayE@Base 2.0.2
 _ZN3QCA20InitializationVectorC1Ei@Base 2.0.2
 _ZN3QCA20InitializationVectorC1Ev@Base 2.0.2
 _ZN3QCA20InitializationVectorC2ERK10QByteArray@Base 2.0.2
 _ZN3QCA20InitializationVectorC2ERKNS_11SecureArrayE@Base 2.0.2
 _ZN3QCA20InitializationVectorC2Ei@Base 2.0.2
 _ZN3QCA20InitializationVectorC2Ev@Base 2.0.2
 _ZN3QCA20KeyStoreEntryContext11qt_metacallEN11QMetaObject4CallEiPPv@Base 2.0.2
 _ZN3QCA20KeyStoreEntryContext11qt_metacastEPKc@Base 2.0.2
 _ZN3QCA20KeyStoreEntryContext12ensureAccessEv@Base 2.0.2
 _ZN3QCA20KeyStoreEntryContext16staticMetaObjectE@Base 2.0.2
 _ZN3QCA20KeyStoreEntryContextD0Ev@Base 2.0.3-2
 _ZN3QCA20KeyStoreEntryContextD1Ev@Base 2.0.3-2
 _ZN3QCA20KeyStoreEntryContextD2Ev@Base 2.0.3-2
 _ZN3QCA20KeyStoreEntryWatcher11qt_metacallEN11QMetaObject4CallEiPPv@Base 2.0.2
 _ZN3QCA20KeyStoreEntryWatcher11qt_metacastEPKc@Base 2.0.2
 _ZN3QCA20KeyStoreEntryWatcher11unavailableEv@Base 2.0.2
 _ZN3QCA20KeyStoreEntryWatcher16staticMetaObjectE@Base 2.0.2
 _ZN3QCA20KeyStoreEntryWatcher7Private10ks_updatedEv@Base 2.0.3-2
 _ZN3QCA20KeyStoreEntryWatcher7Private11qt_metacallEN11QMetaObject4CallEiPPv@Base 2.0.2
 _ZN3QCA20KeyStoreEntryWatcher7Private11qt_metacastEPKc@Base 2.0.2
 _ZN3QCA20KeyStoreEntryWatcher7Private13ksm_availableERK7QString@Base 2.0.3-2
 _ZN3QCA20KeyStoreEntryWatcher7Private16staticMetaObjectE@Base 2.0.2
 _ZN3QCA20KeyStoreEntryWatcher7Private5startEv@Base 2.0.3-2
 _ZN3QCA20KeyStoreEntryWatcher7PrivateD0Ev@Base 2.0.3-2
 _ZN3QCA20KeyStoreEntryWatcher7PrivateD1Ev@Base 2.0.3-2
 _ZN3QCA20KeyStoreEntryWatcher7PrivateD2Ev@Base 2.0.3-2
 _ZN3QCA20KeyStoreEntryWatcher9availableEv@Base 2.0.2
 _ZN3QCA20KeyStoreEntryWatcherC1ERKNS_13KeyStoreEntryEP7QObject@Base 2.0.2
 _ZN3QCA20KeyStoreEntryWatcherC2ERKNS_13KeyStoreEntryEP7QObject@Base 2.0.2
 _ZN3QCA20KeyStoreEntryWatcherD0Ev@Base 2.0.2
 _ZN3QCA20KeyStoreEntryWatcherD1Ev@Base 2.0.2
 _ZN3QCA20KeyStoreEntryWatcherD2Ev@Base 2.0.2
 _ZN3QCA20globalRandomProviderEv@Base 2.0.2
 _ZN3QCA20pluginDiagnosticTextEv@Base 2.0.2
 _ZN3QCA20qca_have_systemstoreEv@Base 2.0.3-2
 _ZN3QCA21CertCollectionContext11qt_metacallEN11QMetaObject4CallEiPPv@Base 2.0.2
 _ZN3QCA21CertCollectionContext11qt_metacastEPKc@Base 2.0.2
 _ZN3QCA21CertCollectionContext16staticMetaObjectE@Base 2.0.2
 _ZN3QCA21CertCollectionContextD0Ev@Base 2.0.3-2
 _ZN3QCA21CertCollectionContextD1Ev@Base 2.0.3-2
 _ZN3QCA21CertCollectionContextD2Ev@Base 2.0.3-2
 _ZN3QCA21CertificateCollection11canUsePKCS7ERK7QString@Base 2.0.2
 _ZN3QCA21CertificateCollection11toPKCS7FileERK7QStringS3_@Base 2.0.2
 _ZN3QCA21CertificateCollection13fromPKCS7FileERK7QStringPNS_13ConvertResultES3_@Base 2.0.2
 _ZN3QCA21CertificateCollection14addCertificateERKNS_11CertificateE@Base 2.0.2
 _ZN3QCA21CertificateCollection14toFlatTextFileERK7QString@Base 2.0.2
 _ZN3QCA21CertificateCollection16fromFlatTextFileERK7QStringPNS_13ConvertResultES3_@Base 2.0.2
 _ZN3QCA21CertificateCollection6addCRLERKNS_3CRLE@Base 2.0.2
 _ZN3QCA21CertificateCollection6appendERKS0_@Base 2.0.2
 _ZN3QCA21CertificateCollectionC1ERKS0_@Base 2.0.2
 _ZN3QCA21CertificateCollectionC1Ev@Base 2.0.2
 _ZN3QCA21CertificateCollectionC2ERKS0_@Base 2.0.2
 _ZN3QCA21CertificateCollectionC2Ev@Base 2.0.2
 _ZN3QCA21CertificateCollectionD1Ev@Base 2.0.2
 _ZN3QCA21CertificateCollectionD2Ev@Base 2.0.2
 _ZN3QCA21CertificateCollectionaSERKS0_@Base 2.0.2
 _ZN3QCA21CertificateCollectionpLERKS0_@Base 2.0.2
 _ZN3QCA21KeyDerivationFunction13withAlgorithmERK7QStringS3_@Base 2.0.2
 _ZN3QCA21KeyDerivationFunction7makeKeyERKNS_11SecureArrayERKNS_20InitializationVectorEjj@Base 2.0.2
 _ZN3QCA21KeyDerivationFunctionC1ERK7QStringS3_@Base 2.0.2
 _ZN3QCA21KeyDerivationFunctionC1ERKS0_@Base 2.0.2
 _ZN3QCA21KeyDerivationFunctionC2ERK7QStringS3_@Base 2.0.2
 _ZN3QCA21KeyDerivationFunctionC2ERKS0_@Base 2.0.2
 _ZN3QCA21KeyDerivationFunctionD0Ev@Base 2.0.2
 _ZN3QCA21KeyDerivationFunctionD1Ev@Base 2.0.2
 _ZN3QCA21KeyDerivationFunctionD2Ev@Base 2.0.2
 _ZN3QCA21KeyDerivationFunctionaSERKS0_@Base 2.0.2
 _ZN3QCA21releaseAndDeleteLaterEP7QObjectS1_@Base 2.0.3-2
 _ZN3QCA22CertificateInfoOrderedD1Ev@Base 2.0.3-2
 _ZN3QCA22CertificateInfoOrderedD2Ev@Base 2.0.3-2
 _ZN3QCA22KeyStoreManagerPrivate11qt_metacallEN11QMetaObject4CallEiPPv@Base 2.0.3-2
 _ZN3QCA22KeyStoreManagerPrivate11qt_metacastEPKc@Base 2.0.3-2
 _ZN3QCA22KeyStoreManagerPrivate15tracker_updatedEv@Base 2.0.3-2
 _ZN3QCA22KeyStoreManagerPrivate16staticMetaObjectE@Base 2.0.3-2
 _ZN3QCA22KeyStoreManagerPrivate5unregEPNS_8KeyStoreE@Base 2.0.3-2
 _ZN3QCA22KeyStoreManagerPrivate9do_updateEv@Base 2.0.3-2
 _ZN3QCA22KeyStoreManagerPrivateD0Ev@Base 2.0.3-2
 _ZN3QCA22KeyStoreManagerPrivateD1Ev@Base 2.0.3-2
 _ZN3QCA22KeyStoreManagerPrivateD2Ev@Base 2.0.3-2
 _ZN3QCA22SecureMessageSignatureC1ENS0_14IdentityResultENS_8ValidityERKNS_16SecureMessageKeyERK9QDateTime@Base 2.0.2
 _ZN3QCA22SecureMessageSignatureC1ERKS0_@Base 2.0.2
 _ZN3QCA22SecureMessageSignatureC1Ev@Base 2.0.2
 _ZN3QCA22SecureMessageSignatureC2ENS0_14IdentityResultENS_8ValidityERKNS_16SecureMessageKeyERK9QDateTime@Base 2.0.2
 _ZN3QCA22SecureMessageSignatureC2ERKS0_@Base 2.0.2
 _ZN3QCA22SecureMessageSignatureC2Ev@Base 2.0.2
 _ZN3QCA22SecureMessageSignatureD1Ev@Base 2.0.2
 _ZN3QCA22SecureMessageSignatureD2Ev@Base 2.0.2
 _ZN3QCA22SecureMessageSignatureaSERKS0_@Base 2.0.2
 _ZN3QCA23ConsoleReferencePrivate11qt_metacallEN11QMetaObject4CallEiPPv@Base 2.0.3-2
 _ZN3QCA23ConsoleReferencePrivate11qt_metacastEPKc@Base 2.0.3-2
 _ZN3QCA23ConsoleReferencePrivate16staticMetaObjectE@Base 2.0.3-2
 _ZN3QCA23ConsoleReferencePrivateD0Ev@Base 2.0.3-2
 _ZN3QCA23ConsoleReferencePrivateD1Ev@Base 2.0.3-2
 _ZN3QCA23ConsoleReferencePrivateD2Ev@Base 2.0.3-2
 _ZN3QCA23QFileSystemWatcherRelay11fileChangedERK7QString@Base 2.0.3-2
 _ZN3QCA23QFileSystemWatcherRelay11qt_metacallEN11QMetaObject4CallEiPPv@Base 2.0.3-2
 _ZN3QCA23QFileSystemWatcherRelay11qt_metacastEPKc@Base 2.0.3-2
 _ZN3QCA23QFileSystemWatcherRelay16directoryChangedERK7QString@Base 2.0.3-2
 _ZN3QCA23QFileSystemWatcherRelay16staticMetaObjectE@Base 2.0.3-2
 _ZN3QCA23QFileSystemWatcherRelayD0Ev@Base 2.0.3-2
 _ZN3QCA23QFileSystemWatcherRelayD1Ev@Base 2.0.3-2
 _ZN3QCA23QFileSystemWatcherRelayD2Ev@Base 2.0.3-2
 _ZN3QCA23create_default_providerEv@Base 2.0.3-2
 _ZN3QCA23setGlobalRandomProviderERK7QString@Base 2.0.2
 _ZN3QCA24invokeMethodWithVariantsEP7QObjectRK10QByteArrayRK5QListI8QVariantEPS6_N2Qt14ConnectionTypeE@Base 2.0.2
 _ZN3QCA25MessageAuthenticationCode14supportedTypesERK7QString@Base 2.0.2
 _ZN3QCA25MessageAuthenticationCode5clearEv@Base 2.0.2
 _ZN3QCA25MessageAuthenticationCode5finalEv@Base 2.0.2
 _ZN3QCA25MessageAuthenticationCode5setupERKNS_12SymmetricKeyE@Base 2.0.2
 _ZN3QCA25MessageAuthenticationCode6updateERKNS_12MemoryRegionE@Base 2.0.2
 _ZN3QCA25MessageAuthenticationCodeC1ERK7QStringRKNS_12SymmetricKeyES3_@Base 2.0.2
 _ZN3QCA25MessageAuthenticationCodeC1ERKS0_@Base 2.0.2
 _ZN3QCA25MessageAuthenticationCodeC2ERK7QStringRKNS_12SymmetricKeyES3_@Base 2.0.2
 _ZN3QCA25MessageAuthenticationCodeC2ERKS0_@Base 2.0.2
 _ZN3QCA25MessageAuthenticationCodeD0Ev@Base 2.0.2
 _ZN3QCA25MessageAuthenticationCodeD1Ev@Base 2.0.2
 _ZN3QCA25MessageAuthenticationCodeD2Ev@Base 2.0.2
 _ZN3QCA25MessageAuthenticationCodeaSERKS0_@Base 2.0.2
 _ZN3QCA25clearPluginDiagnosticTextEv@Base 2.0.2
 _ZN3QCA26appendPluginDiagnosticTextERK7QString@Base 2.0.2
 _ZN3QCA26getProviderConfig_internalEPNS_8ProviderE@Base 2.0.3-2
 _ZN3QCA3CMS11qt_metacallEN11QMetaObject4CallEiPPv@Base 2.0.2
 _ZN3QCA3CMS11qt_metacastEPKc@Base 2.0.2
 _ZN3QCA3CMS14setPrivateKeysERK5QListINS_16SecureMessageKeyEE@Base 2.0.2
 _ZN3QCA3CMS16staticMetaObjectE@Base 2.0.2
 _ZN3QCA3CMS22setTrustedCertificatesERKNS_21CertificateCollectionE@Base 2.0.2
 _ZN3QCA3CMS24setUntrustedCertificatesERKNS_21CertificateCollectionE@Base 2.0.2
 _ZN3QCA3CMSC1EP7QObjectRK7QString@Base 2.0.2
 _ZN3QCA3CMSC2EP7QObjectRK7QString@Base 2.0.2
 _ZN3QCA3CMSD0Ev@Base 2.0.2
 _ZN3QCA3CMSD1Ev@Base 2.0.2
 _ZN3QCA3CMSD2Ev@Base 2.0.2
 _ZN3QCA3CRL11fromPEMFileERK7QStringPNS_13ConvertResultES3_@Base 2.0.2
 _ZN3QCA3CRL6changeEPNS_10CRLContextE@Base 2.0.2
 _ZN3QCA3CRL7fromDERERK10QByteArrayPNS_13ConvertResultERK7QString@Base 2.0.2
 _ZN3QCA3CRL7fromPEMERK7QStringPNS_13ConvertResultES3_@Base 2.0.2
 _ZN3QCA3CRLC1ERKS0_@Base 2.0.2
 _ZN3QCA3CRLC1Ev@Base 2.0.2
 _ZN3QCA3CRLC2ERKS0_@Base 2.0.2
 _ZN3QCA3CRLC2Ev@Base 2.0.2
 _ZN3QCA3CRLD0Ev@Base 2.0.2
 _ZN3QCA3CRLD1Ev@Base 2.0.2
 _ZN3QCA3CRLD2Ev@Base 2.0.2
 _ZN3QCA3CRLaSERKS0_@Base 2.0.2
 _ZN3QCA3Hex5clearEv@Base 2.0.2
 _ZN3QCA3Hex5finalEv@Base 2.0.2
 _ZN3QCA3Hex6updateERKNS_12MemoryRegionE@Base 2.0.2
 _ZN3QCA3HexC1ENS_9DirectionE@Base 2.0.2
 _ZN3QCA3HexC2ENS_9DirectionE@Base 2.0.2
 _ZN3QCA3HexD0Ev@Base 2.0.3-2
 _ZN3QCA3HexD1Ev@Base 2.0.3-2
 _ZN3QCA3HexD2Ev@Base 2.0.3-2
 _ZN3QCA3TLS10handshakenEv@Base 2.0.2
 _ZN3QCA3TLS10setSessionERKNS_10TLSSessionE@Base 2.0.2
 _ZN3QCA3TLS11qt_metacallEN11QMetaObject4CallEiPPv@Base 2.0.2
 _ZN3QCA3TLS11qt_metacastEPKc@Base 2.0.2
 _ZN3QCA3TLS11startClientERK7QString@Base 2.0.2
 _ZN3QCA3TLS11startServerEv@Base 2.0.2
 _ZN3QCA3TLS12readOutgoingEPi@Base 2.0.2
 _ZN3QCA3TLS13connectNotifyEPKc@Base 2.0.2
 _ZN3QCA3TLS13setIssuerListERK5QListINS_22CertificateInfoOrderedEE@Base 2.0.2
 _ZN3QCA3TLS13writeIncomingERK10QByteArray@Base 2.0.2
 _ZN3QCA3TLS14setCertificateERKNS_16CertificateChainERKNS_10PrivateKeyE@Base 2.0.2
 _ZN3QCA3TLS14setCertificateERKNS_9KeyBundleE@Base 2.0.2
 _ZN3QCA3TLS14setConstraintsENS_13SecurityLevelE@Base 2.0.2
 _ZN3QCA3TLS14setConstraintsERK11QStringList@Base 2.0.2
 _ZN3QCA3TLS14setConstraintsEii@Base 2.0.2
 _ZN3QCA3TLS15readUnprocessedEv@Base 2.0.2
 _ZN3QCA3TLS16disconnectNotifyEPKc@Base 2.0.2
 _ZN3QCA3TLS16hostNameReceivedEv@Base 2.0.2
 _ZN3QCA3TLS16staticMetaObjectE@Base 2.0.2
 _ZN3QCA3TLS17continueAfterStepEv@Base 2.0.2
 _ZN3QCA3TLS19convertBytesWrittenEx@Base 2.0.2
 _ZN3QCA3TLS20certificateRequestedEv@Base 2.0.2
 _ZN3QCA3TLS21setCompressionEnabledEb@Base 2.0.2
 _ZN3QCA3TLS22setTrustedCertificatesERKNS_21CertificateCollectionE@Base 2.0.2
 _ZN3QCA3TLS24peerCertificateAvailableEv@Base 2.0.2
 _ZN3QCA3TLS4readEv@Base 2.0.2
 _ZN3QCA3TLS5closeEv@Base 2.0.2
 _ZN3QCA3TLS5resetEv@Base 2.0.2
 _ZN3QCA3TLS5writeERK10QByteArray@Base 2.0.2
 _ZN3QCA3TLS7Private11qt_metacallEN11QMetaObject4CallEiPPv@Base 2.0.2
 _ZN3QCA3TLS7Private11qt_metacastEPKc@Base 2.0.2
 _ZN3QCA3TLS7Private15update_finishedEv@Base 2.0.3-2
 _ZN3QCA3TLS7Private16staticMetaObjectE@Base 2.0.2
 _ZN3QCA3TLS7Private17processNextActionEv@Base 2.0.3-2
 _ZN3QCA3TLS7Private5resetENS_9ResetModeE@Base 2.0.3-2
 _ZN3QCA3TLS7Private6updateEv@Base 2.0.3-2
 _ZN3QCA3TLS7PrivateC1EPS0_NS0_4ModeE@Base 2.0.3-2
 _ZN3QCA3TLS7PrivateC2EPS0_NS0_4ModeE@Base 2.0.3-2
 _ZN3QCA3TLS7PrivateD0Ev@Base 2.0.3-2
 _ZN3QCA3TLS7PrivateD1Ev@Base 2.0.3-2
 _ZN3QCA3TLS7PrivateD2Ev@Base 2.0.3-2
 _ZN3QCA3TLSC1ENS0_4ModeEP7QObjectRK7QString@Base 2.0.2
 _ZN3QCA3TLSC1EP7QObjectRK7QString@Base 2.0.2
 _ZN3QCA3TLSC2ENS0_4ModeEP7QObjectRK7QString@Base 2.0.2
 _ZN3QCA3TLSC2EP7QObjectRK7QString@Base 2.0.2
 _ZN3QCA3TLSD0Ev@Base 2.0.2
 _ZN3QCA3TLSD1Ev@Base 2.0.2
 _ZN3QCA3TLSD2Ev@Base 2.0.2
 _ZN3QCA4Hash12hashToStringERKNS_12MemoryRegionE@Base 2.0.2
 _ZN3QCA4Hash14supportedTypesERK7QString@Base 2.0.2
 _ZN3QCA4Hash4hashERKNS_12MemoryRegionE@Base 2.0.2
 _ZN3QCA4Hash5clearEv@Base 2.0.2
 _ZN3QCA4Hash5finalEv@Base 2.0.2
 _ZN3QCA4Hash6updateEP9QIODevice@Base 2.0.2
 _ZN3QCA4Hash6updateEPKci@Base 2.0.2
 _ZN3QCA4Hash6updateERK10QByteArray@Base 2.0.2
 _ZN3QCA4Hash6updateERKNS_12MemoryRegionE@Base 2.0.2
 _ZN3QCA4HashC1ERK7QStringS3_@Base 2.0.2
 _ZN3QCA4HashC1ERKS0_@Base 2.0.2
 _ZN3QCA4HashC2ERK7QStringS3_@Base 2.0.2
 _ZN3QCA4HashC2ERKS0_@Base 2.0.2
 _ZN3QCA4HashD0Ev@Base 2.0.2
 _ZN3QCA4HashD1Ev@Base 2.0.2
 _ZN3QCA4HashD2Ev@Base 2.0.2
 _ZN3QCA4HashaSERKS0_@Base 2.0.2
 _ZN3QCA4PKey14supportedTypesERK7QString@Base 2.0.2
 _ZN3QCA4PKey16supportedIOTypesERK7QString@Base 2.0.2
 _ZN3QCA4PKey3setERKS0_@Base 2.0.2
 _ZN3QCA4PKeyC1ERK7QStringS3_@Base 2.0.2
 _ZN3QCA4PKeyC1ERKS0_@Base 2.0.2
 _ZN3QCA4PKeyC1Ev@Base 2.0.2
 _ZN3QCA4PKeyC2ERK7QStringS3_@Base 2.0.2
 _ZN3QCA4PKeyC2ERKS0_@Base 2.0.2
 _ZN3QCA4PKeyC2Ev@Base 2.0.2
 _ZN3QCA4PKeyD0Ev@Base 2.0.2
 _ZN3QCA4PKeyD1Ev@Base 2.0.2
 _ZN3QCA4PKeyD2Ev@Base 2.0.2
 _ZN3QCA4PKeyaSERKS0_@Base 2.0.2
 _ZN3QCA4SASL10needParamsERKNS0_6ParamsE@Base 2.0.2
 _ZN3QCA4SASL10setAuthzidERK7QString@Base 2.0.2
 _ZN3QCA4SASL11qt_metacallEN11QMetaObject4CallEiPPv@Base 2.0.2
 _ZN3QCA4SASL11qt_metacastEPKc@Base 2.0.2
 _ZN3QCA4SASL11setPasswordERKNS_11SecureArrayE@Base 2.0.2
 _ZN3QCA4SASL11setUsernameERK7QString@Base 2.0.2
 _ZN3QCA4SASL11startClientERK7QStringS3_RK11QStringListNS0_14ClientSendModeE@Base 2.0.2
 _ZN3QCA4SASL11startServerERK7QStringS3_S3_NS0_14ServerSendModeE@Base 2.0.2
 _ZN3QCA4SASL12readOutgoingEPi@Base 2.0.2
 _ZN3QCA4SASL13authenticatedEv@Base 2.0.2
 _ZN3QCA4SASL13clientStartedEbRK10QByteArray@Base 2.0.2
 _ZN3QCA4SASL13serverStartedEv@Base 2.0.2
 _ZN3QCA4SASL13writeIncomingERK10QByteArray@Base 2.0.2
 _ZN3QCA4SASL14setConstraintsENS0_9AuthFlagsENS_13SecurityLevelE@Base 2.0.2
 _ZN3QCA4SASL14setConstraintsENS0_9AuthFlagsEii@Base 2.0.2
 _ZN3QCA4SASL14setExternalSSFEi@Base 2.0.2
 _ZN3QCA4SASL15setLocalAddressERK7QStringt@Base 2.0.2
 _ZN3QCA4SASL16setRemoteAddressERK7QStringt@Base 2.0.2
 _ZN3QCA4SASL16staticMetaObjectE@Base 2.0.2
 _ZN3QCA4SASL17setExternalAuthIdERK7QString@Base 2.0.2
 _ZN3QCA4SASL18putServerFirstStepERK7QString@Base 2.0.2
 _ZN3QCA4SASL18putServerFirstStepERK7QStringRK10QByteArray@Base 2.0.2
 _ZN3QCA4SASL19continueAfterParamsEv@Base 2.0.2
 _ZN3QCA4SASL19convertBytesWrittenEx@Base 2.0.2
 _ZN3QCA4SASL22continueAfterAuthCheckEv@Base 2.0.2
 _ZN3QCA4SASL4readEv@Base 2.0.2
 _ZN3QCA4SASL5resetEv@Base 2.0.2
 _ZN3QCA4SASL5writeERK10QByteArray@Base 2.0.2
 _ZN3QCA4SASL6ParamsC1ERKS1_@Base 2.0.2
 _ZN3QCA4SASL6ParamsC1Ebbbb@Base 2.0.2
 _ZN3QCA4SASL6ParamsC1Ev@Base 2.0.2
 _ZN3QCA4SASL6ParamsC2ERKS1_@Base 2.0.2
 _ZN3QCA4SASL6ParamsC2Ebbbb@Base 2.0.2
 _ZN3QCA4SASL6ParamsC2Ev@Base 2.0.2
 _ZN3QCA4SASL6ParamsD1Ev@Base 2.0.2
 _ZN3QCA4SASL6ParamsD2Ev@Base 2.0.2
 _ZN3QCA4SASL6ParamsaSERKS1_@Base 2.0.2
 _ZN3QCA4SASL7Private11qt_metacallEN11QMetaObject4CallEiPPv@Base 2.0.2
 _ZN3QCA4SASL7Private11qt_metacastEPKc@Base 2.0.2
 _ZN3QCA4SASL7Private16staticMetaObjectE@Base 2.0.2
 _ZN3QCA4SASL7Private17processNextActionEv@Base 2.0.3-2
 _ZN3QCA4SASL7Private17sasl_resultsReadyEv@Base 2.0.3-2
 _ZN3QCA4SASL7Private5resetENS_9ResetModeE@Base 2.0.3-2
 _ZN3QCA4SASL7Private6updateEv@Base 2.0.3-2
 _ZN3QCA4SASL7PrivateD0Ev@Base 2.0.3-2
 _ZN3QCA4SASL7PrivateD1Ev@Base 2.0.3-2
 _ZN3QCA4SASL7PrivateD2Ev@Base 2.0.3-2
 _ZN3QCA4SASL7putStepERK10QByteArray@Base 2.0.2
 _ZN3QCA4SASL8nextStepERK10QByteArray@Base 2.0.2
 _ZN3QCA4SASL8setRealmERK7QString@Base 2.0.2
 _ZN3QCA4SASL9authCheckERK7QStringS3_@Base 2.0.2
 _ZN3QCA4SASLC1EP7QObjectRK7QString@Base 2.0.2
 _ZN3QCA4SASLC2EP7QObjectRK7QString@Base 2.0.2
 _ZN3QCA4SASLD0Ev@Base 2.0.2
 _ZN3QCA4SASLD1Ev@Base 2.0.2
 _ZN3QCA4SASLD2Ev@Base 2.0.2
 _ZN3QCA4initENS_10MemoryModeEi@Base 2.0.2
 _ZN3QCA4initEv@Base 2.0.2
 _ZN3QCA5Botan10bigint_mulEPjjS1_PKjjjS3_jj@Base 2.0.3-2
 _ZN3QCA5Botan10power_of_2Ey@Base 2.0.3-2
 _ZN3QCA5Botan10round_downEjj@Base 2.0.3-2
 _ZN3QCA5Botan10unlock_memEPvj@Base 2.0.3-2
 _ZN3QCA5Botan12Config_ErrorC1ERKSsj@Base 2.0.3-2
 _ZN3QCA5Botan12Config_ErrorC2ERKSsj@Base 2.0.3-2
 _ZN3QCA5Botan12Config_ErrorD0Ev@Base 2.0.3-2
 _ZN3QCA5Botan12Config_ErrorD1Ev@Base 2.0.3-2
 _ZN3QCA5Botan12Config_ErrorD2Ev@Base 2.0.3-2
 _ZN3QCA5Botan12Format_ErrorD0Ev@Base 2.0.3-2
 _ZN3QCA5Botan12Format_ErrorD1Ev@Base 2.0.3-2
 _ZN3QCA5Botan12Format_ErrorD2Ev@Base 2.0.3-2
 _ZN3QCA5Botan12MemoryRegionIhE6createEj@Base 2.0.3-2
 _ZN3QCA5Botan12MemoryRegionIjE6createEj@Base 2.0.3-2
 _ZN3QCA5Botan12Mutex_HolderC1EPNS0_5MutexE@Base 2.0.3-2
 _ZN3QCA5Botan12Mutex_HolderC2EPNS0_5MutexE@Base 2.0.3-2
 _ZN3QCA5Botan12Mutex_HolderD1Ev@Base 2.0.3-2
 _ZN3QCA5Botan12Mutex_HolderD2Ev@Base 2.0.3-2
 _ZN3QCA5Botan12global_stateEv@Base 2.0.3-2
 _ZN3QCA5Botan13Invalid_StateD0Ev@Base 2.0.3-2
 _ZN3QCA5Botan13Invalid_StateD1Ev@Base 2.0.3-2
 _ZN3QCA5Botan13Invalid_StateD2Ev@Base 2.0.3-2
 _ZN3QCA5Botan13Library_State13add_allocatorEPNS0_9AllocatorE@Base 2.0.3-2
 _ZN3QCA5Botan13Library_State15get_named_mutexERKSs@Base 2.0.3-2
 _ZN3QCA5Botan13Library_State21set_default_allocatorERKSs@Base 2.0.3-2
 _ZN3QCA5Botan13Library_State4loadERNS0_7ModulesE@Base 2.0.3-2
 _ZN3QCA5Botan13Library_StateC1EPNS0_13Mutex_FactoryE@Base 2.0.3-2
 _ZN3QCA5Botan13Library_StateC2EPNS0_13Mutex_FactoryE@Base 2.0.3-2
 _ZN3QCA5Botan13Library_StateD1Ev@Base 2.0.3-2
 _ZN3QCA5Botan13Library_StateD2Ev@Base 2.0.3-2
 _ZN3QCA5Botan13Mutex_FactoryD0Ev@Base 2.0.3-2
 _ZN3QCA5Botan13Mutex_FactoryD1Ev@Base 2.0.3-2
 _ZN3QCA5Botan13Mutex_FactoryD2Ev@Base 2.0.3-2
 _ZN3QCA5Botan14Encoding_ErrorC1ERKSs@Base 2.0.3-2
 _ZN3QCA5Botan14Encoding_ErrorC2ERKSs@Base 2.0.3-2
 _ZN3QCA5Botan14Encoding_ErrorD0Ev@Base 2.0.3-2
 _ZN3QCA5Botan14Encoding_ErrorD1Ev@Base 2.0.3-2
 _ZN3QCA5Botan14Encoding_ErrorD2Ev@Base 2.0.3-2
 _ZN3QCA5Botan14Internal_ErrorD0Ev@Base 2.0.3-2
 _ZN3QCA5Botan14Internal_ErrorD1Ev@Base 2.0.3-2
 _ZN3QCA5Botan14Internal_ErrorD2Ev@Base 2.0.3-2
 _ZN3QCA5Botan14hamming_weightEy@Base 2.0.3-2
 _ZN3QCA5Botan15Builtin_ModulesC1Ev@Base 2.0.3-2
 _ZN3QCA5Botan15Builtin_ModulesC2Ev@Base 2.0.3-2
 _ZN3QCA5Botan15Builtin_ModulesD0Ev@Base 2.0.3-2
 _ZN3QCA5Botan15Builtin_ModulesD1Ev@Base 2.0.3-2
 _ZN3QCA5Botan15Builtin_ModulesD2Ev@Base 2.0.3-2
 _ZN3QCA5Botan16Invalid_ArgumentD0Ev@Base 2.0.3-2
 _ZN3QCA5Botan16Invalid_ArgumentD1Ev@Base 2.0.3-2
 _ZN3QCA5Botan16Invalid_ArgumentD2Ev@Base 2.0.3-2
 _ZN3QCA5Botan16Malloc_Allocator11alloc_blockEj@Base 2.0.3-2
 _ZN3QCA5Botan16Malloc_Allocator13dealloc_blockEPvj@Base 2.0.3-2
 _ZN3QCA5Botan16Malloc_AllocatorD0Ev@Base 2.0.3-2
 _ZN3QCA5Botan16Malloc_AllocatorD1Ev@Base 2.0.3-2
 _ZN3QCA5Botan16Malloc_AllocatorD2Ev@Base 2.0.3-2
 _ZN3QCA5Botan16Qt_Mutex_Factory4makeEv@Base 2.0.3-2
 _ZN3QCA5Botan16Qt_Mutex_FactoryD0Ev@Base 2.0.3-2
 _ZN3QCA5Botan16Qt_Mutex_FactoryD1Ev@Base 2.0.3-2
 _ZN3QCA5Botan16Qt_Mutex_FactoryD2Ev@Base 2.0.3-2
 _ZN3QCA5Botan16set_global_stateEPNS0_13Library_StateE@Base 2.0.3-2
 _ZN3QCA5Botan17Invalid_IV_LengthC1ERKSsj@Base 2.0.3-2
 _ZN3QCA5Botan17Invalid_IV_LengthC2ERKSsj@Base 2.0.3-2
 _ZN3QCA5Botan17Invalid_IV_LengthD0Ev@Base 2.0.3-2
 _ZN3QCA5Botan17Invalid_IV_LengthD1Ev@Base 2.0.3-2
 _ZN3QCA5Botan17Invalid_IV_LengthD2Ev@Base 2.0.3-2
 _ZN3QCA5Botan17Locking_Allocator11alloc_blockEj@Base 2.0.3-2
 _ZN3QCA5Botan17Locking_Allocator13dealloc_blockEPvj@Base 2.0.3-2
 _ZN3QCA5Botan17Locking_AllocatorD0Ev@Base 2.0.3-2
 _ZN3QCA5Botan17Locking_AllocatorD1Ev@Base 2.0.3-2
 _ZN3QCA5Botan17Locking_AllocatorD2Ev@Base 2.0.3-2
 _ZN3QCA5Botan17Memory_ExhaustionC1Ev@Base 2.0.3-2
 _ZN3QCA5Botan17Memory_ExhaustionC2Ev@Base 2.0.3-2
 _ZN3QCA5Botan17Memory_ExhaustionD0Ev@Base 2.0.3-2
 _ZN3QCA5Botan17Memory_ExhaustionD1Ev@Base 2.0.3-2
 _ZN3QCA5Botan17Memory_ExhaustionD2Ev@Base 2.0.3-2
 _ZN3QCA5Botan17Pooling_Allocator10deallocateEPvj@Base 2.0.3-2
 _ZN3QCA5Botan17Pooling_Allocator12Memory_Block10BLOCK_SIZEE@Base 2.0.3-2
 _ZN3QCA5Botan17Pooling_Allocator12Memory_Block11BITMAP_SIZEE@Base 2.0.3-2
 _ZN3QCA5Botan17Pooling_Allocator12Memory_Block4freeEPvj@Base 2.0.3-2
 _ZN3QCA5Botan17Pooling_Allocator12Memory_Block5allocEj@Base 2.0.3-2
 _ZN3QCA5Botan17Pooling_Allocator12Memory_BlockC1EPv@Base 2.0.3-2
 _ZN3QCA5Botan17Pooling_Allocator12Memory_BlockC2EPv@Base 2.0.3-2
 _ZN3QCA5Botan17Pooling_Allocator13get_more_coreEj@Base 2.0.3-2
 _ZN3QCA5Botan17Pooling_Allocator15allocate_blocksEj@Base 2.0.3-2
 _ZN3QCA5Botan17Pooling_Allocator7destroyEv@Base 2.0.3-2
 _ZN3QCA5Botan17Pooling_Allocator8allocateEj@Base 2.0.3-2
 _ZN3QCA5Botan17Pooling_AllocatorC1Ejb@Base 2.0.3-2
 _ZN3QCA5Botan17Pooling_AllocatorC2Ejb@Base 2.0.3-2
 _ZN3QCA5Botan17Pooling_AllocatorD0Ev@Base 2.0.3-2
 _ZN3QCA5Botan17Pooling_AllocatorD1Ev@Base 2.0.3-2
 _ZN3QCA5Botan17Pooling_AllocatorD2Ev@Base 2.0.3-2
 _ZN3QCA5Botan17significant_bytesEy@Base 2.0.3-2
 _ZN3QCA5Botan17swap_global_stateEPNS0_13Library_StateE@Base 2.0.3-2
 _ZN3QCA5Botan18Invalid_Block_SizeC1ERKSsS3_@Base 2.0.3-2
 _ZN3QCA5Botan18Invalid_Block_SizeC2ERKSsS3_@Base 2.0.3-2
 _ZN3QCA5Botan18Invalid_Block_SizeD0Ev@Base 2.0.3-2
 _ZN3QCA5Botan18Invalid_Block_SizeD1Ev@Base 2.0.3-2
 _ZN3QCA5Botan18Invalid_Block_SizeD2Ev@Base 2.0.3-2
 _ZN3QCA5Botan18Invalid_Key_LengthC1ERKSsj@Base 2.0.3-2
 _ZN3QCA5Botan18Invalid_Key_LengthC2ERKSsj@Base 2.0.3-2
 _ZN3QCA5Botan18Invalid_Key_LengthD0Ev@Base 2.0.3-2
 _ZN3QCA5Botan18Invalid_Key_LengthD1Ev@Base 2.0.3-2
 _ZN3QCA5Botan18Invalid_Key_LengthD2Ev@Base 2.0.3-2
 _ZN3QCA5Botan18Named_Mutex_HolderC1ERKSs@Base 2.0.3-2
 _ZN3QCA5Botan18Named_Mutex_HolderC2ERKSs@Base 2.0.3-2
 _ZN3QCA5Botan18Named_Mutex_HolderD1Ev@Base 2.0.3-2
 _ZN3QCA5Botan18Named_Mutex_HolderD2Ev@Base 2.0.3-2
 _ZN3QCA5Botan19Algorithm_Not_FoundC1ERKSs@Base 2.0.3-2
 _ZN3QCA5Botan19Algorithm_Not_FoundC2ERKSs@Base 2.0.3-2
 _ZN3QCA5Botan19Algorithm_Not_FoundD0Ev@Base 2.0.3-2
 _ZN3QCA5Botan19Algorithm_Not_FoundD1Ev@Base 2.0.3-2
 _ZN3QCA5Botan19Algorithm_Not_FoundD2Ev@Base 2.0.3-2
 _ZN3QCA5Botan21Default_Mutex_Factory4makeEv@Base 2.0.3-2
 _ZN3QCA5Botan21Default_Mutex_FactoryD0Ev@Base 2.0.3-2
 _ZN3QCA5Botan21Default_Mutex_FactoryD1Ev@Base 2.0.3-2
 _ZN3QCA5Botan21Default_Mutex_FactoryD2Ev@Base 2.0.3-2
 _ZN3QCA5Botan22Invalid_Algorithm_NameC1ERKSs@Base 2.0.3-2
 _ZN3QCA5Botan22Invalid_Algorithm_NameC2ERKSs@Base 2.0.3-2
 _ZN3QCA5Botan22Invalid_Algorithm_NameD0Ev@Base 2.0.3-2
 _ZN3QCA5Botan22Invalid_Algorithm_NameD1Ev@Base 2.0.3-2
 _ZN3QCA5Botan22Invalid_Algorithm_NameD2Ev@Base 2.0.3-2
 _ZN3QCA5Botan22Invalid_Message_NumberC1ERKSsj@Base 2.0.3-2
 _ZN3QCA5Botan22Invalid_Message_NumberC2ERKSsj@Base 2.0.3-2
 _ZN3QCA5Botan22Invalid_Message_NumberD0Ev@Base 2.0.3-2
 _ZN3QCA5Botan22Invalid_Message_NumberD1Ev@Base 2.0.3-2
 _ZN3QCA5Botan22Invalid_Message_NumberD2Ev@Base 2.0.3-2
 _ZN3QCA5Botan23MemoryMapping_Allocator11alloc_blockEj@Base 2.0.3-2
 _ZN3QCA5Botan23MemoryMapping_Allocator13dealloc_blockEPvj@Base 2.0.3-2
 _ZN3QCA5Botan23MemoryMapping_AllocatorD0Ev@Base 2.0.3-2
 _ZN3QCA5Botan23MemoryMapping_AllocatorD1Ev@Base 2.0.3-2
 _ZN3QCA5Botan23MemoryMapping_AllocatorD2Ev@Base 2.0.3-2
 _ZN3QCA5Botan5MutexD0Ev@Base 2.0.3-2
 _ZN3QCA5Botan5MutexD1Ev@Base 2.0.3-2
 _ZN3QCA5Botan5MutexD2Ev@Base 2.0.3-2
 _ZN3QCA5Botan6BigInt11encode_1363ERKS1_j@Base 2.0.3-2
 _ZN3QCA5Botan6BigInt12DivideByZeroC1Ev@Base 2.0.3-2
 _ZN3QCA5Botan6BigInt12DivideByZeroC2Ev@Base 2.0.3-2
 _ZN3QCA5Botan6BigInt12DivideByZeroD0Ev@Base 2.0.3-2
 _ZN3QCA5Botan6BigInt12DivideByZeroD1Ev@Base 2.0.3-2
 _ZN3QCA5Botan6BigInt12DivideByZeroD2Ev@Base 2.0.3-2
 _ZN3QCA5Botan6BigInt13binary_decodeEPKhj@Base 2.0.3-2
 _ZN3QCA5Botan6BigInt4swapERS1_@Base 2.0.3-2
 _ZN3QCA5Botan6BigInt6decodeEPKhjNS1_4BaseE@Base 2.0.3-2
 _ZN3QCA5Botan6BigInt6decodeERKNS0_12MemoryRegionIhEENS1_4BaseE@Base 2.0.3-2
 _ZN3QCA5Botan6BigInt6encodeEPhRKS1_NS1_4BaseE@Base 2.0.3-2
 _ZN3QCA5Botan6BigInt6encodeERKS1_NS1_4BaseE@Base 2.0.3-2
 _ZN3QCA5Botan6BigInt7set_bitEj@Base 2.0.3-2
 _ZN3QCA5Botan6BigInt8set_signENS1_4SignE@Base 2.0.3-2
 _ZN3QCA5Botan6BigInt9clear_bitEj@Base 2.0.3-2
 _ZN3QCA5Botan6BigInt9flip_signEv@Base 2.0.3-2
 _ZN3QCA5Botan6BigInt9mask_bitsEj@Base 2.0.3-2
 _ZN3QCA5Botan6BigIntC1ENS1_4SignEj@Base 2.0.3-2
 _ZN3QCA5Botan6BigIntC1EPKhjNS1_4BaseE@Base 2.0.3-2
 _ZN3QCA5Botan6BigIntC1ERKS1_@Base 2.0.3-2
 _ZN3QCA5Botan6BigIntC1ERKSs@Base 2.0.3-2
 _ZN3QCA5Botan6BigIntC1Ey@Base 2.0.3-2
 _ZN3QCA5Botan6BigIntC2ENS1_4SignEj@Base 2.0.3-2
 _ZN3QCA5Botan6BigIntC2EPKhjNS1_4BaseE@Base 2.0.3-2
 _ZN3QCA5Botan6BigIntC2ERKS1_@Base 2.0.3-2
 _ZN3QCA5Botan6BigIntC2ERKSs@Base 2.0.3-2
 _ZN3QCA5Botan6BigIntC2Ey@Base 2.0.3-2
 _ZN3QCA5Botan6BigIntdVERKS1_@Base 2.0.3-2
 _ZN3QCA5Botan6BigIntlSEj@Base 2.0.3-2
 _ZN3QCA5Botan6BigIntmIERKS1_@Base 2.0.3-2
 _ZN3QCA5Botan6BigIntmLERKS1_@Base 2.0.3-2
 _ZN3QCA5Botan6BigIntpLERKS1_@Base 2.0.3-2
 _ZN3QCA5Botan6BigIntrMERKS1_@Base 2.0.3-2
 _ZN3QCA5Botan6BigIntrMEj@Base 2.0.3-2
 _ZN3QCA5Botan6BigIntrSEj@Base 2.0.3-2
 _ZN3QCA5Botan6divideERKNS0_6BigIntES3_RS1_S4_@Base 2.0.3-2
 _ZN3QCA5Botan7Charset10char2digitEc@Base 2.0.3-2
 _ZN3QCA5Botan7Charset10digit2charEh@Base 2.0.3-2
 _ZN3QCA5Botan7Charset12caseless_cmpEcc@Base 2.0.3-2
 _ZN3QCA5Botan7Charset8is_digitEc@Base 2.0.3-2
 _ZN3QCA5Botan7Charset8is_spaceEc@Base 2.0.3-2
 _ZN3QCA5Botan7ModulesD0Ev@Base 2.0.3-2
 _ZN3QCA5Botan7ModulesD1Ev@Base 2.0.3-2
 _ZN3QCA5Botan7ModulesD2Ev@Base 2.0.3-2
 _ZN3QCA5Botan7low_bitEy@Base 2.0.3-2
 _ZN3QCA5Botan7xor_bufEPhPKhS3_j@Base 2.0.3-2
 _ZN3QCA5Botan7xor_bufEPhPKhj@Base 2.0.3-2
 _ZN3QCA5Botan8high_bitEy@Base 2.0.3-2
 _ZN3QCA5Botan8lock_memEPvj@Base 2.0.3-2
 _ZN3QCA5Botan8round_upEjj@Base 2.0.3-2
 _ZN3QCA5Botan9Allocator3getEb@Base 2.0.3-2
 _ZN3QCA5Botan9Allocator4initEv@Base 2.0.3-2
 _ZN3QCA5Botan9Allocator7destroyEv@Base 2.0.3-2
 _ZN3QCA5Botan9AllocatorD0Ev@Base 2.0.3-2
 _ZN3QCA5Botan9AllocatorD1Ev@Base 2.0.3-2
 _ZN3QCA5Botan9AllocatorD2Ev@Base 2.0.3-2
 _ZN3QCA5Botan9ExceptionC1ERKSs@Base 2.0.3-2
 _ZN3QCA5Botan9ExceptionC2ERKSs@Base 2.0.3-2
 _ZN3QCA5Botan9ExceptionD0Ev@Base 2.0.3-2
 _ZN3QCA5Botan9ExceptionD1Ev@Base 2.0.3-2
 _ZN3QCA5Botan9ExceptionD2Ev@Base 2.0.3-2
 _ZN3QCA5Botan9to_stringEyj@Base 2.0.3-2
 _ZN3QCA5BotandvERKNS0_6BigIntES3_@Base 2.0.3-2
 _ZN3QCA5BotanlsERKNS0_6BigIntEj@Base 2.0.3-2
 _ZN3QCA5BotanmiERKNS0_6BigIntES3_@Base 2.0.3-2
 _ZN3QCA5BotanmlERKNS0_6BigIntES3_@Base 2.0.3-2
 _ZN3QCA5BotanplERKNS0_6BigIntES3_@Base 2.0.3-2
 _ZN3QCA5BotanrmERKNS0_6BigIntES3_@Base 2.0.3-2
 _ZN3QCA5BotanrmERKNS0_6BigIntEj@Base 2.0.3-2
 _ZN3QCA5BotanrsERKNS0_6BigIntEj@Base 2.0.3-2
 _ZN3QCA5Event15setPasswordDataENS0_13PasswordStyleERK7QStringPv@Base 2.0.2
 _ZN3QCA5Event19setPasswordKeyStoreENS0_13PasswordStyleERKNS_12KeyStoreInfoERKNS_13KeyStoreEntryEPv@Base 2.0.2
 _ZN3QCA5Event8setTokenERKNS_12KeyStoreInfoERKNS_13KeyStoreEntryEPv@Base 2.0.2
 _ZN3QCA5EventC1ERKS0_@Base 2.0.2
 _ZN3QCA5EventC1Ev@Base 2.0.2
 _ZN3QCA5EventC2ERKS0_@Base 2.0.2
 _ZN3QCA5EventC2Ev@Base 2.0.2
 _ZN3QCA5EventD1Ev@Base 2.0.2
 _ZN3QCA5EventD2Ev@Base 2.0.2
 _ZN3QCA5EventaSERKS0_@Base 2.0.2
 _ZN3QCA5QPipe5resetEv@Base 2.0.2
 _ZN3QCA5QPipe6createEb@Base 2.0.2
 _ZN3QCA5QPipeC1EP7QObject@Base 2.0.2
 _ZN3QCA5QPipeC2EP7QObject@Base 2.0.2
 _ZN3QCA5QPipeD1Ev@Base 2.0.2
 _ZN3QCA5QPipeD2Ev@Base 2.0.2
 _ZN3QCA6Base6419setLineBreaksColumnEi@Base 2.0.2
 _ZN3QCA6Base6420setLineBreaksEnabledEb@Base 2.0.2
 _ZN3QCA6Base645clearEv@Base 2.0.2
 _ZN3QCA6Base645finalEv@Base 2.0.2
 _ZN3QCA6Base646updateERKNS_12MemoryRegionE@Base 2.0.2
 _ZN3QCA6Base64C1ENS_9DirectionE@Base 2.0.2
 _ZN3QCA6Base64C2ENS_9DirectionE@Base 2.0.2
 _ZN3QCA6Base64D0Ev@Base 2.0.3-2
 _ZN3QCA6Base64D1Ev@Base 2.0.3-2
 _ZN3QCA6Base64D2Ev@Base 2.0.3-2
 _ZN3QCA6Cipher14supportedTypesERK7QString@Base 2.0.2
 _ZN3QCA6Cipher14withAlgorithmsERK7QStringNS0_4ModeENS0_7PaddingE@Base 2.0.2
 _ZN3QCA6Cipher5clearEv@Base 2.0.2
 _ZN3QCA6Cipher5finalEv@Base 2.0.2
 _ZN3QCA6Cipher5setupENS_9DirectionERKNS_12SymmetricKeyERKNS_20InitializationVectorE@Base 2.0.2
 _ZN3QCA6Cipher6updateERKNS_12MemoryRegionE@Base 2.0.2
 _ZN3QCA6CipherC1ERK7QStringNS0_4ModeENS0_7PaddingENS_9DirectionERKNS_12SymmetricKeyERKNS_20InitializationVectorES3_@Base 2.0.2
 _ZN3QCA6CipherC1ERKS0_@Base 2.0.2
 _ZN3QCA6CipherC2ERK7QStringNS0_4ModeENS0_7PaddingENS_9DirectionERKNS_12SymmetricKeyERKNS_20InitializationVectorES3_@Base 2.0.2
 _ZN3QCA6CipherC2ERKS0_@Base 2.0.2
 _ZN3QCA6CipherD0Ev@Base 2.0.2
 _ZN3QCA6CipherD1Ev@Base 2.0.2
 _ZN3QCA6CipherD2Ev@Base 2.0.2
 _ZN3QCA6CipheraSERKS0_@Base 2.0.2
 _ZN3QCA6Filter7processERKNS_12MemoryRegionE@Base 2.0.2
 _ZN3QCA6FilterD0Ev@Base 2.0.2
 _ZN3QCA6FilterD1Ev@Base 2.0.2
 _ZN3QCA6FilterD2Ev@Base 2.0.2
 _ZN3QCA6GlobalC1Ev@Base 2.0.3-2
 _ZN3QCA6GlobalC2Ev@Base 2.0.3-2
 _ZN3QCA6GlobalD1Ev@Base 2.0.3-2
 _ZN3QCA6GlobalD2Ev@Base 2.0.3-2
 _ZN3QCA6Logger11qt_metacallEN11QMetaObject4CallEiPPv@Base 2.0.2
 _ZN3QCA6Logger11qt_metacastEPKc@Base 2.0.2
 _ZN3QCA6Logger14logTextMessageERK7QStringNS0_8SeverityE@Base 2.0.2
 _ZN3QCA6Logger16logBinaryMessageERK10QByteArrayNS0_8SeverityE@Base 2.0.2
 _ZN3QCA6Logger16staticMetaObjectE@Base 2.0.2
 _ZN3QCA6Logger17registerLogDeviceEPNS_17AbstractLogDeviceE@Base 2.0.2
 _ZN3QCA6Logger19unregisterLogDeviceERK7QString@Base 2.0.2
 _ZN3QCA6Logger8setLevelENS0_8SeverityE@Base 2.0.2
 _ZN3QCA6LoggerC1Ev@Base 2.0.2
 _ZN3QCA6LoggerC2Ev@Base 2.0.2
 _ZN3QCA6LoggerD0Ev@Base 2.0.2
 _ZN3QCA6LoggerD1Ev@Base 2.0.2
 _ZN3QCA6LoggerD2Ev@Base 2.0.2
 _ZN3QCA6PGPKey10fromStringERK7QStringPNS_13ConvertResultES3_@Base 2.0.2
 _ZN3QCA6PGPKey8fromFileERK7QStringPNS_13ConvertResultES3_@Base 2.0.2
 _ZN3QCA6PGPKey9fromArrayERK10QByteArrayPNS_13ConvertResultERK7QString@Base 2.0.2
 _ZN3QCA6PGPKeyC1ERK7QString@Base 2.0.2
 _ZN3QCA6PGPKeyC1ERKS0_@Base 2.0.2
 _ZN3QCA6PGPKeyC1Ev@Base 2.0.2
 _ZN3QCA6PGPKeyC2ERK7QString@Base 2.0.2
 _ZN3QCA6PGPKeyC2ERKS0_@Base 2.0.2
 _ZN3QCA6PGPKeyC2Ev@Base 2.0.2
 _ZN3QCA6PGPKeyD0Ev@Base 2.0.2
 _ZN3QCA6PGPKeyD1Ev@Base 2.0.2
 _ZN3QCA6PGPKeyD2Ev@Base 2.0.2
 _ZN3QCA6PGPKeyaSERKS0_@Base 2.0.2
 _ZN3QCA6Random10randomCharEv@Base 2.0.2
 _ZN3QCA6Random11randomArrayEi@Base 2.0.2
 _ZN3QCA6Random8nextByteEv@Base 2.0.2
 _ZN3QCA6Random9nextBytesEi@Base 2.0.2
 _ZN3QCA6Random9randomIntEv@Base 2.0.2
 _ZN3QCA6RandomC1ERK7QString@Base 2.0.2
 _ZN3QCA6RandomC1ERKS0_@Base 2.0.2
 _ZN3QCA6RandomC2ERK7QString@Base 2.0.2
 _ZN3QCA6RandomC2ERKS0_@Base 2.0.2
 _ZN3QCA6RandomD0Ev@Base 2.0.2
 _ZN3QCA6RandomD1Ev@Base 2.0.2
 _ZN3QCA6RandomD2Ev@Base 2.0.2
 _ZN3QCA6RandomaSERKS0_@Base 2.0.2
 _ZN3QCA6deinitEv@Base 2.0.2
 _ZN3QCA6getKeyINS_10PrivateKeyENS_17Getter_PrivateKeyI7QStringEES3_EET_RKS3_RKT1_RKNS_11SecureArrayEPNS_13ConvertResultE@Base 2.0.3-2
 _ZN3QCA6getKeyINS_10PrivateKeyENS_17Getter_PrivateKeyINS_11SecureArrayEEES3_EET_RK7QStringRKT1_RKS3_PNS_13ConvertResultE@Base 2.0.3-2
 _ZN3QCA6getKeyINS_9PublicKeyENS_16Getter_PublicKeyI10QByteArrayEES3_EET_RK7QStringRKT1_RKNS_11SecureArrayEPNS_13ConvertResultE@Base 2.0.3-2
 _ZN3QCA6getKeyINS_9PublicKeyENS_16Getter_PublicKeyI7QStringEES3_EET_RKS3_RKT1_RKNS_11SecureArrayEPNS_13ConvertResultE@Base 2.0.3-2
 _ZN3QCA6loggerEv@Base 2.0.2
 _ZN3QCA7Console11qt_metacallEN11QMetaObject4CallEiPPv@Base 2.0.2
 _ZN3QCA7Console11qt_metacastEPKc@Base 2.0.2
 _ZN3QCA7Console11ttyInstanceEv@Base 2.0.2
 _ZN3QCA7Console13stdioInstanceEv@Base 2.0.2
 _ZN3QCA7Console15bytesLeftToReadEv@Base 2.0.2
 _ZN3QCA7Console16bytesLeftToWriteEv@Base 2.0.2
 _ZN3QCA7Console16staticMetaObjectE@Base 2.0.2
 _ZN3QCA7Console17isStdinRedirectedEv@Base 2.0.2
 _ZN3QCA7Console18isStdoutRedirectedEv@Base 2.0.2
 _ZN3QCA7Console7releaseEv@Base 2.0.2
 _ZN3QCA7ConsoleC1ENS0_4TypeENS0_11ChannelModeENS0_12TerminalModeEP7QObject@Base 2.0.2
 _ZN3QCA7ConsoleC2ENS0_4TypeENS0_11ChannelModeENS0_12TerminalModeEP7QObject@Base 2.0.2
 _ZN3QCA7ConsoleD0Ev@Base 2.0.2
 _ZN3QCA7ConsoleD1Ev@Base 2.0.2
 _ZN3QCA7ConsoleD2Ev@Base 2.0.2
 _ZN3QCA7DLGroup18supportedGroupSetsERK7QString@Base 2.0.2
 _ZN3QCA7DLGroupC1ERKNS_10BigIntegerES3_@Base 2.0.2
 _ZN3QCA7DLGroupC1ERKNS_10BigIntegerES3_S3_@Base 2.0.2
 _ZN3QCA7DLGroupC1ERKS0_@Base 2.0.2
 _ZN3QCA7DLGroupC1Ev@Base 2.0.2
 _ZN3QCA7DLGroupC2ERKNS_10BigIntegerES3_@Base 2.0.2
 _ZN3QCA7DLGroupC2ERKNS_10BigIntegerES3_S3_@Base 2.0.2
 _ZN3QCA7DLGroupC2ERKS0_@Base 2.0.2
 _ZN3QCA7DLGroupC2Ev@Base 2.0.2
 _ZN3QCA7DLGroupD1Ev@Base 2.0.2
 _ZN3QCA7DLGroupD2Ev@Base 2.0.2
 _ZN3QCA7DLGroupaSERKS0_@Base 2.0.2
 _ZN3QCA7OpenPGP11qt_metacallEN11QMetaObject4CallEiPPv@Base 2.0.2
 _ZN3QCA7OpenPGP11qt_metacastEPKc@Base 2.0.2
 _ZN3QCA7OpenPGP16staticMetaObjectE@Base 2.0.2
 _ZN3QCA7OpenPGPC1EP7QObjectRK7QString@Base 2.0.2
 _ZN3QCA7OpenPGPC2EP7QObjectRK7QString@Base 2.0.2
 _ZN3QCA7OpenPGPD0Ev@Base 2.0.2
 _ZN3QCA7OpenPGPD1Ev@Base 2.0.2
 _ZN3QCA7OpenPGPD2Ev@Base 2.0.2
 _ZN3QCA7appNameEv@Base 2.0.2
 _ZN3QCA7getListINS_10DLGroupSetENS_15Getter_GroupSetEEE5QListIT_ERK7QString@Base 2.0.3-2
 _ZN3QCA7getListINS_12PBEAlgorithmENS_10Getter_PBEEEE5QListIT_ERK7QString@Base 2.0.3-2
 _ZN3QCA7getListINS_4PKey4TypeENS_11Getter_TypeEEE5QListIT_ERK7QString@Base 2.0.3-2
 _ZN3QCA7getListINS_4PKey4TypeENS_13Getter_IOTypeEEE5QListIT_ERK7QString@Base 2.0.3-2
 _ZN3QCA8CRLEntryC1ENS_10BigIntegerERK9QDateTimeNS0_6ReasonE@Base 2.0.2
 _ZN3QCA8CRLEntryC1ERKNS_11CertificateENS0_6ReasonE@Base 2.0.2
 _ZN3QCA8CRLEntryC1ERKS0_@Base 2.0.2
 _ZN3QCA8CRLEntryC1Ev@Base 2.0.2
 _ZN3QCA8CRLEntryC2ENS_10BigIntegerERK9QDateTimeNS0_6ReasonE@Base 2.0.2
 _ZN3QCA8CRLEntryC2ERKNS_11CertificateENS0_6ReasonE@Base 2.0.2
 _ZN3QCA8CRLEntryC2ERKS0_@Base 2.0.2
 _ZN3QCA8CRLEntryC2Ev@Base 2.0.2
 _ZN3QCA8CRLEntryD1Ev@Base 2.0.2
 _ZN3QCA8CRLEntryD2Ev@Base 2.0.2
 _ZN3QCA8CRLEntryaSERKS0_@Base 2.0.2
 _ZN3QCA8CertBase11qt_metacallEN11QMetaObject4CallEiPPv@Base 2.0.2
 _ZN3QCA8CertBase11qt_metacastEPKc@Base 2.0.2
 _ZN3QCA8CertBase16staticMetaObjectE@Base 2.0.2
 _ZN3QCA8CertBaseD0Ev@Base 2.0.3-2
 _ZN3QCA8CertBaseD1Ev@Base 2.0.3-2
 _ZN3QCA8CertBaseD2Ev@Base 2.0.3-2
 _ZN3QCA8DirWatch10setDirNameERK7QString@Base 2.0.2
 _ZN3QCA8DirWatch11qt_metacallEN11QMetaObject4CallEiPPv@Base 2.0.2
 _ZN3QCA8DirWatch11qt_metacastEPKc@Base 2.0.2
 _ZN3QCA8DirWatch16staticMetaObjectE@Base 2.0.2
 _ZN3QCA8DirWatch7Private11qt_metacallEN11QMetaObject4CallEiPPv@Base 2.0.2
 _ZN3QCA8DirWatch7Private11qt_metacastEPKc@Base 2.0.2
 _ZN3QCA8DirWatch7Private16staticMetaObjectE@Base 2.0.2
 _ZN3QCA8DirWatch7PrivateD0Ev@Base 2.0.3-2
 _ZN3QCA8DirWatch7PrivateD1Ev@Base 2.0.3-2
 _ZN3QCA8DirWatch7PrivateD2Ev@Base 2.0.3-2
 _ZN3QCA8DirWatch7changedEv@Base 2.0.2
 _ZN3QCA8DirWatchC1ERK7QStringP7QObject@Base 2.0.2
 _ZN3QCA8DirWatchC2ERK7QStringP7QObject@Base 2.0.2
 _ZN3QCA8DirWatchD0Ev@Base 2.0.2
 _ZN3QCA8DirWatchD1Ev@Base 2.0.2
 _ZN3QCA8DirWatchD2Ev@Base 2.0.2
 _ZN3QCA8KeyStore10writeEntryERKNS_11CertificateE@Base 2.0.2
 _ZN3QCA8KeyStore10writeEntryERKNS_3CRLE@Base 2.0.2
 _ZN3QCA8KeyStore10writeEntryERKNS_6PGPKeyE@Base 2.0.2
 _ZN3QCA8KeyStore10writeEntryERKNS_9KeyBundleE@Base 2.0.2
 _ZN3QCA8KeyStore11qt_metacallEN11QMetaObject4CallEiPPv@Base 2.0.2
 _ZN3QCA8KeyStore11qt_metacastEPKc@Base 2.0.2
 _ZN3QCA8KeyStore11removeEntryERK7QString@Base 2.0.2
 _ZN3QCA8KeyStore11unavailableEv@Base 2.0.2
 _ZN3QCA8KeyStore12entryRemovedEb@Base 2.0.2
 _ZN3QCA8KeyStore12entryWrittenERK7QString@Base 2.0.2
 _ZN3QCA8KeyStore16staticMetaObjectE@Base 2.0.2
 _ZN3QCA8KeyStore21startAsynchronousModeEv@Base 2.0.2
 _ZN3QCA8KeyStore7updatedEv@Base 2.0.2
 _ZN3QCA8KeyStoreC1ERK7QStringPNS_15KeyStoreManagerE@Base 2.0.2
 _ZN3QCA8KeyStoreC2ERK7QStringPNS_15KeyStoreManagerE@Base 2.0.2
 _ZN3QCA8KeyStoreD0Ev@Base 2.0.2
 _ZN3QCA8KeyStoreD1Ev@Base 2.0.2
 _ZN3QCA8KeyStoreD2Ev@Base 2.0.2
 _ZN3QCA8PKeyBase11qt_metacallEN11QMetaObject4CallEiPPv@Base 2.0.2
 _ZN3QCA8PKeyBase11qt_metacastEPKc@Base 2.0.2
 _ZN3QCA8PKeyBase11startVerifyENS_18SignatureAlgorithmENS_15SignatureFormatE@Base 2.0.2
 _ZN3QCA8PKeyBase16staticMetaObjectE@Base 2.0.2
 _ZN3QCA8PKeyBase6updateERKNS_12MemoryRegionE@Base 2.0.2
 _ZN3QCA8PKeyBase7decryptERKNS_11SecureArrayEPS1_NS_19EncryptionAlgorithmE@Base 2.0.2
 _ZN3QCA8PKeyBase7encryptERKNS_11SecureArrayENS_19EncryptionAlgorithmE@Base 2.0.2
 _ZN3QCA8PKeyBase7endSignEv@Base 2.0.2
 _ZN3QCA8PKeyBase8finishedEv@Base 2.0.2
 _ZN3QCA8PKeyBase9deriveKeyERKS0_@Base 2.0.2
 _ZN3QCA8PKeyBase9endVerifyERK10QByteArray@Base 2.0.2
 _ZN3QCA8PKeyBase9startSignENS_18SignatureAlgorithmENS_15SignatureFormatE@Base 2.0.2
 _ZN3QCA8PKeyBaseC1EPNS_8ProviderERK7QString@Base 2.0.2
 _ZN3QCA8PKeyBaseC2EPNS_8ProviderERK7QString@Base 2.0.2
 _ZN3QCA8PKeyBaseD0Ev@Base 2.0.3-2
 _ZN3QCA8PKeyBaseD1Ev@Base 2.0.3-2
 _ZN3QCA8PKeyBaseD2Ev@Base 2.0.3-2
 _ZN3QCA8Provider13configChangedERK4QMapI7QString8QVariantE@Base 2.0.2
 _ZN3QCA8Provider4initEv@Base 2.0.2
 _ZN3QCA8Provider6deinitEv@Base 2.0.2
 _ZN3QCA8Provider7Context11qt_metacallEN11QMetaObject4CallEiPPv@Base 2.0.2
 _ZN3QCA8Provider7Context11qt_metacastEPKc@Base 2.0.2
 _ZN3QCA8Provider7Context16staticMetaObjectE@Base 2.0.2
 _ZN3QCA8Provider7ContextC1EPS0_RK7QString@Base 2.0.2
 _ZN3QCA8Provider7ContextC1ERKS1_@Base 2.0.2
 _ZN3QCA8Provider7ContextC2EPS0_RK7QString@Base 2.0.2
 _ZN3QCA8Provider7ContextC2ERKS1_@Base 2.0.2
 _ZN3QCA8Provider7ContextD0Ev@Base 2.0.2
 _ZN3QCA8Provider7ContextD1Ev@Base 2.0.2
 _ZN3QCA8Provider7ContextD2Ev@Base 2.0.2
 _ZN3QCA8ProviderD0Ev@Base 2.0.2
 _ZN3QCA8ProviderD1Ev@Base 2.0.2
 _ZN3QCA8ProviderD2Ev@Base 2.0.2
 _ZN3QCA8QPipeEnd10readSecureEi@Base 2.0.2
 _ZN3QCA8QPipeEnd11qt_metacallEN11QMetaObject4CallEiPPv@Base 2.0.2
 _ZN3QCA8QPipeEnd11qt_metacastEPKc@Base 2.0.2
 _ZN3QCA8QPipeEnd11writeSecureERKNS_11SecureArrayE@Base 2.0.2
 _ZN3QCA8QPipeEnd12bytesWrittenEi@Base 2.0.2
 _ZN3QCA8QPipeEnd14setInheritableEb@Base 2.0.2
 _ZN3QCA8QPipeEnd16staticMetaObjectE@Base 2.0.2
 _ZN3QCA8QPipeEnd16takeBytesToWriteEv@Base 2.0.2
 _ZN3QCA8QPipeEnd18finalizeAndReleaseEv@Base 2.0.2
 _ZN3QCA8QPipeEnd18setSecurityEnabledEb@Base 2.0.2
 _ZN3QCA8QPipeEnd22takeBytesToWriteSecureEv@Base 2.0.2
 _ZN3QCA8QPipeEnd4readEi@Base 2.0.2
 _ZN3QCA8QPipeEnd4takeEiNS_11QPipeDevice4TypeE@Base 2.0.2
 _ZN3QCA8QPipeEnd5closeEv@Base 2.0.2
 _ZN3QCA8QPipeEnd5errorENS0_5ErrorE@Base 2.0.2
 _ZN3QCA8QPipeEnd5resetEv@Base 2.0.2
 _ZN3QCA8QPipeEnd5writeERK10QByteArray@Base 2.0.2
 _ZN3QCA8QPipeEnd6closedEv@Base 2.0.2
 _ZN3QCA8QPipeEnd6enableEv@Base 2.0.2
 _ZN3QCA8QPipeEnd7Private11qt_metacallEN11QMetaObject4CallEiPPv@Base 2.0.2
 _ZN3QCA8QPipeEnd7Private11qt_metacastEPKc@Base 2.0.2
 _ZN3QCA8QPipeEnd7Private16staticMetaObjectE@Base 2.0.2
 _ZN3QCA8QPipeEnd7PrivateD0Ev@Base 2.0.3-2
 _ZN3QCA8QPipeEnd7PrivateD1Ev@Base 2.0.3-2
 _ZN3QCA8QPipeEnd7PrivateD2Ev@Base 2.0.3-2
 _ZN3QCA8QPipeEnd7releaseEv@Base 2.0.2
 _ZN3QCA8QPipeEnd8finalizeEv@Base 2.0.2
 _ZN3QCA8QPipeEnd9readyReadEv@Base 2.0.2
 _ZN3QCA8QPipeEndC1EP7QObject@Base 2.0.2
 _ZN3QCA8QPipeEndC2EP7QObject@Base 2.0.2
 _ZN3QCA8QPipeEndD0Ev@Base 2.0.2
 _ZN3QCA8QPipeEndD1Ev@Base 2.0.2
 _ZN3QCA8QPipeEndD2Ev@Base 2.0.2
 _ZN3QCA8md5_initEPNS_11md5_state_tE@Base 2.0.3-2
 _ZN3QCA9Algorithm11takeContextEv@Base 2.0.2
 _ZN3QCA9Algorithm6changeEPNS_8Provider7ContextE@Base 2.0.2
 _ZN3QCA9Algorithm6changeERK7QStringS3_@Base 2.0.2
 _ZN3QCA9Algorithm7contextEv@Base 2.0.2
 _ZN3QCA9AlgorithmC1ERK7QStringS3_@Base 2.0.2
 _ZN3QCA9AlgorithmC1ERKS0_@Base 2.0.2
 _ZN3QCA9AlgorithmC1Ev@Base 2.0.2
 _ZN3QCA9AlgorithmC2ERK7QStringS3_@Base 2.0.2
 _ZN3QCA9AlgorithmC2ERKS0_@Base 2.0.2
 _ZN3QCA9AlgorithmC2Ev@Base 2.0.2
 _ZN3QCA9AlgorithmD0Ev@Base 2.0.2
 _ZN3QCA9AlgorithmD1Ev@Base 2.0.2
 _ZN3QCA9AlgorithmD2Ev@Base 2.0.2
 _ZN3QCA9AlgorithmaSERKS0_@Base 2.0.2
 _ZN3QCA9AskerBase11qt_metacallEN11QMetaObject4CallEiPPv@Base 2.0.3-2
 _ZN3QCA9AskerBase11qt_metacastEPKc@Base 2.0.3-2
 _ZN3QCA9AskerBase16staticMetaObjectE@Base 2.0.3-2
 _ZN3QCA9AskerBaseD0Ev@Base 2.0.3-2
 _ZN3QCA9AskerBaseD1Ev@Base 2.0.3-2
 _ZN3QCA9AskerBaseD2Ev@Base 2.0.3-2
 _ZN3QCA9CAContext11qt_metacallEN11QMetaObject4CallEiPPv@Base 2.0.2
 _ZN3QCA9CAContext11qt_metacastEPKc@Base 2.0.2
 _ZN3QCA9CAContext16staticMetaObjectE@Base 2.0.2
 _ZN3QCA9CAContextD0Ev@Base 2.0.3-2
 _ZN3QCA9CAContextD1Ev@Base 2.0.3-2
 _ZN3QCA9CAContextD2Ev@Base 2.0.3-2
 _ZN3QCA9DHContext11qt_metacallEN11QMetaObject4CallEiPPv@Base 2.0.2
 _ZN3QCA9DHContext11qt_metacastEPKc@Base 2.0.2
 _ZN3QCA9DHContext16staticMetaObjectE@Base 2.0.2
 _ZN3QCA9DHContextD0Ev@Base 2.0.3-2
 _ZN3QCA9DHContextD1Ev@Base 2.0.3-2
 _ZN3QCA9DHContextD2Ev@Base 2.0.3-2
 _ZN3QCA9FileWatch11qt_metacallEN11QMetaObject4CallEiPPv@Base 2.0.2
 _ZN3QCA9FileWatch11qt_metacastEPKc@Base 2.0.2
 _ZN3QCA9FileWatch11setFileNameERK7QString@Base 2.0.2
 _ZN3QCA9FileWatch16staticMetaObjectE@Base 2.0.2
 _ZN3QCA9FileWatch7Private11qt_metacallEN11QMetaObject4CallEiPPv@Base 2.0.2
 _ZN3QCA9FileWatch7Private11qt_metacastEPKc@Base 2.0.2
 _ZN3QCA9FileWatch7Private16staticMetaObjectE@Base 2.0.2
 _ZN3QCA9FileWatch7PrivateD0Ev@Base 2.0.3-2
 _ZN3QCA9FileWatch7PrivateD1Ev@Base 2.0.3-2
 _ZN3QCA9FileWatch7PrivateD2Ev@Base 2.0.3-2
 _ZN3QCA9FileWatch7changedEv@Base 2.0.2
 _ZN3QCA9FileWatchC1ERK7QStringP7QObject@Base 2.0.2
 _ZN3QCA9FileWatchC2ERK7QStringP7QObject@Base 2.0.2
 _ZN3QCA9FileWatchD0Ev@Base 2.0.2
 _ZN3QCA9FileWatchD1Ev@Base 2.0.2
 _ZN3QCA9FileWatchD2Ev@Base 2.0.2
 _ZN3QCA9KeyBundle25setCertificateChainAndKeyERKNS_16CertificateChainERKNS_10PrivateKeyE@Base 2.0.2
 _ZN3QCA9KeyBundle7setNameERK7QString@Base 2.0.2
 _ZN3QCA9KeyBundle8fromFileERK7QStringRKNS_11SecureArrayEPNS_13ConvertResultES3_@Base 2.0.2
 _ZN3QCA9KeyBundle9fromArrayERK10QByteArrayRKNS_11SecureArrayEPNS_13ConvertResultERK7QString@Base 2.0.2
 _ZN3QCA9KeyBundleC1ERK7QStringRKNS_11SecureArrayE@Base 2.0.2
 _ZN3QCA9KeyBundleC1ERKS0_@Base 2.0.2
 _ZN3QCA9KeyBundleC1Ev@Base 2.0.2
 _ZN3QCA9KeyBundleC2ERK7QStringRKNS_11SecureArrayE@Base 2.0.2
 _ZN3QCA9KeyBundleC2ERKS0_@Base 2.0.2
 _ZN3QCA9KeyBundleC2Ev@Base 2.0.2
 _ZN3QCA9KeyBundleD1Ev@Base 2.0.2
 _ZN3QCA9KeyBundleD2Ev@Base 2.0.2
 _ZN3QCA9KeyBundleaSERKS0_@Base 2.0.2
 _ZN3QCA9KeyLoader11qt_metacallEN11QMetaObject4CallEiPPv@Base 2.0.2
 _ZN3QCA9KeyLoader11qt_metacastEPKc@Base 2.0.2
 _ZN3QCA9KeyLoader16staticMetaObjectE@Base 2.0.2
 _ZN3QCA9KeyLoader21loadKeyBundleFromFileERK7QString@Base 2.0.2
 _ZN3QCA9KeyLoader21loadPrivateKeyFromDERERKNS_11SecureArrayE@Base 2.0.2
 _ZN3QCA9KeyLoader21loadPrivateKeyFromPEMERK7QString@Base 2.0.2
 _ZN3QCA9KeyLoader22loadKeyBundleFromArrayERK10QByteArray@Base 2.0.2
 _ZN3QCA9KeyLoader25loadPrivateKeyFromPEMFileERK7QString@Base 2.0.2
 _ZN3QCA9KeyLoader7Private11qt_metacallEN11QMetaObject4CallEiPPv@Base 2.0.2
 _ZN3QCA9KeyLoader7Private11qt_metacastEPKc@Base 2.0.2
 _ZN3QCA9KeyLoader7Private16staticMetaObjectE@Base 2.0.2
 _ZN3QCA9KeyLoader7Private5resetEv@Base 2.0.3-2
 _ZN3QCA9KeyLoader7Private5startEv@Base 2.0.3-2
 _ZN3QCA9KeyLoader7PrivateD0Ev@Base 2.0.3-2
 _ZN3QCA9KeyLoader7PrivateD1Ev@Base 2.0.3-2
 _ZN3QCA9KeyLoader7PrivateD2Ev@Base 2.0.3-2
 _ZN3QCA9KeyLoader8finishedEv@Base 2.0.2
 _ZN3QCA9KeyLoaderC1EP7QObject@Base 2.0.2
 _ZN3QCA9KeyLoaderC2EP7QObject@Base 2.0.2
 _ZN3QCA9KeyLoaderD0Ev@Base 2.0.2
 _ZN3QCA9KeyLoaderD1Ev@Base 2.0.2
 _ZN3QCA9KeyLoaderD2Ev@Base 2.0.2
 _ZN3QCA9PublicKey11fromPEMFileERK7QStringPNS_13ConvertResultES3_@Base 2.0.2
 _ZN3QCA9PublicKey11startVerifyENS_18SignatureAlgorithmENS_15SignatureFormatE@Base 2.0.2
 _ZN3QCA9PublicKey13verifyMessageERKNS_12MemoryRegionERK10QByteArrayNS_18SignatureAlgorithmENS_15SignatureFormatE@Base 2.0.2
 _ZN3QCA9PublicKey14validSignatureERK10QByteArray@Base 2.0.2
 _ZN3QCA9PublicKey6updateERKNS_12MemoryRegionE@Base 2.0.2
 _ZN3QCA9PublicKey7encryptERKNS_11SecureArrayENS_19EncryptionAlgorithmE@Base 2.0.2
 _ZN3QCA9PublicKey7fromDERERK10QByteArrayPNS_13ConvertResultERK7QString@Base 2.0.2
 _ZN3QCA9PublicKey7fromPEMERK7QStringPNS_13ConvertResultES3_@Base 2.0.2
 _ZN3QCA9PublicKeyC1ERK7QString@Base 2.0.2
 _ZN3QCA9PublicKeyC1ERK7QStringS3_@Base 2.0.2
 _ZN3QCA9PublicKeyC1ERKNS_10PrivateKeyE@Base 2.0.2
 _ZN3QCA9PublicKeyC1ERKS0_@Base 2.0.2
 _ZN3QCA9PublicKeyC1Ev@Base 2.0.2
 _ZN3QCA9PublicKeyC2ERK7QString@Base 2.0.2
 _ZN3QCA9PublicKeyC2ERK7QStringS3_@Base 2.0.2
 _ZN3QCA9PublicKeyC2ERKNS_10PrivateKeyE@Base 2.0.2
 _ZN3QCA9PublicKeyC2ERKS0_@Base 2.0.2
 _ZN3QCA9PublicKeyC2Ev@Base 2.0.2
 _ZN3QCA9PublicKeyD0Ev@Base 2.0.2
 _ZN3QCA9PublicKeyD1Ev@Base 2.0.2
 _ZN3QCA9PublicKeyD2Ev@Base 2.0.2
 _ZN3QCA9PublicKeyaSERKS0_@Base 2.0.2
 _ZN3QCA9SafeTimer11qt_metacallEN11QMetaObject4CallEiPPv@Base 2.0.3-2
 _ZN3QCA9SafeTimer11qt_metacastEPKc@Base 2.0.3-2
 _ZN3QCA9SafeTimer16staticMetaObjectE@Base 2.0.3-2
 _ZN3QCA9SafeTimer7timeoutEv@Base 2.0.3-2
 _ZN3QCA9SafeTimerD0Ev@Base 2.0.3-2
 _ZN3QCA9SafeTimerD1Ev@Base 2.0.3-2
 _ZN3QCA9SafeTimerD2Ev@Base 2.0.3-2
 _ZN3QCA9providersEv@Base 2.0.2
 _ZN3QCAlsER11QTextStreamRKNS_10BigIntegerE@Base 2.0.2
 _ZN3QCAplERKNS_11SecureArrayES2_@Base 2.0.2
 _ZN4QMapI7QString8QVariantE11node_createEP8QMapDataPPNS3_4NodeERKS0_RKS1_@Base 2.0.3-2
 _ZN4QMapI7QString8QVariantE13detach_helperEv@Base 2.0.3-2
 _ZN4QMapI7QString8QVariantED1Ev@Base 2.0.3-2
 _ZN4QMapI7QString8QVariantED2Ev@Base 2.0.3-2
 _ZN4QMapI7QString8QVariantEixERKS0_@Base 2.0.3-2
 _ZN4QMapI7QStringS_IS0_8QVariantEE11node_createEP8QMapDataPPNS4_4NodeERKS0_RKS2_@Base 2.0.3-2
 _ZN4QMapI7QStringS_IS0_8QVariantEE13detach_helperEv@Base 2.0.3-2
 _ZN4QMapI7QStringS_IS0_8QVariantEED1Ev@Base 2.0.3-2
 _ZN4QMapI7QStringS_IS0_8QVariantEED2Ev@Base 2.0.3-2
 _ZN4QMapI7QStringS_IS0_8QVariantEEixERKS0_@Base 2.0.3-2
 _ZN4QMapIN3QCA19CertificateInfoTypeE7QStringE13detach_helperEv@Base 2.0.3-2
 _ZN4QMapIN3QCA19CertificateInfoTypeE7QStringE6removeERKS1_@Base 2.0.3-2
 _ZN4QSetIPN3QCA19KeyStoreListContextEE6insertERKS2_@Base 2.0.3-2
 _ZN4QSetIPN3QCA19KeyStoreListContextEED1Ev@Base 2.0.3-2
 _ZN4QSetIPN3QCA19KeyStoreListContextEED2Ev@Base 2.0.3-2
 _ZN5QHashIPN3QCA19KeyStoreListContextE15QHashDummyValueE11deleteNode2EPN9QHashData4NodeE@Base 2.0.3-2
 _ZN5QHashIPN3QCA19KeyStoreListContextE15QHashDummyValueE13duplicateNodeEPN9QHashData4NodeEPv@Base 2.0.3-2
 _ZN5QHashIPN3QCA19KeyStoreListContextE15QHashDummyValueE6removeERKS2_@Base 2.0.3-2
 _ZN5QHashIPN3QCA8KeyStoreEiE11deleteNode2EPN9QHashData4NodeE@Base 2.0.3-2
 _ZN5QHashIPN3QCA8KeyStoreEiE13duplicateNodeEPN9QHashData4NodeEPv@Base 2.0.3-2
 _ZN5QHashIPN3QCA8KeyStoreEiED1Ev@Base 2.0.3-2
 _ZN5QHashIPN3QCA8KeyStoreEiED2Ev@Base 2.0.3-2
 _ZN5QHashIiPN3QCA8KeyStoreEE11deleteNode2EPN9QHashData4NodeE@Base 2.0.3-2
 _ZN5QHashIiPN3QCA8KeyStoreEE13duplicateNodeEPN9QHashData4NodeEPv@Base 2.0.3-2
 _ZN5QHashIiPN3QCA8KeyStoreEE6removeERKi@Base 2.0.3-2
 _ZN5QListI10QByteArrayE13detach_helperEv@Base 2.0.3-2
 _ZN5QListI10QByteArrayE18detach_helper_growEii@Base 2.0.3-2
 _ZN5QListI10QByteArrayE5clearEv@Base 2.0.3-2
 _ZN5QListI10QByteArrayE6appendERKS0_@Base 2.0.3-2
 _ZN5QListI10QByteArrayE9takeFirstEv@Base 2.0.3-2
 _ZN5QListI10QByteArrayED1Ev@Base 2.0.3-2
 _ZN5QListI10QByteArrayED2Ev@Base 2.0.3-2
 _ZN5QListI5QPairIiiEE13detach_helperEi@Base 2.0.3-2
 _ZN5QListI5QPairIiiEED1Ev@Base 2.0.3-2
 _ZN5QListI5QPairIiiEED2Ev@Base 2.0.3-2
 _ZN5QListI7QStringE13detach_helperEi@Base 2.0.3-2
 _ZN5QListI7QStringE18detach_helper_growEii@Base 2.0.3-2
 _ZN5QListI7QStringE6appendERKS0_@Base 2.0.3-2
 _ZN5QListI7QStringE9node_copyEPNS1_4NodeES3_S3_@Base 2.0.3-2
 _ZN5QListI7QStringE9removeAllERKS0_@Base 2.0.3-2
 _ZN5QListI7QStringED1Ev@Base 2.0.3-2
 _ZN5QListI7QStringED2Ev@Base 2.0.3-2
 _ZN5QListI7QStringEixEi@Base 2.0.3-2
 _ZN5QListI8QVariantE18detach_helper_growEii@Base 2.0.3-2
 _ZN5QListI8QVariantE6appendERKS0_@Base 2.0.3-2
 _ZN5QListI8QVariantE9node_copyEPNS1_4NodeES3_S3_@Base 2.0.3-2
 _ZN5QListI8QVariantED1Ev@Base 2.0.3-2
 _ZN5QListI8QVariantED2Ev@Base 2.0.3-2
 _ZN5QListIN3QCA10DLGroupSetEE13detach_helperEi@Base 2.0.3-2
 _ZN5QListIN3QCA10DLGroupSetEE18detach_helper_growEii@Base 2.0.3-2
 _ZN5QListIN3QCA10DLGroupSetEE6appendERKS1_@Base 2.0.3-2
 _ZN5QListIN3QCA10DLGroupSetEED1Ev@Base 2.0.3-2
 _ZN5QListIN3QCA10DLGroupSetEED2Ev@Base 2.0.3-2
 _ZN5QListIN3QCA10TimerFixer9TimerInfoEE13detach_helperEi@Base 2.0.3-2
 _ZN5QListIN3QCA10TimerFixer9TimerInfoEE18detach_helper_growEii@Base 2.0.3-2
 _ZN5QListIN3QCA10TimerFixer9TimerInfoEE6appendERKS2_@Base 2.0.3-2
 _ZN5QListIN3QCA10TimerFixer9TimerInfoEED1Ev@Base 2.0.3-2
 _ZN5QListIN3QCA10TimerFixer9TimerInfoEED2Ev@Base 2.0.3-2
 _ZN5QListIN3QCA11CertificateEE13detach_helperEi@Base 2.0.3-2
 _ZN5QListIN3QCA11CertificateEE18detach_helper_growEii@Base 2.0.3-2
 _ZN5QListIN3QCA11CertificateEE6appendERKS1_@Base 2.0.3-2
 _ZN5QListIN3QCA11CertificateEE9node_copyEPNS2_4NodeES4_S4_@Base 2.0.3-2
 _ZN5QListIN3QCA11CertificateEED1Ev@Base 2.0.3-2
 _ZN5QListIN3QCA11CertificateEED2Ev@Base 2.0.3-2
 _ZN5QListIN3QCA11CertificateEEpLERKS2_@Base 2.0.3-2
 _ZN5QListIN3QCA11EventGlobal11HandlerItemEE13detach_helperEi@Base 2.0.3-2
 _ZN5QListIN3QCA11EventGlobal11HandlerItemEE18detach_helper_growEii@Base 2.0.3-2
 _ZN5QListIN3QCA11EventGlobal11HandlerItemEE6appendERKS2_@Base 2.0.3-2
 _ZN5QListIN3QCA11EventGlobal11HandlerItemEE9node_copyEPNS3_4NodeES5_S5_@Base 2.0.3-2
 _ZN5QListIN3QCA11EventGlobal11HandlerItemEED1Ev@Base 2.0.3-2
 _ZN5QListIN3QCA11EventGlobal11HandlerItemEED2Ev@Base 2.0.3-2
 _ZN5QListIN3QCA11EventGlobal9AskerItemEE13detach_helperEi@Base 2.0.3-2
 _ZN5QListIN3QCA11EventGlobal9AskerItemEE18detach_helper_growEii@Base 2.0.3-2
 _ZN5QListIN3QCA11EventGlobal9AskerItemEE6appendERKS2_@Base 2.0.3-2
 _ZN5QListIN3QCA11EventGlobal9AskerItemEE9node_copyEPNS3_4NodeES5_S5_@Base 2.0.3-2
 _ZN5QListIN3QCA11EventGlobal9AskerItemEED1Ev@Base 2.0.3-2
 _ZN5QListIN3QCA11EventGlobal9AskerItemEED2Ev@Base 2.0.3-2
 _ZN5QListIN3QCA12LayerTracker4ItemEE13detach_helperEi@Base 2.0.3-2
 _ZN5QListIN3QCA12LayerTracker4ItemEE18detach_helper_growEii@Base 2.0.3-2
 _ZN5QListIN3QCA12LayerTracker4ItemEE5clearEv@Base 2.0.3-2
 _ZN5QListIN3QCA12LayerTracker4ItemEE6appendERKS2_@Base 2.0.3-2
 _ZN5QListIN3QCA12LayerTracker4ItemEED1Ev@Base 2.0.3-2
 _ZN5QListIN3QCA12LayerTracker4ItemEED2Ev@Base 2.0.3-2
 _ZN5QListIN3QCA12PBEAlgorithmEE13detach_helperEi@Base 2.0.3-2
 _ZN5QListIN3QCA12PBEAlgorithmEE18detach_helper_growEii@Base 2.0.3-2
 _ZN5QListIN3QCA12PBEAlgorithmEE6appendERKS1_@Base 2.0.3-2
 _ZN5QListIN3QCA12PBEAlgorithmEED1Ev@Base 2.0.3-2
 _ZN5QListIN3QCA12PBEAlgorithmEED2Ev@Base 2.0.3-2
 _ZN5QListIN3QCA13KeyStoreEntry4TypeEE13detach_helperEi@Base 2.0.3-2
 _ZN5QListIN3QCA13KeyStoreEntry4TypeEE18detach_helper_growEii@Base 2.0.3-2
 _ZN5QListIN3QCA13KeyStoreEntry4TypeEE6appendERKS2_@Base 2.0.3-2
 _ZN5QListIN3QCA13KeyStoreEntry4TypeEED1Ev@Base 2.0.3-2
 _ZN5QListIN3QCA13KeyStoreEntry4TypeEED2Ev@Base 2.0.3-2
 _ZN5QListIN3QCA13KeyStoreEntry4TypeEEaSERKS3_@Base 2.0.3-2
 _ZN5QListIN3QCA13KeyStoreEntryEE13detach_helperEi@Base 2.0.3-2
 _ZN5QListIN3QCA13KeyStoreEntryEE18detach_helper_growEii@Base 2.0.3-2
 _ZN5QListIN3QCA13KeyStoreEntryEE6appendERKS1_@Base 2.0.3-2
 _ZN5QListIN3QCA13KeyStoreEntryEE9node_copyEPNS2_4NodeES4_S4_@Base 2.0.3-2
 _ZN5QListIN3QCA13KeyStoreEntryEED1Ev@Base 2.0.3-2
 _ZN5QListIN3QCA13KeyStoreEntryEED2Ev@Base 2.0.3-2
 _ZN5QListIN3QCA13KeyStoreEntryEEaSERKS2_@Base 2.0.3-2
 _ZN5QListIN3QCA14ConstraintTypeEE13detach_helperEi@Base 2.0.3-2
 _ZN5QListIN3QCA14ConstraintTypeEE9node_copyEPNS2_4NodeES4_S4_@Base 2.0.3-2
 _ZN5QListIN3QCA14ConstraintTypeEED1Ev@Base 2.0.3-2
 _ZN5QListIN3QCA14ConstraintTypeEED2Ev@Base 2.0.3-2
 _ZN5QListIN3QCA15KeyStoreTracker4ItemEE13detach_helperEi@Base 2.0.3-2
 _ZN5QListIN3QCA15KeyStoreTracker4ItemEE18detach_helper_growEii@Base 2.0.3-2
 _ZN5QListIN3QCA15KeyStoreTracker4ItemEE6appendERKS2_@Base 2.0.3-2
 _ZN5QListIN3QCA15KeyStoreTracker4ItemEE9node_copyEPNS3_4NodeES5_S5_@Base 2.0.3-2
 _ZN5QListIN3QCA15KeyStoreTracker4ItemEED1Ev@Base 2.0.3-2
 _ZN5QListIN3QCA15KeyStoreTracker4ItemEED2Ev@Base 2.0.3-2
 _ZN5QListIN3QCA15KeyStoreTracker4ItemEEixEi@Base 2.0.3-2
 _ZN5QListIN3QCA16SecureMessageKeyEE13detach_helperEi@Base 2.0.3-2
 _ZN5QListIN3QCA16SecureMessageKeyEE18detach_helper_growEii@Base 2.0.3-2
 _ZN5QListIN3QCA16SecureMessageKeyEE5clearEv@Base 2.0.3-2
 _ZN5QListIN3QCA16SecureMessageKeyEE6appendERKS1_@Base 2.0.3-2
 _ZN5QListIN3QCA16SecureMessageKeyEED1Ev@Base 2.0.3-2
 _ZN5QListIN3QCA16SecureMessageKeyEED2Ev@Base 2.0.3-2
 _ZN5QListIN3QCA19CertificateInfoPairEE13detach_helperEi@Base 2.0.3-2
 _ZN5QListIN3QCA19CertificateInfoPairEE18detach_helper_growEii@Base 2.0.3-2
 _ZN5QListIN3QCA19CertificateInfoPairEE6appendERKS1_@Base 2.0.3-2
 _ZN5QListIN3QCA19CertificateInfoPairEE9node_copyEPNS2_4NodeES4_S4_@Base 2.0.3-2
 _ZN5QListIN3QCA19CertificateInfoTypeEE13detach_helperEi@Base 2.0.3-2
 _ZN5QListIN3QCA19CertificateInfoTypeEE18detach_helper_growEii@Base 2.0.3-2
 _ZN5QListIN3QCA19CertificateInfoTypeEE6appendERKS1_@Base 2.0.3-2
 _ZN5QListIN3QCA19CertificateInfoTypeEE9node_copyEPNS2_4NodeES4_S4_@Base 2.0.3-2
 _ZN5QListIN3QCA19CertificateInfoTypeEED1Ev@Base 2.0.3-2
 _ZN5QListIN3QCA19CertificateInfoTypeEED2Ev@Base 2.0.3-2
 _ZN5QListIN3QCA22CertificateInfoOrderedEE13detach_helperEi@Base 2.0.3-2
 _ZN5QListIN3QCA22CertificateInfoOrderedEE5clearEv@Base 2.0.3-2
 _ZN5QListIN3QCA22CertificateInfoOrderedEED1Ev@Base 2.0.3-2
 _ZN5QListIN3QCA22CertificateInfoOrderedEED2Ev@Base 2.0.3-2
 _ZN5QListIN3QCA22SecureMessageSignatureEE13detach_helperEi@Base 2.0.3-2
 _ZN5QListIN3QCA22SecureMessageSignatureEED1Ev@Base 2.0.3-2
 _ZN5QListIN3QCA22SecureMessageSignatureEED2Ev@Base 2.0.3-2
 _ZN5QListIN3QCA3CRLEE13detach_helperEi@Base 2.0.3-2
 _ZN5QListIN3QCA3CRLEE18detach_helper_growEii@Base 2.0.3-2
 _ZN5QListIN3QCA3CRLEE6appendERKS1_@Base 2.0.3-2
 _ZN5QListIN3QCA3CRLEE9node_copyEPNS2_4NodeES4_S4_@Base 2.0.3-2
 _ZN5QListIN3QCA3CRLEED1Ev@Base 2.0.3-2
 _ZN5QListIN3QCA3CRLEED2Ev@Base 2.0.3-2
 _ZN5QListIN3QCA3CRLEEpLERKS2_@Base 2.0.3-2
 _ZN5QListIN3QCA3TLS7Private6ActionEE13detach_helperEi@Base 2.0.3-2
 _ZN5QListIN3QCA3TLS7Private6ActionEE18detach_helper_growEii@Base 2.0.3-2
 _ZN5QListIN3QCA3TLS7Private6ActionEE5clearEv@Base 2.0.3-2
 _ZN5QListIN3QCA3TLS7Private6ActionEE6appendERKS3_@Base 2.0.3-2
 _ZN5QListIN3QCA3TLS7Private6ActionEED1Ev@Base 2.0.3-2
 _ZN5QListIN3QCA3TLS7Private6ActionEED2Ev@Base 2.0.3-2
 _ZN5QListIN3QCA4PKey4TypeEE13detach_helperEi@Base 2.0.3-2
 _ZN5QListIN3QCA4PKey4TypeEE18detach_helper_growEii@Base 2.0.3-2
 _ZN5QListIN3QCA4PKey4TypeEE6appendERKS2_@Base 2.0.3-2
 _ZN5QListIN3QCA4PKey4TypeEED1Ev@Base 2.0.3-2
 _ZN5QListIN3QCA4PKey4TypeEED2Ev@Base 2.0.3-2
 _ZN5QListIN3QCA4SASL7Private6ActionEE13detach_helperEi@Base 2.0.3-2
 _ZN5QListIN3QCA4SASL7Private6ActionEE18detach_helper_growEii@Base 2.0.3-2
 _ZN5QListIN3QCA4SASL7Private6ActionEE5clearEv@Base 2.0.3-2
 _ZN5QListIN3QCA4SASL7Private6ActionEE6appendERKS3_@Base 2.0.3-2
 _ZN5QListIN3QCA4SASL7Private6ActionEED1Ev@Base 2.0.3-2
 _ZN5QListIN3QCA4SASL7Private6ActionEED2Ev@Base 2.0.3-2
 _ZN5QListIN3QCA8CRLEntryEE13detach_helperEi@Base 2.0.3-2
 _ZN5QListIN3QCA8CRLEntryEE9node_copyEPNS2_4NodeES4_S4_@Base 2.0.3-2
 _ZN5QListIP7QObjectE13detach_helperEi@Base 2.0.3-2
 _ZN5QListIP7QObjectED1Ev@Base 2.0.3-2
 _ZN5QListIP7QObjectED2Ev@Base 2.0.3-2
 _ZN5QListIPKN3QCA11CertContextEE18detach_helper_growEii@Base 2.0.3-2
 _ZN5QListIPKN3QCA11CertContextEE6appendERKS3_@Base 2.0.3-2
 _ZN5QListIPKN3QCA11CertContextEED1Ev@Base 2.0.3-2
 _ZN5QListIPKN3QCA11CertContextEED2Ev@Base 2.0.3-2
 _ZN5QListIPN3QCA10CRLContextEE13detach_helperEi@Base 2.0.3-2
 _ZN5QListIPN3QCA10CRLContextEE18detach_helper_growEii@Base 2.0.3-2
 _ZN5QListIPN3QCA10CRLContextEE6appendERKS2_@Base 2.0.3-2
 _ZN5QListIPN3QCA10CRLContextEED1Ev@Base 2.0.3-2
 _ZN5QListIPN3QCA10CRLContextEED2Ev@Base 2.0.3-2
 _ZN5QListIPN3QCA10TimerFixerEE13detach_helperEi@Base 2.0.3-2
 _ZN5QListIPN3QCA10TimerFixerEE13detach_helperEv@Base 2.0.3-2
 _ZN5QListIPN3QCA10TimerFixerEE18detach_helper_growEii@Base 2.0.3-2
 _ZN5QListIPN3QCA10TimerFixerEE5clearEv@Base 2.0.3-2
 _ZN5QListIPN3QCA10TimerFixerEE6appendERKS2_@Base 2.0.3-2
 _ZN5QListIPN3QCA10TimerFixerEED1Ev@Base 2.0.3-2
 _ZN5QListIPN3QCA10TimerFixerEED2Ev@Base 2.0.3-2
 _ZN5QListIPN3QCA11CertContextEE13detach_helperEi@Base 2.0.3-2
 _ZN5QListIPN3QCA11CertContextEE18detach_helper_growEii@Base 2.0.3-2
 _ZN5QListIPN3QCA11CertContextEE6appendERKS2_@Base 2.0.3-2
 _ZN5QListIPN3QCA11CertContextEED1Ev@Base 2.0.3-2
 _ZN5QListIPN3QCA11CertContextEED2Ev@Base 2.0.3-2
 _ZN5QListIPN3QCA12ProviderItemEE13detach_helperEi@Base 2.0.3-2
 _ZN5QListIPN3QCA12ProviderItemEE18detach_helper_growEii@Base 2.0.3-2
 _ZN5QListIPN3QCA12ProviderItemEE6appendERKS2_@Base 2.0.3-2
 _ZN5QListIPN3QCA12ProviderItemEED1Ev@Base 2.0.3-2
 _ZN5QListIPN3QCA12ProviderItemEED2Ev@Base 2.0.3-2
 _ZN5QListIPN3QCA17AbstractLogDeviceEE13detach_helperEi@Base 2.0.3-2
 _ZN5QListIPN3QCA17AbstractLogDeviceEE18detach_helper_growEii@Base 2.0.3-2
 _ZN5QListIPN3QCA17AbstractLogDeviceEE6appendERKS2_@Base 2.0.3-2
 _ZN5QListIPN3QCA17KeyStoreOperationEE13detach_helperEi@Base 2.0.3-2
 _ZN5QListIPN3QCA17KeyStoreOperationEE18detach_helper_growEii@Base 2.0.3-2
 _ZN5QListIPN3QCA17KeyStoreOperationEE6appendERKS2_@Base 2.0.3-2
 _ZN5QListIPN3QCA17KeyStoreOperationEE9removeAllERKS2_@Base 2.0.3-2
 _ZN5QListIPN3QCA17KeyStoreOperationEED1Ev@Base 2.0.3-2
 _ZN5QListIPN3QCA17KeyStoreOperationEED2Ev@Base 2.0.3-2
 _ZN5QListIPN3QCA20KeyStoreEntryContextEE13detach_helperEi@Base 2.0.3-2
 _ZN5QListIPN3QCA20KeyStoreEntryContextEE18detach_helper_growEii@Base 2.0.3-2
 _ZN5QListIPN3QCA20KeyStoreEntryContextEE6appendERKS2_@Base 2.0.3-2
 _ZN5QListIPN3QCA20KeyStoreEntryContextEED1Ev@Base 2.0.3-2
 _ZN5QListIPN3QCA20KeyStoreEntryContextEED2Ev@Base 2.0.3-2
 _ZN5QListIPN3QCA8KeyStoreEE13detach_helperEi@Base 2.0.3-2
 _ZN5QListIPN3QCA8KeyStoreEE18detach_helper_growEii@Base 2.0.3-2
 _ZN5QListIPN3QCA8KeyStoreEE6appendERKS2_@Base 2.0.3-2
 _ZN5QListIPN3QCA8KeyStoreEED1Ev@Base 2.0.3-2
 _ZN5QListIPN3QCA8KeyStoreEED2Ev@Base 2.0.3-2
 _ZN5QListIPN3QCA8ProviderEE13detach_helperEi@Base 2.0.3-2
 _ZN5QListIPN3QCA8ProviderEE18detach_helper_growEii@Base 2.0.3-2
 _ZN5QListIPN3QCA8ProviderEE6appendERKS2_@Base 2.0.3-2
 _ZN5QListIPN3QCA8ProviderEED1Ev@Base 2.0.3-2
 _ZN5QListIPN3QCA8ProviderEED2Ev@Base 2.0.3-2
 _ZN5QListIS_IiEE13detach_helperEi@Base 2.0.3-2
 _ZN5QListIS_IiEE18detach_helper_growEii@Base 2.0.3-2
 _ZN5QListIS_IiEE6appendERKS0_@Base 2.0.3-2
 _ZN5QListIS_IiEE9node_copyEPNS1_4NodeES3_S3_@Base 2.0.3-2
 _ZN5QListIS_IiEED1Ev@Base 2.0.3-2
 _ZN5QListIS_IiEED2Ev@Base 2.0.3-2
 _ZN5QListIiE13detach_helperEi@Base 2.0.3-2
 _ZN5QListIiE18detach_helper_growEii@Base 2.0.3-2
 _ZN5QListIiE5clearEv@Base 2.0.3-2
 _ZN5QListIiE6appendERKi@Base 2.0.3-2
 _ZN5QListIiE9removeAllERKi@Base 2.0.3-2
 _ZN5QListIiEC1ERKS0_@Base 2.0.3-2
 _ZN5QListIiEC2ERKS0_@Base 2.0.3-2
 _ZN5QListIiED1Ev@Base 2.0.3-2
 _ZN5QListIiED2Ev@Base 2.0.3-2
 _ZN7QStringD1Ev@Base 2.0.3-2
 _ZN7QStringD2Ev@Base 2.0.3-2
 _ZN8QByteRefaSEc@Base 2.0.3-2
 _ZN9QMultiMapIN3QCA19CertificateInfoTypeE7QStringE6insertERKS1_RKS2_@Base 2.0.3-2
 _ZN9QMultiMapIN3QCA19CertificateInfoTypeE7QStringED1Ev@Base 2.0.3-2
 _ZN9QMultiMapIN3QCA19CertificateInfoTypeE7QStringED2Ev@Base 2.0.3-2
 _ZNK3QCA10BigInteger7compareERKS0_@Base 2.0.2
 _ZNK3QCA10BigInteger7toArrayEv@Base 2.0.2
 _ZNK3QCA10BigInteger8toStringEv@Base 2.0.2
 _ZNK3QCA10CRLContext10metaObjectEv@Base 2.0.2
 _ZNK3QCA10CSRContext10metaObjectEv@Base 2.0.2
 _ZNK3QCA10DSAContext10metaObjectEv@Base 2.0.2
 _ZNK3QCA10KDFContext10metaObjectEv@Base 2.0.2
 _ZNK3QCA10MACContext10metaObjectEv@Base 2.0.2
 _ZNK3QCA10PrivateKey10canDecryptEv@Base 2.0.2
 _ZNK3QCA10PrivateKey4toDHEv@Base 2.0.2
 _ZNK3QCA10PrivateKey5toDERERKNS_11SecureArrayENS_12PBEAlgorithmE@Base 2.0.2
 _ZNK3QCA10PrivateKey5toDSAEv@Base 2.0.2
 _ZNK3QCA10PrivateKey5toPEMERKNS_11SecureArrayENS_12PBEAlgorithmE@Base 2.0.2
 _ZNK3QCA10PrivateKey5toRSAEv@Base 2.0.2
 _ZNK3QCA10PrivateKey7canSignEv@Base 2.0.2
 _ZNK3QCA10PrivateKey9toPEMFileERK7QStringRKNS_11SecureArrayENS_12PBEAlgorithmE@Base 2.0.2
 _ZNK3QCA10RSAContext10metaObjectEv@Base 2.0.2
 _ZNK3QCA10SMSContext10metaObjectEv@Base 2.0.2
 _ZNK3QCA10SyncThread10metaObjectEv@Base 2.0.2
 _ZNK3QCA10SyncThread7Private10metaObjectEv@Base 2.0.2
 _ZNK3QCA10TLSContext10metaObjectEv@Base 2.0.2
 _ZNK3QCA10TLSSession6isNullEv@Base 2.0.2
 _ZNK3QCA10TextFilter9directionEv@Base 2.0.2
 _ZNK3QCA10TimerFixer10metaObjectEv@Base 2.0.3-2
 _ZNK3QCA10TokenAsker10metaObjectEv@Base 2.0.2
 _ZNK3QCA10TokenAsker8acceptedEv@Base 2.0.2
 _ZNK3QCA11CertContext10metaObjectEv@Base 2.0.2
 _ZNK3QCA11Certificate10commonNameEv@Base 2.0.2
 _ZNK3QCA11Certificate10isIssuerOfERKS0_@Base 2.0.2
 _ZNK3QCA11Certificate10issuerInfoEv@Base 2.0.2
 _ZNK3QCA11Certificate11constraintsEv@Base 2.0.2
 _ZNK3QCA11Certificate11issuerKeyIdEv@Base 2.0.2
 _ZNK3QCA11Certificate11subjectInfoEv@Base 2.0.2
 _ZNK3QCA11Certificate12crlLocationsEv@Base 2.0.2
 _ZNK3QCA11Certificate12isSelfSignedEv@Base 2.0.2
 _ZNK3QCA11Certificate12serialNumberEv@Base 2.0.2
 _ZNK3QCA11Certificate12subjectKeyIdEv@Base 2.0.2
 _ZNK3QCA11Certificate13notValidAfterEv@Base 2.0.2
 _ZNK3QCA11Certificate13ocspLocationsEv@Base 2.0.2
 _ZNK3QCA11Certificate14chain_completeERKNS_16CertificateChainERK5QListIS0_EPNS_8ValidityE@Base 2.0.2
 _ZNK3QCA11Certificate14chain_validateERKNS_16CertificateChainERKNS_21CertificateCollectionERK5QListINS_3CRLEENS_9UsageModeENS_13ValidateFlagsE@Base 2.0.2
 _ZNK3QCA11Certificate14notValidBeforeEv@Base 2.0.2
 _ZNK3QCA11Certificate15issuerLocationsEv@Base 2.0.2
 _ZNK3QCA11Certificate15matchesHostNameERK7QString@Base 2.0.2
 _ZNK3QCA11Certificate16subjectPublicKeyEv@Base 2.0.2
 _ZNK3QCA11Certificate17issuerInfoOrderedEv@Base 2.0.2
 _ZNK3QCA11Certificate18signatureAlgorithmEv@Base 2.0.2
 _ZNK3QCA11Certificate18subjectInfoOrderedEv@Base 2.0.2
 _ZNK3QCA11Certificate4isCAEv@Base 2.0.2
 _ZNK3QCA11Certificate5toDEREv@Base 2.0.2
 _ZNK3QCA11Certificate5toPEMEv@Base 2.0.2
 _ZNK3QCA11Certificate6isNullEv@Base 2.0.2
 _ZNK3QCA11Certificate8policiesEv@Base 2.0.2
 _ZNK3QCA11Certificate8validateERKNS_21CertificateCollectionES3_NS_9UsageModeENS_13ValidateFlagsE@Base 2.0.2
 _ZNK3QCA11Certificate9pathLimitEv@Base 2.0.2
 _ZNK3QCA11Certificate9toPEMFileERK7QString@Base 2.0.2
 _ZNK3QCA11CertificateeqERKS0_@Base 2.0.2
 _ZNK3QCA11DHPublicKey1yEv@Base 2.0.2
 _ZNK3QCA11DHPublicKey6domainEv@Base 2.0.2
 _ZNK3QCA11HandlerBase10metaObjectEv@Base 2.0.3-2
 _ZNK3QCA11HashContext10metaObjectEv@Base 2.0.2
 _ZNK3QCA11InfoContext10metaObjectEv@Base 2.0.2
 _ZNK3QCA11InfoContext17supportedMACTypesEv@Base 2.0.2
 _ZNK3QCA11InfoContext18supportedHashTypesEv@Base 2.0.2
 _ZNK3QCA11InfoContext20supportedCipherTypesEv@Base 2.0.2
 _ZNK3QCA11PKeyContext10metaObjectEv@Base 2.0.2
 _ZNK3QCA11PKeyContext11publicToDEREv@Base 2.0.2
 _ZNK3QCA11PKeyContext11publicToPEMEv@Base 2.0.2
 _ZNK3QCA11PKeyContext12privateToDERERKNS_11SecureArrayENS_12PBEAlgorithmE@Base 2.0.2
 _ZNK3QCA11PKeyContext12privateToPEMERKNS_11SecureArrayENS_12PBEAlgorithmE@Base 2.0.2
 _ZNK3QCA11QPipeDevice10metaObjectEv@Base 2.0.2
 _ZNK3QCA11QPipeDevice11writeResultEPi@Base 2.0.2
 _ZNK3QCA11QPipeDevice14bytesAvailableEv@Base 2.0.2
 _ZNK3QCA11QPipeDevice2idEv@Base 2.0.2
 _ZNK3QCA11QPipeDevice4typeEv@Base 2.0.2
 _ZNK3QCA11QPipeDevice7Private10metaObjectEv@Base 2.0.2
 _ZNK3QCA11QPipeDevice7idAsIntEv@Base 2.0.2
 _ZNK3QCA11QPipeDevice7isValidEv@Base 2.0.2
 _ZNK3QCA11SASLContext10metaObjectEv@Base 2.0.2
 _ZNK3QCA11SecureArray11toByteArrayEv@Base 2.0.2
 _ZNK3QCA11SecureArray2atEi@Base 2.0.2
 _ZNK3QCA11SecureArray4dataEv@Base 2.0.2
 _ZNK3QCA11SecureArray4sizeEv@Base 2.0.2
 _ZNK3QCA11SecureArray7isEmptyEv@Base 2.0.2
 _ZNK3QCA11SecureArray9constDataEv@Base 2.0.2
 _ZNK3QCA11SecureArrayeqERKNS_12MemoryRegionE@Base 2.0.2
 _ZNK3QCA11SecureArrayixEi@Base 2.0.2
 _ZNK3QCA11SecureLayer10isClosableEv@Base 2.0.2
 _ZNK3QCA11SecureLayer10metaObjectEv@Base 2.0.2
 _ZNK3QCA12AskerPrivate10metaObjectEv@Base 2.0.3-2
 _ZNK3QCA12BasicContext10metaObjectEv@Base 2.0.2
 _ZNK3QCA12DHPrivateKey1xEv@Base 2.0.2
 _ZNK3QCA12DHPrivateKey1yEv@Base 2.0.2
 _ZNK3QCA12DHPrivateKey6domainEv@Base 2.0.2
 _ZNK3QCA12DSAPublicKey1yEv@Base 2.0.2
 _ZNK3QCA12DSAPublicKey6domainEv@Base 2.0.2
 _ZNK3QCA12EventHandler10metaObjectEv@Base 2.0.2
 _ZNK3QCA12EventHandler7Private10metaObjectEv@Base 2.0.2
 _ZNK3QCA12KeyGenerator10metaObjectEv@Base 2.0.2
 _ZNK3QCA12KeyGenerator15blockingEnabledEv@Base 2.0.2
 _ZNK3QCA12KeyGenerator3keyEv@Base 2.0.2
 _ZNK3QCA12KeyGenerator6isBusyEv@Base 2.0.2
 _ZNK3QCA12KeyGenerator7Private10metaObjectEv@Base 2.0.2
 _ZNK3QCA12KeyGenerator7dlGroupEv@Base 2.0.2
 _ZNK3QCA12KeyStoreInfo2idEv@Base 2.0.2
 _ZNK3QCA12KeyStoreInfo4nameEv@Base 2.0.2
 _ZNK3QCA12KeyStoreInfo4typeEv@Base 2.0.2
 _ZNK3QCA12KeyStoreInfo6isNullEv@Base 2.0.2
 _ZNK3QCA12MemoryRegion11toByteArrayEv@Base 2.0.2
 _ZNK3QCA12MemoryRegion2atEi@Base 2.0.2
 _ZNK3QCA12MemoryRegion4dataEv@Base 2.0.2
 _ZNK3QCA12MemoryRegion4sizeEv@Base 2.0.2
 _ZNK3QCA12MemoryRegion6isNullEv@Base 2.0.2
 _ZNK3QCA12MemoryRegion7isEmptyEv@Base 2.0.2
 _ZNK3QCA12MemoryRegion8isSecureEv@Base 2.0.2
 _ZNK3QCA12MemoryRegion9constDataEv@Base 2.0.2
 _ZNK3QCA12RSAPublicKey1eEv@Base 2.0.2
 _ZNK3QCA12RSAPublicKey1nEv@Base 2.0.2
 _ZNK3QCA12Synchronizer10metaObjectEv@Base 2.0.2
 _ZNK3QCA12Synchronizer7Private10metaObjectEv@Base 2.0.2
 _ZNK3QCA13CipherContext10metaObjectEv@Base 2.0.2
 _ZNK3QCA13ConsolePrompt10metaObjectEv@Base 2.0.2
 _ZNK3QCA13ConsolePrompt10resultCharEv@Base 2.0.2
 _ZNK3QCA13ConsolePrompt6resultEv@Base 2.0.2
 _ZNK3QCA13ConsolePrompt7Private10metaObjectEv@Base 2.0.2
 _ZNK3QCA13ConsoleThread10metaObjectEv@Base 2.0.3-2
 _ZNK3QCA13ConsoleWorker10metaObjectEv@Base 2.0.3-2
 _ZNK3QCA13DSAPrivateKey1xEv@Base 2.0.2
 _ZNK3QCA13DSAPrivateKey1yEv@Base 2.0.2
 _ZNK3QCA13DSAPrivateKey6domainEv@Base 2.0.2
 _ZNK3QCA13KeyStoreEntry11certificateEv@Base 2.0.2
 _ZNK3QCA13KeyStoreEntry11isAvailableEv@Base 2.0.2
 _ZNK3QCA13KeyStoreEntry12isAccessibleEv@Base 2.0.2
 _ZNK3QCA13KeyStoreEntry12pgpPublicKeyEv@Base 2.0.2
 _ZNK3QCA13KeyStoreEntry12pgpSecretKeyEv@Base 2.0.2
 _ZNK3QCA13KeyStoreEntry2idEv@Base 2.0.2
 _ZNK3QCA13KeyStoreEntry3crlEv@Base 2.0.2
 _ZNK3QCA13KeyStoreEntry4nameEv@Base 2.0.2
 _ZNK3QCA13KeyStoreEntry4typeEv@Base 2.0.2
 _ZNK3QCA13KeyStoreEntry6isNullEv@Base 2.0.2
 _ZNK3QCA13KeyStoreEntry7storeIdEv@Base 2.0.2
 _ZNK3QCA13KeyStoreEntry8toStringEv@Base 2.0.2
 _ZNK3QCA13KeyStoreEntry9keyBundleEv@Base 2.0.2
 _ZNK3QCA13KeyStoreEntry9storeNameEv@Base 2.0.2
 _ZNK3QCA13PGPKeyContext10metaObjectEv@Base 2.0.2
 _ZNK3QCA13PKCS12Context10metaObjectEv@Base 2.0.2
 _ZNK3QCA13PasswordAsker10metaObjectEv@Base 2.0.2
 _ZNK3QCA13PasswordAsker8acceptedEv@Base 2.0.2
 _ZNK3QCA13PasswordAsker8passwordEv@Base 2.0.2
 _ZNK3QCA13RSAPrivateKey1dEv@Base 2.0.2
 _ZNK3QCA13RSAPrivateKey1eEv@Base 2.0.2
 _ZNK3QCA13RSAPrivateKey1nEv@Base 2.0.2
 _ZNK3QCA13RSAPrivateKey1pEv@Base 2.0.2
 _ZNK3QCA13RSAPrivateKey1qEv@Base 2.0.2
 _ZNK3QCA13RandomContext10metaObjectEv@Base 2.0.2
 _ZNK3QCA13SecureMessage10metaObjectEv@Base 2.0.2
 _ZNK3QCA13SecureMessage10signerKeysEv@Base 2.0.2
 _ZNK3QCA13SecureMessage12canClearsignEv@Base 2.0.2
 _ZNK3QCA13SecureMessage13recipientKeysEv@Base 2.0.2
 _ZNK3QCA13SecureMessage13verifySuccessEv@Base 2.0.2
 _ZNK3QCA13SecureMessage14bytesAvailableEv@Base 2.0.2
 _ZNK3QCA13SecureMessage14diagnosticTextEv@Base 2.0.2
 _ZNK3QCA13SecureMessage15canSignMultipleEv@Base 2.0.2
 _ZNK3QCA13SecureMessage17canSignAndEncryptEv@Base 2.0.2
 _ZNK3QCA13SecureMessage19bundleSignerEnabledEv@Base 2.0.2
 _ZNK3QCA13SecureMessage22smimeAttributesEnabledEv@Base 2.0.2
 _ZNK3QCA13SecureMessage4typeEv@Base 2.0.2
 _ZNK3QCA13SecureMessage6formatEv@Base 2.0.2
 _ZNK3QCA13SecureMessage6signerEv@Base 2.0.2
 _ZNK3QCA13SecureMessage7Private10metaObjectEv@Base 2.0.2
 _ZNK3QCA13SecureMessage7signersEv@Base 2.0.2
 _ZNK3QCA13SecureMessage7successEv@Base 2.0.2
 _ZNK3QCA13SecureMessage8hashNameEv@Base 2.0.2
 _ZNK3QCA13SecureMessage9errorCodeEv@Base 2.0.2
 _ZNK3QCA13SecureMessage9signatureEv@Base 2.0.2
 _ZNK3QCA13SecureMessage9wasSignedEv@Base 2.0.2
 _ZNK3QCA14ConsolePrivate10metaObjectEv@Base 2.0.3-2
 _ZNK3QCA14ConstraintType2idEv@Base 2.0.2
 _ZNK3QCA14ConstraintType5knownEv@Base 2.0.2
 _ZNK3QCA14ConstraintType7sectionEv@Base 2.0.2
 _ZNK3QCA14ConstraintTypeeqERKS0_@Base 2.0.2
 _ZNK3QCA14ConstraintTypeltERKS0_@Base 2.0.2
 _ZNK3QCA14DLGroupContext10metaObjectEv@Base 2.0.2
 _ZNK3QCA14KeyStoreThread10metaObjectEv@Base 2.0.3-2
 _ZNK3QCA14MessageContext10metaObjectEv@Base 2.0.2
 _ZNK3QCA14MessageContext14diagnosticTextEv@Base 2.0.2
 _ZNK3QCA15DefaultProvider10qcaVersionEv@Base 2.0.3-2
 _ZNK3QCA15DefaultProvider13defaultConfigEv@Base 2.0.3-2
 _ZNK3QCA15DefaultProvider4nameEv@Base 2.0.3-2
 _ZNK3QCA15DefaultProvider7versionEv@Base 2.0.3-2
 _ZNK3QCA15DefaultProvider8featuresEv@Base 2.0.3-2
 _ZNK3QCA15KeyLoaderThread10metaObjectEv@Base 2.0.3-2
 _ZNK3QCA15KeyStoreManager10metaObjectEv@Base 2.0.2
 _ZNK3QCA15KeyStoreManager6isBusyEv@Base 2.0.2
 _ZNK3QCA15KeyStoreManager9keyStoresEv@Base 2.0.2
 _ZNK3QCA15KeyStorePrivate10metaObjectEv@Base 2.0.3-2
 _ZNK3QCA15KeyStoreTracker10metaObjectEv@Base 2.0.3-2
 _ZNK3QCA15KeyStoreTracker18haveProviderSourceEPNS_8ProviderE@Base 2.0.3-2
 _ZNK3QCA15ProviderManager11allFeaturesEv@Base 2.0.3-2
 _ZNK3QCA15ProviderManager11haveAlreadyERK7QString@Base 2.0.3-2
 _ZNK3QCA15ProviderManager14diagnosticTextEv@Base 2.0.3-2
 _ZNK3QCA15ProviderManager20get_default_priorityERK7QString@Base 2.0.3-2
 _ZNK3QCA15ProviderManager4findEPNS_8ProviderE@Base 2.0.3-2
 _ZNK3QCA15ProviderManager4findERK7QString@Base 2.0.3-2
 _ZNK3QCA15ProviderManager7findForERK7QStringS3_@Base 2.0.3-2
 _ZNK3QCA15ProviderManager9providersEv@Base 2.0.3-2
 _ZNK3QCA15SyncThreadAgent10metaObjectEv@Base 2.0.3-2
 _ZNK3QCA16ConsoleReference10metaObjectEv@Base 2.0.2
 _ZNK3QCA16ConsoleReference12bytesToWriteEv@Base 2.0.2
 _ZNK3QCA16ConsoleReference12securityModeEv@Base 2.0.2
 _ZNK3QCA16ConsoleReference14bytesAvailableEv@Base 2.0.2
 _ZNK3QCA16ConsoleReference7consoleEv@Base 2.0.2
 _ZNK3QCA16SecureMessageKey11havePrivateEv@Base 2.0.2
 _ZNK3QCA16SecureMessageKey12pgpPublicKeyEv@Base 2.0.2
 _ZNK3QCA16SecureMessageKey12pgpSecretKeyEv@Base 2.0.2
 _ZNK3QCA16SecureMessageKey14x509PrivateKeyEv@Base 2.0.2
 _ZNK3QCA16SecureMessageKey20x509CertificateChainEv@Base 2.0.2
 _ZNK3QCA16SecureMessageKey4nameEv@Base 2.0.2
 _ZNK3QCA16SecureMessageKey4typeEv@Base 2.0.2
 _ZNK3QCA16SecureMessageKey6isNullEv@Base 2.0.2
 _ZNK3QCA17AbstractLogDevice10metaObjectEv@Base 2.0.2
 _ZNK3QCA17AbstractLogDevice4nameEv@Base 2.0.2
 _ZNK3QCA17DefaultMD5Context5cloneEv@Base 2.0.3-2
 _ZNK3QCA17KeyStoreOperation10metaObjectEv@Base 2.0.3-2
 _ZNK3QCA17SynchronizerAgent10metaObjectEv@Base 2.0.3-2
 _ZNK3QCA17TLSSessionContext10metaObjectEv@Base 2.0.2
 _ZNK3QCA18CertificateOptions11constraintsEv@Base 2.0.2
 _ZNK3QCA18CertificateOptions11infoOrderedEv@Base 2.0.2
 _ZNK3QCA18CertificateOptions12crlLocationsEv@Base 2.0.2
 _ZNK3QCA18CertificateOptions12serialNumberEv@Base 2.0.2
 _ZNK3QCA18CertificateOptions13notValidAfterEv@Base 2.0.2
 _ZNK3QCA18CertificateOptions13ocspLocationsEv@Base 2.0.2
 _ZNK3QCA18CertificateOptions14notValidBeforeEv@Base 2.0.2
 _ZNK3QCA18CertificateOptions15issuerLocationsEv@Base 2.0.2
 _ZNK3QCA18CertificateOptions4infoEv@Base 2.0.2
 _ZNK3QCA18CertificateOptions4isCAEv@Base 2.0.2
 _ZNK3QCA18CertificateOptions6formatEv@Base 2.0.2
 _ZNK3QCA18CertificateOptions7isValidEv@Base 2.0.2
 _ZNK3QCA18CertificateOptions8policiesEv@Base 2.0.2
 _ZNK3QCA18CertificateOptions9challengeEv@Base 2.0.2
 _ZNK3QCA18CertificateOptions9pathLimitEv@Base 2.0.2
 _ZNK3QCA18CertificateRequest11constraintsEv@Base 2.0.2
 _ZNK3QCA18CertificateRequest11subjectInfoEv@Base 2.0.2
 _ZNK3QCA18CertificateRequest16subjectPublicKeyEv@Base 2.0.2
 _ZNK3QCA18CertificateRequest18signatureAlgorithmEv@Base 2.0.2
 _ZNK3QCA18CertificateRequest18subjectInfoOrderedEv@Base 2.0.2
 _ZNK3QCA18CertificateRequest4isCAEv@Base 2.0.2
 _ZNK3QCA18CertificateRequest5toDEREv@Base 2.0.2
 _ZNK3QCA18CertificateRequest5toPEMEv@Base 2.0.2
 _ZNK3QCA18CertificateRequest6formatEv@Base 2.0.2
 _ZNK3QCA18CertificateRequest6isNullEv@Base 2.0.2
 _ZNK3QCA18CertificateRequest8policiesEv@Base 2.0.2
 _ZNK3QCA18CertificateRequest8toStringEv@Base 2.0.2
 _ZNK3QCA18CertificateRequest9challengeEv@Base 2.0.2
 _ZNK3QCA18CertificateRequest9pathLimitEv@Base 2.0.2
 _ZNK3QCA18CertificateRequest9toPEMFileERK7QString@Base 2.0.2
 _ZNK3QCA18CertificateRequesteqERKS0_@Base 2.0.2
 _ZNK3QCA18DefaultSHA1Context5cloneEv@Base 2.0.3-2
 _ZNK3QCA18SafeSocketNotifier10metaObjectEv@Base 2.0.3-2
 _ZNK3QCA19CertificateInfoPair4typeEv@Base 2.0.2
 _ZNK3QCA19CertificateInfoPair5valueEv@Base 2.0.2
 _ZNK3QCA19CertificateInfoPaireqERKS0_@Base 2.0.2
 _ZNK3QCA19CertificateInfoType2idEv@Base 2.0.2
 _ZNK3QCA19CertificateInfoType5knownEv@Base 2.0.2
 _ZNK3QCA19CertificateInfoType7sectionEv@Base 2.0.2
 _ZNK3QCA19CertificateInfoTypeeqERKS0_@Base 2.0.2
 _ZNK3QCA19CertificateInfoTypeltERKS0_@Base 2.0.2
 _ZNK3QCA19DefaultKeyStoreList10entryTypesEi@Base 2.0.3-2
 _ZNK3QCA19DefaultKeyStoreList10metaObjectEv@Base 2.0.3-2
 _ZNK3QCA19DefaultKeyStoreList4nameEi@Base 2.0.3-2
 _ZNK3QCA19DefaultKeyStoreList4typeEi@Base 2.0.3-2
 _ZNK3QCA19DefaultKeyStoreList5cloneEv@Base 2.0.3-2
 _ZNK3QCA19DefaultKeyStoreList7storeIdEi@Base 2.0.3-2
 _ZNK3QCA19KeyStoreListContext10isReadOnlyEi@Base 2.0.2
 _ZNK3QCA19KeyStoreListContext10metaObjectEv@Base 2.0.2
 _ZNK3QCA19SecureMessageSystem10metaObjectEv@Base 2.0.2
 _ZNK3QCA20CertificateAuthority11certificateEv@Base 2.0.2
 _ZNK3QCA20CertificateAuthority11signRequestERKNS_18CertificateRequestERK9QDateTime@Base 2.0.2
 _ZNK3QCA20CertificateAuthority9createCRLERK9QDateTime@Base 2.0.2
 _ZNK3QCA20CertificateAuthority9updateCRLERKNS_3CRLERK5QListINS_8CRLEntryEERK9QDateTime@Base 2.0.2
 _ZNK3QCA20DefaultKeyStoreEntry11certificateEv@Base 2.0.3-2
 _ZNK3QCA20DefaultKeyStoreEntry2idEv@Base 2.0.3-2
 _ZNK3QCA20DefaultKeyStoreEntry3crlEv@Base 2.0.3-2
 _ZNK3QCA20DefaultKeyStoreEntry4nameEv@Base 2.0.3-2
 _ZNK3QCA20DefaultKeyStoreEntry4typeEv@Base 2.0.3-2
 _ZNK3QCA20DefaultKeyStoreEntry5cloneEv@Base 2.0.3-2
 _ZNK3QCA20DefaultKeyStoreEntry7storeIdEv@Base 2.0.3-2
 _ZNK3QCA20DefaultKeyStoreEntry9serializeEv@Base 2.0.3-2
 _ZNK3QCA20DefaultKeyStoreEntry9storeNameEv@Base 2.0.3-2
 _ZNK3QCA20DefaultRandomContext5cloneEv@Base 2.0.3-2
 _ZNK3QCA20KeyStoreEntryContext10metaObjectEv@Base 2.0.2
 _ZNK3QCA20KeyStoreEntryContext11certificateEv@Base 2.0.2
 _ZNK3QCA20KeyStoreEntryContext11isAvailableEv@Base 2.0.2
 _ZNK3QCA20KeyStoreEntryContext12pgpPublicKeyEv@Base 2.0.2
 _ZNK3QCA20KeyStoreEntryContext12pgpSecretKeyEv@Base 2.0.2
 _ZNK3QCA20KeyStoreEntryContext3crlEv@Base 2.0.2
 _ZNK3QCA20KeyStoreEntryContext9keyBundleEv@Base 2.0.2
 _ZNK3QCA20KeyStoreEntryWatcher10metaObjectEv@Base 2.0.2
 _ZNK3QCA20KeyStoreEntryWatcher5entryEv@Base 2.0.2
 _ZNK3QCA20KeyStoreEntryWatcher7Private10metaObjectEv@Base 2.0.2
 _ZNK3QCA21CertCollectionContext10metaObjectEv@Base 2.0.2
 _ZNK3QCA21CertificateCollection12certificatesEv@Base 2.0.2
 _ZNK3QCA21CertificateCollection4crlsEv@Base 2.0.2
 _ZNK3QCA21CertificateCollectionplERKS0_@Base 2.0.2
 _ZNK3QCA22KeyStoreManagerPrivate10metaObjectEv@Base 2.0.3-2
 _ZNK3QCA22SecureMessageSignature11keyValidityEv@Base 2.0.2
 _ZNK3QCA22SecureMessageSignature14identityResultEv@Base 2.0.2
 _ZNK3QCA22SecureMessageSignature3keyEv@Base 2.0.2
 _ZNK3QCA22SecureMessageSignature9timestampEv@Base 2.0.2
 _ZNK3QCA23ConsoleReferencePrivate10metaObjectEv@Base 2.0.3-2
 _ZNK3QCA23QFileSystemWatcherRelay10metaObjectEv@Base 2.0.3-2
 _ZNK3QCA25MessageAuthenticationCode14validKeyLengthEi@Base 2.0.2
 _ZNK3QCA25MessageAuthenticationCode4typeEv@Base 2.0.2
 _ZNK3QCA25MessageAuthenticationCode9keyLengthEv@Base 2.0.2
 _ZNK3QCA3CMS10metaObjectEv@Base 2.0.2
 _ZNK3QCA3CMS11privateKeysEv@Base 2.0.2
 _ZNK3QCA3CMS19trustedCertificatesEv@Base 2.0.2
 _ZNK3QCA3CMS21untrustedCertificatesEv@Base 2.0.2
 _ZNK3QCA3CRL10issuerInfoEv@Base 2.0.2
 _ZNK3QCA3CRL10nextUpdateEv@Base 2.0.2
 _ZNK3QCA3CRL10thisUpdateEv@Base 2.0.2
 _ZNK3QCA3CRL11issuerKeyIdEv@Base 2.0.2
 _ZNK3QCA3CRL17issuerInfoOrderedEv@Base 2.0.2
 _ZNK3QCA3CRL18signatureAlgorithmEv@Base 2.0.2
 _ZNK3QCA3CRL5toDEREv@Base 2.0.2
 _ZNK3QCA3CRL5toPEMEv@Base 2.0.2
 _ZNK3QCA3CRL6isNullEv@Base 2.0.2
 _ZNK3QCA3CRL6numberEv@Base 2.0.2
 _ZNK3QCA3CRL7revokedEv@Base 2.0.2
 _ZNK3QCA3CRL9toPEMFileERK7QString@Base 2.0.2
 _ZNK3QCA3CRLeqERKS0_@Base 2.0.2
 _ZNK3QCA3Hex2okEv@Base 2.0.2
 _ZNK3QCA3TLS10cipherBitsEv@Base 2.0.2
 _ZNK3QCA3TLS10isClosableEv@Base 2.0.2
 _ZNK3QCA3TLS10issuerListEv@Base 2.0.2
 _ZNK3QCA3TLS10metaObjectEv@Base 2.0.2
 _ZNK3QCA3TLS11canCompressEv@Base 2.0.2
 _ZNK3QCA3TLS11cipherSuiteEv@Base 2.0.2
 _ZNK3QCA3TLS12isCompressedEv@Base 2.0.2
 _ZNK3QCA3TLS12isHandshakenEv@Base 2.0.2
 _ZNK3QCA3TLS12setPacketMTUEi@Base 2.0.2
 _ZNK3QCA3TLS13cipherMaxBitsEv@Base 2.0.2
 _ZNK3QCA3TLS14bytesAvailableEv@Base 2.0.2
 _ZNK3QCA3TLS14canSetHostNameEv@Base 2.0.2
 _ZNK3QCA3TLS15localPrivateKeyEv@Base 2.0.2
 _ZNK3QCA3TLS16packetsAvailableEv@Base 2.0.2
 _ZNK3QCA3TLS18compressionEnabledEv@Base 2.0.2
 _ZNK3QCA3TLS18peerIdentityResultEv@Base 2.0.2
 _ZNK3QCA3TLS19trustedCertificatesEv@Base 2.0.2
 _ZNK3QCA3TLS20peerCertificateChainEv@Base 2.0.2
 _ZNK3QCA3TLS21localCertificateChainEv@Base 2.0.2
 _ZNK3QCA3TLS21supportedCipherSuitesERKNS0_7VersionE@Base 2.0.2
 _ZNK3QCA3TLS22bytesOutgoingAvailableEv@Base 2.0.2
 _ZNK3QCA3TLS23peerCertificateValidityEv@Base 2.0.2
 _ZNK3QCA3TLS24packetsOutgoingAvailableEv@Base 2.0.2
 _ZNK3QCA3TLS7Private10metaObjectEv@Base 2.0.2
 _ZNK3QCA3TLS7sessionEv@Base 2.0.2
 _ZNK3QCA3TLS7versionEv@Base 2.0.2
 _ZNK3QCA3TLS9errorCodeEv@Base 2.0.2
 _ZNK3QCA3TLS9packetMTUEv@Base 2.0.2
 _ZNK3QCA4Hash4typeEv@Base 2.0.2
 _ZNK3QCA4PKey11canKeyAgreeEv@Base 2.0.2
 _ZNK3QCA4PKey11toPublicKeyEv@Base 2.0.2
 _ZNK3QCA4PKey12toPrivateKeyEv@Base 2.0.2
 _ZNK3QCA4PKey13toDHPublicKeyEv@Base 2.0.2
 _ZNK3QCA4PKey14assignToPublicEPS0_@Base 2.0.2
 _ZNK3QCA4PKey14toDHPrivateKeyEv@Base 2.0.2
 _ZNK3QCA4PKey14toDSAPublicKeyEv@Base 2.0.2
 _ZNK3QCA4PKey14toRSAPublicKeyEv@Base 2.0.2
 _ZNK3QCA4PKey15assignToPrivateEPS0_@Base 2.0.2
 _ZNK3QCA4PKey15toDSAPrivateKeyEv@Base 2.0.2
 _ZNK3QCA4PKey15toRSAPrivateKeyEv@Base 2.0.2
 _ZNK3QCA4PKey4isDHEv@Base 2.0.2
 _ZNK3QCA4PKey4typeEv@Base 2.0.2
 _ZNK3QCA4PKey5isDSAEv@Base 2.0.2
 _ZNK3QCA4PKey5isRSAEv@Base 2.0.2
 _ZNK3QCA4PKey6isNullEv@Base 2.0.2
 _ZNK3QCA4PKey7bitSizeEv@Base 2.0.2
 _ZNK3QCA4PKey8isPublicEv@Base 2.0.2
 _ZNK3QCA4PKey9canExportEv@Base 2.0.2
 _ZNK3QCA4PKey9isPrivateEv@Base 2.0.2
 _ZNK3QCA4PKeyeqERKS0_@Base 2.0.2
 _ZNK3QCA4PKeyneERKS0_@Base 2.0.2
 _ZNK3QCA4SASL10metaObjectEv@Base 2.0.2
 _ZNK3QCA4SASL13authConditionEv@Base 2.0.2
 _ZNK3QCA4SASL13mechanismListEv@Base 2.0.2
 _ZNK3QCA4SASL14bytesAvailableEv@Base 2.0.2
 _ZNK3QCA4SASL22bytesOutgoingAvailableEv@Base 2.0.2
 _ZNK3QCA4SASL3ssfEv@Base 2.0.2
 _ZNK3QCA4SASL6Params12canSendRealmEv@Base 2.0.2
 _ZNK3QCA4SASL6Params12needPasswordEv@Base 2.0.2
 _ZNK3QCA4SASL6Params12needUsernameEv@Base 2.0.2
 _ZNK3QCA4SASL6Params14canSendAuthzidEv@Base 2.0.2
 _ZNK3QCA4SASL7Private10metaObjectEv@Base 2.0.2
 _ZNK3QCA4SASL9errorCodeEv@Base 2.0.2
 _ZNK3QCA4SASL9mechanismEv@Base 2.0.2
 _ZNK3QCA4SASL9realmListEv@Base 2.0.2
 _ZNK3QCA5Botan12MemoryRegionIjE7grow_toEj@Base 2.0.3-2
 _ZNK3QCA5Botan13Library_State13get_allocatorERKSs@Base 2.0.3-2
 _ZNK3QCA5Botan13Library_State9get_mutexEv@Base 2.0.3-2
 _ZNK3QCA5Botan15Builtin_Modules10allocatorsEv@Base 2.0.3-2
 _ZNK3QCA5Botan15Builtin_Modules13mutex_factoryEv@Base 2.0.3-2
 _ZNK3QCA5Botan15Builtin_Modules17default_allocatorEv@Base 2.0.3-2
 _ZNK3QCA5Botan16Malloc_Allocator4typeEv@Base 2.0.3-2
 _ZNK3QCA5Botan17Locking_Allocator4typeEv@Base 2.0.3-2
 _ZNK3QCA5Botan17Pooling_Allocator12Memory_Block8containsEPvj@Base 2.0.3-2
 _ZNK3QCA5Botan23MemoryMapping_Allocator4typeEv@Base 2.0.3-2
 _ZNK3QCA5Botan6BigInt12encoded_sizeENS1_4BaseE@Base 2.0.3-2
 _ZNK3QCA5Botan6BigInt12reverse_signEv@Base 2.0.3-2
 _ZNK3QCA5Botan6BigInt13binary_encodeEPh@Base 2.0.3-2
 _ZNK3QCA5Botan6BigInt13get_substringEjj@Base 2.0.3-2
 _ZNK3QCA5Botan6BigInt3absEv@Base 2.0.3-2
 _ZNK3QCA5Botan6BigInt3cmpERKS1_b@Base 2.0.3-2
 _ZNK3QCA5Botan6BigInt4bitsEv@Base 2.0.3-2
 _ZNK3QCA5Botan6BigInt5bytesEv@Base 2.0.3-2
 _ZNK3QCA5Botan6BigInt7byte_atEj@Base 2.0.3-2
 _ZNK3QCA5Botan6BigInt7get_bitEj@Base 2.0.3-2
 _ZNK3QCA5Botan6BigInt7grow_toEj@Base 2.0.3-2
 _ZNK3QCA5Botan6BigInt7is_zeroEv@Base 2.0.3-2
 _ZNK3QCA5Botan6BigInt8grow_regEj@Base 2.0.3-2
 _ZNK3QCA5Botan6BigInt9sig_wordsEv@Base 2.0.3-2
 _ZNK3QCA5Botan6BigInt9to_u32bitEv@Base 2.0.3-2
 _ZNK3QCA5Botan6BigIntngEv@Base 2.0.3-2
 _ZNK3QCA5Botan9Exception4whatEv@Base 2.0.3-2
 _ZNK3QCA5Event12keyStoreInfoEv@Base 2.0.2
 _ZNK3QCA5Event13keyStoreEntryEv@Base 2.0.2
 _ZNK3QCA5Event13passwordStyleEv@Base 2.0.2
 _ZNK3QCA5Event3ptrEv@Base 2.0.2
 _ZNK3QCA5Event4typeEv@Base 2.0.2
 _ZNK3QCA5Event6isNullEv@Base 2.0.2
 _ZNK3QCA5Event6sourceEv@Base 2.0.2
 _ZNK3QCA5Event8fileNameEv@Base 2.0.2
 _ZNK3QCA6Base6416lineBreaksColumnEv@Base 2.0.2
 _ZNK3QCA6Base6417lineBreaksEnabledEv@Base 2.0.2
 _ZNK3QCA6Base642okEv@Base 2.0.2
 _ZNK3QCA6Cipher14validKeyLengthEi@Base 2.0.2
 _ZNK3QCA6Cipher2okEv@Base 2.0.2
 _ZNK3QCA6Cipher4modeEv@Base 2.0.2
 _ZNK3QCA6Cipher4typeEv@Base 2.0.2
 _ZNK3QCA6Cipher7paddingEv@Base 2.0.2
 _ZNK3QCA6Cipher9blockSizeEv@Base 2.0.2
 _ZNK3QCA6Cipher9directionEv@Base 2.0.2
 _ZNK3QCA6Cipher9keyLengthEv@Base 2.0.2
 _ZNK3QCA6Logger10metaObjectEv@Base 2.0.2
 _ZNK3QCA6Logger17currentLogDevicesEv@Base 2.0.2
 _ZNK3QCA6PGPKey11fingerprintEv@Base 2.0.2
 _ZNK3QCA6PGPKey12creationDateEv@Base 2.0.2
 _ZNK3QCA6PGPKey13primaryUserIdEv@Base 2.0.2
 _ZNK3QCA6PGPKey14expirationDateEv@Base 2.0.2
 _ZNK3QCA6PGPKey5keyIdEv@Base 2.0.2
 _ZNK3QCA6PGPKey6isNullEv@Base 2.0.2
 _ZNK3QCA6PGPKey6toFileERK7QString@Base 2.0.2
 _ZNK3QCA6PGPKey7toArrayEv@Base 2.0.2
 _ZNK3QCA6PGPKey7userIdsEv@Base 2.0.2
 _ZNK3QCA6PGPKey8isSecretEv@Base 2.0.2
 _ZNK3QCA6PGPKey8toStringEv@Base 2.0.2
 _ZNK3QCA6PGPKey9inKeyringEv@Base 2.0.2
 _ZNK3QCA6PGPKey9isTrustedEv@Base 2.0.2
 _ZNK3QCA7Console10metaObjectEv@Base 2.0.2
 _ZNK3QCA7Console11channelModeEv@Base 2.0.2
 _ZNK3QCA7Console12terminalModeEv@Base 2.0.2
 _ZNK3QCA7Console4typeEv@Base 2.0.2
 _ZNK3QCA7DLGroup1gEv@Base 2.0.2
 _ZNK3QCA7DLGroup1pEv@Base 2.0.2
 _ZNK3QCA7DLGroup1qEv@Base 2.0.2
 _ZNK3QCA7DLGroup6isNullEv@Base 2.0.2
 _ZNK3QCA7OpenPGP10metaObjectEv@Base 2.0.2
 _ZNK3QCA8CRLEntry12serialNumberEv@Base 2.0.2
 _ZNK3QCA8CRLEntry4timeEv@Base 2.0.2
 _ZNK3QCA8CRLEntry6isNullEv@Base 2.0.2
 _ZNK3QCA8CRLEntry6reasonEv@Base 2.0.2
 _ZNK3QCA8CRLEntryeqERKS0_@Base 2.0.2
 _ZNK3QCA8CRLEntryltERKS0_@Base 2.0.2
 _ZNK3QCA8CertBase10metaObjectEv@Base 2.0.2
 _ZNK3QCA8DirWatch10metaObjectEv@Base 2.0.2
 _ZNK3QCA8DirWatch7Private10metaObjectEv@Base 2.0.2
 _ZNK3QCA8DirWatch7dirNameEv@Base 2.0.2
 _ZNK3QCA8KeyStore10isReadOnlyEv@Base 2.0.2
 _ZNK3QCA8KeyStore10metaObjectEv@Base 2.0.2
 _ZNK3QCA8KeyStore15holdsIdentitiesEv@Base 2.0.2
 _ZNK3QCA8KeyStore18holdsPGPPublicKeysEv@Base 2.0.2
 _ZNK3QCA8KeyStore24holdsTrustedCertificatesEv@Base 2.0.2
 _ZNK3QCA8KeyStore2idEv@Base 2.0.2
 _ZNK3QCA8KeyStore4nameEv@Base 2.0.2
 _ZNK3QCA8KeyStore4typeEv@Base 2.0.2
 _ZNK3QCA8KeyStore7isValidEv@Base 2.0.2
 _ZNK3QCA8KeyStore9entryListEv@Base 2.0.2
 _ZNK3QCA8PKeyBase10metaObjectEv@Base 2.0.2
 _ZNK3QCA8PKeyBase18maximumEncryptSizeENS_19EncryptionAlgorithmE@Base 2.0.2
 _ZNK3QCA8Provider13defaultConfigEv@Base 2.0.2
 _ZNK3QCA8Provider6creditEv@Base 2.0.2
 _ZNK3QCA8Provider7Context10metaObjectEv@Base 2.0.2
 _ZNK3QCA8Provider7Context12sameProviderEPKS1_@Base 2.0.2
 _ZNK3QCA8Provider7Context4typeEv@Base 2.0.2
 _ZNK3QCA8Provider7Context8providerEv@Base 2.0.2
 _ZNK3QCA8Provider7versionEv@Base 2.0.2
 _ZNK3QCA8QPipeEnd10metaObjectEv@Base 2.0.2
 _ZNK3QCA8QPipeEnd12bytesToWriteEv@Base 2.0.2
 _ZNK3QCA8QPipeEnd14bytesAvailableEv@Base 2.0.2
 _ZNK3QCA8QPipeEnd2idEv@Base 2.0.2
 _ZNK3QCA8QPipeEnd4typeEv@Base 2.0.2
 _ZNK3QCA8QPipeEnd7Private10metaObjectEv@Base 2.0.2
 _ZNK3QCA8QPipeEnd7idAsIntEv@Base 2.0.2
 _ZNK3QCA8QPipeEnd7isValidEv@Base 2.0.2
 _ZNK3QCA9Algorithm4typeEv@Base 2.0.2
 _ZNK3QCA9Algorithm7contextEv@Base 2.0.2
 _ZNK3QCA9Algorithm8providerEv@Base 2.0.2
 _ZNK3QCA9AskerBase10metaObjectEv@Base 2.0.3-2
 _ZNK3QCA9CAContext10metaObjectEv@Base 2.0.2
 _ZNK3QCA9DHContext10metaObjectEv@Base 2.0.2
 _ZNK3QCA9FileWatch10metaObjectEv@Base 2.0.2
 _ZNK3QCA9FileWatch7Private10metaObjectEv@Base 2.0.2
 _ZNK3QCA9FileWatch8fileNameEv@Base 2.0.2
 _ZNK3QCA9KeyBundle10privateKeyEv@Base 2.0.2
 _ZNK3QCA9KeyBundle16certificateChainEv@Base 2.0.2
 _ZNK3QCA9KeyBundle4nameEv@Base 2.0.2
 _ZNK3QCA9KeyBundle6isNullEv@Base 2.0.2
 _ZNK3QCA9KeyBundle6toFileERK7QStringRKNS_11SecureArrayES3_@Base 2.0.2
 _ZNK3QCA9KeyBundle7toArrayERKNS_11SecureArrayERK7QString@Base 2.0.2
 _ZNK3QCA9KeyLoader10metaObjectEv@Base 2.0.2
 _ZNK3QCA9KeyLoader10privateKeyEv@Base 2.0.2
 _ZNK3QCA9KeyLoader13convertResultEv@Base 2.0.2
 _ZNK3QCA9KeyLoader7Private10metaObjectEv@Base 2.0.2
 _ZNK3QCA9KeyLoader9keyBundleEv@Base 2.0.2
 _ZNK3QCA9PublicKey10canEncryptEv@Base 2.0.2
 _ZNK3QCA9PublicKey18maximumEncryptSizeENS_19EncryptionAlgorithmE@Base 2.0.2
 _ZNK3QCA9PublicKey4toDHEv@Base 2.0.2
 _ZNK3QCA9PublicKey5toDEREv@Base 2.0.2
 _ZNK3QCA9PublicKey5toDSAEv@Base 2.0.2
 _ZNK3QCA9PublicKey5toPEMEv@Base 2.0.2
 _ZNK3QCA9PublicKey5toRSAEv@Base 2.0.2
 _ZNK3QCA9PublicKey9canVerifyEv@Base 2.0.2
 _ZNK3QCA9PublicKey9toPEMFileERK7QString@Base 2.0.2
 _ZNK3QCA9SafeTimer10metaObjectEv@Base 2.0.3-2
 _ZNK4QMapI7QString8QVariantE8findNodeERKS0_@Base 2.0.3-2
 _ZNK4QMapI7QStringS_IS0_8QVariantEE5valueERKS0_@Base 2.0.3-2
 _ZNK4QMapIN3QCA19CertificateInfoTypeE7QStringE4keysEv@Base 2.0.3-2
 _ZNK4QMapIN3QCA19CertificateInfoTypeE7QStringE6valuesERKS1_@Base 2.0.3-2
 _ZNK4QMapIN3QCA19CertificateInfoTypeE7QStringE8findNodeERKS1_@Base 2.0.3-2
 _ZNK5QHashIPN3QCA19KeyStoreListContextE15QHashDummyValueE8findNodeERKS2_Pj@Base 2.0.3-2
 _ZNK5QHashIPN3QCA8KeyStoreEiE8findNodeERKS2_Pj@Base 2.0.3-2
 _ZNK5QHashIiPN3QCA8KeyStoreEE6valuesERKi@Base 2.0.3-2
 _ZNK5QHashIiPN3QCA8KeyStoreEE8findNodeERKiPj@Base 2.0.3-2
 _ZNK5QListI10QByteArrayEeqERKS1_@Base 2.0.3-2
 _ZNK5QListI7QStringEixEi@Base 2.0.3-2
 _ZNK5QListIN3QCA11CertificateEE3midEii@Base 2.0.3-2
 _ZNK5QListIN3QCA11CertificateEEixEi@Base 2.0.3-2
 _ZNK5QListIN3QCA12PBEAlgorithmEE8containsERKS1_@Base 2.0.3-2
 _ZNK5QListIN3QCA13KeyStoreEntry4TypeEE8containsERKS2_@Base 2.0.3-2
 _ZNK5QListIN3QCA14ConstraintTypeEE8containsERKS1_@Base 2.0.3-2
 _ZNK5QListIN3QCA4PKey4TypeEE8containsERKS2_@Base 2.0.3-2
 _ZNK5QListIiE8containsERKi@Base 2.0.3-2
 _ZNK5QListIiEixEi@Base 2.0.3-2
 _ZNK7QStringeqEPKc@Base 2.0.3-2
 _ZNSt6vectorIN3QCA5Botan17Pooling_Allocator12Memory_BlockESaIS3_EE13_M_insert_auxEN9__gnu_cxx17__normal_iteratorIPS3_S5_EERKS3_@Base 2.0.2
 _ZNSt6vectorIPN3QCA5Botan9AllocatorESaIS3_EE13_M_insert_auxEN9__gnu_cxx17__normal_iteratorIPS3_S5_EERKS3_@Base 2.0.2
 _ZNSt6vectorISt4pairIPvjESaIS2_EE13_M_insert_auxEN9__gnu_cxx17__normal_iteratorIPS2_S4_EERKS2_@Base 2.0.2
 _ZNSt8_Rb_treeISsSt4pairIKSsPN3QCA5Botan5MutexEESt10_Select1stIS6_ESt4lessISsESaIS6_EE10_M_insert_EPKSt18_Rb_tree_node_baseSF_RKS6_@Base 2.0.2
 _ZNSt8_Rb_treeISsSt4pairIKSsPN3QCA5Botan5MutexEESt10_Select1stIS6_ESt4lessISsESaIS6_EE16_M_insert_uniqueERKS6_@Base 2.0.2
 _ZNSt8_Rb_treeISsSt4pairIKSsPN3QCA5Botan5MutexEESt10_Select1stIS6_ESt4lessISsESaIS6_EE17_M_insert_unique_ESt23_Rb_tree_const_iteratorIS6_ERKS6_@Base 2.0.2
 _ZNSt8_Rb_treeISsSt4pairIKSsPN3QCA5Botan5MutexEESt10_Select1stIS6_ESt4lessISsESaIS6_EE8_M_eraseEPSt13_Rb_tree_nodeIS6_E@Base 2.0.2
 _ZNSt8_Rb_treeISsSt4pairIKSsPN3QCA5Botan9AllocatorEESt10_Select1stIS6_ESt4lessISsESaIS6_EE10_M_insert_EPKSt18_Rb_tree_node_baseSF_RKS6_@Base 2.0.2
 _ZNSt8_Rb_treeISsSt4pairIKSsPN3QCA5Botan9AllocatorEESt10_Select1stIS6_ESt4lessISsESaIS6_EE16_M_insert_uniqueERKS6_@Base 2.0.2
 _ZNSt8_Rb_treeISsSt4pairIKSsPN3QCA5Botan9AllocatorEESt10_Select1stIS6_ESt4lessISsESaIS6_EE17_M_insert_unique_ESt23_Rb_tree_const_iteratorIS6_ERKS6_@Base 2.0.2
 _ZNSt8_Rb_treeISsSt4pairIKSsPN3QCA5Botan9AllocatorEESt10_Select1stIS6_ESt4lessISsESaIS6_EE8_M_eraseEPSt13_Rb_tree_nodeIS6_E@Base 2.0.2
 _ZSt11__push_heapIN9__gnu_cxx17__normal_iteratorIPN3QCA5Botan17Pooling_Allocator12Memory_BlockESt6vectorIS5_SaIS5_EEEEiS5_EvT_T0_SC_T1_@Base 2.0.2
 _ZSt11lower_boundIN9__gnu_cxx17__normal_iteratorIPN3QCA5Botan17Pooling_Allocator12Memory_BlockESt6vectorIS5_SaIS5_EEEES5_ET_SB_SB_RKT0_@Base 2.0.2
 _ZSt13__adjust_heapIN9__gnu_cxx17__normal_iteratorIPN3QCA5Botan17Pooling_Allocator12Memory_BlockESt6vectorIS5_SaIS5_EEEEiS5_EvT_T0_SC_T1_@Base 2.0.2
 _ZSt13__heap_selectIN9__gnu_cxx17__normal_iteratorIPN3QCA5Botan17Pooling_Allocator12Memory_BlockESt6vectorIS5_SaIS5_EEEEEvT_SB_SB_@Base 2.0.2
 _ZSt16__insertion_sortIN9__gnu_cxx17__normal_iteratorIPN3QCA5Botan17Pooling_Allocator12Memory_BlockESt6vectorIS5_SaIS5_EEEEEvT_SB_@Base 2.0.2
 _ZSt16__introsort_loopIN9__gnu_cxx17__normal_iteratorIPN3QCA5Botan17Pooling_Allocator12Memory_BlockESt6vectorIS5_SaIS5_EEEEiEvT_SB_T0_@Base 2.0.2
 _ZSt19__move_median_firstIN9__gnu_cxx17__normal_iteratorIPN3QCA5Botan17Pooling_Allocator12Memory_BlockESt6vectorIS5_SaIS5_EEEEEvT_SB_SB_@Base 2.0.2
 _ZSt21__unguarded_partitionIN9__gnu_cxx17__normal_iteratorIPN3QCA5Botan17Pooling_Allocator12Memory_BlockESt6vectorIS5_SaIS5_EEEES5_ET_SB_SB_RKT0_@Base 2.0.2
 _ZSt25__unguarded_linear_insertIN9__gnu_cxx17__normal_iteratorIPN3QCA5Botan17Pooling_Allocator12Memory_BlockESt6vectorIS5_SaIS5_EEEEEvT_@Base 2.0.2
 _ZStplIcSt11char_traitsIcESaIcEESbIT_T0_T1_EPKS3_RKS6_@Base 2.0.2
 _ZStplIcSt11char_traitsIcESaIcEESbIT_T0_T1_ERKS6_PKS3_@Base 2.0.2
 _ZStplIcSt11char_traitsIcESaIcEESbIT_T0_T1_ERKS6_S8_@Base 2.0.2
 _ZTIN3QCA10CRLContextE@Base 2.0.2
 _ZTIN3QCA10CSRContextE@Base 2.0.2
 _ZTIN3QCA10DSAContextE@Base 2.0.2
 _ZTIN3QCA10KDFContextE@Base 2.0.2
 _ZTIN3QCA10MACContextE@Base 2.0.2
 _ZTIN3QCA10PrivateKeyE@Base 2.0.2
 _ZTIN3QCA10RSAContextE@Base 2.0.2
 _ZTIN3QCA10SMSContextE@Base 2.0.2
 _ZTIN3QCA10SyncThread7PrivateE@Base 2.0.2
 _ZTIN3QCA10SyncThreadE@Base 2.0.2
 _ZTIN3QCA10TLSContextE@Base 2.0.2
 _ZTIN3QCA10TLSSessionE@Base 2.0.2
 _ZTIN3QCA10TextFilterE@Base 2.0.2
 _ZTIN3QCA10TimerFixerE@Base 2.0.3-2
 _ZTIN3QCA10TokenAsker7PrivateE@Base 2.0.2
 _ZTIN3QCA10TokenAskerE@Base 2.0.2
 _ZTIN3QCA11CertContextE@Base 2.0.2
 _ZTIN3QCA11CertificateE@Base 2.0.2
 _ZTIN3QCA11DHPublicKeyE@Base 2.0.2
 _ZTIN3QCA11HandlerBaseE@Base 2.0.3-2
 _ZTIN3QCA11HashContextE@Base 2.0.2
 _ZTIN3QCA11InfoContextE@Base 2.0.2
 _ZTIN3QCA11PKeyContextE@Base 2.0.2
 _ZTIN3QCA11QPipeDevice7PrivateE@Base 2.0.2
 _ZTIN3QCA11QPipeDeviceE@Base 2.0.2
 _ZTIN3QCA11SASLContextE@Base 2.0.2
 _ZTIN3QCA11SecureLayerE@Base 2.0.2
 _ZTIN3QCA12AskerPrivateE@Base 2.0.3-2
 _ZTIN3QCA12BasicContextE@Base 2.0.2
 _ZTIN3QCA12DHPrivateKeyE@Base 2.0.2
 _ZTIN3QCA12DSAPublicKeyE@Base 2.0.2
 _ZTIN3QCA12EventHandler7PrivateE@Base 2.0.2
 _ZTIN3QCA12EventHandlerE@Base 2.0.2
 _ZTIN3QCA12KeyGenerator7PrivateE@Base 2.0.2
 _ZTIN3QCA12KeyGeneratorE@Base 2.0.2
 _ZTIN3QCA12RSAPublicKeyE@Base 2.0.2
 _ZTIN3QCA12Synchronizer7PrivateE@Base 2.0.2
 _ZTIN3QCA12SynchronizerE@Base 2.0.2
 _ZTIN3QCA13CipherContextE@Base 2.0.2
 _ZTIN3QCA13ConsolePrompt7PrivateE@Base 2.0.2
 _ZTIN3QCA13ConsolePromptE@Base 2.0.2
 _ZTIN3QCA13ConsoleThreadE@Base 2.0.3-2
 _ZTIN3QCA13ConsoleWorkerE@Base 2.0.3-2
 _ZTIN3QCA13DSAPrivateKeyE@Base 2.0.2
 _ZTIN3QCA13KeyStoreEntryE@Base 2.0.2
 _ZTIN3QCA13PGPKeyContextE@Base 2.0.2
 _ZTIN3QCA13PKCS12ContextE@Base 2.0.2
 _ZTIN3QCA13PasswordAsker7PrivateE@Base 2.0.2
 _ZTIN3QCA13PasswordAskerE@Base 2.0.2
 _ZTIN3QCA13RSAPrivateKeyE@Base 2.0.2
 _ZTIN3QCA13RandomContextE@Base 2.0.2
 _ZTIN3QCA13SecureMessage7PrivateE@Base 2.0.2
 _ZTIN3QCA13SecureMessageE@Base 2.0.2
 _ZTIN3QCA14ConsolePrivateE@Base 2.0.3-2
 _ZTIN3QCA14DLGroupContextE@Base 2.0.2
 _ZTIN3QCA14KeyStoreThreadE@Base 2.0.3-2
 _ZTIN3QCA14MessageContextE@Base 2.0.2
 _ZTIN3QCA15DefaultProviderE@Base 2.0.3-2
 _ZTIN3QCA15KeyLoaderThreadE@Base 2.0.3-2
 _ZTIN3QCA15KeyStoreManagerE@Base 2.0.2
 _ZTIN3QCA15KeyStorePrivateE@Base 2.0.3-2
 _ZTIN3QCA15KeyStoreTrackerE@Base 2.0.3-2
 _ZTIN3QCA15SyncThreadAgentE@Base 2.0.3-2
 _ZTIN3QCA16ConsoleReferenceE@Base 2.0.2
 _ZTIN3QCA17AbstractLogDeviceE@Base 2.0.2
 _ZTIN3QCA17DefaultMD5ContextE@Base 2.0.3-2
 _ZTIN3QCA17KeyStoreOperationE@Base 2.0.3-2
 _ZTIN3QCA17SynchronizerAgentE@Base 2.0.3-2
 _ZTIN3QCA17TLSSessionContextE@Base 2.0.2
 _ZTIN3QCA18CertificateRequestE@Base 2.0.2
 _ZTIN3QCA18DefaultSHA1ContextE@Base 2.0.3-2
 _ZTIN3QCA18SafeSocketNotifierE@Base 2.0.3-2
 _ZTIN3QCA19BufferedComputationE@Base 2.0.2
 _ZTIN3QCA19DefaultKeyStoreListE@Base 2.0.3-2
 _ZTIN3QCA19KeyStoreListContextE@Base 2.0.2
 _ZTIN3QCA19SecureMessageSystemE@Base 2.0.2
 _ZTIN3QCA20CertificateAuthorityE@Base 2.0.2
 _ZTIN3QCA20DefaultKeyStoreEntryE@Base 2.0.3-2
 _ZTIN3QCA20DefaultRandomContextE@Base 2.0.3-2
 _ZTIN3QCA20KeyStoreEntryContextE@Base 2.0.2
 _ZTIN3QCA20KeyStoreEntryWatcher7PrivateE@Base 2.0.2
 _ZTIN3QCA20KeyStoreEntryWatcherE@Base 2.0.2
 _ZTIN3QCA21CertCollectionContextE@Base 2.0.2
 _ZTIN3QCA21KeyDerivationFunctionE@Base 2.0.2
 _ZTIN3QCA22KeyStoreManagerPrivateE@Base 2.0.3-2
 _ZTIN3QCA23ConsoleReferencePrivateE@Base 2.0.3-2
 _ZTIN3QCA23QFileSystemWatcherRelayE@Base 2.0.3-2
 _ZTIN3QCA25MessageAuthenticationCodeE@Base 2.0.2
 _ZTIN3QCA3CMSE@Base 2.0.2
 _ZTIN3QCA3CRLE@Base 2.0.2
 _ZTIN3QCA3HexE@Base 2.0.2
 _ZTIN3QCA3TLS7PrivateE@Base 2.0.2
 _ZTIN3QCA3TLSE@Base 2.0.2
 _ZTIN3QCA4HashE@Base 2.0.2
 _ZTIN3QCA4PKeyE@Base 2.0.2
 _ZTIN3QCA4SASL7PrivateE@Base 2.0.2
 _ZTIN3QCA4SASLE@Base 2.0.2
 _ZTIN3QCA5Botan12Config_ErrorE@Base 2.0.3-2
 _ZTIN3QCA5Botan12Format_ErrorE@Base 2.0.3-2
 _ZTIN3QCA5Botan13Invalid_StateE@Base 2.0.3-2
 _ZTIN3QCA5Botan13Mutex_FactoryE@Base 2.0.3-2
 _ZTIN3QCA5Botan14Encoding_ErrorE@Base 2.0.3-2
 _ZTIN3QCA5Botan14Internal_ErrorE@Base 2.0.3-2
 _ZTIN3QCA5Botan15Builtin_ModulesE@Base 2.0.3-2
 _ZTIN3QCA5Botan16Invalid_ArgumentE@Base 2.0.3-2
 _ZTIN3QCA5Botan16Malloc_AllocatorE@Base 2.0.3-2
 _ZTIN3QCA5Botan16Qt_Mutex_FactoryE@Base 2.0.3-2
 _ZTIN3QCA5Botan17Invalid_IV_LengthE@Base 2.0.3-2
 _ZTIN3QCA5Botan17Locking_AllocatorE@Base 2.0.3-2
 _ZTIN3QCA5Botan17Memory_ExhaustionE@Base 2.0.3-2
 _ZTIN3QCA5Botan17Pooling_AllocatorE@Base 2.0.3-2
 _ZTIN3QCA5Botan18Invalid_Block_SizeE@Base 2.0.3-2
 _ZTIN3QCA5Botan18Invalid_Key_LengthE@Base 2.0.3-2
 _ZTIN3QCA5Botan19Algorithm_Not_FoundE@Base 2.0.3-2
 _ZTIN3QCA5Botan21Default_Mutex_FactoryE@Base 2.0.3-2
 _ZTIN3QCA5Botan22Invalid_Algorithm_NameE@Base 2.0.3-2
 _ZTIN3QCA5Botan22Invalid_Message_NumberE@Base 2.0.3-2
 _ZTIN3QCA5Botan23MemoryMapping_AllocatorE@Base 2.0.3-2
 _ZTIN3QCA5Botan5MutexE@Base 2.0.3-2
 _ZTIN3QCA5Botan6BigInt12DivideByZeroE@Base 2.0.3-2
 _ZTIN3QCA5Botan7ModulesE@Base 2.0.3-2
 _ZTIN3QCA5Botan9AllocatorE@Base 2.0.3-2
 _ZTIN3QCA5Botan9ExceptionE@Base 2.0.3-2
 _ZTIN3QCA6Base64E@Base 2.0.2
 _ZTIN3QCA6CipherE@Base 2.0.2
 _ZTIN3QCA6FilterE@Base 2.0.2
 _ZTIN3QCA6LoggerE@Base 2.0.2
 _ZTIN3QCA6PGPKeyE@Base 2.0.2
 _ZTIN3QCA6RandomE@Base 2.0.2
 _ZTIN3QCA7ConsoleE@Base 2.0.2
 _ZTIN3QCA7OpenPGPE@Base 2.0.2
 _ZTIN3QCA8CertBaseE@Base 2.0.2
 _ZTIN3QCA8DirWatch7PrivateE@Base 2.0.2
 _ZTIN3QCA8DirWatchE@Base 2.0.2
 _ZTIN3QCA8KeyStoreE@Base 2.0.2
 _ZTIN3QCA8PKeyBaseE@Base 2.0.2
 _ZTIN3QCA8Provider7ContextE@Base 2.0.2
 _ZTIN3QCA8ProviderE@Base 2.0.2
 _ZTIN3QCA8QPipeEnd7PrivateE@Base 2.0.2
 _ZTIN3QCA8QPipeEndE@Base 2.0.2
 _ZTIN3QCA9AlgorithmE@Base 2.0.2
 _ZTIN3QCA9AskerBaseE@Base 2.0.3-2
 _ZTIN3QCA9CAContextE@Base 2.0.2
 _ZTIN3QCA9DHContextE@Base 2.0.2
 _ZTIN3QCA9FileWatch7PrivateE@Base 2.0.2
 _ZTIN3QCA9FileWatchE@Base 2.0.2
 _ZTIN3QCA9KeyLoader7PrivateE@Base 2.0.2
 _ZTIN3QCA9KeyLoaderE@Base 2.0.2
 _ZTIN3QCA9PublicKeyE@Base 2.0.2
 _ZTIN3QCA9SafeTimerE@Base 2.0.3-2
 _ZTSN3QCA10CRLContextE@Base 2.0.2
 _ZTSN3QCA10CSRContextE@Base 2.0.2
 _ZTSN3QCA10DSAContextE@Base 2.0.2
 _ZTSN3QCA10KDFContextE@Base 2.0.2
 _ZTSN3QCA10MACContextE@Base 2.0.2
 _ZTSN3QCA10PrivateKeyE@Base 2.0.2
 _ZTSN3QCA10RSAContextE@Base 2.0.2
 _ZTSN3QCA10SMSContextE@Base 2.0.2
 _ZTSN3QCA10SyncThread7PrivateE@Base 2.0.2
 _ZTSN3QCA10SyncThreadE@Base 2.0.2
 _ZTSN3QCA10TLSContextE@Base 2.0.2
 _ZTSN3QCA10TLSSessionE@Base 2.0.2
 _ZTSN3QCA10TextFilterE@Base 2.0.2
 _ZTSN3QCA10TimerFixerE@Base 2.0.3-2
 _ZTSN3QCA10TokenAsker7PrivateE@Base 2.0.2
 _ZTSN3QCA10TokenAskerE@Base 2.0.2
 _ZTSN3QCA11CertContextE@Base 2.0.2
 _ZTSN3QCA11CertificateE@Base 2.0.2
 _ZTSN3QCA11DHPublicKeyE@Base 2.0.2
 _ZTSN3QCA11HandlerBaseE@Base 2.0.3-2
 _ZTSN3QCA11HashContextE@Base 2.0.2
 _ZTSN3QCA11InfoContextE@Base 2.0.2
 _ZTSN3QCA11PKeyContextE@Base 2.0.2
 _ZTSN3QCA11QPipeDevice7PrivateE@Base 2.0.2
 _ZTSN3QCA11QPipeDeviceE@Base 2.0.2
 _ZTSN3QCA11SASLContextE@Base 2.0.2
 _ZTSN3QCA11SecureLayerE@Base 2.0.2
 _ZTSN3QCA12AskerPrivateE@Base 2.0.3-2
 _ZTSN3QCA12BasicContextE@Base 2.0.2
 _ZTSN3QCA12DHPrivateKeyE@Base 2.0.2
 _ZTSN3QCA12DSAPublicKeyE@Base 2.0.2
 _ZTSN3QCA12EventHandler7PrivateE@Base 2.0.2
 _ZTSN3QCA12EventHandlerE@Base 2.0.2
 _ZTSN3QCA12KeyGenerator7PrivateE@Base 2.0.2
 _ZTSN3QCA12KeyGeneratorE@Base 2.0.2
 _ZTSN3QCA12RSAPublicKeyE@Base 2.0.2
 _ZTSN3QCA12Synchronizer7PrivateE@Base 2.0.2
 _ZTSN3QCA12SynchronizerE@Base 2.0.2
 _ZTSN3QCA13CipherContextE@Base 2.0.2
 _ZTSN3QCA13ConsolePrompt7PrivateE@Base 2.0.2
 _ZTSN3QCA13ConsolePromptE@Base 2.0.2
 _ZTSN3QCA13ConsoleThreadE@Base 2.0.3-2
 _ZTSN3QCA13ConsoleWorkerE@Base 2.0.3-2
 _ZTSN3QCA13DSAPrivateKeyE@Base 2.0.2
 _ZTSN3QCA13KeyStoreEntryE@Base 2.0.2
 _ZTSN3QCA13PGPKeyContextE@Base 2.0.2
 _ZTSN3QCA13PKCS12ContextE@Base 2.0.2
 _ZTSN3QCA13PasswordAsker7PrivateE@Base 2.0.2
 _ZTSN3QCA13PasswordAskerE@Base 2.0.2
 _ZTSN3QCA13RSAPrivateKeyE@Base 2.0.2
 _ZTSN3QCA13RandomContextE@Base 2.0.2
 _ZTSN3QCA13SecureMessage7PrivateE@Base 2.0.2
 _ZTSN3QCA13SecureMessageE@Base 2.0.2
 _ZTSN3QCA14ConsolePrivateE@Base 2.0.3-2
 _ZTSN3QCA14DLGroupContextE@Base 2.0.2
 _ZTSN3QCA14KeyStoreThreadE@Base 2.0.3-2
 _ZTSN3QCA14MessageContextE@Base 2.0.2
 _ZTSN3QCA15DefaultProviderE@Base 2.0.3-2
 _ZTSN3QCA15KeyLoaderThreadE@Base 2.0.3-2
 _ZTSN3QCA15KeyStoreManagerE@Base 2.0.2
 _ZTSN3QCA15KeyStorePrivateE@Base 2.0.3-2
 _ZTSN3QCA15KeyStoreTrackerE@Base 2.0.3-2
 _ZTSN3QCA15SyncThreadAgentE@Base 2.0.3-2
 _ZTSN3QCA16ConsoleReferenceE@Base 2.0.2
 _ZTSN3QCA17AbstractLogDeviceE@Base 2.0.2
 _ZTSN3QCA17DefaultMD5ContextE@Base 2.0.3-2
 _ZTSN3QCA17KeyStoreOperationE@Base 2.0.3-2
 _ZTSN3QCA17SynchronizerAgentE@Base 2.0.3-2
 _ZTSN3QCA17TLSSessionContextE@Base 2.0.2
 _ZTSN3QCA18CertificateRequestE@Base 2.0.2
 _ZTSN3QCA18DefaultSHA1ContextE@Base 2.0.3-2
 _ZTSN3QCA18SafeSocketNotifierE@Base 2.0.3-2
 _ZTSN3QCA19BufferedComputationE@Base 2.0.2
 _ZTSN3QCA19DefaultKeyStoreListE@Base 2.0.3-2
 _ZTSN3QCA19KeyStoreListContextE@Base 2.0.2
 _ZTSN3QCA19SecureMessageSystemE@Base 2.0.2
 _ZTSN3QCA20CertificateAuthorityE@Base 2.0.2
 _ZTSN3QCA20DefaultKeyStoreEntryE@Base 2.0.3-2
 _ZTSN3QCA20DefaultRandomContextE@Base 2.0.3-2
 _ZTSN3QCA20KeyStoreEntryContextE@Base 2.0.2
 _ZTSN3QCA20KeyStoreEntryWatcher7PrivateE@Base 2.0.2
 _ZTSN3QCA20KeyStoreEntryWatcherE@Base 2.0.2
 _ZTSN3QCA21CertCollectionContextE@Base 2.0.2
 _ZTSN3QCA21KeyDerivationFunctionE@Base 2.0.2
 _ZTSN3QCA22KeyStoreManagerPrivateE@Base 2.0.3-2
 _ZTSN3QCA23ConsoleReferencePrivateE@Base 2.0.3-2
 _ZTSN3QCA23QFileSystemWatcherRelayE@Base 2.0.3-2
 _ZTSN3QCA25MessageAuthenticationCodeE@Base 2.0.2
 _ZTSN3QCA3CMSE@Base 2.0.2
 _ZTSN3QCA3CRLE@Base 2.0.2
 _ZTSN3QCA3HexE@Base 2.0.2
 _ZTSN3QCA3TLS7PrivateE@Base 2.0.2
 _ZTSN3QCA3TLSE@Base 2.0.2
 _ZTSN3QCA4HashE@Base 2.0.2
 _ZTSN3QCA4PKeyE@Base 2.0.2
 _ZTSN3QCA4SASL7PrivateE@Base 2.0.2
 _ZTSN3QCA4SASLE@Base 2.0.2
 _ZTSN3QCA5Botan12Config_ErrorE@Base 2.0.3-2
 _ZTSN3QCA5Botan12Format_ErrorE@Base 2.0.3-2
 _ZTSN3QCA5Botan13Invalid_StateE@Base 2.0.3-2
 _ZTSN3QCA5Botan13Mutex_FactoryE@Base 2.0.3-2
 _ZTSN3QCA5Botan14Encoding_ErrorE@Base 2.0.3-2
 _ZTSN3QCA5Botan14Internal_ErrorE@Base 2.0.3-2
 _ZTSN3QCA5Botan15Builtin_ModulesE@Base 2.0.3-2
 _ZTSN3QCA5Botan16Invalid_ArgumentE@Base 2.0.3-2
 _ZTSN3QCA5Botan16Malloc_AllocatorE@Base 2.0.3-2
 _ZTSN3QCA5Botan16Qt_Mutex_FactoryE@Base 2.0.3-2
 _ZTSN3QCA5Botan17Invalid_IV_LengthE@Base 2.0.3-2
 _ZTSN3QCA5Botan17Locking_AllocatorE@Base 2.0.3-2
 _ZTSN3QCA5Botan17Memory_ExhaustionE@Base 2.0.3-2
 _ZTSN3QCA5Botan17Pooling_AllocatorE@Base 2.0.3-2
 _ZTSN3QCA5Botan18Invalid_Block_SizeE@Base 2.0.3-2
 _ZTSN3QCA5Botan18Invalid_Key_LengthE@Base 2.0.3-2
 _ZTSN3QCA5Botan19Algorithm_Not_FoundE@Base 2.0.3-2
 _ZTSN3QCA5Botan21Default_Mutex_FactoryE@Base 2.0.3-2
 _ZTSN3QCA5Botan22Invalid_Algorithm_NameE@Base 2.0.3-2
 _ZTSN3QCA5Botan22Invalid_Message_NumberE@Base 2.0.3-2
 _ZTSN3QCA5Botan23MemoryMapping_AllocatorE@Base 2.0.3-2
 _ZTSN3QCA5Botan5MutexE@Base 2.0.3-2
 _ZTSN3QCA5Botan6BigInt12DivideByZeroE@Base 2.0.3-2
 _ZTSN3QCA5Botan7ModulesE@Base 2.0.3-2
 _ZTSN3QCA5Botan9AllocatorE@Base 2.0.3-2
 _ZTSN3QCA5Botan9ExceptionE@Base 2.0.3-2
 _ZTSN3QCA6Base64E@Base 2.0.2
 _ZTSN3QCA6CipherE@Base 2.0.2
 _ZTSN3QCA6FilterE@Base 2.0.2
 _ZTSN3QCA6LoggerE@Base 2.0.2
 _ZTSN3QCA6PGPKeyE@Base 2.0.2
 _ZTSN3QCA6RandomE@Base 2.0.2
 _ZTSN3QCA7ConsoleE@Base 2.0.2
 _ZTSN3QCA7OpenPGPE@Base 2.0.2
 _ZTSN3QCA8CertBaseE@Base 2.0.2
 _ZTSN3QCA8DirWatch7PrivateE@Base 2.0.2
 _ZTSN3QCA8DirWatchE@Base 2.0.2
 _ZTSN3QCA8KeyStoreE@Base 2.0.2
 _ZTSN3QCA8PKeyBaseE@Base 2.0.2
 _ZTSN3QCA8Provider7ContextE@Base 2.0.2
 _ZTSN3QCA8ProviderE@Base 2.0.2
 _ZTSN3QCA8QPipeEnd7PrivateE@Base 2.0.2
 _ZTSN3QCA8QPipeEndE@Base 2.0.2
 _ZTSN3QCA9AlgorithmE@Base 2.0.2
 _ZTSN3QCA9AskerBaseE@Base 2.0.3-2
 _ZTSN3QCA9CAContextE@Base 2.0.2
 _ZTSN3QCA9DHContextE@Base 2.0.2
 _ZTSN3QCA9FileWatch7PrivateE@Base 2.0.2
 _ZTSN3QCA9FileWatchE@Base 2.0.2
 _ZTSN3QCA9KeyLoader7PrivateE@Base 2.0.2
 _ZTSN3QCA9KeyLoaderE@Base 2.0.2
 _ZTSN3QCA9PublicKeyE@Base 2.0.2
 _ZTSN3QCA9SafeTimerE@Base 2.0.3-2
 _ZTVN3QCA10CRLContextE@Base 2.0.2
 _ZTVN3QCA10CSRContextE@Base 2.0.2
 _ZTVN3QCA10DSAContextE@Base 2.0.2
 _ZTVN3QCA10KDFContextE@Base 2.0.2
 _ZTVN3QCA10MACContextE@Base 2.0.2
 _ZTVN3QCA10PrivateKeyE@Base 2.0.2
 _ZTVN3QCA10RSAContextE@Base 2.0.2
 _ZTVN3QCA10SMSContextE@Base 2.0.2
 _ZTVN3QCA10SyncThread7PrivateE@Base 2.0.2
 _ZTVN3QCA10SyncThreadE@Base 2.0.2
 _ZTVN3QCA10TLSContextE@Base 2.0.2
 _ZTVN3QCA10TLSSessionE@Base 2.0.2
 _ZTVN3QCA10TextFilterE@Base 2.0.2
 _ZTVN3QCA10TimerFixerE@Base 2.0.3-2
 _ZTVN3QCA10TokenAsker7PrivateE@Base 2.0.2
 _ZTVN3QCA10TokenAskerE@Base 2.0.2
 _ZTVN3QCA11CertContextE@Base 2.0.2
 _ZTVN3QCA11CertificateE@Base 2.0.2
 _ZTVN3QCA11DHPublicKeyE@Base 2.0.2
 _ZTVN3QCA11HandlerBaseE@Base 2.0.3-2
 _ZTVN3QCA11HashContextE@Base 2.0.2
 _ZTVN3QCA11InfoContextE@Base 2.0.2
 _ZTVN3QCA11PKeyContextE@Base 2.0.2
 _ZTVN3QCA11QPipeDevice7PrivateE@Base 2.0.2
 _ZTVN3QCA11QPipeDeviceE@Base 2.0.2
 _ZTVN3QCA11SASLContextE@Base 2.0.2
 _ZTVN3QCA11SecureLayerE@Base 2.0.2
 _ZTVN3QCA12AskerPrivateE@Base 2.0.3-2
 _ZTVN3QCA12BasicContextE@Base 2.0.2
 _ZTVN3QCA12DHPrivateKeyE@Base 2.0.2
 _ZTVN3QCA12DSAPublicKeyE@Base 2.0.2
 _ZTVN3QCA12EventHandler7PrivateE@Base 2.0.2
 _ZTVN3QCA12EventHandlerE@Base 2.0.2
 _ZTVN3QCA12KeyGenerator7PrivateE@Base 2.0.2
 _ZTVN3QCA12KeyGeneratorE@Base 2.0.2
 _ZTVN3QCA12RSAPublicKeyE@Base 2.0.2
 _ZTVN3QCA12Synchronizer7PrivateE@Base 2.0.2
 _ZTVN3QCA12SynchronizerE@Base 2.0.2
 _ZTVN3QCA13CipherContextE@Base 2.0.2
 _ZTVN3QCA13ConsolePrompt7PrivateE@Base 2.0.2
 _ZTVN3QCA13ConsolePromptE@Base 2.0.2
 _ZTVN3QCA13ConsoleThreadE@Base 2.0.3-2
 _ZTVN3QCA13ConsoleWorkerE@Base 2.0.3-2
 _ZTVN3QCA13DSAPrivateKeyE@Base 2.0.2
 _ZTVN3QCA13KeyStoreEntryE@Base 2.0.2
 _ZTVN3QCA13PGPKeyContextE@Base 2.0.2
 _ZTVN3QCA13PKCS12ContextE@Base 2.0.2
 _ZTVN3QCA13PasswordAsker7PrivateE@Base 2.0.2
 _ZTVN3QCA13PasswordAskerE@Base 2.0.2
 _ZTVN3QCA13RSAPrivateKeyE@Base 2.0.2
 _ZTVN3QCA13RandomContextE@Base 2.0.2
 _ZTVN3QCA13SecureMessage7PrivateE@Base 2.0.2
 _ZTVN3QCA13SecureMessageE@Base 2.0.2
 _ZTVN3QCA14ConsolePrivateE@Base 2.0.3-2
 _ZTVN3QCA14DLGroupContextE@Base 2.0.2
 _ZTVN3QCA14KeyStoreThreadE@Base 2.0.3-2
 _ZTVN3QCA14MessageContextE@Base 2.0.2
 _ZTVN3QCA15DefaultProviderE@Base 2.0.3-2
 _ZTVN3QCA15KeyLoaderThreadE@Base 2.0.3-2
 _ZTVN3QCA15KeyStoreManagerE@Base 2.0.2
 _ZTVN3QCA15KeyStorePrivateE@Base 2.0.3-2
 _ZTVN3QCA15KeyStoreTrackerE@Base 2.0.3-2
 _ZTVN3QCA15SyncThreadAgentE@Base 2.0.3-2
 _ZTVN3QCA16ConsoleReferenceE@Base 2.0.2
 _ZTVN3QCA17AbstractLogDeviceE@Base 2.0.2
 _ZTVN3QCA17DefaultMD5ContextE@Base 2.0.3-2
 _ZTVN3QCA17KeyStoreOperationE@Base 2.0.3-2
 _ZTVN3QCA17SynchronizerAgentE@Base 2.0.3-2
 _ZTVN3QCA17TLSSessionContextE@Base 2.0.2
 _ZTVN3QCA18CertificateRequestE@Base 2.0.2
 _ZTVN3QCA18DefaultSHA1ContextE@Base 2.0.3-2
 _ZTVN3QCA18SafeSocketNotifierE@Base 2.0.3-2
 _ZTVN3QCA19BufferedComputationE@Base 2.0.2
 _ZTVN3QCA19DefaultKeyStoreListE@Base 2.0.3-2
 _ZTVN3QCA19KeyStoreListContextE@Base 2.0.2
 _ZTVN3QCA19SecureMessageSystemE@Base 2.0.2
 _ZTVN3QCA20CertificateAuthorityE@Base 2.0.2
 _ZTVN3QCA20DefaultKeyStoreEntryE@Base 2.0.3-2
 _ZTVN3QCA20DefaultRandomContextE@Base 2.0.3-2
 _ZTVN3QCA20KeyStoreEntryContextE@Base 2.0.2
 _ZTVN3QCA20KeyStoreEntryWatcher7PrivateE@Base 2.0.2
 _ZTVN3QCA20KeyStoreEntryWatcherE@Base 2.0.2
 _ZTVN3QCA21CertCollectionContextE@Base 2.0.2
 _ZTVN3QCA21KeyDerivationFunctionE@Base 2.0.2
 _ZTVN3QCA22KeyStoreManagerPrivateE@Base 2.0.3-2
 _ZTVN3QCA23ConsoleReferencePrivateE@Base 2.0.3-2
 _ZTVN3QCA23QFileSystemWatcherRelayE@Base 2.0.3-2
 _ZTVN3QCA25MessageAuthenticationCodeE@Base 2.0.2
 _ZTVN3QCA3CMSE@Base 2.0.2
 _ZTVN3QCA3CRLE@Base 2.0.2
 _ZTVN3QCA3HexE@Base 2.0.2
 _ZTVN3QCA3TLS7PrivateE@Base 2.0.2
 _ZTVN3QCA3TLSE@Base 2.0.2
 _ZTVN3QCA4HashE@Base 2.0.2
 _ZTVN3QCA4PKeyE@Base 2.0.2
 _ZTVN3QCA4SASL7PrivateE@Base 2.0.2
 _ZTVN3QCA4SASLE@Base 2.0.2
 _ZTVN3QCA5Botan12Config_ErrorE@Base 2.0.3-2
 _ZTVN3QCA5Botan12Format_ErrorE@Base 2.0.3-2
 _ZTVN3QCA5Botan13Invalid_StateE@Base 2.0.3-2
 _ZTVN3QCA5Botan13Mutex_FactoryE@Base 2.0.3-2
 _ZTVN3QCA5Botan14Encoding_ErrorE@Base 2.0.3-2
 _ZTVN3QCA5Botan14Internal_ErrorE@Base 2.0.3-2
 _ZTVN3QCA5Botan15Builtin_ModulesE@Base 2.0.3-2
 _ZTVN3QCA5Botan16Invalid_ArgumentE@Base 2.0.3-2
 _ZTVN3QCA5Botan16Malloc_AllocatorE@Base 2.0.3-2
 _ZTVN3QCA5Botan16Qt_Mutex_FactoryE@Base 2.0.3-2
 _ZTVN3QCA5Botan17Invalid_IV_LengthE@Base 2.0.3-2
 _ZTVN3QCA5Botan17Locking_AllocatorE@Base 2.0.3-2
 _ZTVN3QCA5Botan17Memory_ExhaustionE@Base 2.0.3-2
 _ZTVN3QCA5Botan17Pooling_AllocatorE@Base 2.0.3-2
 _ZTVN3QCA5Botan18Invalid_Block_SizeE@Base 2.0.3-2
 _ZTVN3QCA5Botan18Invalid_Key_LengthE@Base 2.0.3-2
 _ZTVN3QCA5Botan19Algorithm_Not_FoundE@Base 2.0.3-2
 _ZTVN3QCA5Botan21Default_Mutex_FactoryE@Base 2.0.3-2
 _ZTVN3QCA5Botan22Invalid_Algorithm_NameE@Base 2.0.3-2
 _ZTVN3QCA5Botan22Invalid_Message_NumberE@Base 2.0.3-2
 _ZTVN3QCA5Botan23MemoryMapping_AllocatorE@Base 2.0.3-2
 _ZTVN3QCA5Botan5MutexE@Base 2.0.3-2
 _ZTVN3QCA5Botan6BigInt12DivideByZeroE@Base 2.0.3-2
 _ZTVN3QCA5Botan7ModulesE@Base 2.0.3-2
 _ZTVN3QCA5Botan9AllocatorE@Base 2.0.3-2
 _ZTVN3QCA5Botan9ExceptionE@Base 2.0.3-2
 _ZTVN3QCA6Base64E@Base 2.0.2
 _ZTVN3QCA6CipherE@Base 2.0.2
 _ZTVN3QCA6FilterE@Base 2.0.2
 _ZTVN3QCA6LoggerE@Base 2.0.2
 _ZTVN3QCA6PGPKeyE@Base 2.0.2
 _ZTVN3QCA6RandomE@Base 2.0.2
 _ZTVN3QCA7ConsoleE@Base 2.0.2
 _ZTVN3QCA7OpenPGPE@Base 2.0.2
 _ZTVN3QCA8CertBaseE@Base 2.0.2
 _ZTVN3QCA8DirWatch7PrivateE@Base 2.0.2
 _ZTVN3QCA8DirWatchE@Base 2.0.2
 _ZTVN3QCA8KeyStoreE@Base 2.0.2
 _ZTVN3QCA8PKeyBaseE@Base 2.0.2
 _ZTVN3QCA8Provider7ContextE@Base 2.0.2
 _ZTVN3QCA8ProviderE@Base 2.0.2
 _ZTVN3QCA8QPipeEnd7PrivateE@Base 2.0.2
 _ZTVN3QCA8QPipeEndE@Base 2.0.2
 _ZTVN3QCA9AlgorithmE@Base 2.0.2
 _ZTVN3QCA9AskerBaseE@Base 2.0.3-2
 _ZTVN3QCA9CAContextE@Base 2.0.2
 _ZTVN3QCA9DHContextE@Base 2.0.2
 _ZTVN3QCA9FileWatch7PrivateE@Base 2.0.2
 _ZTVN3QCA9FileWatchE@Base 2.0.2
 _ZTVN3QCA9KeyLoader7PrivateE@Base 2.0.2
 _ZTVN3QCA9KeyLoaderE@Base 2.0.2
 _ZTVN3QCA9PublicKeyE@Base 2.0.2
 _ZTVN3QCA9SafeTimerE@Base 2.0.3-2
 _ZThn8_N3QCA13SecureMessageD0Ev@Base 2.0.2
 _ZThn8_N3QCA13SecureMessageD1Ev@Base 2.0.2
 _ZThn8_N3QCA19SecureMessageSystemD0Ev@Base 2.0.2
 _ZThn8_N3QCA19SecureMessageSystemD1Ev@Base 2.0.2
 _ZThn8_N3QCA25MessageAuthenticationCode5clearEv@Base 2.0.2
 _ZThn8_N3QCA25MessageAuthenticationCode5finalEv@Base 2.0.2
 _ZThn8_N3QCA25MessageAuthenticationCode6updateERKNS_12MemoryRegionE@Base 2.0.2
 _ZThn8_N3QCA25MessageAuthenticationCodeD0Ev@Base 2.0.2
 _ZThn8_N3QCA25MessageAuthenticationCodeD1Ev@Base 2.0.2
 _ZThn8_N3QCA3CMSD0Ev@Base 2.0.2
 _ZThn8_N3QCA3CMSD1Ev@Base 2.0.2
 _ZThn8_N3QCA3TLSD0Ev@Base 2.0.2
 _ZThn8_N3QCA3TLSD1Ev@Base 2.0.2
 _ZThn8_N3QCA4Hash5clearEv@Base 2.0.2
 _ZThn8_N3QCA4Hash5finalEv@Base 2.0.2
 _ZThn8_N3QCA4Hash6updateERKNS_12MemoryRegionE@Base 2.0.2
 _ZThn8_N3QCA4HashD0Ev@Base 2.0.2
 _ZThn8_N3QCA4HashD1Ev@Base 2.0.2
 _ZThn8_N3QCA4SASLD0Ev@Base 2.0.2
 _ZThn8_N3QCA4SASLD1Ev@Base 2.0.2
 _ZThn8_N3QCA6Cipher5clearEv@Base 2.0.2
 _ZThn8_N3QCA6Cipher5finalEv@Base 2.0.2
 _ZThn8_N3QCA6Cipher6updateERKNS_12MemoryRegionE@Base 2.0.2
 _ZThn8_N3QCA6CipherD0Ev@Base 2.0.2
 _ZThn8_N3QCA6CipherD1Ev@Base 2.0.2
 _ZThn8_N3QCA7OpenPGPD0Ev@Base 2.0.2
 _ZThn8_N3QCA7OpenPGPD1Ev@Base 2.0.2
 _ZThn8_N3QCA8KeyStoreD0Ev@Base 2.0.2
 _ZThn8_N3QCA8KeyStoreD1Ev@Base 2.0.2
 _ZThn8_NK3QCA6Cipher2okEv@Base 2.0.2
 _ZZN11QMetaTypeIdI5QListIN3QCA13KeyStoreEntry4TypeEEE14qt_metatype_idEvE11metatype_id@Base 2.0.3-2
 _ZZN11QMetaTypeIdI5QListIN3QCA13KeyStoreEntryEEE14qt_metatype_idEvE11metatype_id@Base 2.0.3-2
 _ZZN11QMetaTypeIdIN3QCA11CertificateEE14qt_metatype_idEvE11metatype_id@Base 2.0.3-2
 _ZZN11QMetaTypeIdIN3QCA11SecureArrayEE14qt_metatype_idEvE11metatype_id@Base 2.0.3-2
 _ZZN11QMetaTypeIdIN3QCA13KeyStoreEntryEE14qt_metatype_idEvE11metatype_id@Base 2.0.3-2
 _ZZN11QMetaTypeIdIN3QCA3CRLEE14qt_metatype_idEvE11metatype_id@Base 2.0.3-2
 _ZZN11QMetaTypeIdIN3QCA6PGPKeyEE14qt_metatype_idEvE11metatype_id@Base 2.0.3-2
 _ZZN11QMetaTypeIdIN3QCA9KeyBundleEE14qt_metatype_idEvE11metatype_id@Base 2.0.3-2
 _ZplRK7QStringS1_@Base 2.0.3-2
 _ZplRK7QStringc@Base 2.0.3-2
 bigint_add2@Base 2.0.3-2
 bigint_add2_nc@Base 2.0.3-2
 bigint_add3@Base 2.0.3-2
 bigint_add3_nc@Base 2.0.3-2
 bigint_cmp@Base 2.0.3-2
 bigint_comba_mul4@Base 2.0.3-2
 bigint_comba_mul6@Base 2.0.3-2
 bigint_comba_mul8@Base 2.0.3-2
 bigint_comba_sqr4@Base 2.0.3-2
 bigint_comba_sqr6@Base 2.0.3-2
 bigint_comba_sqr8@Base 2.0.3-2
 bigint_divcore@Base 2.0.3-2
 bigint_divop@Base 2.0.3-2
 bigint_linmul2@Base 2.0.3-2
 bigint_linmul3@Base 2.0.3-2
 bigint_modop@Base 2.0.3-2
 bigint_mul_add_words@Base 2.0.3-2
 bigint_shl1@Base 2.0.3-2
 bigint_shl2@Base 2.0.3-2
 bigint_shr1@Base 2.0.3-2
 bigint_shr2@Base 2.0.3-2
 bigint_sub2@Base 2.0.3-2
 bigint_sub3@Base 2.0.3-2
 bigint_wordmul@Base 2.0.3-2
