libtag.so.1 libtag1c2a #MINVER#
| libtag1c2a (>= 1.4)
 _ZN6TagLib10ByteVector11fromCStringEPKcj@Base 1.4 1
 _ZN6TagLib10ByteVector12fromLongLongExb@Base 1.4 1
 _ZN6TagLib10ByteVector17ByteVectorPrivateD1Ev@Base 1.7-1ubuntu5
 _ZN6TagLib10ByteVector17ByteVectorPrivateD2Ev@Base 1.7-1ubuntu5
 _ZN6TagLib10ByteVector3endEv@Base 1.4 1
 _ZN6TagLib10ByteVector4dataEv@Base 1.4 1
 _ZN6TagLib10ByteVector4nullE@Base 1.4 1
 _ZN6TagLib10ByteVector5beginEv@Base 1.4 1
 _ZN6TagLib10ByteVector5clearEv@Base 1.4 1
 _ZN6TagLib10ByteVector6appendERKS0_@Base 1.4 1
 _ZN6TagLib10ByteVector6detachEv@Base 1.4 1
 _ZN6TagLib10ByteVector6resizeEjc@Base 1.4 1
 _ZN6TagLib10ByteVector7replaceERKS0_S2_@Base 1.5
 _ZN6TagLib10ByteVector7setDataEPKc@Base 1.4 1
 _ZN6TagLib10ByteVector7setDataEPKcj@Base 1.4 1
 _ZN6TagLib10ByteVector8fromUIntEjb@Base 1.4 1
 _ZN6TagLib10ByteVector9fromShortEsb@Base 1.4 1
 _ZN6TagLib10ByteVectorC1EPKc@Base 1.4 1
 _ZN6TagLib10ByteVectorC1EPKcj@Base 1.4 1
 _ZN6TagLib10ByteVectorC1ERKS0_@Base 1.4 1
 _ZN6TagLib10ByteVectorC1Ec@Base 1.4 1
 _ZN6TagLib10ByteVectorC1Ejc@Base 1.4 1
 _ZN6TagLib10ByteVectorC1Ev@Base 1.4 1
 _ZN6TagLib10ByteVectorC2EPKc@Base 1.4 1
 _ZN6TagLib10ByteVectorC2EPKcj@Base 1.4 1
 _ZN6TagLib10ByteVectorC2ERKS0_@Base 1.4 1
 _ZN6TagLib10ByteVectorC2Ec@Base 1.4 1
 _ZN6TagLib10ByteVectorC2Ejc@Base 1.4 1
 _ZN6TagLib10ByteVectorC2Ev@Base 1.4 1
 _ZN6TagLib10ByteVectorD0Ev@Base 1.4 1
 _ZN6TagLib10ByteVectorD1Ev@Base 1.4 1
 _ZN6TagLib10ByteVectorD2Ev@Base 1.4 1
 _ZN6TagLib10ByteVectoraSEPKc@Base 1.4 1
 _ZN6TagLib10ByteVectoraSERKS0_@Base 1.4 1
 _ZN6TagLib10ByteVectoraSEc@Base 1.4 1
 _ZN6TagLib10ByteVectorixEi@Base 1.4 1
 _ZN6TagLib10StringList5splitERKNS_6StringES3_@Base 1.4 1
 _ZN6TagLib10StringList6appendERKNS_6StringE@Base 1.4 1
 _ZN6TagLib10StringList6appendERKS0_@Base 1.4 1
 _ZN6TagLib10StringListC1ERKNS_14ByteVectorListENS_6String4TypeE@Base 1.4 1
 _ZN6TagLib10StringListC1ERKNS_6StringE@Base 1.4 1
 _ZN6TagLib10StringListC1ERKS0_@Base 1.4 1
 _ZN6TagLib10StringListC1Ev@Base 1.4 1
 _ZN6TagLib10StringListC2ERKNS_14ByteVectorListENS_6String4TypeE@Base 1.4 1
 _ZN6TagLib10StringListC2ERKNS_6StringE@Base 1.4 1
 _ZN6TagLib10StringListC2ERKS0_@Base 1.4 1
 _ZN6TagLib10StringListC2Ev@Base 1.4 1
 _ZN6TagLib10StringListD0Ev@Base 1.4 1
 _ZN6TagLib10StringListD1Ev@Base 1.4 1
 _ZN6TagLib10StringListD2Ev@Base 1.4 1
 _ZN6TagLib10StringListaSERKS0_@Base 1.7-1ubuntu5
 _ZN6TagLib14ByteVectorList5splitERKNS_10ByteVectorES3_i@Base 1.4 1
 _ZN6TagLib14ByteVectorList5splitERKNS_10ByteVectorES3_ii@Base 1.4 1
 _ZN6TagLib14ByteVectorListC1ERKS0_@Base 1.4 1
 _ZN6TagLib14ByteVectorListC1Ev@Base 1.4 1
 _ZN6TagLib14ByteVectorListC2ERKS0_@Base 1.4 1
 _ZN6TagLib14ByteVectorListC2Ev@Base 1.4 1
 _ZN6TagLib14ByteVectorListD0Ev@Base 1.4 1
 _ZN6TagLib14ByteVectorListD1Ev@Base 1.4 1
 _ZN6TagLib14ByteVectorListD2Ev@Base 1.4 1
 _ZN6TagLib14ByteVectorListaSERKS0_@Base 1.7-1ubuntu5
 _ZN6TagLib15AudioPropertiesC1ENS0_9ReadStyleE@Base 1.4 1
 _ZN6TagLib15AudioPropertiesC2ENS0_9ReadStyleE@Base 1.4 1
 _ZN6TagLib15AudioPropertiesD0Ev@Base 1.4 1
 _ZN6TagLib15AudioPropertiesD1Ev@Base 1.4 1
 _ZN6TagLib15AudioPropertiesD2Ev@Base 1.4 1
 _ZN6TagLib3APE10Properties10analyzeOldEv@Base 1.7
 _ZN6TagLib3APE10Properties14analyzeCurrentEv@Base 1.7
 _ZN6TagLib3APE10Properties14findDescriptorEv@Base 1.7
 _ZN6TagLib3APE10Properties4readEv@Base 1.7
 _ZN6TagLib3APE10Properties9findID3v2Ev@Base 1.7
 _ZN6TagLib3APE10PropertiesC1EPNS0_4FileENS_15AudioProperties9ReadStyleE@Base 1.7
 _ZN6TagLib3APE10PropertiesC2EPNS0_4FileENS_15AudioProperties9ReadStyleE@Base 1.7
 _ZN6TagLib3APE10PropertiesD0Ev@Base 1.7
 _ZN6TagLib3APE10PropertiesD1Ev@Base 1.7
 _ZN6TagLib3APE10PropertiesD2Ev@Base 1.7
 _ZN6TagLib3APE3Tag10TagPrivateD1Ev@Base 1.7-1ubuntu5
 _ZN6TagLib3APE3Tag10TagPrivateD2Ev@Base 1.7-1ubuntu5
 _ZN6TagLib3APE3Tag10removeItemERKNS_6StringE@Base 1.4 1
 _ZN6TagLib3APE3Tag10setCommentERKNS_6StringE@Base 1.4 1
 _ZN6TagLib3APE3Tag14fileIdentifierEv@Base 1.4 1
 _ZN6TagLib3APE3Tag4readEv@Base 1.4 1
 _ZN6TagLib3APE3Tag5parseERKNS_10ByteVectorE@Base 1.4 1
 _ZN6TagLib3APE3Tag7setItemERKNS_6StringERKNS0_4ItemE@Base 1.4 1
 _ZN6TagLib3APE3Tag7setYearEj@Base 1.4 1
 _ZN6TagLib3APE3Tag8addValueERKNS_6StringES4_b@Base 1.4 1
 _ZN6TagLib3APE3Tag8setAlbumERKNS_6StringE@Base 1.4 1
 _ZN6TagLib3APE3Tag8setGenreERKNS_6StringE@Base 1.4 1
 _ZN6TagLib3APE3Tag8setTitleERKNS_6StringE@Base 1.4 1
 _ZN6TagLib3APE3Tag8setTrackEj@Base 1.4 1
 _ZN6TagLib3APE3Tag9setArtistERKNS_6StringE@Base 1.4 1
 _ZN6TagLib3APE3TagC1EPNS_4FileEl@Base 1.4 1
 _ZN6TagLib3APE3TagC1Ev@Base 1.4 1
 _ZN6TagLib3APE3TagC2EPNS_4FileEl@Base 1.4 1
 _ZN6TagLib3APE3TagC2Ev@Base 1.4 1
 _ZN6TagLib3APE3TagD0Ev@Base 1.4 1
 _ZN6TagLib3APE3TagD1Ev@Base 1.4 1
 _ZN6TagLib3APE3TagD2Ev@Base 1.4 1
 _ZN6TagLib3APE4File4readEbNS_15AudioProperties9ReadStyleE@Base 1.7
 _ZN6TagLib3APE4File4saveEv@Base 1.7
 _ZN6TagLib3APE4File5stripEi@Base 1.7
 _ZN6TagLib3APE4File6APETagEb@Base 1.7
 _ZN6TagLib3APE4File7findAPEEv@Base 1.7
 _ZN6TagLib3APE4File8ID3v1TagEb@Base 1.7
 _ZN6TagLib3APE4File9findID3v1Ev@Base 1.7
 _ZN6TagLib3APE4FileC1EPKcbNS_15AudioProperties9ReadStyleE@Base 1.7
 _ZN6TagLib3APE4FileC2EPKcbNS_15AudioProperties9ReadStyleE@Base 1.7
 _ZN6TagLib3APE4FileD0Ev@Base 1.7
 _ZN6TagLib3APE4FileD1Ev@Base 1.7
 _ZN6TagLib3APE4FileD2Ev@Base 1.7
 _ZN6TagLib3APE4Item11ItemPrivateC1ERKS2_@Base 1.7-1ubuntu5
 _ZN6TagLib3APE4Item11ItemPrivateC2ERKS2_@Base 1.7-1ubuntu5
 _ZN6TagLib3APE4Item11ItemPrivateD1Ev@Base 1.7-1ubuntu5
 _ZN6TagLib3APE4Item11ItemPrivateD2Ev@Base 1.7-1ubuntu5
 _ZN6TagLib3APE4Item11appendValueERKNS_6StringE@Base 1.5
 _ZN6TagLib3APE4Item11setReadOnlyEb@Base 1.4 1
 _ZN6TagLib3APE4Item12appendValuesERKNS_10StringListE@Base 1.5
 _ZN6TagLib3APE4Item5parseERKNS_10ByteVectorE@Base 1.4 1
 _ZN6TagLib3APE4Item6setKeyERKNS_6StringE@Base 1.5
 _ZN6TagLib3APE4Item7setTypeENS1_9ItemTypesE@Base 1.4 1
 _ZN6TagLib3APE4Item8setValueERKNS_6StringE@Base 1.5
 _ZN6TagLib3APE4Item9setValuesERKNS_10StringListE@Base 1.5
 _ZN6TagLib3APE4ItemC1ERKNS_6StringERKNS_10StringListE@Base 1.4 1
 _ZN6TagLib3APE4ItemC1ERKNS_6StringES4_@Base 1.4 1
 _ZN6TagLib3APE4ItemC1ERKS1_@Base 1.4 1
 _ZN6TagLib3APE4ItemC1Ev@Base 1.4 1
 _ZN6TagLib3APE4ItemC2ERKNS_6StringERKNS_10StringListE@Base 1.4 1
 _ZN6TagLib3APE4ItemC2ERKNS_6StringES4_@Base 1.4 1
 _ZN6TagLib3APE4ItemC2ERKS1_@Base 1.4 1
 _ZN6TagLib3APE4ItemC2Ev@Base 1.4 1
 _ZN6TagLib3APE4ItemD0Ev@Base 1.4 1
 _ZN6TagLib3APE4ItemD1Ev@Base 1.4 1
 _ZN6TagLib3APE4ItemD2Ev@Base 1.4 1
 _ZN6TagLib3APE4ItemaSERKS1_@Base 1.4 1
 _ZN6TagLib3APE6Footer10setTagSizeEj@Base 1.4 1
 _ZN6TagLib3APE6Footer12setItemCountEj@Base 1.4 1
 _ZN6TagLib3APE6Footer14fileIdentifierEv@Base 1.4 1
 _ZN6TagLib3APE6Footer4sizeEv@Base 1.4 1
 _ZN6TagLib3APE6Footer5parseERKNS_10ByteVectorE@Base 1.4 1
 _ZN6TagLib3APE6Footer7setDataERKNS_10ByteVectorE@Base 1.4 1
 _ZN6TagLib3APE6FooterC1ERKNS_10ByteVectorE@Base 1.4 1
 _ZN6TagLib3APE6FooterC1Ev@Base 1.4 1
 _ZN6TagLib3APE6FooterC2ERKNS_10ByteVectorE@Base 1.4 1
 _ZN6TagLib3APE6FooterC2Ev@Base 1.4 1
 _ZN6TagLib3APE6FooterD0Ev@Base 1.4 1
 _ZN6TagLib3APE6FooterD1Ev@Base 1.4 1
 _ZN6TagLib3APE6FooterD2Ev@Base 1.4 1
 _ZN6TagLib3ASF10Properties10setBitrateEi@Base 1.6-2~
 _ZN6TagLib3ASF10Properties11setChannelsEi@Base 1.6-2~
 _ZN6TagLib3ASF10Properties13setSampleRateEi@Base 1.6-2~
 _ZN6TagLib3ASF10Properties9setLengthEi@Base 1.6-2~
 _ZN6TagLib3ASF10PropertiesC1Ev@Base 1.6-2~
 _ZN6TagLib3ASF10PropertiesC2Ev@Base 1.6-2~
 _ZN6TagLib3ASF10PropertiesD0Ev@Base 1.6-2~
 _ZN6TagLib3ASF10PropertiesD1Ev@Base 1.6-2~
 _ZN6TagLib3ASF10PropertiesD2Ev@Base 1.6-2~
 _ZN6TagLib3ASF3Tag10TagPrivateC1Ev@Base 1.7-1ubuntu5
 _ZN6TagLib3ASF3Tag10TagPrivateC2Ev@Base 1.7-1ubuntu5
 _ZN6TagLib3ASF3Tag10TagPrivateD1Ev@Base 1.7-1ubuntu5
 _ZN6TagLib3ASF3Tag10TagPrivateD2Ev@Base 1.7-1ubuntu5
 _ZN6TagLib3ASF3Tag10removeItemERKNS_6StringE@Base 1.6-2~
 _ZN6TagLib3ASF3Tag10setCommentERKNS_6StringE@Base 1.6-2~
 _ZN6TagLib3ASF3Tag12addAttributeERKNS_6StringERKNS0_9AttributeE@Base 1.6-2~
 _ZN6TagLib3ASF3Tag12setAttributeERKNS_6StringERKNS0_9AttributeE@Base 1.6-2~
 _ZN6TagLib3ASF3Tag12setCopyrightERKNS_6StringE@Base 1.6-2~
 _ZN6TagLib3ASF3Tag16attributeListMapEv@Base 1.6-2~
 _ZN6TagLib3ASF3Tag7setYearEj@Base 1.6-2~
 _ZN6TagLib3ASF3Tag8setAlbumERKNS_6StringE@Base 1.6-2~
 _ZN6TagLib3ASF3Tag8setGenreERKNS_6StringE@Base 1.6-2~
 _ZN6TagLib3ASF3Tag8setTitleERKNS_6StringE@Base 1.6-2~
 _ZN6TagLib3ASF3Tag8setTrackEj@Base 1.6-2~
 _ZN6TagLib3ASF3Tag9setArtistERKNS_6StringE@Base 1.6-2~
 _ZN6TagLib3ASF3Tag9setRatingERKNS_6StringE@Base 1.6-2~
 _ZN6TagLib3ASF3TagC1Ev@Base 1.6-2~
 _ZN6TagLib3ASF3TagC2Ev@Base 1.6-2~
 _ZN6TagLib3ASF3TagD0Ev@Base 1.6-2~
 _ZN6TagLib3ASF3TagD1Ev@Base 1.6-2~
 _ZN6TagLib3ASF3TagD2Ev@Base 1.6-2~
 _ZN6TagLib3ASF4File10BaseObject5parseEPS1_j@Base 1.6-2~
 _ZN6TagLib3ASF4File10BaseObject6renderEPS1_@Base 1.6-2~
 _ZN6TagLib3ASF4File10BaseObjectC1Ev@Base 1.7-1ubuntu5
 _ZN6TagLib3ASF4File10BaseObjectC2Ev@Base 1.7-1ubuntu5
 _ZN6TagLib3ASF4File10readStringEi@Base 1.6-2~
 _ZN6TagLib3ASF4File11FilePrivateD1Ev@Base 1.7-1ubuntu5
 _ZN6TagLib3ASF4File11FilePrivateD2Ev@Base 1.7-1ubuntu5
 _ZN6TagLib3ASF4File12renderStringERKNS_6StringEb@Base 1.6-2~
 _ZN6TagLib3ASF4File13UnknownObject4guidEv@Base 1.6-2~
 _ZN6TagLib3ASF4File13UnknownObjectC1ERKNS_10ByteVectorE@Base 1.6-2~
 _ZN6TagLib3ASF4File13UnknownObjectC2ERKNS_10ByteVectorE@Base 1.6-2~
 _ZN6TagLib3ASF4File13UnknownObjectD0Ev@Base 1.7-1ubuntu5
 _ZN6TagLib3ASF4File13UnknownObjectD1Ev@Base 1.7-1ubuntu5
 _ZN6TagLib3ASF4File13UnknownObjectD2Ev@Base 1.7-1ubuntu5
 _ZN6TagLib3ASF4File14MetadataObject4guidEv@Base 1.6-2~
 _ZN6TagLib3ASF4File14MetadataObject5parseEPS1_j@Base 1.6-2~
 _ZN6TagLib3ASF4File14MetadataObject6renderEPS1_@Base 1.6-2~
 _ZN6TagLib3ASF4File14MetadataObjectC1Ev@Base 1.7-1ubuntu5
 _ZN6TagLib3ASF4File14MetadataObjectC2Ev@Base 1.7-1ubuntu5
 _ZN6TagLib3ASF4File14MetadataObjectD0Ev@Base 1.7-1ubuntu5
 _ZN6TagLib3ASF4File14MetadataObjectD1Ev@Base 1.7-1ubuntu5
 _ZN6TagLib3ASF4File14MetadataObjectD2Ev@Base 1.7-1ubuntu5
 _ZN6TagLib3ASF4File20FilePropertiesObject4guidEv@Base 1.6-2~
 _ZN6TagLib3ASF4File20FilePropertiesObject5parseEPS1_j@Base 1.6-2~
 _ZN6TagLib3ASF4File20FilePropertiesObjectC1Ev@Base 1.7-1ubuntu5
 _ZN6TagLib3ASF4File20FilePropertiesObjectC2Ev@Base 1.7-1ubuntu5
 _ZN6TagLib3ASF4File20FilePropertiesObjectD0Ev@Base 1.7-1ubuntu5
 _ZN6TagLib3ASF4File20FilePropertiesObjectD1Ev@Base 1.7-1ubuntu5
 _ZN6TagLib3ASF4File20FilePropertiesObjectD2Ev@Base 1.7-1ubuntu5
 _ZN6TagLib3ASF4File21HeaderExtensionObject4guidEv@Base 1.6-2~
 _ZN6TagLib3ASF4File21HeaderExtensionObject5parseEPS1_j@Base 1.6-2~
 _ZN6TagLib3ASF4File21HeaderExtensionObject6renderEPS1_@Base 1.6-2~
 _ZN6TagLib3ASF4File21HeaderExtensionObjectC1Ev@Base 1.7-1ubuntu5
 _ZN6TagLib3ASF4File21HeaderExtensionObjectC2Ev@Base 1.7-1ubuntu5
 _ZN6TagLib3ASF4File21HeaderExtensionObjectD0Ev@Base 1.7-1ubuntu5
 _ZN6TagLib3ASF4File21HeaderExtensionObjectD1Ev@Base 1.7-1ubuntu5
 _ZN6TagLib3ASF4File21HeaderExtensionObjectD2Ev@Base 1.7-1ubuntu5
 _ZN6TagLib3ASF4File21MetadataLibraryObject4guidEv@Base 1.6-2~
 _ZN6TagLib3ASF4File21MetadataLibraryObject5parseEPS1_j@Base 1.6-2~
 _ZN6TagLib3ASF4File21MetadataLibraryObject6renderEPS1_@Base 1.6-2~
 _ZN6TagLib3ASF4File21MetadataLibraryObjectC1Ev@Base 1.7-1ubuntu5
 _ZN6TagLib3ASF4File21MetadataLibraryObjectC2Ev@Base 1.7-1ubuntu5
 _ZN6TagLib3ASF4File21MetadataLibraryObjectD0Ev@Base 1.7-1ubuntu5
 _ZN6TagLib3ASF4File21MetadataLibraryObjectD1Ev@Base 1.7-1ubuntu5
 _ZN6TagLib3ASF4File21MetadataLibraryObjectD2Ev@Base 1.7-1ubuntu5
 _ZN6TagLib3ASF4File22StreamPropertiesObject4guidEv@Base 1.6-2~
 _ZN6TagLib3ASF4File22StreamPropertiesObject5parseEPS1_j@Base 1.6-2~
 _ZN6TagLib3ASF4File22StreamPropertiesObjectC1Ev@Base 1.7-1ubuntu5
 _ZN6TagLib3ASF4File22StreamPropertiesObjectC2Ev@Base 1.7-1ubuntu5
 _ZN6TagLib3ASF4File22StreamPropertiesObjectD0Ev@Base 1.7-1ubuntu5
 _ZN6TagLib3ASF4File22StreamPropertiesObjectD1Ev@Base 1.7-1ubuntu5
 _ZN6TagLib3ASF4File22StreamPropertiesObjectD2Ev@Base 1.7-1ubuntu5
 _ZN6TagLib3ASF4File24ContentDescriptionObject4guidEv@Base 1.6-2~
 _ZN6TagLib3ASF4File24ContentDescriptionObject5parseEPS1_j@Base 1.6-2~
 _ZN6TagLib3ASF4File24ContentDescriptionObject6renderEPS1_@Base 1.6-2~
 _ZN6TagLib3ASF4File24ContentDescriptionObjectC1Ev@Base 1.7-1ubuntu5
 _ZN6TagLib3ASF4File24ContentDescriptionObjectC2Ev@Base 1.7-1ubuntu5
 _ZN6TagLib3ASF4File24ContentDescriptionObjectD0Ev@Base 1.7-1ubuntu5
 _ZN6TagLib3ASF4File24ContentDescriptionObjectD1Ev@Base 1.7-1ubuntu5
 _ZN6TagLib3ASF4File24ContentDescriptionObjectD2Ev@Base 1.7-1ubuntu5
 _ZN6TagLib3ASF4File32ExtendedContentDescriptionObject4guidEv@Base 1.6-2~
 _ZN6TagLib3ASF4File32ExtendedContentDescriptionObject5parseEPS1_j@Base 1.6-2~
 _ZN6TagLib3ASF4File32ExtendedContentDescriptionObject6renderEPS1_@Base 1.6-2~
 _ZN6TagLib3ASF4File32ExtendedContentDescriptionObjectC1Ev@Base 1.7-1ubuntu5
 _ZN6TagLib3ASF4File32ExtendedContentDescriptionObjectC2Ev@Base 1.7-1ubuntu5
 _ZN6TagLib3ASF4File32ExtendedContentDescriptionObjectD0Ev@Base 1.7-1ubuntu5
 _ZN6TagLib3ASF4File32ExtendedContentDescriptionObjectD1Ev@Base 1.7-1ubuntu5
 _ZN6TagLib3ASF4File32ExtendedContentDescriptionObjectD2Ev@Base 1.7-1ubuntu5
 _ZN6TagLib3ASF4File4readEbNS_15AudioProperties9ReadStyleE@Base 1.6-2~
 _ZN6TagLib3ASF4File4saveEv@Base 1.6-2~
 _ZN6TagLib3ASF4File8readBYTEEv@Base 1.6-2~
 _ZN6TagLib3ASF4File8readWORDEv@Base 1.6-2~
 _ZN6TagLib3ASF4File9readDWORDEv@Base 1.6-2~
 _ZN6TagLib3ASF4File9readQWORDEv@Base 1.6-2~
 _ZN6TagLib3ASF4FileC1EPKcbNS_15AudioProperties9ReadStyleE@Base 1.6-2~
 _ZN6TagLib3ASF4FileC2EPKcbNS_15AudioProperties9ReadStyleE@Base 1.6-2~
 _ZN6TagLib3ASF4FileD0Ev@Base 1.6-2~
 _ZN6TagLib3ASF4FileD1Ev@Base 1.6-2~
 _ZN6TagLib3ASF4FileD2Ev@Base 1.6-2~
 _ZN6TagLib3ASF7Picture10setPictureERKNS_10ByteVectorE@Base 1.7
 _ZN6TagLib3ASF7Picture11fromInvalidEv@Base 1.7
 _ZN6TagLib3ASF7Picture11setMimeTypeERKNS_6StringE@Base 1.7
 _ZN6TagLib3ASF7Picture14PicturePriavteC1Ev@Base 1.7-1ubuntu5
 _ZN6TagLib3ASF7Picture14PicturePriavteC2Ev@Base 1.7-1ubuntu5
 _ZN6TagLib3ASF7Picture14PicturePriavteD1Ev@Base 1.7-1ubuntu5
 _ZN6TagLib3ASF7Picture14PicturePriavteD2Ev@Base 1.7-1ubuntu5
 _ZN6TagLib3ASF7Picture14setDescriptionERKNS_6StringE@Base 1.7
 _ZN6TagLib3ASF7Picture5parseERKNS_10ByteVectorE@Base 1.7
 _ZN6TagLib3ASF7Picture7setTypeERKNS1_4TypeE@Base 1.7
 _ZN6TagLib3ASF7PictureC1ERKS1_@Base 1.7
 _ZN6TagLib3ASF7PictureC1Ev@Base 1.7
 _ZN6TagLib3ASF7PictureC2ERKS1_@Base 1.7
 _ZN6TagLib3ASF7PictureC2Ev@Base 1.7
 _ZN6TagLib3ASF7PictureD0Ev@Base 1.7
 _ZN6TagLib3ASF7PictureD1Ev@Base 1.7
 _ZN6TagLib3ASF7PictureD2Ev@Base 1.7
 _ZN6TagLib3ASF7PictureaSERKS1_@Base 1.7
 _ZN6TagLib3ASF9Attribute11setLanguageEi@Base 1.6-2~
 _ZN6TagLib3ASF9Attribute16AttributePrivateD1Ev@Base 1.7-1ubuntu5
 _ZN6TagLib3ASF9Attribute16AttributePrivateD2Ev@Base 1.7-1ubuntu5
 _ZN6TagLib3ASF9Attribute5parseERNS0_4FileEi@Base 1.6-2~
 _ZN6TagLib3ASF9Attribute9setStreamEi@Base 1.6-2~
 _ZN6TagLib3ASF9AttributeC1ERKNS0_7PictureE@Base 1.7
 _ZN6TagLib3ASF9AttributeC1ERKNS_10ByteVectorE@Base 1.6-2~
 _ZN6TagLib3ASF9AttributeC1ERKNS_6StringE@Base 1.6-2~
 _ZN6TagLib3ASF9AttributeC1ERKS1_@Base 1.6-2~
 _ZN6TagLib3ASF9AttributeC1Eb@Base 1.6-2~
 _ZN6TagLib3ASF9AttributeC1Ej@Base 1.6-2~
 _ZN6TagLib3ASF9AttributeC1Et@Base 1.6-2~
 _ZN6TagLib3ASF9AttributeC1Ev@Base 1.6-2~
 _ZN6TagLib3ASF9AttributeC1Ey@Base 1.6-2~
 _ZN6TagLib3ASF9AttributeC2ERKNS0_7PictureE@Base 1.7
 _ZN6TagLib3ASF9AttributeC2ERKNS_10ByteVectorE@Base 1.6-2~
 _ZN6TagLib3ASF9AttributeC2ERKNS_6StringE@Base 1.6-2~
 _ZN6TagLib3ASF9AttributeC2ERKS1_@Base 1.6-2~
 _ZN6TagLib3ASF9AttributeC2Eb@Base 1.6-2~
 _ZN6TagLib3ASF9AttributeC2Ej@Base 1.6-2~
 _ZN6TagLib3ASF9AttributeC2Et@Base 1.6-2~
 _ZN6TagLib3ASF9AttributeC2Ev@Base 1.6-2~
 _ZN6TagLib3ASF9AttributeC2Ey@Base 1.6-2~
 _ZN6TagLib3ASF9AttributeD0Ev@Base 1.6-2~
 _ZN6TagLib3ASF9AttributeD1Ev@Base 1.6-2~
 _ZN6TagLib3ASF9AttributeD2Ev@Base 1.6-2~
 _ZN6TagLib3ASF9AttributeaSERKS1_@Base 1.6-2~
 _ZN6TagLib3MP410PropertiesC1EPNS0_4FileEPNS0_5AtomsENS_15AudioProperties9ReadStyleE@Base 1.6-2~
 _ZN6TagLib3MP410PropertiesC2EPNS0_4FileEPNS0_5AtomsENS_15AudioProperties9ReadStyleE@Base 1.6-2~
 _ZN6TagLib3MP410PropertiesD0Ev@Base 1.6-2~
 _ZN6TagLib3MP410PropertiesD1Ev@Base 1.6-2~
 _ZN6TagLib3MP410PropertiesD2Ev@Base 1.6-2~
 _ZN6TagLib3MP43Tag10renderAtomERKNS_10ByteVectorES4_@Base 1.6-2~
 _ZN6TagLib3MP43Tag10renderBoolERKNS_10ByteVectorERNS0_4ItemE@Base 1.6-2~
 _ZN6TagLib3MP43Tag10renderCovrERKNS_10ByteVectorERNS0_4ItemE@Base 1.6.1
 _ZN6TagLib3MP43Tag10renderDataERKNS_10ByteVectorEiRKNS_14ByteVectorListE@Base 1.6-2~
 _ZN6TagLib3MP43Tag10renderTextERKNS_10ByteVectorERNS0_4ItemEi@Base 1.6-2~
 _ZN6TagLib3MP43Tag10setCommentERKNS_6StringE@Base 1.6-2~
 _ZN6TagLib3MP43Tag11itemListMapEv@Base 1.6-2~
 _ZN6TagLib3MP43Tag12parseIntPairEPNS0_4AtomEPNS_4FileE@Base 1.6-2~
 _ZN6TagLib3MP43Tag12saveExistingERNS_10ByteVectorERNS_4ListIPNS0_4AtomEEE@Base 1.6-2~
 _ZN6TagLib3MP43Tag13parseFreeFormEPNS0_4AtomEPNS_4FileE@Base 1.6-2~
 _ZN6TagLib3MP43Tag13renderIntPairERKNS_10ByteVectorERNS0_4ItemE@Base 1.6-2~
 _ZN6TagLib3MP43Tag13updateOffsetsEll@Base 1.6-2~
 _ZN6TagLib3MP43Tag13updateParentsERNS_4ListIPNS0_4AtomEEEli@Base 1.6-2~
 _ZN6TagLib3MP43Tag14renderFreeFormERKNS_6StringERNS0_4ItemE@Base 1.6-2~
 _ZN6TagLib3MP43Tag23renderIntPairNoTrailingERKNS_10ByteVectorERNS0_4ItemE@Base 1.6-2~
 _ZN6TagLib3MP43Tag4saveEv@Base 1.6-2~
 _ZN6TagLib3MP43Tag7padIlstERKNS_10ByteVectorEi@Base 1.6-2~
 _ZN6TagLib3MP43Tag7saveNewERNS_10ByteVectorE@Base 1.6-2~
 _ZN6TagLib3MP43Tag7setYearEj@Base 1.6-2~
 _ZN6TagLib3MP43Tag8parseIntEPNS0_4AtomEPNS_4FileE@Base 1.6-2~
 _ZN6TagLib3MP43Tag8setAlbumERKNS_6StringE@Base 1.6-2~
 _ZN6TagLib3MP43Tag8setGenreERKNS_6StringE@Base 1.6-2~
 _ZN6TagLib3MP43Tag8setTitleERKNS_6StringE@Base 1.6-2~
 _ZN6TagLib3MP43Tag8setTrackEj@Base 1.6-2~
 _ZN6TagLib3MP43Tag9parseBoolEPNS0_4AtomEPNS_4FileE@Base 1.6-2~
 _ZN6TagLib3MP43Tag9parseCovrEPNS0_4AtomEPNS_4FileE@Base 1.6.1
 _ZN6TagLib3MP43Tag9parseDataEPNS0_4AtomEPNS_4FileEib@Base 1.6-2~
 _ZN6TagLib3MP43Tag9parseGnreEPNS0_4AtomEPNS_4FileE@Base 1.6-2~
 _ZN6TagLib3MP43Tag9parseTextEPNS0_4AtomEPNS_4FileEi@Base 1.6-2~
 _ZN6TagLib3MP43Tag9renderIntERKNS_10ByteVectorERNS0_4ItemE@Base 1.6-2~
 _ZN6TagLib3MP43Tag9setArtistERKNS_6StringE@Base 1.6-2~
 _ZN6TagLib3MP43TagC1EPNS_4FileEPNS0_5AtomsE@Base 1.6-2~
 _ZN6TagLib3MP43TagC2EPNS_4FileEPNS0_5AtomsE@Base 1.6-2~
 _ZN6TagLib3MP43TagD0Ev@Base 1.6-2~
 _ZN6TagLib3MP43TagD1Ev@Base 1.6-2~
 _ZN6TagLib3MP43TagD2Ev@Base 1.6-2~
 _ZN6TagLib3MP44File10checkValidERKNS_4ListIPNS0_4AtomEEE@Base 1.6.1
 _ZN6TagLib3MP44File4readEbNS_15AudioProperties9ReadStyleE@Base 1.6-2~
 _ZN6TagLib3MP44File4saveEv@Base 1.6-2~
 _ZN6TagLib3MP44FileC1EPKcbNS_15AudioProperties9ReadStyleE@Base 1.6-2~
 _ZN6TagLib3MP44FileC2EPKcbNS_15AudioProperties9ReadStyleE@Base 1.6-2~
 _ZN6TagLib3MP44FileD0Ev@Base 1.6-2~
 _ZN6TagLib3MP44FileD1Ev@Base 1.6-2~
 _ZN6TagLib3MP44FileD2Ev@Base 1.6-2~
 _ZN6TagLib3MP44Item11ItemPrivateD1Ev@Base 1.7-1ubuntu5
 _ZN6TagLib3MP44Item11ItemPrivateD2Ev@Base 1.7-1ubuntu5
 _ZN6TagLib3MP44ItemC1ERKNS_10StringListE@Base 1.6-2~
 _ZN6TagLib3MP44ItemC1ERKNS_4ListINS0_8CoverArtEEE@Base 1.6.1
 _ZN6TagLib3MP44ItemC1ERKS1_@Base 1.6-2~
 _ZN6TagLib3MP44ItemC1Eb@Base 1.6-2~
 _ZN6TagLib3MP44ItemC1Ei@Base 1.6-2~
 _ZN6TagLib3MP44ItemC1Eii@Base 1.6-2~
 _ZN6TagLib3MP44ItemC1Ev@Base 1.6-2~
 _ZN6TagLib3MP44ItemC2ERKNS_10StringListE@Base 1.6-2~
 _ZN6TagLib3MP44ItemC2ERKNS_4ListINS0_8CoverArtEEE@Base 1.6.1
 _ZN6TagLib3MP44ItemC2ERKS1_@Base 1.6-2~
 _ZN6TagLib3MP44ItemC2Eb@Base 1.6-2~
 _ZN6TagLib3MP44ItemC2Ei@Base 1.6-2~
 _ZN6TagLib3MP44ItemC2Eii@Base 1.6-2~
 _ZN6TagLib3MP44ItemC2Ev@Base 1.6-2~
 _ZN6TagLib3MP44ItemD1Ev@Base 1.6-2~
 _ZN6TagLib3MP44ItemD2Ev@Base 1.6-2~
 _ZN6TagLib3MP44ItemaSERKS1_@Base 1.6-2~
 _ZN6TagLib3MP48CoverArt15CoverArtPrivateD1Ev@Base 1.7-1ubuntu5
 _ZN6TagLib3MP48CoverArt15CoverArtPrivateD2Ev@Base 1.7-1ubuntu5
 _ZN6TagLib3MP48CoverArtC1ENS1_6FormatERKNS_10ByteVectorE@Base 1.6.1
 _ZN6TagLib3MP48CoverArtC1ERKS1_@Base 1.6.1
 _ZN6TagLib3MP48CoverArtC2ENS1_6FormatERKNS_10ByteVectorE@Base 1.6.1
 _ZN6TagLib3MP48CoverArtC2ERKS1_@Base 1.6.1
 _ZN6TagLib3MP48CoverArtD1Ev@Base 1.6.1
 _ZN6TagLib3MP48CoverArtD2Ev@Base 1.6.1
 _ZN6TagLib3MP48CoverArtaSERKS1_@Base 1.6.1
 _ZN6TagLib3MPC10Properties17PropertiesPrivateD1Ev@Base 1.7-1ubuntu5
 _ZN6TagLib3MPC10Properties17PropertiesPrivateD2Ev@Base 1.7-1ubuntu5
 _ZN6TagLib3MPC10Properties4readEv@Base 1.4 1
 _ZN6TagLib3MPC10PropertiesC1ERKNS_10ByteVectorElNS_15AudioProperties9ReadStyleE@Base 1.4 1
 _ZN6TagLib3MPC10PropertiesC2ERKNS_10ByteVectorElNS_15AudioProperties9ReadStyleE@Base 1.4 1
 _ZN6TagLib3MPC10PropertiesD0Ev@Base 1.4 1
 _ZN6TagLib3MPC10PropertiesD1Ev@Base 1.4 1
 _ZN6TagLib3MPC10PropertiesD2Ev@Base 1.4 1
 _ZN6TagLib3MPC4File4readEbNS_15AudioProperties9ReadStyleE@Base 1.4 1
 _ZN6TagLib3MPC4File4saveEv@Base 1.4 1
 _ZN6TagLib3MPC4File5stripEi@Base 1.5
 _ZN6TagLib3MPC4File6APETagEb@Base 1.4 1
 _ZN6TagLib3MPC4File6removeEi@Base 1.4 1
 _ZN6TagLib3MPC4File7findAPEEv@Base 1.4 1
 _ZN6TagLib3MPC4File8ID3v1TagEb@Base 1.4 1
 _ZN6TagLib3MPC4File9findID3v1Ev@Base 1.4 1
 _ZN6TagLib3MPC4File9findID3v2Ev@Base 1.4 1
 _ZN6TagLib3MPC4FileC1EPKcbNS_15AudioProperties9ReadStyleE@Base 1.4 1
 _ZN6TagLib3MPC4FileC2EPKcbNS_15AudioProperties9ReadStyleE@Base 1.4 1
 _ZN6TagLib3MPC4FileD0Ev@Base 1.4 1
 _ZN6TagLib3MPC4FileD1Ev@Base 1.4 1
 _ZN6TagLib3MPC4FileD2Ev@Base 1.4 1
 _ZN6TagLib3Ogg10PageHeader14setPacketSizesERKNS_4ListIiEE@Base 1.4 1
 _ZN6TagLib3Ogg10PageHeader17PageHeaderPrivateD1Ev@Base 1.7-1ubuntu5
 _ZN6TagLib3Ogg10PageHeader17PageHeaderPrivateD2Ev@Base 1.7-1ubuntu5
 _ZN6TagLib3Ogg10PageHeader19setLastPageOfStreamEb@Base 1.4 1
 _ZN6TagLib3Ogg10PageHeader20setFirstPageOfStreamEb@Base 1.4 1
 _ZN6TagLib3Ogg10PageHeader21setPageSequenceNumberEi@Base 1.4 1
 _ZN6TagLib3Ogg10PageHeader21setStreamSerialNumberEj@Base 1.4 1
 _ZN6TagLib3Ogg10PageHeader22setLastPacketCompletedEb@Base 1.4 1
 _ZN6TagLib3Ogg10PageHeader23setFirstPacketContinuedEb@Base 1.4 1
 _ZN6TagLib3Ogg10PageHeader27setAbsoluteGranularPositionEx@Base 1.4 1
 _ZN6TagLib3Ogg10PageHeader4readEv@Base 1.4 1
 _ZN6TagLib3Ogg10PageHeaderC1EPNS0_4FileEl@Base 1.4 1
 _ZN6TagLib3Ogg10PageHeaderC2EPNS0_4FileEl@Base 1.4 1
 _ZN6TagLib3Ogg10PageHeaderD0Ev@Base 1.4 1
 _ZN6TagLib3Ogg10PageHeaderD1Ev@Base 1.4 1
 _ZN6TagLib3Ogg10PageHeaderD2Ev@Base 1.4 1
 _ZN6TagLib3Ogg11XiphComment10setCommentERKNS_6StringE@Base 1.4 1
 _ZN6TagLib3Ogg11XiphComment11removeFieldERKNS_6StringES4_@Base 1.4 1
 _ZN6TagLib3Ogg11XiphComment18XiphCommentPrivateC1Ev@Base 1.7-1ubuntu5
 _ZN6TagLib3Ogg11XiphComment18XiphCommentPrivateC2Ev@Base 1.7-1ubuntu5
 _ZN6TagLib3Ogg11XiphComment18XiphCommentPrivateD1Ev@Base 1.7-1ubuntu5
 _ZN6TagLib3Ogg11XiphComment18XiphCommentPrivateD2Ev@Base 1.7-1ubuntu5
 _ZN6TagLib3Ogg11XiphComment5parseERKNS_10ByteVectorE@Base 1.4 1
 _ZN6TagLib3Ogg11XiphComment7setYearEj@Base 1.4 1
 _ZN6TagLib3Ogg11XiphComment8addFieldERKNS_6StringES4_b@Base 1.4 1
 _ZN6TagLib3Ogg11XiphComment8setAlbumERKNS_6StringE@Base 1.4 1
 _ZN6TagLib3Ogg11XiphComment8setGenreERKNS_6StringE@Base 1.4 1
 _ZN6TagLib3Ogg11XiphComment8setTitleERKNS_6StringE@Base 1.4 1
 _ZN6TagLib3Ogg11XiphComment8setTrackEj@Base 1.4 1
 _ZN6TagLib3Ogg11XiphComment9setArtistERKNS_6StringE@Base 1.4 1
 _ZN6TagLib3Ogg11XiphCommentC1ERKNS_10ByteVectorE@Base 1.4 1
 _ZN6TagLib3Ogg11XiphCommentC1Ev@Base 1.4 1
 _ZN6TagLib3Ogg11XiphCommentC2ERKNS_10ByteVectorE@Base 1.4 1
 _ZN6TagLib3Ogg11XiphCommentC2Ev@Base 1.4 1
 _ZN6TagLib3Ogg11XiphCommentD0Ev@Base 1.4 1
 _ZN6TagLib3Ogg11XiphCommentD1Ev@Base 1.4 1
 _ZN6TagLib3Ogg11XiphCommentD2Ev@Base 1.4 1
 _ZN6TagLib3Ogg4FLAC4File12streamLengthEv@Base 1.4 1
 _ZN6TagLib3Ogg4FLAC4File14streamInfoDataEv@Base 1.4 1
 _ZN6TagLib3Ogg4FLAC4File15xiphCommentDataEv@Base 1.4 1
 _ZN6TagLib3Ogg4FLAC4File4readEbNS_15AudioProperties9ReadStyleE@Base 1.4 1
 _ZN6TagLib3Ogg4FLAC4File4saveEv@Base 1.4 1
 _ZN6TagLib3Ogg4FLAC4File4scanEv@Base 1.4 1
 _ZN6TagLib3Ogg4FLAC4FileC1EPKcbNS_15AudioProperties9ReadStyleE@Base 1.4 1
 _ZN6TagLib3Ogg4FLAC4FileC2EPKcbNS_15AudioProperties9ReadStyleE@Base 1.4 1
 _ZN6TagLib3Ogg4FLAC4FileD0Ev@Base 1.4 1
 _ZN6TagLib3Ogg4FLAC4FileD1Ev@Base 1.4 1
 _ZN6TagLib3Ogg4FLAC4FileD2Ev@Base 1.4 1
 _ZN6TagLib3Ogg4File14lastPageHeaderEv@Base 1.4 1
 _ZN6TagLib3Ogg4File14writePageGroupERKNS_4ListIiEE@Base 1.4 1
 _ZN6TagLib3Ogg4File15firstPageHeaderEv@Base 1.4 1
 _ZN6TagLib3Ogg4File4saveEv@Base 1.4 1
 _ZN6TagLib3Ogg4File6packetEj@Base 1.4 1
 _ZN6TagLib3Ogg4File8nextPageEv@Base 1.4 1
 _ZN6TagLib3Ogg4File9setPacketEjRKNS_10ByteVectorE@Base 1.4 1
 _ZN6TagLib3Ogg4FileC1EPKc@Base 1.4 1
 _ZN6TagLib3Ogg4FileC2EPKc@Base 1.4 1
 _ZN6TagLib3Ogg4FileD0Ev@Base 1.4 1
 _ZN6TagLib3Ogg4FileD1Ev@Base 1.4 1
 _ZN6TagLib3Ogg4FileD2Ev@Base 1.4 1
 _ZN6TagLib3Ogg4Page11PagePrivateD1Ev@Base 1.7-1ubuntu5
 _ZN6TagLib3Ogg4Page11PagePrivateD2Ev@Base 1.7-1ubuntu5
 _ZN6TagLib3Ogg4Page19setFirstPacketIndexEi@Base 1.4 1
 _ZN6TagLib3Ogg4Page32getCopyWithNewPageSequenceNumberEi@Base 1.6
 _ZN6TagLib3Ogg4Page8paginateERKNS_14ByteVectorListENS1_18PaginationStrategyEjibbb@Base 1.4 1
 _ZN6TagLib3Ogg4PageC1EPNS0_4FileEl@Base 1.4 1
 _ZN6TagLib3Ogg4PageC1ERKNS_14ByteVectorListEjibbb@Base 1.4 1
 _ZN6TagLib3Ogg4PageC2EPNS0_4FileEl@Base 1.4 1
 _ZN6TagLib3Ogg4PageC2ERKNS_14ByteVectorListEjibbb@Base 1.4 1
 _ZN6TagLib3Ogg4PageD0Ev@Base 1.4 1
 _ZN6TagLib3Ogg4PageD1Ev@Base 1.4 1
 _ZN6TagLib3Ogg4PageD2Ev@Base 1.4 1
 _ZN6TagLib3Ogg5Speex10Properties4readEv@Base 1.5
 _ZN6TagLib3Ogg5Speex10PropertiesC1EPNS1_4FileENS_15AudioProperties9ReadStyleE@Base 1.5
 _ZN6TagLib3Ogg5Speex10PropertiesC2EPNS1_4FileENS_15AudioProperties9ReadStyleE@Base 1.5
 _ZN6TagLib3Ogg5Speex10PropertiesD0Ev@Base 1.5
 _ZN6TagLib3Ogg5Speex10PropertiesD1Ev@Base 1.5
 _ZN6TagLib3Ogg5Speex10PropertiesD2Ev@Base 1.5
 _ZN6TagLib3Ogg5Speex4File4readEbNS_15AudioProperties9ReadStyleE@Base 1.5
 _ZN6TagLib3Ogg5Speex4File4saveEv@Base 1.5
 _ZN6TagLib3Ogg5Speex4FileC1EPKcbNS_15AudioProperties9ReadStyleE@Base 1.5
 _ZN6TagLib3Ogg5Speex4FileC2EPKcbNS_15AudioProperties9ReadStyleE@Base 1.5
 _ZN6TagLib3Ogg5Speex4FileD0Ev@Base 1.5
 _ZN6TagLib3Ogg5Speex4FileD1Ev@Base 1.5
 _ZN6TagLib3Ogg5Speex4FileD2Ev@Base 1.5
 _ZN6TagLib3Tag9duplicateEPKS0_PS0_b@Base 1.4 1
 _ZN6TagLib3TagC1Ev@Base 1.4 1
 _ZN6TagLib3TagC2Ev@Base 1.4 1
 _ZN6TagLib3TagD0Ev@Base 1.4 1
 _ZN6TagLib3TagD1Ev@Base 1.4 1
 _ZN6TagLib3TagD2Ev@Base 1.4 1
 _ZN6TagLib4FLAC10Properties17PropertiesPrivateD1Ev@Base 1.7-1ubuntu5
 _ZN6TagLib4FLAC10Properties17PropertiesPrivateD2Ev@Base 1.7-1ubuntu5
 _ZN6TagLib4FLAC10Properties4readEv@Base 1.4 1
 _ZN6TagLib4FLAC10PropertiesC1ENS_10ByteVectorElNS_15AudioProperties9ReadStyleE@Base 1.4 1
 _ZN6TagLib4FLAC10PropertiesC1EPNS0_4FileENS_15AudioProperties9ReadStyleE@Base 1.4 1
 _ZN6TagLib4FLAC10PropertiesC2ENS_10ByteVectorElNS_15AudioProperties9ReadStyleE@Base 1.4 1
 _ZN6TagLib4FLAC10PropertiesC2EPNS0_4FileENS_15AudioProperties9ReadStyleE@Base 1.4 1
 _ZN6TagLib4FLAC10PropertiesD0Ev@Base 1.4 1
 _ZN6TagLib4FLAC10PropertiesD1Ev@Base 1.4 1
 _ZN6TagLib4FLAC10PropertiesD2Ev@Base 1.4 1
 _ZN6TagLib4FLAC13MetadataBlockC1Ev@Base 1.7
 _ZN6TagLib4FLAC13MetadataBlockC2Ev@Base 1.7
 _ZN6TagLib4FLAC13MetadataBlockD0Ev@Base 1.7
 _ZN6TagLib4FLAC13MetadataBlockD1Ev@Base 1.7
 _ZN6TagLib4FLAC13MetadataBlockD2Ev@Base 1.7
 _ZN6TagLib4FLAC20UnknownMetadataBlock27UnknownMetadataBlockPrivateD1Ev@Base 1.7-1ubuntu5
 _ZN6TagLib4FLAC20UnknownMetadataBlock27UnknownMetadataBlockPrivateD2Ev@Base 1.7-1ubuntu5
 _ZN6TagLib4FLAC20UnknownMetadataBlock7setCodeEi@Base 1.7
 _ZN6TagLib4FLAC20UnknownMetadataBlock7setDataERKNS_10ByteVectorE@Base 1.7
 _ZN6TagLib4FLAC20UnknownMetadataBlockC1EiRKNS_10ByteVectorE@Base 1.7
 _ZN6TagLib4FLAC20UnknownMetadataBlockC2EiRKNS_10ByteVectorE@Base 1.7
 _ZN6TagLib4FLAC20UnknownMetadataBlockD0Ev@Base 1.7
 _ZN6TagLib4FLAC20UnknownMetadataBlockD1Ev@Base 1.7
 _ZN6TagLib4FLAC20UnknownMetadataBlockD2Ev@Base 1.7
 _ZN6TagLib4FLAC4File10addPictureEPNS0_7PictureE@Base 1.7
 _ZN6TagLib4FLAC4File11pictureListEv@Base 1.7
 _ZN6TagLib4FLAC4File11xiphCommentEb@Base 1.4 1
 _ZN6TagLib4FLAC4File12streamLengthEv@Base 1.4 1
 _ZN6TagLib4FLAC4File14removePicturesEv@Base 1.7
 _ZN6TagLib4FLAC4File14streamInfoDataEv@Base 1.4 1
 _ZN6TagLib4FLAC4File20setID3v2FrameFactoryEPKNS_5ID3v212FrameFactoryE@Base 1.4 1
 _ZN6TagLib4FLAC4File4readEbNS_15AudioProperties9ReadStyleE@Base 1.4 1
 _ZN6TagLib4FLAC4File4saveEv@Base 1.4 1
 _ZN6TagLib4FLAC4File4scanEv@Base 1.4 1
 _ZN6TagLib4FLAC4File8ID3v1TagEb@Base 1.4 1
 _ZN6TagLib4FLAC4File8ID3v2TagEb@Base 1.4 1
 _ZN6TagLib4FLAC4File9findID3v1Ev@Base 1.4 1
 _ZN6TagLib4FLAC4File9findID3v2Ev@Base 1.4 1
 _ZN6TagLib4FLAC4FileC1EPKcPNS_5ID3v212FrameFactoryEbNS_15AudioProperties9ReadStyleE@Base 1.4 1
 _ZN6TagLib4FLAC4FileC1EPKcbNS_15AudioProperties9ReadStyleE@Base 1.4 1
 _ZN6TagLib4FLAC4FileC2EPKcPNS_5ID3v212FrameFactoryEbNS_15AudioProperties9ReadStyleE@Base 1.4 1
 _ZN6TagLib4FLAC4FileC2EPKcbNS_15AudioProperties9ReadStyleE@Base 1.4 1
 _ZN6TagLib4FLAC4FileD0Ev@Base 1.4 1
 _ZN6TagLib4FLAC4FileD1Ev@Base 1.4 1
 _ZN6TagLib4FLAC4FileD2Ev@Base 1.4 1
 _ZN6TagLib4FLAC7Picture11setMimeTypeERKNS_6StringE@Base 1.7
 _ZN6TagLib4FLAC7Picture12setNumColorsEi@Base 1.7
 _ZN6TagLib4FLAC7Picture13setColorDepthEi@Base 1.7
 _ZN6TagLib4FLAC7Picture14PicturePrivateD1Ev@Base 1.7-1ubuntu5
 _ZN6TagLib4FLAC7Picture14PicturePrivateD2Ev@Base 1.7-1ubuntu5
 _ZN6TagLib4FLAC7Picture14setDescriptionERKNS_6StringE@Base 1.7
 _ZN6TagLib4FLAC7Picture5parseERKNS_10ByteVectorE@Base 1.7
 _ZN6TagLib4FLAC7Picture7setDataERKNS_10ByteVectorE@Base 1.7
 _ZN6TagLib4FLAC7Picture7setTypeENS1_4TypeE@Base 1.7
 _ZN6TagLib4FLAC7Picture8setWidthEi@Base 1.7
 _ZN6TagLib4FLAC7Picture9setHeightEi@Base 1.7
 _ZN6TagLib4FLAC7PictureC1ERKNS_10ByteVectorE@Base 1.7
 _ZN6TagLib4FLAC7PictureC1Ev@Base 1.7
 _ZN6TagLib4FLAC7PictureC2ERKNS_10ByteVectorE@Base 1.7
 _ZN6TagLib4FLAC7PictureC2Ev@Base 1.7
 _ZN6TagLib4FLAC7PictureD0Ev@Base 1.7
 _ZN6TagLib4FLAC7PictureD1Ev@Base 1.7
 _ZN6TagLib4FLAC7PictureD2Ev@Base 1.7
 _ZN6TagLib4File10bufferSizeEv@Base 1.4 1
 _ZN6TagLib4File10isReadableEPKc@Base 1.4 1
 _ZN6TagLib4File10isWritableEPKc@Base 1.4 1
 _ZN6TagLib4File10writeBlockERKNS_10ByteVectorE@Base 1.4 1
 _ZN6TagLib4File11FilePrivateC1EPKc@Base 1.5
 _ZN6TagLib4File11FilePrivateC2EPKc@Base 1.5
 _ZN6TagLib4File11FilePrivateD1Ev@Base 1.7-1ubuntu5
 _ZN6TagLib4File11FilePrivateD2Ev@Base 1.7-1ubuntu5
 _ZN6TagLib4File11removeBlockEmm@Base 1.4 1
 _ZN6TagLib4File4findERKNS_10ByteVectorElS3_@Base 1.4 1
 _ZN6TagLib4File4seekElNS0_8PositionE@Base 1.4 1
 _ZN6TagLib4File5clearEv@Base 1.4 1
 _ZN6TagLib4File5rfindERKNS_10ByteVectorElS3_@Base 1.4 1
 _ZN6TagLib4File6insertERKNS_10ByteVectorEmm@Base 1.4 1
 _ZN6TagLib4File6lengthEv@Base 1.4 1
 _ZN6TagLib4File8setValidEb@Base 1.4 1
 _ZN6TagLib4File8truncateEl@Base 1.4 1
 _ZN6TagLib4File9readBlockEm@Base 1.4 1
 _ZN6TagLib4FileC1EPKc@Base 1.4 1
 _ZN6TagLib4FileC2EPKc@Base 1.4 1
 _ZN6TagLib4FileD0Ev@Base 1.4 1
 _ZN6TagLib4FileD1Ev@Base 1.4 1
 _ZN6TagLib4FileD2Ev@Base 1.4 1
 _ZN6TagLib4MPEG10Properties4readEv@Base 1.4 1
 _ZN6TagLib4MPEG10PropertiesC1EPNS0_4FileENS_15AudioProperties9ReadStyleE@Base 1.4 1
 _ZN6TagLib4MPEG10PropertiesC2EPNS0_4FileENS_15AudioProperties9ReadStyleE@Base 1.4 1
 _ZN6TagLib4MPEG10PropertiesD0Ev@Base 1.4 1
 _ZN6TagLib4MPEG10PropertiesD1Ev@Base 1.4 1
 _ZN6TagLib4MPEG10PropertiesD2Ev@Base 1.4 1
 _ZN6TagLib4MPEG10XingHeader16xingHeaderOffsetENS0_6Header7VersionENS2_11ChannelModeE@Base 1.4 1
 _ZN6TagLib4MPEG10XingHeader5parseERKNS_10ByteVectorE@Base 1.4 1
 _ZN6TagLib4MPEG10XingHeaderC1ERKNS_10ByteVectorE@Base 1.4 1
 _ZN6TagLib4MPEG10XingHeaderC2ERKNS_10ByteVectorE@Base 1.4 1
 _ZN6TagLib4MPEG10XingHeaderD0Ev@Base 1.4 1
 _ZN6TagLib4MPEG10XingHeaderD1Ev@Base 1.4 1
 _ZN6TagLib4MPEG10XingHeaderD2Ev@Base 1.4 1
 _ZN6TagLib4MPEG4File15lastFrameOffsetEv@Base 1.4 1
 _ZN6TagLib4MPEG4File15nextFrameOffsetEl@Base 1.4 1
 _ZN6TagLib4MPEG4File15secondSynchByteEc@Base 1.4 1
 _ZN6TagLib4MPEG4File16firstFrameOffsetEv@Base 1.4 1
 _ZN6TagLib4MPEG4File19previousFrameOffsetEl@Base 1.4 1
 _ZN6TagLib4MPEG4File20setID3v2FrameFactoryEPKNS_5ID3v212FrameFactoryE@Base 1.4 1
 _ZN6TagLib4MPEG4File4readEbNS_15AudioProperties9ReadStyleE@Base 1.4 1
 _ZN6TagLib4MPEG4File4saveEi@Base 1.4 1
 _ZN6TagLib4MPEG4File4saveEib@Base 1.4 1
 _ZN6TagLib4MPEG4File4saveEv@Base 1.4 1
 _ZN6TagLib4MPEG4File5stripEi@Base 1.4 1
 _ZN6TagLib4MPEG4File5stripEib@Base 1.4 1
 _ZN6TagLib4MPEG4File6APETagEb@Base 1.4 1
 _ZN6TagLib4MPEG4File7findAPEEv@Base 1.4 1
 _ZN6TagLib4MPEG4File8ID3v1TagEb@Base 1.4 1
 _ZN6TagLib4MPEG4File8ID3v2TagEb@Base 1.4 1
 _ZN6TagLib4MPEG4File9findID3v1Ev@Base 1.4 1
 _ZN6TagLib4MPEG4File9findID3v2Ev@Base 1.4 1
 _ZN6TagLib4MPEG4FileC1EPKcPNS_5ID3v212FrameFactoryEbNS_15AudioProperties9ReadStyleE@Base 1.4 1
 _ZN6TagLib4MPEG4FileC1EPKcbNS_15AudioProperties9ReadStyleE@Base 1.4 1
 _ZN6TagLib4MPEG4FileC2EPKcPNS_5ID3v212FrameFactoryEbNS_15AudioProperties9ReadStyleE@Base 1.4 1
 _ZN6TagLib4MPEG4FileC2EPKcbNS_15AudioProperties9ReadStyleE@Base 1.4 1
 _ZN6TagLib4MPEG4FileD0Ev@Base 1.4 1
 _ZN6TagLib4MPEG4FileD1Ev@Base 1.4 1
 _ZN6TagLib4MPEG4FileD2Ev@Base 1.4 1
 _ZN6TagLib4MPEG6Header5parseERKNS_10ByteVectorE@Base 1.4 1
 _ZN6TagLib4MPEG6HeaderC1ERKNS_10ByteVectorE@Base 1.4 1
 _ZN6TagLib4MPEG6HeaderC1ERKS1_@Base 1.4 1
 _ZN6TagLib4MPEG6HeaderC2ERKNS_10ByteVectorE@Base 1.4 1
 _ZN6TagLib4MPEG6HeaderC2ERKS1_@Base 1.4 1
 _ZN6TagLib4MPEG6HeaderD0Ev@Base 1.4 1
 _ZN6TagLib4MPEG6HeaderD1Ev@Base 1.4 1
 _ZN6TagLib4MPEG6HeaderD2Ev@Base 1.4 1
 _ZN6TagLib4MPEG6HeaderaSERKS1_@Base 1.4 1
 _ZN6TagLib4RIFF3WAV10Properties4readERKNS_10ByteVectorE@Base 1.6
 _ZN6TagLib4RIFF3WAV10PropertiesC1ERKNS_10ByteVectorENS_15AudioProperties9ReadStyleE@Base 1.6
 _ZN6TagLib4RIFF3WAV10PropertiesC1ERKNS_10ByteVectorEjNS_15AudioProperties9ReadStyleE@Base 1.7
 _ZN6TagLib4RIFF3WAV10PropertiesC2ERKNS_10ByteVectorENS_15AudioProperties9ReadStyleE@Base 1.6
 _ZN6TagLib4RIFF3WAV10PropertiesC2ERKNS_10ByteVectorEjNS_15AudioProperties9ReadStyleE@Base 1.7
 _ZN6TagLib4RIFF3WAV10PropertiesD0Ev@Base 1.6
 _ZN6TagLib4RIFF3WAV10PropertiesD1Ev@Base 1.6
 _ZN6TagLib4RIFF3WAV10PropertiesD2Ev@Base 1.6
 _ZN6TagLib4RIFF3WAV4File4readEbNS_15AudioProperties9ReadStyleE@Base 1.6
 _ZN6TagLib4RIFF3WAV4File4saveEv@Base 1.6
 _ZN6TagLib4RIFF3WAV4FileC1EPKcbNS_15AudioProperties9ReadStyleE@Base 1.6
 _ZN6TagLib4RIFF3WAV4FileC2EPKcbNS_15AudioProperties9ReadStyleE@Base 1.6
 _ZN6TagLib4RIFF3WAV4FileD0Ev@Base 1.6
 _ZN6TagLib4RIFF3WAV4FileD1Ev@Base 1.6
 _ZN6TagLib4RIFF3WAV4FileD2Ev@Base 1.6
 _ZN6TagLib4RIFF4AIFF10Properties4readERKNS_10ByteVectorE@Base 1.6
 _ZN6TagLib4RIFF4AIFF10PropertiesC1ERKNS_10ByteVectorENS_15AudioProperties9ReadStyleE@Base 1.6
 _ZN6TagLib4RIFF4AIFF10PropertiesC2ERKNS_10ByteVectorENS_15AudioProperties9ReadStyleE@Base 1.6
 _ZN6TagLib4RIFF4AIFF10PropertiesD0Ev@Base 1.6
 _ZN6TagLib4RIFF4AIFF10PropertiesD1Ev@Base 1.6
 _ZN6TagLib4RIFF4AIFF10PropertiesD2Ev@Base 1.6
 _ZN6TagLib4RIFF4AIFF4File4readEbNS_15AudioProperties9ReadStyleE@Base 1.6
 _ZN6TagLib4RIFF4AIFF4File4saveEv@Base 1.6
 _ZN6TagLib4RIFF4AIFF4FileC1EPKcbNS_15AudioProperties9ReadStyleE@Base 1.6
 _ZN6TagLib4RIFF4AIFF4FileC2EPKcbNS_15AudioProperties9ReadStyleE@Base 1.6
 _ZN6TagLib4RIFF4AIFF4FileD0Ev@Base 1.6
 _ZN6TagLib4RIFF4AIFF4FileD1Ev@Base 1.6
 _ZN6TagLib4RIFF4AIFF4FileD2Ev@Base 1.6
 _ZN6TagLib4RIFF4File10writeChunkERKNS_10ByteVectorES4_mmj@Base 1.7
 _ZN6TagLib4RIFF4File11FilePrivateD1Ev@Base 1.7-1ubuntu5
 _ZN6TagLib4RIFF4File11FilePrivateD2Ev@Base 1.7-1ubuntu5
 _ZN6TagLib4RIFF4File12setChunkDataERKNS_10ByteVectorES4_@Base 1.6
 _ZN6TagLib4RIFF4File4readEv@Base 1.6
 _ZN6TagLib4RIFF4File9chunkDataEj@Base 1.6
 _ZN6TagLib4RIFF4FileC1EPKcNS1_10EndiannessE@Base 1.6
 _ZN6TagLib4RIFF4FileC2EPKcNS1_10EndiannessE@Base 1.6
 _ZN6TagLib4RIFF4FileD0Ev@Base 1.6
 _ZN6TagLib4RIFF4FileD1Ev@Base 1.6
 _ZN6TagLib4RIFF4FileD2Ev@Base 1.6
 _ZN6TagLib5ID3v110genreIndexERKNS_6StringE@Base 1.4 1
 _ZN6TagLib5ID3v113StringHandlerC1Ev@Base 1.7-1ubuntu5
 _ZN6TagLib5ID3v113StringHandlerC2Ev@Base 1.7-1ubuntu5
 _ZN6TagLib5ID3v13Tag10TagPrivate13stringHandlerE@Base 1.4 1
 _ZN6TagLib5ID3v13Tag10TagPrivateD1Ev@Base 1.7-1ubuntu5
 _ZN6TagLib5ID3v13Tag10TagPrivateD2Ev@Base 1.7-1ubuntu5
 _ZN6TagLib5ID3v13Tag10setCommentERKNS_6StringE@Base 1.4 1
 _ZN6TagLib5ID3v13Tag14fileIdentifierEv@Base 1.4 1
 _ZN6TagLib5ID3v13Tag16setStringHandlerEPKNS0_13StringHandlerE@Base 1.4 1
 _ZN6TagLib5ID3v13Tag4readEv@Base 1.4 1
 _ZN6TagLib5ID3v13Tag5parseERKNS_10ByteVectorE@Base 1.4 1
 _ZN6TagLib5ID3v13Tag7setYearEj@Base 1.4 1
 _ZN6TagLib5ID3v13Tag8setAlbumERKNS_6StringE@Base 1.4 1
 _ZN6TagLib5ID3v13Tag8setGenreERKNS_6StringE@Base 1.4 1
 _ZN6TagLib5ID3v13Tag8setTitleERKNS_6StringE@Base 1.4 1
 _ZN6TagLib5ID3v13Tag8setTrackEj@Base 1.4 1
 _ZN6TagLib5ID3v13Tag9setArtistERKNS_6StringE@Base 1.4 1
 _ZN6TagLib5ID3v13TagC1EPNS_4FileEl@Base 1.4 1
 _ZN6TagLib5ID3v13TagC1Ev@Base 1.4 1
 _ZN6TagLib5ID3v13TagC2EPNS_4FileEl@Base 1.4 1
 _ZN6TagLib5ID3v13TagC2Ev@Base 1.4 1
 _ZN6TagLib5ID3v13TagD0Ev@Base 1.4 1
 _ZN6TagLib5ID3v13TagD1Ev@Base 1.4 1
 _ZN6TagLib5ID3v13TagD2Ev@Base 1.4 1
 _ZN6TagLib5ID3v15genreEi@Base 1.4 1
 _ZN6TagLib5ID3v18genreMapEv@Base 1.4 1
 _ZN6TagLib5ID3v19genreListEv@Base 1.4 1
 _ZN6TagLib5ID3v212FrameFactory19FrameFactoryPrivate15setTextEncodingINS0_13CommentsFrameEEEvPT_@Base 1.7-1ubuntu5
 _ZN6TagLib5ID3v212FrameFactory19FrameFactoryPrivate15setTextEncodingINS0_16UserUrlLinkFrameEEEvPT_@Base 1.7-1ubuntu5
 _ZN6TagLib5ID3v212FrameFactory19FrameFactoryPrivate15setTextEncodingINS0_20AttachedPictureFrameEEEvPT_@Base 1.7-1ubuntu5
 _ZN6TagLib5ID3v212FrameFactory19FrameFactoryPrivate15setTextEncodingINS0_23TextIdentificationFrameEEEvPT_@Base 1.7-1ubuntu5
 _ZN6TagLib5ID3v212FrameFactory19FrameFactoryPrivate15setTextEncodingINS0_30GeneralEncapsulatedObjectFrameEEEvPT_@Base 1.7-1ubuntu5
 _ZN6TagLib5ID3v212FrameFactory22setDefaultTextEncodingENS_6String4TypeE@Base 1.4 1
 _ZN6TagLib5ID3v212FrameFactory7factoryE@Base 1.4 1
 _ZN6TagLib5ID3v212FrameFactory8instanceEv@Base 1.4 1
 _ZN6TagLib5ID3v212FrameFactoryC1Ev@Base 1.4 1
 _ZN6TagLib5ID3v212FrameFactoryC2Ev@Base 1.4 1
 _ZN6TagLib5ID3v212FrameFactoryD0Ev@Base 1.4 1
 _ZN6TagLib5ID3v212FrameFactoryD1Ev@Base 1.4 1
 _ZN6TagLib5ID3v212FrameFactoryD2Ev@Base 1.4 1
 _ZN6TagLib5ID3v212PrivateFrame11parseFieldsERKNS_10ByteVectorE@Base 1.6
 _ZN6TagLib5ID3v212PrivateFrame19PrivateFramePrivateC1Ev@Base 1.7-1ubuntu5
 _ZN6TagLib5ID3v212PrivateFrame19PrivateFramePrivateC2Ev@Base 1.7-1ubuntu5
 _ZN6TagLib5ID3v212PrivateFrame19PrivateFramePrivateD1Ev@Base 1.7-1ubuntu5
 _ZN6TagLib5ID3v212PrivateFrame19PrivateFramePrivateD2Ev@Base 1.7-1ubuntu5
 _ZN6TagLib5ID3v212PrivateFrame7setDataERKNS_10ByteVectorE@Base 1.6
 _ZN6TagLib5ID3v212PrivateFrame8setOwnerERKNS_6StringE@Base 1.6
 _ZN6TagLib5ID3v212PrivateFrameC1ERKNS_10ByteVectorE@Base 1.6
 _ZN6TagLib5ID3v212PrivateFrameC1ERKNS_10ByteVectorEPNS0_5Frame6HeaderE@Base 1.6
 _ZN6TagLib5ID3v212PrivateFrameC1Ev@Base 1.6
 _ZN6TagLib5ID3v212PrivateFrameC2ERKNS_10ByteVectorE@Base 1.6
 _ZN6TagLib5ID3v212PrivateFrameC2ERKNS_10ByteVectorEPNS0_5Frame6HeaderE@Base 1.6
 _ZN6TagLib5ID3v212PrivateFrameC2Ev@Base 1.6
 _ZN6TagLib5ID3v212PrivateFrameD0Ev@Base 1.6
 _ZN6TagLib5ID3v212PrivateFrameD1Ev@Base 1.6
 _ZN6TagLib5ID3v212PrivateFrameD2Ev@Base 1.6
 _ZN6TagLib5ID3v212UnknownFrame11parseFieldsERKNS_10ByteVectorE@Base 1.4 1
 _ZN6TagLib5ID3v212UnknownFrame19UnknownFramePrivateC1Ev@Base 1.7-1ubuntu5
 _ZN6TagLib5ID3v212UnknownFrame19UnknownFramePrivateC2Ev@Base 1.7-1ubuntu5
 _ZN6TagLib5ID3v212UnknownFrame19UnknownFramePrivateD1Ev@Base 1.7-1ubuntu5
 _ZN6TagLib5ID3v212UnknownFrame19UnknownFramePrivateD2Ev@Base 1.7-1ubuntu5
 _ZN6TagLib5ID3v212UnknownFrameC1ERKNS_10ByteVectorE@Base 1.4 1
 _ZN6TagLib5ID3v212UnknownFrameC1ERKNS_10ByteVectorEPNS0_5Frame6HeaderE@Base 1.4 1
 _ZN6TagLib5ID3v212UnknownFrameC2ERKNS_10ByteVectorE@Base 1.4 1
 _ZN6TagLib5ID3v212UnknownFrameC2ERKNS_10ByteVectorEPNS0_5Frame6HeaderE@Base 1.4 1
 _ZN6TagLib5ID3v212UnknownFrameD0Ev@Base 1.4 1
 _ZN6TagLib5ID3v212UnknownFrameD1Ev@Base 1.4 1
 _ZN6TagLib5ID3v212UnknownFrameD2Ev@Base 1.4 1
 _ZN6TagLib5ID3v212UrlLinkFrame11parseFieldsERKNS_10ByteVectorE@Base 1.5
 _ZN6TagLib5ID3v212UrlLinkFrame19UrlLinkFramePrivateC1Ev@Base 1.7-1ubuntu5
 _ZN6TagLib5ID3v212UrlLinkFrame19UrlLinkFramePrivateC2Ev@Base 1.7-1ubuntu5
 _ZN6TagLib5ID3v212UrlLinkFrame19UrlLinkFramePrivateD1Ev@Base 1.7-1ubuntu5
 _ZN6TagLib5ID3v212UrlLinkFrame19UrlLinkFramePrivateD2Ev@Base 1.7-1ubuntu5
 _ZN6TagLib5ID3v212UrlLinkFrame6setUrlERKNS_6StringE@Base 1.5
 _ZN6TagLib5ID3v212UrlLinkFrame7setTextERKNS_6StringE@Base 1.5
 _ZN6TagLib5ID3v212UrlLinkFrameC1ERKNS_10ByteVectorE@Base 1.5
 _ZN6TagLib5ID3v212UrlLinkFrameC1ERKNS_10ByteVectorEPNS0_5Frame6HeaderE@Base 1.5
 _ZN6TagLib5ID3v212UrlLinkFrameC2ERKNS_10ByteVectorE@Base 1.5
 _ZN6TagLib5ID3v212UrlLinkFrameC2ERKNS_10ByteVectorEPNS0_5Frame6HeaderE@Base 1.5
 _ZN6TagLib5ID3v212UrlLinkFrameD0Ev@Base 1.5
 _ZN6TagLib5ID3v212UrlLinkFrameD1Ev@Base 1.5
 _ZN6TagLib5ID3v212UrlLinkFrameD2Ev@Base 1.5
 _ZN6TagLib5ID3v213CommentsFrame11parseFieldsERKNS_10ByteVectorE@Base 1.4 1
 _ZN6TagLib5ID3v213CommentsFrame11setLanguageERKNS_10ByteVectorE@Base 1.4 1
 _ZN6TagLib5ID3v213CommentsFrame14setDescriptionERKNS_6StringE@Base 1.4 1
 _ZN6TagLib5ID3v213CommentsFrame15setTextEncodingENS_6String4TypeE@Base 1.4 1
 _ZN6TagLib5ID3v213CommentsFrame17findByDescriptionEPKNS0_3TagERKNS_6StringE@Base 1.5
 _ZN6TagLib5ID3v213CommentsFrame20CommentsFramePrivateD1Ev@Base 1.7-1ubuntu5
 _ZN6TagLib5ID3v213CommentsFrame20CommentsFramePrivateD2Ev@Base 1.7-1ubuntu5
 _ZN6TagLib5ID3v213CommentsFrame7setTextERKNS_6StringE@Base 1.4 1
 _ZN6TagLib5ID3v213CommentsFrameC1ENS_6String4TypeE@Base 1.4 1
 _ZN6TagLib5ID3v213CommentsFrameC1ERKNS_10ByteVectorE@Base 1.4 1
 _ZN6TagLib5ID3v213CommentsFrameC1ERKNS_10ByteVectorEPNS0_5Frame6HeaderE@Base 1.4 1
 _ZN6TagLib5ID3v213CommentsFrameC2ENS_6String4TypeE@Base 1.4 1
 _ZN6TagLib5ID3v213CommentsFrameC2ERKNS_10ByteVectorE@Base 1.4 1
 _ZN6TagLib5ID3v213CommentsFrameC2ERKNS_10ByteVectorEPNS0_5Frame6HeaderE@Base 1.4 1
 _ZN6TagLib5ID3v213CommentsFrameD0Ev@Base 1.4 1
 _ZN6TagLib5ID3v213CommentsFrameD1Ev@Base 1.4 1
 _ZN6TagLib5ID3v213CommentsFrameD2Ev@Base 1.4 1
 _ZN6TagLib5ID3v214ExtendedHeader5parseERKNS_10ByteVectorE@Base 1.4 1
 _ZN6TagLib5ID3v214ExtendedHeader7setDataERKNS_10ByteVectorE@Base 1.4 1
 _ZN6TagLib5ID3v214ExtendedHeaderC1Ev@Base 1.4 1
 _ZN6TagLib5ID3v214ExtendedHeaderC2Ev@Base 1.4 1
 _ZN6TagLib5ID3v214ExtendedHeaderD0Ev@Base 1.4 1
 _ZN6TagLib5ID3v214ExtendedHeaderD1Ev@Base 1.4 1
 _ZN6TagLib5ID3v214ExtendedHeaderD2Ev@Base 1.4 1
 _ZN6TagLib5ID3v216UserUrlLinkFrame11parseFieldsERKNS_10ByteVectorE@Base 1.5
 _ZN6TagLib5ID3v216UserUrlLinkFrame14setDescriptionERKNS_6StringE@Base 1.5
 _ZN6TagLib5ID3v216UserUrlLinkFrame15setTextEncodingENS_6String4TypeE@Base 1.5
 _ZN6TagLib5ID3v216UserUrlLinkFrame23UserUrlLinkFramePrivateD1Ev@Base 1.7-1ubuntu5
 _ZN6TagLib5ID3v216UserUrlLinkFrame23UserUrlLinkFramePrivateD2Ev@Base 1.7-1ubuntu5
 _ZN6TagLib5ID3v216UserUrlLinkFrameC1ENS_6String4TypeE@Base 1.5
 _ZN6TagLib5ID3v216UserUrlLinkFrameC1ERKNS_10ByteVectorE@Base 1.5
 _ZN6TagLib5ID3v216UserUrlLinkFrameC1ERKNS_10ByteVectorEPNS0_5Frame6HeaderE@Base 1.5
 _ZN6TagLib5ID3v216UserUrlLinkFrameC2ENS_6String4TypeE@Base 1.5
 _ZN6TagLib5ID3v216UserUrlLinkFrameC2ERKNS_10ByteVectorE@Base 1.5
 _ZN6TagLib5ID3v216UserUrlLinkFrameC2ERKNS_10ByteVectorEPNS0_5Frame6HeaderE@Base 1.5
 _ZN6TagLib5ID3v216UserUrlLinkFrameD0Ev@Base 1.5
 _ZN6TagLib5ID3v216UserUrlLinkFrameD1Ev@Base 1.5
 _ZN6TagLib5ID3v216UserUrlLinkFrameD2Ev@Base 1.5
 _ZN6TagLib5ID3v218PopularimeterFrame10setCounterEj@Base 1.6
 _ZN6TagLib5ID3v218PopularimeterFrame11parseFieldsERKNS_10ByteVectorE@Base 1.6
 _ZN6TagLib5ID3v218PopularimeterFrame25PopularimeterFramePrivateD1Ev@Base 1.7-1ubuntu5
 _ZN6TagLib5ID3v218PopularimeterFrame25PopularimeterFramePrivateD2Ev@Base 1.7-1ubuntu5
 _ZN6TagLib5ID3v218PopularimeterFrame8setEmailERKNS_6StringE@Base 1.6
 _ZN6TagLib5ID3v218PopularimeterFrame9setRatingEi@Base 1.6
 _ZN6TagLib5ID3v218PopularimeterFrameC1ERKNS_10ByteVectorE@Base 1.6
 _ZN6TagLib5ID3v218PopularimeterFrameC1ERKNS_10ByteVectorEPNS0_5Frame6HeaderE@Base 1.6
 _ZN6TagLib5ID3v218PopularimeterFrameC1Ev@Base 1.6
 _ZN6TagLib5ID3v218PopularimeterFrameC2ERKNS_10ByteVectorE@Base 1.6
 _ZN6TagLib5ID3v218PopularimeterFrameC2ERKNS_10ByteVectorEPNS0_5Frame6HeaderE@Base 1.6
 _ZN6TagLib5ID3v218PopularimeterFrameC2Ev@Base 1.6
 _ZN6TagLib5ID3v218PopularimeterFrameD0Ev@Base 1.6
 _ZN6TagLib5ID3v218PopularimeterFrameD1Ev@Base 1.6
 _ZN6TagLib5ID3v218PopularimeterFrameD2Ev@Base 1.6
 _ZN6TagLib5ID3v219RelativeVolumeFrame10PeakVolumeC1ERKS2_@Base 1.7-1ubuntu5
 _ZN6TagLib5ID3v219RelativeVolumeFrame10PeakVolumeC2ERKS2_@Base 1.7-1ubuntu5
 _ZN6TagLib5ID3v219RelativeVolumeFrame10PeakVolumeD1Ev@Base 1.7-1ubuntu5
 _ZN6TagLib5ID3v219RelativeVolumeFrame10PeakVolumeD2Ev@Base 1.7-1ubuntu5
 _ZN6TagLib5ID3v219RelativeVolumeFrame10PeakVolumeaSERKS2_@Base 1.7-1ubuntu5
 _ZN6TagLib5ID3v219RelativeVolumeFrame11parseFieldsERKNS_10ByteVectorE@Base 1.4 1
 _ZN6TagLib5ID3v219RelativeVolumeFrame13setPeakVolumeERKNS1_10PeakVolumeE@Base 1.4 1
 _ZN6TagLib5ID3v219RelativeVolumeFrame13setPeakVolumeERKNS1_10PeakVolumeENS1_11ChannelTypeE@Base 1.4 1
 _ZN6TagLib5ID3v219RelativeVolumeFrame14setChannelTypeENS1_11ChannelTypeE@Base 1.4 1
 _ZN6TagLib5ID3v219RelativeVolumeFrame17setIdentificationERKNS_6StringE@Base 1.5
 _ZN6TagLib5ID3v219RelativeVolumeFrame19setVolumeAdjustmentEf@Base 1.4 1
 _ZN6TagLib5ID3v219RelativeVolumeFrame19setVolumeAdjustmentEfNS1_11ChannelTypeE@Base 1.4 1
 _ZN6TagLib5ID3v219RelativeVolumeFrame24setVolumeAdjustmentIndexEs@Base 1.4 1
 _ZN6TagLib5ID3v219RelativeVolumeFrame24setVolumeAdjustmentIndexEsNS1_11ChannelTypeE@Base 1.4 1
 _ZN6TagLib5ID3v219RelativeVolumeFrame26RelativeVolumeFramePrivateC1Ev@Base 1.7-1ubuntu5
 _ZN6TagLib5ID3v219RelativeVolumeFrame26RelativeVolumeFramePrivateC2Ev@Base 1.7-1ubuntu5
 _ZN6TagLib5ID3v219RelativeVolumeFrame26RelativeVolumeFramePrivateD1Ev@Base 1.7-1ubuntu5
 _ZN6TagLib5ID3v219RelativeVolumeFrame26RelativeVolumeFramePrivateD2Ev@Base 1.7-1ubuntu5
 _ZN6TagLib5ID3v219RelativeVolumeFrameC1ERKNS_10ByteVectorE@Base 1.4 1
 _ZN6TagLib5ID3v219RelativeVolumeFrameC1ERKNS_10ByteVectorEPNS0_5Frame6HeaderE@Base 1.4 1
 _ZN6TagLib5ID3v219RelativeVolumeFrameC1Ev@Base 1.5
 _ZN6TagLib5ID3v219RelativeVolumeFrameC2ERKNS_10ByteVectorE@Base 1.4 1
 _ZN6TagLib5ID3v219RelativeVolumeFrameC2ERKNS_10ByteVectorEPNS0_5Frame6HeaderE@Base 1.4 1
 _ZN6TagLib5ID3v219RelativeVolumeFrameC2Ev@Base 1.5
 _ZN6TagLib5ID3v219RelativeVolumeFrameD0Ev@Base 1.4 1
 _ZN6TagLib5ID3v219RelativeVolumeFrameD1Ev@Base 1.4 1
 _ZN6TagLib5ID3v219RelativeVolumeFrameD2Ev@Base 1.4 1
 _ZN6TagLib5ID3v220AttachedPictureFrame10setPictureERKNS_10ByteVectorE@Base 1.4 1
 _ZN6TagLib5ID3v220AttachedPictureFrame11parseFieldsERKNS_10ByteVectorE@Base 1.4 1
 _ZN6TagLib5ID3v220AttachedPictureFrame11setMimeTypeERKNS_6StringE@Base 1.4 1
 _ZN6TagLib5ID3v220AttachedPictureFrame14setDescriptionERKNS_6StringE@Base 1.4 1
 _ZN6TagLib5ID3v220AttachedPictureFrame15setTextEncodingENS_6String4TypeE@Base 1.4 1
 _ZN6TagLib5ID3v220AttachedPictureFrame27AttachedPictureFramePrivateD1Ev@Base 1.7-1ubuntu5
 _ZN6TagLib5ID3v220AttachedPictureFrame27AttachedPictureFramePrivateD2Ev@Base 1.7-1ubuntu5
 _ZN6TagLib5ID3v220AttachedPictureFrame7setTypeENS1_4TypeE@Base 1.4 1
 _ZN6TagLib5ID3v220AttachedPictureFrameC1ERKNS_10ByteVectorE@Base 1.4 1
 _ZN6TagLib5ID3v220AttachedPictureFrameC1ERKNS_10ByteVectorEPNS0_5Frame6HeaderE@Base 1.4 1
 _ZN6TagLib5ID3v220AttachedPictureFrameC1Ev@Base 1.4 1
 _ZN6TagLib5ID3v220AttachedPictureFrameC2ERKNS_10ByteVectorE@Base 1.4 1
 _ZN6TagLib5ID3v220AttachedPictureFrameC2ERKNS_10ByteVectorEPNS0_5Frame6HeaderE@Base 1.4 1
 _ZN6TagLib5ID3v220AttachedPictureFrameC2Ev@Base 1.4 1
 _ZN6TagLib5ID3v220AttachedPictureFrameD0Ev@Base 1.4 1
 _ZN6TagLib5ID3v220AttachedPictureFrameD1Ev@Base 1.4 1
 _ZN6TagLib5ID3v220AttachedPictureFrameD2Ev@Base 1.4 1
 _ZN6TagLib5ID3v223AttachedPictureFrameV2211parseFieldsERKNS_10ByteVectorE@Base 1.6
 _ZN6TagLib5ID3v223AttachedPictureFrameV22C1ERKNS_10ByteVectorEPNS0_5Frame6HeaderE@Base 1.6
 _ZN6TagLib5ID3v223AttachedPictureFrameV22C2ERKNS_10ByteVectorEPNS0_5Frame6HeaderE@Base 1.6
 _ZN6TagLib5ID3v223AttachedPictureFrameV22D0Ev@Base 1.7-1ubuntu5
 _ZN6TagLib5ID3v223AttachedPictureFrameV22D1Ev@Base 1.7-1ubuntu5
 _ZN6TagLib5ID3v223AttachedPictureFrameV22D2Ev@Base 1.7-1ubuntu5
 _ZN6TagLib5ID3v223TextIdentificationFrame11parseFieldsERKNS_10ByteVectorE@Base 1.4 1
 _ZN6TagLib5ID3v223TextIdentificationFrame15setTextEncodingENS_6String4TypeE@Base 1.4 1
 _ZN6TagLib5ID3v223TextIdentificationFrame30TextIdentificationFramePrivateD1Ev@Base 1.7-1ubuntu5
 _ZN6TagLib5ID3v223TextIdentificationFrame30TextIdentificationFramePrivateD2Ev@Base 1.7-1ubuntu5
 _ZN6TagLib5ID3v223TextIdentificationFrame7setTextERKNS_10StringListE@Base 1.4 1
 _ZN6TagLib5ID3v223TextIdentificationFrame7setTextERKNS_6StringE@Base 1.4 1
 _ZN6TagLib5ID3v223TextIdentificationFrameC1ERKNS_10ByteVectorE@Base 1.4 1
 _ZN6TagLib5ID3v223TextIdentificationFrameC1ERKNS_10ByteVectorENS_6String4TypeE@Base 1.4 1
 _ZN6TagLib5ID3v223TextIdentificationFrameC1ERKNS_10ByteVectorEPNS0_5Frame6HeaderE@Base 1.4 1
 _ZN6TagLib5ID3v223TextIdentificationFrameC2ERKNS_10ByteVectorE@Base 1.4 1
 _ZN6TagLib5ID3v223TextIdentificationFrameC2ERKNS_10ByteVectorENS_6String4TypeE@Base 1.4 1
 _ZN6TagLib5ID3v223TextIdentificationFrameC2ERKNS_10ByteVectorEPNS0_5Frame6HeaderE@Base 1.4 1
 _ZN6TagLib5ID3v223TextIdentificationFrameD0Ev@Base 1.4 1
 _ZN6TagLib5ID3v223TextIdentificationFrameD1Ev@Base 1.4 1
 _ZN6TagLib5ID3v223TextIdentificationFrameD2Ev@Base 1.4 1
 _ZN6TagLib5ID3v225UniqueFileIdentifierFrame11parseFieldsERKNS_10ByteVectorE@Base 1.4 1
 _ZN6TagLib5ID3v225UniqueFileIdentifierFrame13setIdentifierERKNS_10ByteVectorE@Base 1.4 1
 _ZN6TagLib5ID3v225UniqueFileIdentifierFrame32UniqueFileIdentifierFramePrivateC1Ev@Base 1.7-1ubuntu5
 _ZN6TagLib5ID3v225UniqueFileIdentifierFrame32UniqueFileIdentifierFramePrivateC2Ev@Base 1.7-1ubuntu5
 _ZN6TagLib5ID3v225UniqueFileIdentifierFrame32UniqueFileIdentifierFramePrivateD1Ev@Base 1.7-1ubuntu5
 _ZN6TagLib5ID3v225UniqueFileIdentifierFrame32UniqueFileIdentifierFramePrivateD2Ev@Base 1.7-1ubuntu5
 _ZN6TagLib5ID3v225UniqueFileIdentifierFrame8setOwnerERKNS_6StringE@Base 1.4 1
 _ZN6TagLib5ID3v225UniqueFileIdentifierFrameC1ERKNS_10ByteVectorE@Base 1.4 1
 _ZN6TagLib5ID3v225UniqueFileIdentifierFrameC1ERKNS_10ByteVectorEPNS0_5Frame6HeaderE@Base 1.4 1
 _ZN6TagLib5ID3v225UniqueFileIdentifierFrameC1ERKNS_6StringERKNS_10ByteVectorE@Base 1.4 1
 _ZN6TagLib5ID3v225UniqueFileIdentifierFrameC2ERKNS_10ByteVectorE@Base 1.4 1
 _ZN6TagLib5ID3v225UniqueFileIdentifierFrameC2ERKNS_10ByteVectorEPNS0_5Frame6HeaderE@Base 1.4 1
 _ZN6TagLib5ID3v225UniqueFileIdentifierFrameC2ERKNS_6StringERKNS_10ByteVectorE@Base 1.4 1
 _ZN6TagLib5ID3v225UniqueFileIdentifierFrameD0Ev@Base 1.4 1
 _ZN6TagLib5ID3v225UniqueFileIdentifierFrameD1Ev@Base 1.4 1
 _ZN6TagLib5ID3v225UniqueFileIdentifierFrameD2Ev@Base 1.5
 _ZN6TagLib5ID3v225UnsynchronizedLyricsFrame11parseFieldsERKNS_10ByteVectorE@Base 1.5
 _ZN6TagLib5ID3v225UnsynchronizedLyricsFrame11setLanguageERKNS_10ByteVectorE@Base 1.5
 _ZN6TagLib5ID3v225UnsynchronizedLyricsFrame14setDescriptionERKNS_6StringE@Base 1.5
 _ZN6TagLib5ID3v225UnsynchronizedLyricsFrame15setTextEncodingENS_6String4TypeE@Base 1.5
 _ZN6TagLib5ID3v225UnsynchronizedLyricsFrame32UnsynchronizedLyricsFramePrivateD1Ev@Base 1.7-1ubuntu5
 _ZN6TagLib5ID3v225UnsynchronizedLyricsFrame32UnsynchronizedLyricsFramePrivateD2Ev@Base 1.7-1ubuntu5
 _ZN6TagLib5ID3v225UnsynchronizedLyricsFrame7setTextERKNS_6StringE@Base 1.5
 _ZN6TagLib5ID3v225UnsynchronizedLyricsFrameC1ENS_6String4TypeE@Base 1.5
 _ZN6TagLib5ID3v225UnsynchronizedLyricsFrameC1ERKNS_10ByteVectorE@Base 1.5
 _ZN6TagLib5ID3v225UnsynchronizedLyricsFrameC1ERKNS_10ByteVectorEPNS0_5Frame6HeaderE@Base 1.5
 _ZN6TagLib5ID3v225UnsynchronizedLyricsFrameC2ENS_6String4TypeE@Base 1.5
 _ZN6TagLib5ID3v225UnsynchronizedLyricsFrameC2ERKNS_10ByteVectorE@Base 1.5
 _ZN6TagLib5ID3v225UnsynchronizedLyricsFrameC2ERKNS_10ByteVectorEPNS0_5Frame6HeaderE@Base 1.5
 _ZN6TagLib5ID3v225UnsynchronizedLyricsFrameD0Ev@Base 1.5
 _ZN6TagLib5ID3v225UnsynchronizedLyricsFrameD1Ev@Base 1.5
 _ZN6TagLib5ID3v225UnsynchronizedLyricsFrameD2Ev@Base 1.5
 _ZN6TagLib5ID3v227UserTextIdentificationFrame11checkFieldsEv@Base 1.5
 _ZN6TagLib5ID3v227UserTextIdentificationFrame14setDescriptionERKNS_6StringE@Base 1.4 1
 _ZN6TagLib5ID3v227UserTextIdentificationFrame4findEPNS0_3TagERKNS_6StringE@Base 1.5
 _ZN6TagLib5ID3v227UserTextIdentificationFrame7setTextERKNS_10StringListE@Base 1.4 1
 _ZN6TagLib5ID3v227UserTextIdentificationFrame7setTextERKNS_6StringE@Base 1.4 1
 _ZN6TagLib5ID3v227UserTextIdentificationFrameC1ENS_6String4TypeE@Base 1.4 1
 _ZN6TagLib5ID3v227UserTextIdentificationFrameC1ERKNS_10ByteVectorE@Base 1.4 1
 _ZN6TagLib5ID3v227UserTextIdentificationFrameC1ERKNS_10ByteVectorEPNS0_5Frame6HeaderE@Base 1.4 1
 _ZN6TagLib5ID3v227UserTextIdentificationFrameC2ENS_6String4TypeE@Base 1.4 1
 _ZN6TagLib5ID3v227UserTextIdentificationFrameC2ERKNS_10ByteVectorE@Base 1.4 1
 _ZN6TagLib5ID3v227UserTextIdentificationFrameC2ERKNS_10ByteVectorEPNS0_5Frame6HeaderE@Base 1.4 1
 _ZN6TagLib5ID3v227UserTextIdentificationFrameD0Ev@Base 1.7-1ubuntu5
 _ZN6TagLib5ID3v227UserTextIdentificationFrameD1Ev@Base 1.7-1ubuntu5
 _ZN6TagLib5ID3v227UserTextIdentificationFrameD2Ev@Base 1.7-1ubuntu5
 _ZN6TagLib5ID3v230GeneralEncapsulatedObjectFrame11parseFieldsERKNS_10ByteVectorE@Base 1.5
 _ZN6TagLib5ID3v230GeneralEncapsulatedObjectFrame11setFileNameERKNS_6StringE@Base 1.5
 _ZN6TagLib5ID3v230GeneralEncapsulatedObjectFrame11setMimeTypeERKNS_6StringE@Base 1.5
 _ZN6TagLib5ID3v230GeneralEncapsulatedObjectFrame14setDescriptionERKNS_6StringE@Base 1.5
 _ZN6TagLib5ID3v230GeneralEncapsulatedObjectFrame15setTextEncodingENS_6String4TypeE@Base 1.5
 _ZN6TagLib5ID3v230GeneralEncapsulatedObjectFrame37GeneralEncapsulatedObjectFramePrivateD1Ev@Base 1.7-1ubuntu5
 _ZN6TagLib5ID3v230GeneralEncapsulatedObjectFrame37GeneralEncapsulatedObjectFramePrivateD2Ev@Base 1.7-1ubuntu5
 _ZN6TagLib5ID3v230GeneralEncapsulatedObjectFrame9setObjectERKNS_10ByteVectorE@Base 1.5
 _ZN6TagLib5ID3v230GeneralEncapsulatedObjectFrameC1ERKNS_10ByteVectorE@Base 1.5
 _ZN6TagLib5ID3v230GeneralEncapsulatedObjectFrameC1ERKNS_10ByteVectorEPNS0_5Frame6HeaderE@Base 1.5
 _ZN6TagLib5ID3v230GeneralEncapsulatedObjectFrameC1Ev@Base 1.5
 _ZN6TagLib5ID3v230GeneralEncapsulatedObjectFrameC2ERKNS_10ByteVectorE@Base 1.5
 _ZN6TagLib5ID3v230GeneralEncapsulatedObjectFrameC2ERKNS_10ByteVectorEPNS0_5Frame6HeaderE@Base 1.5
 _ZN6TagLib5ID3v230GeneralEncapsulatedObjectFrameC2Ev@Base 1.5
 _ZN6TagLib5ID3v230GeneralEncapsulatedObjectFrameD0Ev@Base 1.5
 _ZN6TagLib5ID3v230GeneralEncapsulatedObjectFrameD1Ev@Base 1.5
 _ZN6TagLib5ID3v230GeneralEncapsulatedObjectFrameD2Ev@Base 1.5
 _ZN6TagLib5ID3v23Tag10setCommentERKNS_6StringE@Base 1.4 1
 _ZN6TagLib5ID3v23Tag11removeFrameEPNS0_5FrameEb@Base 1.4 1
 _ZN6TagLib5ID3v23Tag12removeFramesERKNS_10ByteVectorE@Base 1.4 1
 _ZN6TagLib5ID3v23Tag12setTextFrameERKNS_10ByteVectorERKNS_6StringE@Base 1.4 1
 _ZN6TagLib5ID3v23Tag4readEv@Base 1.4 1
 _ZN6TagLib5ID3v23Tag5parseERKNS_10ByteVectorE@Base 1.4 1
 _ZN6TagLib5ID3v23Tag7setYearEj@Base 1.4 1
 _ZN6TagLib5ID3v23Tag8addFrameEPNS0_5FrameE@Base 1.4 1
 _ZN6TagLib5ID3v23Tag8setAlbumERKNS_6StringE@Base 1.4 1
 _ZN6TagLib5ID3v23Tag8setGenreERKNS_6StringE@Base 1.4 1
 _ZN6TagLib5ID3v23Tag8setTitleERKNS_6StringE@Base 1.4 1
 _ZN6TagLib5ID3v23Tag8setTrackEj@Base 1.4 1
 _ZN6TagLib5ID3v23Tag9setArtistERKNS_6StringE@Base 1.4 1
 _ZN6TagLib5ID3v23TagC1EPNS_4FileElPKNS0_12FrameFactoryE@Base 1.4 1
 _ZN6TagLib5ID3v23TagC1Ev@Base 1.4 1
 _ZN6TagLib5ID3v23TagC2EPNS_4FileElPKNS0_12FrameFactoryE@Base 1.4 1
 _ZN6TagLib5ID3v23TagC2Ev@Base 1.4 1
 _ZN6TagLib5ID3v23TagD0Ev@Base 1.4 1
 _ZN6TagLib5ID3v23TagD1Ev@Base 1.4 1
 _ZN6TagLib5ID3v23TagD2Ev@Base 1.4 1
 _ZN6TagLib5ID3v25Frame10headerSizeEj@Base 1.4 1
 _ZN6TagLib5ID3v25Frame10headerSizeEv@Base 1.4 1
 _ZN6TagLib5ID3v25Frame13checkEncodingERKNS_10StringListENS_6String4TypeE@Base 1.5
 _ZN6TagLib5ID3v25Frame13textDelimiterENS_6String4TypeE@Base 1.4 1
 _ZN6TagLib5ID3v25Frame15readStringFieldERKNS_10ByteVectorENS_6String4TypeEPi@Base 1.5
 _ZN6TagLib5ID3v25Frame5parseERKNS_10ByteVectorE@Base 1.4 1
 _ZN6TagLib5ID3v25Frame6Header10setFrameIDERKNS_10ByteVectorE@Base 1.4 1
 _ZN6TagLib5ID3v25Frame6Header12setFrameSizeEj@Base 1.4 1
 _ZN6TagLib5ID3v25Frame6Header13HeaderPrivateD1Ev@Base 1.7-1ubuntu5
 _ZN6TagLib5ID3v25Frame6Header13HeaderPrivateD2Ev@Base 1.7-1ubuntu5
 _ZN6TagLib5ID3v25Frame6Header23setTagAlterPreservationEb@Base 1.4 1
 _ZN6TagLib5ID3v25Frame6Header4sizeEj@Base 1.4 1
 _ZN6TagLib5ID3v25Frame6Header4sizeEv@Base 1.4 1
 _ZN6TagLib5ID3v25Frame6Header7setDataERKNS_10ByteVectorEb@Base 1.4 1
 _ZN6TagLib5ID3v25Frame6Header7setDataERKNS_10ByteVectorEj@Base 1.4 1
 _ZN6TagLib5ID3v25Frame6HeaderC1ERKNS_10ByteVectorEb@Base 1.4 1
 _ZN6TagLib5ID3v25Frame6HeaderC1ERKNS_10ByteVectorEj@Base 1.4 1
 _ZN6TagLib5ID3v25Frame6HeaderC2ERKNS_10ByteVectorEb@Base 1.4 1
 _ZN6TagLib5ID3v25Frame6HeaderC2ERKNS_10ByteVectorEj@Base 1.4 1
 _ZN6TagLib5ID3v25Frame6HeaderD0Ev@Base 1.4 1
 _ZN6TagLib5ID3v25Frame6HeaderD1Ev@Base 1.4 1
 _ZN6TagLib5ID3v25Frame6HeaderD2Ev@Base 1.4 1
 _ZN6TagLib5ID3v25Frame7setDataERKNS_10ByteVectorE@Base 1.4 1
 _ZN6TagLib5ID3v25Frame7setTextERKNS_6StringE@Base 1.4 1
 _ZN6TagLib5ID3v25Frame9setHeaderEPNS1_6HeaderEb@Base 1.4 1
 _ZN6TagLib5ID3v25FrameC1EPNS1_6HeaderE@Base 1.4 1
 _ZN6TagLib5ID3v25FrameC1ERKNS_10ByteVectorE@Base 1.4 1
 _ZN6TagLib5ID3v25FrameC2EPNS1_6HeaderE@Base 1.4 1
 _ZN6TagLib5ID3v25FrameC2ERKNS_10ByteVectorE@Base 1.4 1
 _ZN6TagLib5ID3v25FrameD0Ev@Base 1.4 1
 _ZN6TagLib5ID3v25FrameD1Ev@Base 1.4 1
 _ZN6TagLib5ID3v25FrameD2Ev@Base 1.4 1
 _ZN6TagLib5ID3v26Footer4sizeEv@Base 1.4 1
 _ZN6TagLib5ID3v26FooterC1Ev@Base 1.4 1
 _ZN6TagLib5ID3v26FooterC2Ev@Base 1.4 1
 _ZN6TagLib5ID3v26FooterD0Ev@Base 1.4 1
 _ZN6TagLib5ID3v26FooterD1Ev@Base 1.4 1
 _ZN6TagLib5ID3v26FooterD2Ev@Base 1.4 1
 _ZN6TagLib5ID3v26Header10setTagSizeEj@Base 1.4 1
 _ZN6TagLib5ID3v26Header14fileIdentifierEv@Base 1.4 1
 _ZN6TagLib5ID3v26Header15setMajorVersionEj@Base 1.5
 _ZN6TagLib5ID3v26Header4sizeEv@Base 1.4 1
 _ZN6TagLib5ID3v26Header5parseERKNS_10ByteVectorE@Base 1.4 1
 _ZN6TagLib5ID3v26Header7setDataERKNS_10ByteVectorE@Base 1.4 1
 _ZN6TagLib5ID3v26HeaderC1ERKNS_10ByteVectorE@Base 1.4 1
 _ZN6TagLib5ID3v26HeaderC1Ev@Base 1.4 1
 _ZN6TagLib5ID3v26HeaderC2ERKNS_10ByteVectorE@Base 1.4 1
 _ZN6TagLib5ID3v26HeaderC2Ev@Base 1.4 1
 _ZN6TagLib5ID3v26HeaderD0Ev@Base 1.4 1
 _ZN6TagLib5ID3v26HeaderD1Ev@Base 1.4 1
 _ZN6TagLib5ID3v26HeaderD2Ev@Base 1.4 1
 _ZN6TagLib5ID3v29SynchData6decodeERKNS_10ByteVectorE@Base 1.5
 _ZN6TagLib5ID3v29SynchData6toUIntERKNS_10ByteVectorE@Base 1.4 1
 _ZN6TagLib5ID3v29SynchData8fromUIntEj@Base 1.4 1
 _ZN6TagLib6String3endEv@Base 1.4 1
 _ZN6TagLib6String4nullE@Base 1.4 1
 _ZN6TagLib6String5beginEv@Base 1.4 1
 _ZN6TagLib6String6appendERKS0_@Base 1.4 1
 _ZN6TagLib6String6detachEv@Base 1.4 1
 _ZN6TagLib6String6numberEi@Base 1.4 1
 _ZN6TagLib6String7prepareENS0_4TypeE@Base 1.4 1
 _ZN6TagLib6StringC1EPKcNS0_4TypeE@Base 1.4 1
 _ZN6TagLib6StringC1EPKwNS0_4TypeE@Base 1.4 1
 _ZN6TagLib6StringC1ERKNS_10ByteVectorENS0_4TypeE@Base 1.4 1
 _ZN6TagLib6StringC1ERKS0_@Base 1.4 1
 _ZN6TagLib6StringC1ERKSbIwSt11char_traitsIwESaIwEENS0_4TypeE@Base 1.4 1
 _ZN6TagLib6StringC1ERKSsNS0_4TypeE@Base 1.4 1
 _ZN6TagLib6StringC1EcNS0_4TypeE@Base 1.4 1
 _ZN6TagLib6StringC1Ev@Base 1.4 1
 _ZN6TagLib6StringC1EwNS0_4TypeE@Base 1.4 1
 _ZN6TagLib6StringC2EPKcNS0_4TypeE@Base 1.4 1
 _ZN6TagLib6StringC2EPKwNS0_4TypeE@Base 1.4 1
 _ZN6TagLib6StringC2ERKNS_10ByteVectorENS0_4TypeE@Base 1.4 1
 _ZN6TagLib6StringC2ERKS0_@Base 1.4 1
 _ZN6TagLib6StringC2ERKSbIwSt11char_traitsIwESaIwEENS0_4TypeE@Base 1.4 1
 _ZN6TagLib6StringC2ERKSsNS0_4TypeE@Base 1.4 1
 _ZN6TagLib6StringC2EcNS0_4TypeE@Base 1.4 1
 _ZN6TagLib6StringC2Ev@Base 1.4 1
 _ZN6TagLib6StringC2EwNS0_4TypeE@Base 1.4 1
 _ZN6TagLib6StringD0Ev@Base 1.4 1
 _ZN6TagLib6StringD1Ev@Base 1.4 1
 _ZN6TagLib6StringD2Ev@Base 1.4 1
 _ZN6TagLib6StringaSEPKc@Base 1.4 1
 _ZN6TagLib6StringaSEPKw@Base 1.4 1
 _ZN6TagLib6StringaSERKNS_10ByteVectorE@Base 1.4 1
 _ZN6TagLib6StringaSERKS0_@Base 1.4 1
 _ZN6TagLib6StringaSERKSbIwSt11char_traitsIwESaIwEE@Base 1.4 1
 _ZN6TagLib6StringaSERKSs@Base 1.4 1
 _ZN6TagLib6StringaSEc@Base 1.4 1
 _ZN6TagLib6StringaSEw@Base 1.4 1
 _ZN6TagLib6StringixEi@Base 1.4 1
 _ZN6TagLib6StringpLEPKc@Base 1.4 1
 _ZN6TagLib6StringpLEPKw@Base 1.4 1
 _ZN6TagLib6StringpLERKS0_@Base 1.4 1
 _ZN6TagLib6StringpLEc@Base 1.4 1
 _ZN6TagLib6StringpLEw@Base 1.4 1
 _ZN6TagLib6Vorbis10Properties4readEv@Base 1.4 1
 _ZN6TagLib6Vorbis10PropertiesC1EPNS0_4FileENS_15AudioProperties9ReadStyleE@Base 1.4 1
 _ZN6TagLib6Vorbis10PropertiesC2EPNS0_4FileENS_15AudioProperties9ReadStyleE@Base 1.4 1
 _ZN6TagLib6Vorbis10PropertiesD0Ev@Base 1.4 1
 _ZN6TagLib6Vorbis10PropertiesD1Ev@Base 1.4 1
 _ZN6TagLib6Vorbis10PropertiesD2Ev@Base 1.4 1
 _ZN6TagLib6Vorbis4File4readEbNS_15AudioProperties9ReadStyleE@Base 1.4 1
 _ZN6TagLib6Vorbis4File4saveEv@Base 1.4 1
 _ZN6TagLib6Vorbis4FileC1EPKcbNS_15AudioProperties9ReadStyleE@Base 1.4 1
 _ZN6TagLib6Vorbis4FileC2EPKcbNS_15AudioProperties9ReadStyleE@Base 1.4 1
 _ZN6TagLib6Vorbis4FileD0Ev@Base 1.4 1
 _ZN6TagLib6Vorbis4FileD1Ev@Base 1.4 1
 _ZN6TagLib6Vorbis4FileD2Ev@Base 1.4 1
 _ZN6TagLib7FileRef14FileRefPrivate17fileTypeResolversE@Base 1.4 1
 _ZN6TagLib7FileRef19addFileTypeResolverEPKNS0_16FileTypeResolverE@Base 1.4 1
 _ZN6TagLib7FileRef21defaultFileExtensionsEv@Base 1.4 1
 _ZN6TagLib7FileRef4saveEv@Base 1.4 1
 _ZN6TagLib7FileRef6createEPKcbNS_15AudioProperties9ReadStyleE@Base 1.4 1
 _ZN6TagLib7FileRefC1EPKcbNS_15AudioProperties9ReadStyleE@Base 1.4 1
 _ZN6TagLib7FileRefC1EPNS_4FileE@Base 1.4 1
 _ZN6TagLib7FileRefC1ERKS0_@Base 1.4 1
 _ZN6TagLib7FileRefC1Ev@Base 1.4 1
 _ZN6TagLib7FileRefC2EPKcbNS_15AudioProperties9ReadStyleE@Base 1.4 1
 _ZN6TagLib7FileRefC2EPNS_4FileE@Base 1.4 1
 _ZN6TagLib7FileRefC2ERKS0_@Base 1.4 1
 _ZN6TagLib7FileRefC2Ev@Base 1.4 1
 _ZN6TagLib7FileRefD0Ev@Base 1.4 1
 _ZN6TagLib7FileRefD1Ev@Base 1.4 1
 _ZN6TagLib7FileRefD2Ev@Base 1.4 1
 _ZN6TagLib7FileRefaSERKS0_@Base 1.4 1
 _ZN6TagLib7WavPack10Properties14seekFinalIndexEv@Base 1.7
 _ZN6TagLib7WavPack10Properties17PropertiesPrivateD1Ev@Base 1.7-1ubuntu5
 _ZN6TagLib7WavPack10Properties17PropertiesPrivateD2Ev@Base 1.7-1ubuntu5
 _ZN6TagLib7WavPack10Properties4readEv@Base 1.5
 _ZN6TagLib7WavPack10PropertiesC1EPNS0_4FileElNS_15AudioProperties9ReadStyleE@Base 1.7
 _ZN6TagLib7WavPack10PropertiesC1ERKNS_10ByteVectorElNS_15AudioProperties9ReadStyleE@Base 1.5
 _ZN6TagLib7WavPack10PropertiesC2EPNS0_4FileElNS_15AudioProperties9ReadStyleE@Base 1.7
 _ZN6TagLib7WavPack10PropertiesC2ERKNS_10ByteVectorElNS_15AudioProperties9ReadStyleE@Base 1.5
 _ZN6TagLib7WavPack10PropertiesD0Ev@Base 1.5
 _ZN6TagLib7WavPack10PropertiesD1Ev@Base 1.5
 _ZN6TagLib7WavPack10PropertiesD2Ev@Base 1.5
 _ZN6TagLib7WavPack4File4readEbNS_15AudioProperties9ReadStyleE@Base 1.5
 _ZN6TagLib7WavPack4File4saveEv@Base 1.5
 _ZN6TagLib7WavPack4File5stripEi@Base 1.5
 _ZN6TagLib7WavPack4File6APETagEb@Base 1.5
 _ZN6TagLib7WavPack4File7findAPEEv@Base 1.5
 _ZN6TagLib7WavPack4File8ID3v1TagEb@Base 1.5
 _ZN6TagLib7WavPack4File9findID3v1Ev@Base 1.5
 _ZN6TagLib7WavPack4FileC1EPKcbNS_15AudioProperties9ReadStyleE@Base 1.5
 _ZN6TagLib7WavPack4FileC2EPKcbNS_15AudioProperties9ReadStyleE@Base 1.5
 _ZN6TagLib7WavPack4FileD0Ev@Base 1.5
 _ZN6TagLib7WavPack4FileD1Ev@Base 1.5
 _ZN6TagLib7WavPack4FileD2Ev@Base 1.5
 _ZN6TagLib9TrueAudio10Properties17PropertiesPrivateD1Ev@Base 1.7-1ubuntu5
 _ZN6TagLib9TrueAudio10Properties17PropertiesPrivateD2Ev@Base 1.7-1ubuntu5
 _ZN6TagLib9TrueAudio10Properties4readEv@Base 1.5
 _ZN6TagLib9TrueAudio10PropertiesC1ERKNS_10ByteVectorElNS_15AudioProperties9ReadStyleE@Base 1.5
 _ZN6TagLib9TrueAudio10PropertiesC2ERKNS_10ByteVectorElNS_15AudioProperties9ReadStyleE@Base 1.5
 _ZN6TagLib9TrueAudio10PropertiesD0Ev@Base 1.5
 _ZN6TagLib9TrueAudio10PropertiesD1Ev@Base 1.5
 _ZN6TagLib9TrueAudio10PropertiesD2Ev@Base 1.5
 _ZN6TagLib9TrueAudio4File20setID3v2FrameFactoryEPKNS_5ID3v212FrameFactoryE@Base 1.5
 _ZN6TagLib9TrueAudio4File4readEbNS_15AudioProperties9ReadStyleE@Base 1.5
 _ZN6TagLib9TrueAudio4File4saveEv@Base 1.5
 _ZN6TagLib9TrueAudio4File5stripEi@Base 1.5
 _ZN6TagLib9TrueAudio4File8ID3v1TagEb@Base 1.5
 _ZN6TagLib9TrueAudio4File8ID3v2TagEb@Base 1.5
 _ZN6TagLib9TrueAudio4File9findID3v1Ev@Base 1.5
 _ZN6TagLib9TrueAudio4File9findID3v2Ev@Base 1.5
 _ZN6TagLib9TrueAudio4FileC1EPKcPNS_5ID3v212FrameFactoryEbNS_15AudioProperties9ReadStyleE@Base 1.5
 _ZN6TagLib9TrueAudio4FileC1EPKcbNS_15AudioProperties9ReadStyleE@Base 1.5
 _ZN6TagLib9TrueAudio4FileC2EPKcPNS_5ID3v212FrameFactoryEbNS_15AudioProperties9ReadStyleE@Base 1.5
 _ZN6TagLib9TrueAudio4FileC2EPKcbNS_15AudioProperties9ReadStyleE@Base 1.5
 _ZN6TagLib9TrueAudio4FileD0Ev@Base 1.5
 _ZN6TagLib9TrueAudio4FileD1Ev@Base 1.5
 _ZN6TagLib9TrueAudio4FileD2Ev@Base 1.5
 _ZN9__gnu_cxx13new_allocatorI5ChunkE10deallocateEPS1_j@Base 1.7-1ubuntu5
 _ZN9__gnu_cxx13new_allocatorI5ChunkE7destroyEPS1_@Base 1.7-1ubuntu5
 _ZN9__gnu_cxx13new_allocatorI5ChunkE8allocateEjPKv@Base 1.7-1ubuntu5
 _ZN9__gnu_cxx13new_allocatorI5ChunkE9constructEPS1_RKS1_@Base 1.7-1ubuntu5
 _ZN9__gnu_cxx13new_allocatorI5ChunkEC1Ev@Base 1.7-1ubuntu5
 _ZN9__gnu_cxx13new_allocatorI5ChunkEC2Ev@Base 1.7-1ubuntu5
 _ZN9__gnu_cxx13new_allocatorI5ChunkED1Ev@Base 1.7-1ubuntu5
 _ZN9__gnu_cxx13new_allocatorI5ChunkED2Ev@Base 1.7-1ubuntu5
 _ZN9__gnu_cxx13new_allocatorIN6TagLib10ByteVectorEE7destroyEPS2_@Base 1.7-1ubuntu5
 _ZN9__gnu_cxx13new_allocatorIN6TagLib10ByteVectorEE9constructEPS2_RKS2_@Base 1.7-1ubuntu5
 _ZN9__gnu_cxx13new_allocatorIN6TagLib10ByteVectorEEC1Ev@Base 1.7-1ubuntu5
 _ZN9__gnu_cxx13new_allocatorIN6TagLib10ByteVectorEEC2Ev@Base 1.7-1ubuntu5
 _ZN9__gnu_cxx13new_allocatorIN6TagLib10ByteVectorEED1Ev@Base 1.7-1ubuntu5
 _ZN9__gnu_cxx13new_allocatorIN6TagLib10ByteVectorEED2Ev@Base 1.7-1ubuntu5
 _ZN9__gnu_cxx13new_allocatorIN6TagLib3ASF9AttributeEE7destroyEPS3_@Base 1.7-1ubuntu5
 _ZN9__gnu_cxx13new_allocatorIN6TagLib3ASF9AttributeEE9constructEPS3_RKS3_@Base 1.7-1ubuntu5
 _ZN9__gnu_cxx13new_allocatorIN6TagLib3ASF9AttributeEEC1Ev@Base 1.7-1ubuntu5
 _ZN9__gnu_cxx13new_allocatorIN6TagLib3ASF9AttributeEEC2Ev@Base 1.7-1ubuntu5
 _ZN9__gnu_cxx13new_allocatorIN6TagLib3ASF9AttributeEED1Ev@Base 1.7-1ubuntu5
 _ZN9__gnu_cxx13new_allocatorIN6TagLib3ASF9AttributeEED2Ev@Base 1.7-1ubuntu5
 _ZN9__gnu_cxx13new_allocatorIN6TagLib3MP48CoverArtEE7destroyEPS3_@Base 1.7-1ubuntu5
 _ZN9__gnu_cxx13new_allocatorIN6TagLib3MP48CoverArtEE9constructEPS3_RKS3_@Base 1.7-1ubuntu5
 _ZN9__gnu_cxx13new_allocatorIN6TagLib3MP48CoverArtEEC1Ev@Base 1.7-1ubuntu5
 _ZN9__gnu_cxx13new_allocatorIN6TagLib3MP48CoverArtEEC2Ev@Base 1.7-1ubuntu5
 _ZN9__gnu_cxx13new_allocatorIN6TagLib3MP48CoverArtEED1Ev@Base 1.7-1ubuntu5
 _ZN9__gnu_cxx13new_allocatorIN6TagLib3MP48CoverArtEED2Ev@Base 1.7-1ubuntu5
 _ZN9__gnu_cxx13new_allocatorIN6TagLib4ListIiEEE10deallocateEPS3_j@Base 1.7-1ubuntu5
 _ZN9__gnu_cxx13new_allocatorIN6TagLib4ListIiEEE7destroyEPS3_@Base 1.7-1ubuntu5
 _ZN9__gnu_cxx13new_allocatorIN6TagLib4ListIiEEE8allocateEjPKv@Base 1.7-1ubuntu5
 _ZN9__gnu_cxx13new_allocatorIN6TagLib4ListIiEEE9constructEPS3_RKS3_@Base 1.7-1ubuntu5
 _ZN9__gnu_cxx13new_allocatorIN6TagLib4ListIiEEEC1Ev@Base 1.7-1ubuntu5
 _ZN9__gnu_cxx13new_allocatorIN6TagLib4ListIiEEEC2Ev@Base 1.7-1ubuntu5
 _ZN9__gnu_cxx13new_allocatorIN6TagLib4ListIiEEED1Ev@Base 1.7-1ubuntu5
 _ZN9__gnu_cxx13new_allocatorIN6TagLib4ListIiEEED2Ev@Base 1.7-1ubuntu5
 _ZN9__gnu_cxx13new_allocatorIN6TagLib5ID3v219RelativeVolumeFrame11ChannelTypeEE7destroyEPS4_@Base 1.7-1ubuntu5
 _ZN9__gnu_cxx13new_allocatorIN6TagLib5ID3v219RelativeVolumeFrame11ChannelTypeEE9constructEPS4_RKS4_@Base 1.7-1ubuntu5
 _ZN9__gnu_cxx13new_allocatorIN6TagLib5ID3v219RelativeVolumeFrame11ChannelTypeEEC1Ev@Base 1.7-1ubuntu5
 _ZN9__gnu_cxx13new_allocatorIN6TagLib5ID3v219RelativeVolumeFrame11ChannelTypeEEC2Ev@Base 1.7-1ubuntu5
 _ZN9__gnu_cxx13new_allocatorIN6TagLib5ID3v219RelativeVolumeFrame11ChannelTypeEED1Ev@Base 1.7-1ubuntu5
 _ZN9__gnu_cxx13new_allocatorIN6TagLib5ID3v219RelativeVolumeFrame11ChannelTypeEED2Ev@Base 1.7-1ubuntu5
 _ZN9__gnu_cxx13new_allocatorIN6TagLib6StringEE7destroyEPS2_@Base 1.7-1ubuntu5
 _ZN9__gnu_cxx13new_allocatorIN6TagLib6StringEE9constructEPS2_RKS2_@Base 1.7-1ubuntu5
 _ZN9__gnu_cxx13new_allocatorIN6TagLib6StringEEC1Ev@Base 1.7-1ubuntu5
 _ZN9__gnu_cxx13new_allocatorIN6TagLib6StringEEC2Ev@Base 1.7-1ubuntu5
 _ZN9__gnu_cxx13new_allocatorIN6TagLib6StringEED1Ev@Base 1.7-1ubuntu5
 _ZN9__gnu_cxx13new_allocatorIN6TagLib6StringEED2Ev@Base 1.7-1ubuntu5
 _ZN9__gnu_cxx13new_allocatorIPKN6TagLib7FileRef16FileTypeResolverEE7destroyEPS5_@Base 1.7-1ubuntu5
 _ZN9__gnu_cxx13new_allocatorIPKN6TagLib7FileRef16FileTypeResolverEE9constructEPS5_RKS5_@Base 1.7-1ubuntu5
 _ZN9__gnu_cxx13new_allocatorIPKN6TagLib7FileRef16FileTypeResolverEEC1Ev@Base 1.7-1ubuntu5
 _ZN9__gnu_cxx13new_allocatorIPKN6TagLib7FileRef16FileTypeResolverEEC2Ev@Base 1.7-1ubuntu5
 _ZN9__gnu_cxx13new_allocatorIPKN6TagLib7FileRef16FileTypeResolverEED1Ev@Base 1.7-1ubuntu5
 _ZN9__gnu_cxx13new_allocatorIPKN6TagLib7FileRef16FileTypeResolverEED2Ev@Base 1.7-1ubuntu5
 _ZN9__gnu_cxx13new_allocatorIPN6TagLib3ASF4File10BaseObjectEE7destroyEPS5_@Base 1.7-1ubuntu5
 _ZN9__gnu_cxx13new_allocatorIPN6TagLib3ASF4File10BaseObjectEE9constructEPS5_RKS5_@Base 1.7-1ubuntu5
 _ZN9__gnu_cxx13new_allocatorIPN6TagLib3ASF4File10BaseObjectEEC1Ev@Base 1.7-1ubuntu5
 _ZN9__gnu_cxx13new_allocatorIPN6TagLib3ASF4File10BaseObjectEEC2Ev@Base 1.7-1ubuntu5
 _ZN9__gnu_cxx13new_allocatorIPN6TagLib3ASF4File10BaseObjectEED1Ev@Base 1.7-1ubuntu5
 _ZN9__gnu_cxx13new_allocatorIPN6TagLib3ASF4File10BaseObjectEED2Ev@Base 1.7-1ubuntu5
 _ZN9__gnu_cxx13new_allocatorIPN6TagLib3MP44AtomEE7destroyEPS4_@Base 1.7-1ubuntu5
 _ZN9__gnu_cxx13new_allocatorIPN6TagLib3MP44AtomEE9constructEPS4_RKS4_@Base 1.7-1ubuntu5
 _ZN9__gnu_cxx13new_allocatorIPN6TagLib3MP44AtomEEC1Ev@Base 1.7-1ubuntu5
 _ZN9__gnu_cxx13new_allocatorIPN6TagLib3MP44AtomEEC2Ev@Base 1.7-1ubuntu5
 _ZN9__gnu_cxx13new_allocatorIPN6TagLib3MP44AtomEED1Ev@Base 1.7-1ubuntu5
 _ZN9__gnu_cxx13new_allocatorIPN6TagLib3MP44AtomEED2Ev@Base 1.7-1ubuntu5
 _ZN9__gnu_cxx13new_allocatorIPN6TagLib3Ogg4PageEE7destroyEPS4_@Base 1.7-1ubuntu5
 _ZN9__gnu_cxx13new_allocatorIPN6TagLib3Ogg4PageEE9constructEPS4_RKS4_@Base 1.7-1ubuntu5
 _ZN9__gnu_cxx13new_allocatorIPN6TagLib3Ogg4PageEEC1Ev@Base 1.7-1ubuntu5
 _ZN9__gnu_cxx13new_allocatorIPN6TagLib3Ogg4PageEEC2Ev@Base 1.7-1ubuntu5
 _ZN9__gnu_cxx13new_allocatorIPN6TagLib3Ogg4PageEED1Ev@Base 1.7-1ubuntu5
 _ZN9__gnu_cxx13new_allocatorIPN6TagLib3Ogg4PageEED2Ev@Base 1.7-1ubuntu5
 _ZN9__gnu_cxx13new_allocatorIPN6TagLib3TagEE10deallocateEPS3_j@Base 1.7-1ubuntu5
 _ZN9__gnu_cxx13new_allocatorIPN6TagLib3TagEE8allocateEjPKv@Base 1.7-1ubuntu5
 _ZN9__gnu_cxx13new_allocatorIPN6TagLib3TagEEC1ERKS4_@Base 1.7-1ubuntu5
 _ZN9__gnu_cxx13new_allocatorIPN6TagLib3TagEEC1Ev@Base 1.7-1ubuntu5
 _ZN9__gnu_cxx13new_allocatorIPN6TagLib3TagEEC2ERKS4_@Base 1.7-1ubuntu5
 _ZN9__gnu_cxx13new_allocatorIPN6TagLib3TagEEC2Ev@Base 1.7-1ubuntu5
 _ZN9__gnu_cxx13new_allocatorIPN6TagLib3TagEED1Ev@Base 1.7-1ubuntu5
 _ZN9__gnu_cxx13new_allocatorIPN6TagLib3TagEED2Ev@Base 1.7-1ubuntu5
 _ZN9__gnu_cxx13new_allocatorIPN6TagLib4FLAC13MetadataBlockEE7destroyEPS4_@Base 1.7-1ubuntu5
 _ZN9__gnu_cxx13new_allocatorIPN6TagLib4FLAC13MetadataBlockEE9constructEPS4_RKS4_@Base 1.7-1ubuntu5
 _ZN9__gnu_cxx13new_allocatorIPN6TagLib4FLAC13MetadataBlockEEC1Ev@Base 1.7-1ubuntu5
 _ZN9__gnu_cxx13new_allocatorIPN6TagLib4FLAC13MetadataBlockEEC2Ev@Base 1.7-1ubuntu5
 _ZN9__gnu_cxx13new_allocatorIPN6TagLib4FLAC13MetadataBlockEED1Ev@Base 1.7-1ubuntu5
 _ZN9__gnu_cxx13new_allocatorIPN6TagLib4FLAC13MetadataBlockEED2Ev@Base 1.7-1ubuntu5
 _ZN9__gnu_cxx13new_allocatorIPN6TagLib4FLAC7PictureEE7destroyEPS4_@Base 1.7-1ubuntu5
 _ZN9__gnu_cxx13new_allocatorIPN6TagLib4FLAC7PictureEE9constructEPS4_RKS4_@Base 1.7-1ubuntu5
 _ZN9__gnu_cxx13new_allocatorIPN6TagLib4FLAC7PictureEEC1Ev@Base 1.7-1ubuntu5
 _ZN9__gnu_cxx13new_allocatorIPN6TagLib4FLAC7PictureEEC2Ev@Base 1.7-1ubuntu5
 _ZN9__gnu_cxx13new_allocatorIPN6TagLib4FLAC7PictureEED1Ev@Base 1.7-1ubuntu5
 _ZN9__gnu_cxx13new_allocatorIPN6TagLib4FLAC7PictureEED2Ev@Base 1.7-1ubuntu5
 _ZN9__gnu_cxx13new_allocatorIPN6TagLib5ID3v25FrameEE7destroyEPS4_@Base 1.7-1ubuntu5
 _ZN9__gnu_cxx13new_allocatorIPN6TagLib5ID3v25FrameEE9constructEPS4_RKS4_@Base 1.7-1ubuntu5
 _ZN9__gnu_cxx13new_allocatorIPN6TagLib5ID3v25FrameEEC1Ev@Base 1.7-1ubuntu5
 _ZN9__gnu_cxx13new_allocatorIPN6TagLib5ID3v25FrameEEC2Ev@Base 1.7-1ubuntu5
 _ZN9__gnu_cxx13new_allocatorIPN6TagLib5ID3v25FrameEED1Ev@Base 1.7-1ubuntu5
 _ZN9__gnu_cxx13new_allocatorIPN6TagLib5ID3v25FrameEED2Ev@Base 1.7-1ubuntu5
 _ZN9__gnu_cxx13new_allocatorISt10_List_nodeIN6TagLib10ByteVectorEEE10deallocateEPS4_j@Base 1.7-1ubuntu5
 _ZN9__gnu_cxx13new_allocatorISt10_List_nodeIN6TagLib10ByteVectorEEE8allocateEjPKv@Base 1.7-1ubuntu5
 _ZN9__gnu_cxx13new_allocatorISt10_List_nodeIN6TagLib10ByteVectorEEEC1ERKS5_@Base 1.7-1ubuntu5
 _ZN9__gnu_cxx13new_allocatorISt10_List_nodeIN6TagLib10ByteVectorEEEC1Ev@Base 1.7-1ubuntu5
 _ZN9__gnu_cxx13new_allocatorISt10_List_nodeIN6TagLib10ByteVectorEEEC2ERKS5_@Base 1.7-1ubuntu5
 _ZN9__gnu_cxx13new_allocatorISt10_List_nodeIN6TagLib10ByteVectorEEEC2Ev@Base 1.7-1ubuntu5
 _ZN9__gnu_cxx13new_allocatorISt10_List_nodeIN6TagLib10ByteVectorEEED1Ev@Base 1.7-1ubuntu5
 _ZN9__gnu_cxx13new_allocatorISt10_List_nodeIN6TagLib10ByteVectorEEED2Ev@Base 1.7-1ubuntu5
 _ZN9__gnu_cxx13new_allocatorISt10_List_nodeIN6TagLib3ASF9AttributeEEE10deallocateEPS5_j@Base 1.7-1ubuntu5
 _ZN9__gnu_cxx13new_allocatorISt10_List_nodeIN6TagLib3ASF9AttributeEEE8allocateEjPKv@Base 1.7-1ubuntu5
 _ZN9__gnu_cxx13new_allocatorISt10_List_nodeIN6TagLib3ASF9AttributeEEEC1ERKS6_@Base 1.7-1ubuntu5
 _ZN9__gnu_cxx13new_allocatorISt10_List_nodeIN6TagLib3ASF9AttributeEEEC1Ev@Base 1.7-1ubuntu5
 _ZN9__gnu_cxx13new_allocatorISt10_List_nodeIN6TagLib3ASF9AttributeEEEC2ERKS6_@Base 1.7-1ubuntu5
 _ZN9__gnu_cxx13new_allocatorISt10_List_nodeIN6TagLib3ASF9AttributeEEEC2Ev@Base 1.7-1ubuntu5
 _ZN9__gnu_cxx13new_allocatorISt10_List_nodeIN6TagLib3ASF9AttributeEEED1Ev@Base 1.7-1ubuntu5
 _ZN9__gnu_cxx13new_allocatorISt10_List_nodeIN6TagLib3ASF9AttributeEEED2Ev@Base 1.7-1ubuntu5
 _ZN9__gnu_cxx13new_allocatorISt10_List_nodeIN6TagLib3MP48CoverArtEEE10deallocateEPS5_j@Base 1.7-1ubuntu5
 _ZN9__gnu_cxx13new_allocatorISt10_List_nodeIN6TagLib3MP48CoverArtEEE8allocateEjPKv@Base 1.7-1ubuntu5
 _ZN9__gnu_cxx13new_allocatorISt10_List_nodeIN6TagLib3MP48CoverArtEEEC1ERKS6_@Base 1.7-1ubuntu5
 _ZN9__gnu_cxx13new_allocatorISt10_List_nodeIN6TagLib3MP48CoverArtEEEC1Ev@Base 1.7-1ubuntu5
 _ZN9__gnu_cxx13new_allocatorISt10_List_nodeIN6TagLib3MP48CoverArtEEEC2ERKS6_@Base 1.7-1ubuntu5
 _ZN9__gnu_cxx13new_allocatorISt10_List_nodeIN6TagLib3MP48CoverArtEEEC2Ev@Base 1.7-1ubuntu5
 _ZN9__gnu_cxx13new_allocatorISt10_List_nodeIN6TagLib3MP48CoverArtEEED1Ev@Base 1.7-1ubuntu5
 _ZN9__gnu_cxx13new_allocatorISt10_List_nodeIN6TagLib3MP48CoverArtEEED2Ev@Base 1.7-1ubuntu5
 _ZN9__gnu_cxx13new_allocatorISt10_List_nodeIN6TagLib5ID3v219RelativeVolumeFrame11ChannelTypeEEE10deallocateEPS6_j@Base 1.7-1ubuntu5
 _ZN9__gnu_cxx13new_allocatorISt10_List_nodeIN6TagLib5ID3v219RelativeVolumeFrame11ChannelTypeEEE8allocateEjPKv@Base 1.7-1ubuntu5
 _ZN9__gnu_cxx13new_allocatorISt10_List_nodeIN6TagLib5ID3v219RelativeVolumeFrame11ChannelTypeEEEC1ERKS7_@Base 1.7-1ubuntu5
 _ZN9__gnu_cxx13new_allocatorISt10_List_nodeIN6TagLib5ID3v219RelativeVolumeFrame11ChannelTypeEEEC1Ev@Base 1.7-1ubuntu5
 _ZN9__gnu_cxx13new_allocatorISt10_List_nodeIN6TagLib5ID3v219RelativeVolumeFrame11ChannelTypeEEEC2ERKS7_@Base 1.7-1ubuntu5
 _ZN9__gnu_cxx13new_allocatorISt10_List_nodeIN6TagLib5ID3v219RelativeVolumeFrame11ChannelTypeEEEC2Ev@Base 1.7-1ubuntu5
 _ZN9__gnu_cxx13new_allocatorISt10_List_nodeIN6TagLib5ID3v219RelativeVolumeFrame11ChannelTypeEEED1Ev@Base 1.7-1ubuntu5
 _ZN9__gnu_cxx13new_allocatorISt10_List_nodeIN6TagLib5ID3v219RelativeVolumeFrame11ChannelTypeEEED2Ev@Base 1.7-1ubuntu5
 _ZN9__gnu_cxx13new_allocatorISt10_List_nodeIN6TagLib6StringEEE10deallocateEPS4_j@Base 1.7-1ubuntu5
 _ZN9__gnu_cxx13new_allocatorISt10_List_nodeIN6TagLib6StringEEE8allocateEjPKv@Base 1.7-1ubuntu5
 _ZN9__gnu_cxx13new_allocatorISt10_List_nodeIN6TagLib6StringEEEC1ERKS5_@Base 1.7-1ubuntu5
 _ZN9__gnu_cxx13new_allocatorISt10_List_nodeIN6TagLib6StringEEEC1Ev@Base 1.7-1ubuntu5
 _ZN9__gnu_cxx13new_allocatorISt10_List_nodeIN6TagLib6StringEEEC2ERKS5_@Base 1.7-1ubuntu5
 _ZN9__gnu_cxx13new_allocatorISt10_List_nodeIN6TagLib6StringEEEC2Ev@Base 1.7-1ubuntu5
 _ZN9__gnu_cxx13new_allocatorISt10_List_nodeIN6TagLib6StringEEED1Ev@Base 1.7-1ubuntu5
 _ZN9__gnu_cxx13new_allocatorISt10_List_nodeIN6TagLib6StringEEED2Ev@Base 1.7-1ubuntu5
 _ZN9__gnu_cxx13new_allocatorISt10_List_nodeIPKN6TagLib7FileRef16FileTypeResolverEEE10deallocateEPS7_j@Base 1.7-1ubuntu5
 _ZN9__gnu_cxx13new_allocatorISt10_List_nodeIPKN6TagLib7FileRef16FileTypeResolverEEE8allocateEjPKv@Base 1.7-1ubuntu5
 _ZN9__gnu_cxx13new_allocatorISt10_List_nodeIPKN6TagLib7FileRef16FileTypeResolverEEEC1ERKS8_@Base 1.7-1ubuntu5
 _ZN9__gnu_cxx13new_allocatorISt10_List_nodeIPKN6TagLib7FileRef16FileTypeResolverEEEC1Ev@Base 1.7-1ubuntu5
 _ZN9__gnu_cxx13new_allocatorISt10_List_nodeIPKN6TagLib7FileRef16FileTypeResolverEEEC2ERKS8_@Base 1.7-1ubuntu5
 _ZN9__gnu_cxx13new_allocatorISt10_List_nodeIPKN6TagLib7FileRef16FileTypeResolverEEEC2Ev@Base 1.7-1ubuntu5
 _ZN9__gnu_cxx13new_allocatorISt10_List_nodeIPKN6TagLib7FileRef16FileTypeResolverEEED1Ev@Base 1.7-1ubuntu5
 _ZN9__gnu_cxx13new_allocatorISt10_List_nodeIPKN6TagLib7FileRef16FileTypeResolverEEED2Ev@Base 1.7-1ubuntu5
 _ZN9__gnu_cxx13new_allocatorISt10_List_nodeIPN6TagLib3ASF4File10BaseObjectEEE10deallocateEPS7_j@Base 1.7-1ubuntu5
 _ZN9__gnu_cxx13new_allocatorISt10_List_nodeIPN6TagLib3ASF4File10BaseObjectEEE8allocateEjPKv@Base 1.7-1ubuntu5
 _ZN9__gnu_cxx13new_allocatorISt10_List_nodeIPN6TagLib3ASF4File10BaseObjectEEEC1ERKS8_@Base 1.7-1ubuntu5
 _ZN9__gnu_cxx13new_allocatorISt10_List_nodeIPN6TagLib3ASF4File10BaseObjectEEEC1Ev@Base 1.7-1ubuntu5
 _ZN9__gnu_cxx13new_allocatorISt10_List_nodeIPN6TagLib3ASF4File10BaseObjectEEEC2ERKS8_@Base 1.7-1ubuntu5
 _ZN9__gnu_cxx13new_allocatorISt10_List_nodeIPN6TagLib3ASF4File10BaseObjectEEEC2Ev@Base 1.7-1ubuntu5
 _ZN9__gnu_cxx13new_allocatorISt10_List_nodeIPN6TagLib3ASF4File10BaseObjectEEED1Ev@Base 1.7-1ubuntu5
 _ZN9__gnu_cxx13new_allocatorISt10_List_nodeIPN6TagLib3ASF4File10BaseObjectEEED2Ev@Base 1.7-1ubuntu5
 _ZN9__gnu_cxx13new_allocatorISt10_List_nodeIPN6TagLib3MP44AtomEEE10deallocateEPS6_j@Base 1.7-1ubuntu5
 _ZN9__gnu_cxx13new_allocatorISt10_List_nodeIPN6TagLib3MP44AtomEEE8allocateEjPKv@Base 1.7-1ubuntu5
 _ZN9__gnu_cxx13new_allocatorISt10_List_nodeIPN6TagLib3MP44AtomEEEC1ERKS7_@Base 1.7-1ubuntu5
 _ZN9__gnu_cxx13new_allocatorISt10_List_nodeIPN6TagLib3MP44AtomEEEC1Ev@Base 1.7-1ubuntu5
 _ZN9__gnu_cxx13new_allocatorISt10_List_nodeIPN6TagLib3MP44AtomEEEC2ERKS7_@Base 1.7-1ubuntu5
 _ZN9__gnu_cxx13new_allocatorISt10_List_nodeIPN6TagLib3MP44AtomEEEC2Ev@Base 1.7-1ubuntu5
 _ZN9__gnu_cxx13new_allocatorISt10_List_nodeIPN6TagLib3MP44AtomEEED1Ev@Base 1.7-1ubuntu5
 _ZN9__gnu_cxx13new_allocatorISt10_List_nodeIPN6TagLib3MP44AtomEEED2Ev@Base 1.7-1ubuntu5
 _ZN9__gnu_cxx13new_allocatorISt10_List_nodeIPN6TagLib3Ogg4PageEEE10deallocateEPS6_j@Base 1.7-1ubuntu5
 _ZN9__gnu_cxx13new_allocatorISt10_List_nodeIPN6TagLib3Ogg4PageEEE8allocateEjPKv@Base 1.7-1ubuntu5
 _ZN9__gnu_cxx13new_allocatorISt10_List_nodeIPN6TagLib3Ogg4PageEEEC1ERKS7_@Base 1.7-1ubuntu5
 _ZN9__gnu_cxx13new_allocatorISt10_List_nodeIPN6TagLib3Ogg4PageEEEC1Ev@Base 1.7-1ubuntu5
 _ZN9__gnu_cxx13new_allocatorISt10_List_nodeIPN6TagLib3Ogg4PageEEEC2ERKS7_@Base 1.7-1ubuntu5
 _ZN9__gnu_cxx13new_allocatorISt10_List_nodeIPN6TagLib3Ogg4PageEEEC2Ev@Base 1.7-1ubuntu5
 _ZN9__gnu_cxx13new_allocatorISt10_List_nodeIPN6TagLib3Ogg4PageEEED1Ev@Base 1.7-1ubuntu5
 _ZN9__gnu_cxx13new_allocatorISt10_List_nodeIPN6TagLib3Ogg4PageEEED2Ev@Base 1.7-1ubuntu5
 _ZN9__gnu_cxx13new_allocatorISt10_List_nodeIPN6TagLib4FLAC13MetadataBlockEEE10deallocateEPS6_j@Base 1.7-1ubuntu5
 _ZN9__gnu_cxx13new_allocatorISt10_List_nodeIPN6TagLib4FLAC13MetadataBlockEEE8allocateEjPKv@Base 1.7-1ubuntu5
 _ZN9__gnu_cxx13new_allocatorISt10_List_nodeIPN6TagLib4FLAC13MetadataBlockEEEC1ERKS7_@Base 1.7-1ubuntu5
 _ZN9__gnu_cxx13new_allocatorISt10_List_nodeIPN6TagLib4FLAC13MetadataBlockEEEC1Ev@Base 1.7-1ubuntu5
 _ZN9__gnu_cxx13new_allocatorISt10_List_nodeIPN6TagLib4FLAC13MetadataBlockEEEC2ERKS7_@Base 1.7-1ubuntu5
 _ZN9__gnu_cxx13new_allocatorISt10_List_nodeIPN6TagLib4FLAC13MetadataBlockEEEC2Ev@Base 1.7-1ubuntu5
 _ZN9__gnu_cxx13new_allocatorISt10_List_nodeIPN6TagLib4FLAC13MetadataBlockEEED1Ev@Base 1.7-1ubuntu5
 _ZN9__gnu_cxx13new_allocatorISt10_List_nodeIPN6TagLib4FLAC13MetadataBlockEEED2Ev@Base 1.7-1ubuntu5
 _ZN9__gnu_cxx13new_allocatorISt10_List_nodeIPN6TagLib4FLAC7PictureEEE10deallocateEPS6_j@Base 1.7-1ubuntu5
 _ZN9__gnu_cxx13new_allocatorISt10_List_nodeIPN6TagLib4FLAC7PictureEEE8allocateEjPKv@Base 1.7-1ubuntu5
 _ZN9__gnu_cxx13new_allocatorISt10_List_nodeIPN6TagLib4FLAC7PictureEEEC1ERKS7_@Base 1.7-1ubuntu5
 _ZN9__gnu_cxx13new_allocatorISt10_List_nodeIPN6TagLib4FLAC7PictureEEEC1Ev@Base 1.7-1ubuntu5
 _ZN9__gnu_cxx13new_allocatorISt10_List_nodeIPN6TagLib4FLAC7PictureEEEC2ERKS7_@Base 1.7-1ubuntu5
 _ZN9__gnu_cxx13new_allocatorISt10_List_nodeIPN6TagLib4FLAC7PictureEEEC2Ev@Base 1.7-1ubuntu5
 _ZN9__gnu_cxx13new_allocatorISt10_List_nodeIPN6TagLib4FLAC7PictureEEED1Ev@Base 1.7-1ubuntu5
 _ZN9__gnu_cxx13new_allocatorISt10_List_nodeIPN6TagLib4FLAC7PictureEEED2Ev@Base 1.7-1ubuntu5
 _ZN9__gnu_cxx13new_allocatorISt10_List_nodeIPN6TagLib5ID3v25FrameEEE10deallocateEPS6_j@Base 1.7-1ubuntu5
 _ZN9__gnu_cxx13new_allocatorISt10_List_nodeIPN6TagLib5ID3v25FrameEEE8allocateEjPKv@Base 1.7-1ubuntu5
 _ZN9__gnu_cxx13new_allocatorISt10_List_nodeIPN6TagLib5ID3v25FrameEEEC1ERKS7_@Base 1.7-1ubuntu5
 _ZN9__gnu_cxx13new_allocatorISt10_List_nodeIPN6TagLib5ID3v25FrameEEEC1Ev@Base 1.7-1ubuntu5
 _ZN9__gnu_cxx13new_allocatorISt10_List_nodeIPN6TagLib5ID3v25FrameEEEC2ERKS7_@Base 1.7-1ubuntu5
 _ZN9__gnu_cxx13new_allocatorISt10_List_nodeIPN6TagLib5ID3v25FrameEEEC2Ev@Base 1.7-1ubuntu5
 _ZN9__gnu_cxx13new_allocatorISt10_List_nodeIPN6TagLib5ID3v25FrameEEED1Ev@Base 1.7-1ubuntu5
 _ZN9__gnu_cxx13new_allocatorISt10_List_nodeIPN6TagLib5ID3v25FrameEEED2Ev@Base 1.7-1ubuntu5
 _ZN9__gnu_cxx13new_allocatorISt10_List_nodeIiEE10deallocateEPS2_j@Base 1.7-1ubuntu5
 _ZN9__gnu_cxx13new_allocatorISt10_List_nodeIiEE8allocateEjPKv@Base 1.7-1ubuntu5
 _ZN9__gnu_cxx13new_allocatorISt10_List_nodeIiEEC1ERKS3_@Base 1.7-1ubuntu5
 _ZN9__gnu_cxx13new_allocatorISt10_List_nodeIiEEC1Ev@Base 1.7-1ubuntu5
 _ZN9__gnu_cxx13new_allocatorISt10_List_nodeIiEEC2ERKS3_@Base 1.7-1ubuntu5
 _ZN9__gnu_cxx13new_allocatorISt10_List_nodeIiEEC2Ev@Base 1.7-1ubuntu5
 _ZN9__gnu_cxx13new_allocatorISt10_List_nodeIiEED1Ev@Base 1.7-1ubuntu5
 _ZN9__gnu_cxx13new_allocatorISt10_List_nodeIiEED2Ev@Base 1.7-1ubuntu5
 _ZN9__gnu_cxx13new_allocatorISt13_Rb_tree_nodeISt4pairIKN6TagLib10ByteVectorENS3_4ListIPNS3_5ID3v25FrameEEEEEE10deallocateEPSC_j@Base 1.7-1ubuntu5
 _ZN9__gnu_cxx13new_allocatorISt13_Rb_tree_nodeISt4pairIKN6TagLib10ByteVectorENS3_4ListIPNS3_5ID3v25FrameEEEEEE8allocateEjPKv@Base 1.7-1ubuntu5
 _ZN9__gnu_cxx13new_allocatorISt13_Rb_tree_nodeISt4pairIKN6TagLib10ByteVectorENS3_4ListIPNS3_5ID3v25FrameEEEEEEC1ERKSD_@Base 1.7-1ubuntu5
 _ZN9__gnu_cxx13new_allocatorISt13_Rb_tree_nodeISt4pairIKN6TagLib10ByteVectorENS3_4ListIPNS3_5ID3v25FrameEEEEEEC1Ev@Base 1.7-1ubuntu5
 _ZN9__gnu_cxx13new_allocatorISt13_Rb_tree_nodeISt4pairIKN6TagLib10ByteVectorENS3_4ListIPNS3_5ID3v25FrameEEEEEEC2ERKSD_@Base 1.7-1ubuntu5
 _ZN9__gnu_cxx13new_allocatorISt13_Rb_tree_nodeISt4pairIKN6TagLib10ByteVectorENS3_4ListIPNS3_5ID3v25FrameEEEEEEC2Ev@Base 1.7-1ubuntu5
 _ZN9__gnu_cxx13new_allocatorISt13_Rb_tree_nodeISt4pairIKN6TagLib10ByteVectorENS3_4ListIPNS3_5ID3v25FrameEEEEEED1Ev@Base 1.7-1ubuntu5
 _ZN9__gnu_cxx13new_allocatorISt13_Rb_tree_nodeISt4pairIKN6TagLib10ByteVectorENS3_4ListIPNS3_5ID3v25FrameEEEEEED2Ev@Base 1.7-1ubuntu5
 _ZN9__gnu_cxx13new_allocatorISt13_Rb_tree_nodeISt4pairIKN6TagLib5ID3v219RelativeVolumeFrame11ChannelTypeE11ChannelDataEEE10deallocateEPSA_j@Base 1.7-1ubuntu5
 _ZN9__gnu_cxx13new_allocatorISt13_Rb_tree_nodeISt4pairIKN6TagLib5ID3v219RelativeVolumeFrame11ChannelTypeE11ChannelDataEEE8allocateEjPKv@Base 1.7-1ubuntu5
 _ZN9__gnu_cxx13new_allocatorISt13_Rb_tree_nodeISt4pairIKN6TagLib5ID3v219RelativeVolumeFrame11ChannelTypeE11ChannelDataEEEC1ERKSB_@Base 1.7-1ubuntu5
 _ZN9__gnu_cxx13new_allocatorISt13_Rb_tree_nodeISt4pairIKN6TagLib5ID3v219RelativeVolumeFrame11ChannelTypeE11ChannelDataEEEC1Ev@Base 1.7-1ubuntu5
 _ZN9__gnu_cxx13new_allocatorISt13_Rb_tree_nodeISt4pairIKN6TagLib5ID3v219RelativeVolumeFrame11ChannelTypeE11ChannelDataEEEC2ERKSB_@Base 1.7-1ubuntu5
 _ZN9__gnu_cxx13new_allocatorISt13_Rb_tree_nodeISt4pairIKN6TagLib5ID3v219RelativeVolumeFrame11ChannelTypeE11ChannelDataEEEC2Ev@Base 1.7-1ubuntu5
 _ZN9__gnu_cxx13new_allocatorISt13_Rb_tree_nodeISt4pairIKN6TagLib5ID3v219RelativeVolumeFrame11ChannelTypeE11ChannelDataEEED1Ev@Base 1.7-1ubuntu5
 _ZN9__gnu_cxx13new_allocatorISt13_Rb_tree_nodeISt4pairIKN6TagLib5ID3v219RelativeVolumeFrame11ChannelTypeE11ChannelDataEEED2Ev@Base 1.7-1ubuntu5
 _ZN9__gnu_cxx13new_allocatorISt13_Rb_tree_nodeISt4pairIKN6TagLib6StringENS3_10StringListEEEE10deallocateEPS8_j@Base 1.7-1ubuntu5
 _ZN9__gnu_cxx13new_allocatorISt13_Rb_tree_nodeISt4pairIKN6TagLib6StringENS3_10StringListEEEE8allocateEjPKv@Base 1.7-1ubuntu5
 _ZN9__gnu_cxx13new_allocatorISt13_Rb_tree_nodeISt4pairIKN6TagLib6StringENS3_10StringListEEEEC1ERKS9_@Base 1.7-1ubuntu5
 _ZN9__gnu_cxx13new_allocatorISt13_Rb_tree_nodeISt4pairIKN6TagLib6StringENS3_10StringListEEEEC1Ev@Base 1.7-1ubuntu5
 _ZN9__gnu_cxx13new_allocatorISt13_Rb_tree_nodeISt4pairIKN6TagLib6StringENS3_10StringListEEEEC2ERKS9_@Base 1.7-1ubuntu5
 _ZN9__gnu_cxx13new_allocatorISt13_Rb_tree_nodeISt4pairIKN6TagLib6StringENS3_10StringListEEEEC2Ev@Base 1.7-1ubuntu5
 _ZN9__gnu_cxx13new_allocatorISt13_Rb_tree_nodeISt4pairIKN6TagLib6StringENS3_10StringListEEEED1Ev@Base 1.7-1ubuntu5
 _ZN9__gnu_cxx13new_allocatorISt13_Rb_tree_nodeISt4pairIKN6TagLib6StringENS3_10StringListEEEED2Ev@Base 1.7-1ubuntu5
 _ZN9__gnu_cxx13new_allocatorISt13_Rb_tree_nodeISt4pairIKN6TagLib6StringENS3_3APE4ItemEEEE10deallocateEPS9_j@Base 1.7-1ubuntu5
 _ZN9__gnu_cxx13new_allocatorISt13_Rb_tree_nodeISt4pairIKN6TagLib6StringENS3_3APE4ItemEEEE8allocateEjPKv@Base 1.7-1ubuntu5
 _ZN9__gnu_cxx13new_allocatorISt13_Rb_tree_nodeISt4pairIKN6TagLib6StringENS3_3APE4ItemEEEEC1ERKSA_@Base 1.7-1ubuntu5
 _ZN9__gnu_cxx13new_allocatorISt13_Rb_tree_nodeISt4pairIKN6TagLib6StringENS3_3APE4ItemEEEEC1Ev@Base 1.7-1ubuntu5
 _ZN9__gnu_cxx13new_allocatorISt13_Rb_tree_nodeISt4pairIKN6TagLib6StringENS3_3APE4ItemEEEEC2ERKSA_@Base 1.7-1ubuntu5
 _ZN9__gnu_cxx13new_allocatorISt13_Rb_tree_nodeISt4pairIKN6TagLib6StringENS3_3APE4ItemEEEEC2Ev@Base 1.7-1ubuntu5
 _ZN9__gnu_cxx13new_allocatorISt13_Rb_tree_nodeISt4pairIKN6TagLib6StringENS3_3APE4ItemEEEED1Ev@Base 1.7-1ubuntu5
 _ZN9__gnu_cxx13new_allocatorISt13_Rb_tree_nodeISt4pairIKN6TagLib6StringENS3_3APE4ItemEEEED2Ev@Base 1.7-1ubuntu5
 _ZN9__gnu_cxx13new_allocatorISt13_Rb_tree_nodeISt4pairIKN6TagLib6StringENS3_3MP44ItemEEEE10deallocateEPS9_j@Base 1.7-1ubuntu5
 _ZN9__gnu_cxx13new_allocatorISt13_Rb_tree_nodeISt4pairIKN6TagLib6StringENS3_3MP44ItemEEEE8allocateEjPKv@Base 1.7-1ubuntu5
 _ZN9__gnu_cxx13new_allocatorISt13_Rb_tree_nodeISt4pairIKN6TagLib6StringENS3_3MP44ItemEEEEC1ERKSA_@Base 1.7-1ubuntu5
 _ZN9__gnu_cxx13new_allocatorISt13_Rb_tree_nodeISt4pairIKN6TagLib6StringENS3_3MP44ItemEEEEC1Ev@Base 1.7-1ubuntu5
 _ZN9__gnu_cxx13new_allocatorISt13_Rb_tree_nodeISt4pairIKN6TagLib6StringENS3_3MP44ItemEEEEC2ERKSA_@Base 1.7-1ubuntu5
 _ZN9__gnu_cxx13new_allocatorISt13_Rb_tree_nodeISt4pairIKN6TagLib6StringENS3_3MP44ItemEEEEC2Ev@Base 1.7-1ubuntu5
 _ZN9__gnu_cxx13new_allocatorISt13_Rb_tree_nodeISt4pairIKN6TagLib6StringENS3_3MP44ItemEEEED1Ev@Base 1.7-1ubuntu5
 _ZN9__gnu_cxx13new_allocatorISt13_Rb_tree_nodeISt4pairIKN6TagLib6StringENS3_3MP44ItemEEEED2Ev@Base 1.7-1ubuntu5
 _ZN9__gnu_cxx13new_allocatorISt13_Rb_tree_nodeISt4pairIKN6TagLib6StringENS3_4ListINS3_3ASF9AttributeEEEEEE10deallocateEPSB_j@Base 1.7-1ubuntu5
 _ZN9__gnu_cxx13new_allocatorISt13_Rb_tree_nodeISt4pairIKN6TagLib6StringENS3_4ListINS3_3ASF9AttributeEEEEEE8allocateEjPKv@Base 1.7-1ubuntu5
 _ZN9__gnu_cxx13new_allocatorISt13_Rb_tree_nodeISt4pairIKN6TagLib6StringENS3_4ListINS3_3ASF9AttributeEEEEEEC1ERKSC_@Base 1.7-1ubuntu5
 _ZN9__gnu_cxx13new_allocatorISt13_Rb_tree_nodeISt4pairIKN6TagLib6StringENS3_4ListINS3_3ASF9AttributeEEEEEEC1Ev@Base 1.7-1ubuntu5
 _ZN9__gnu_cxx13new_allocatorISt13_Rb_tree_nodeISt4pairIKN6TagLib6StringENS3_4ListINS3_3ASF9AttributeEEEEEEC2ERKSC_@Base 1.7-1ubuntu5
 _ZN9__gnu_cxx13new_allocatorISt13_Rb_tree_nodeISt4pairIKN6TagLib6StringENS3_4ListINS3_3ASF9AttributeEEEEEEC2Ev@Base 1.7-1ubuntu5
 _ZN9__gnu_cxx13new_allocatorISt13_Rb_tree_nodeISt4pairIKN6TagLib6StringENS3_4ListINS3_3ASF9AttributeEEEEEED1Ev@Base 1.7-1ubuntu5
 _ZN9__gnu_cxx13new_allocatorISt13_Rb_tree_nodeISt4pairIKN6TagLib6StringENS3_4ListINS3_3ASF9AttributeEEEEEED2Ev@Base 1.7-1ubuntu5
 _ZN9__gnu_cxx13new_allocatorISt13_Rb_tree_nodeISt4pairIKN6TagLib6StringEiEEE10deallocateEPS7_j@Base 1.7-1ubuntu5
 _ZN9__gnu_cxx13new_allocatorISt13_Rb_tree_nodeISt4pairIKN6TagLib6StringEiEEE8allocateEjPKv@Base 1.7-1ubuntu5
 _ZN9__gnu_cxx13new_allocatorISt13_Rb_tree_nodeISt4pairIKN6TagLib6StringEiEEEC1ERKS8_@Base 1.7-1ubuntu5
 _ZN9__gnu_cxx13new_allocatorISt13_Rb_tree_nodeISt4pairIKN6TagLib6StringEiEEEC1Ev@Base 1.7-1ubuntu5
 _ZN9__gnu_cxx13new_allocatorISt13_Rb_tree_nodeISt4pairIKN6TagLib6StringEiEEEC2ERKS8_@Base 1.7-1ubuntu5
 _ZN9__gnu_cxx13new_allocatorISt13_Rb_tree_nodeISt4pairIKN6TagLib6StringEiEEEC2Ev@Base 1.7-1ubuntu5
 _ZN9__gnu_cxx13new_allocatorISt13_Rb_tree_nodeISt4pairIKN6TagLib6StringEiEEED1Ev@Base 1.7-1ubuntu5
 _ZN9__gnu_cxx13new_allocatorISt13_Rb_tree_nodeISt4pairIKN6TagLib6StringEiEEED2Ev@Base 1.7-1ubuntu5
 _ZN9__gnu_cxx13new_allocatorISt13_Rb_tree_nodeISt4pairIKiN6TagLib10ByteVectorEEEE10deallocateEPS7_j@Base 1.7-1ubuntu5
 _ZN9__gnu_cxx13new_allocatorISt13_Rb_tree_nodeISt4pairIKiN6TagLib10ByteVectorEEEE8allocateEjPKv@Base 1.7-1ubuntu5
 _ZN9__gnu_cxx13new_allocatorISt13_Rb_tree_nodeISt4pairIKiN6TagLib10ByteVectorEEEEC1ERKS8_@Base 1.7-1ubuntu5
 _ZN9__gnu_cxx13new_allocatorISt13_Rb_tree_nodeISt4pairIKiN6TagLib10ByteVectorEEEEC1Ev@Base 1.7-1ubuntu5
 _ZN9__gnu_cxx13new_allocatorISt13_Rb_tree_nodeISt4pairIKiN6TagLib10ByteVectorEEEEC2ERKS8_@Base 1.7-1ubuntu5
 _ZN9__gnu_cxx13new_allocatorISt13_Rb_tree_nodeISt4pairIKiN6TagLib10ByteVectorEEEEC2Ev@Base 1.7-1ubuntu5
 _ZN9__gnu_cxx13new_allocatorISt13_Rb_tree_nodeISt4pairIKiN6TagLib10ByteVectorEEEED1Ev@Base 1.7-1ubuntu5
 _ZN9__gnu_cxx13new_allocatorISt13_Rb_tree_nodeISt4pairIKiN6TagLib10ByteVectorEEEED2Ev@Base 1.7-1ubuntu5
 _ZN9__gnu_cxx13new_allocatorISt4pairIKN6TagLib10ByteVectorENS2_4ListIPNS2_5ID3v25FrameEEEEE7destroyEPSA_@Base 1.7-1ubuntu5
 _ZN9__gnu_cxx13new_allocatorISt4pairIKN6TagLib10ByteVectorENS2_4ListIPNS2_5ID3v25FrameEEEEE9constructEPSA_RKSA_@Base 1.7-1ubuntu5
 _ZN9__gnu_cxx13new_allocatorISt4pairIKN6TagLib10ByteVectorENS2_4ListIPNS2_5ID3v25FrameEEEEEC1Ev@Base 1.7-1ubuntu5
 _ZN9__gnu_cxx13new_allocatorISt4pairIKN6TagLib10ByteVectorENS2_4ListIPNS2_5ID3v25FrameEEEEEC2Ev@Base 1.7-1ubuntu5
 _ZN9__gnu_cxx13new_allocatorISt4pairIKN6TagLib10ByteVectorENS2_4ListIPNS2_5ID3v25FrameEEEEED1Ev@Base 1.7-1ubuntu5
 _ZN9__gnu_cxx13new_allocatorISt4pairIKN6TagLib10ByteVectorENS2_4ListIPNS2_5ID3v25FrameEEEEED2Ev@Base 1.7-1ubuntu5
 _ZN9__gnu_cxx13new_allocatorISt4pairIKN6TagLib5ID3v219RelativeVolumeFrame11ChannelTypeE11ChannelDataEE7destroyEPS8_@Base 1.7-1ubuntu5
 _ZN9__gnu_cxx13new_allocatorISt4pairIKN6TagLib5ID3v219RelativeVolumeFrame11ChannelTypeE11ChannelDataEE9constructEPS8_RKS8_@Base 1.7-1ubuntu5
 _ZN9__gnu_cxx13new_allocatorISt4pairIKN6TagLib5ID3v219RelativeVolumeFrame11ChannelTypeE11ChannelDataEEC1Ev@Base 1.7-1ubuntu5
 _ZN9__gnu_cxx13new_allocatorISt4pairIKN6TagLib5ID3v219RelativeVolumeFrame11ChannelTypeE11ChannelDataEEC2Ev@Base 1.7-1ubuntu5
 _ZN9__gnu_cxx13new_allocatorISt4pairIKN6TagLib5ID3v219RelativeVolumeFrame11ChannelTypeE11ChannelDataEED1Ev@Base 1.7-1ubuntu5
 _ZN9__gnu_cxx13new_allocatorISt4pairIKN6TagLib5ID3v219RelativeVolumeFrame11ChannelTypeE11ChannelDataEED2Ev@Base 1.7-1ubuntu5
 _ZN9__gnu_cxx13new_allocatorISt4pairIKN6TagLib6StringENS2_10StringListEEE7destroyEPS6_@Base 1.7-1ubuntu5
 _ZN9__gnu_cxx13new_allocatorISt4pairIKN6TagLib6StringENS2_10StringListEEE9constructEPS6_RKS6_@Base 1.7-1ubuntu5
 _ZN9__gnu_cxx13new_allocatorISt4pairIKN6TagLib6StringENS2_10StringListEEEC1Ev@Base 1.7-1ubuntu5
 _ZN9__gnu_cxx13new_allocatorISt4pairIKN6TagLib6StringENS2_10StringListEEEC2Ev@Base 1.7-1ubuntu5
 _ZN9__gnu_cxx13new_allocatorISt4pairIKN6TagLib6StringENS2_10StringListEEED1Ev@Base 1.7-1ubuntu5
 _ZN9__gnu_cxx13new_allocatorISt4pairIKN6TagLib6StringENS2_10StringListEEED2Ev@Base 1.7-1ubuntu5
 _ZN9__gnu_cxx13new_allocatorISt4pairIKN6TagLib6StringENS2_3APE4ItemEEE7destroyEPS7_@Base 1.7-1ubuntu5
 _ZN9__gnu_cxx13new_allocatorISt4pairIKN6TagLib6StringENS2_3APE4ItemEEE9constructEPS7_RKS7_@Base 1.7-1ubuntu5
 _ZN9__gnu_cxx13new_allocatorISt4pairIKN6TagLib6StringENS2_3APE4ItemEEEC1Ev@Base 1.7-1ubuntu5
 _ZN9__gnu_cxx13new_allocatorISt4pairIKN6TagLib6StringENS2_3APE4ItemEEEC2Ev@Base 1.7-1ubuntu5
 _ZN9__gnu_cxx13new_allocatorISt4pairIKN6TagLib6StringENS2_3APE4ItemEEED1Ev@Base 1.7-1ubuntu5
 _ZN9__gnu_cxx13new_allocatorISt4pairIKN6TagLib6StringENS2_3APE4ItemEEED2Ev@Base 1.7-1ubuntu5
 _ZN9__gnu_cxx13new_allocatorISt4pairIKN6TagLib6StringENS2_3MP44ItemEEE7destroyEPS7_@Base 1.7-1ubuntu5
 _ZN9__gnu_cxx13new_allocatorISt4pairIKN6TagLib6StringENS2_3MP44ItemEEE9constructEPS7_RKS7_@Base 1.7-1ubuntu5
 _ZN9__gnu_cxx13new_allocatorISt4pairIKN6TagLib6StringENS2_3MP44ItemEEEC1Ev@Base 1.7-1ubuntu5
 _ZN9__gnu_cxx13new_allocatorISt4pairIKN6TagLib6StringENS2_3MP44ItemEEEC2Ev@Base 1.7-1ubuntu5
 _ZN9__gnu_cxx13new_allocatorISt4pairIKN6TagLib6StringENS2_3MP44ItemEEED1Ev@Base 1.7-1ubuntu5
 _ZN9__gnu_cxx13new_allocatorISt4pairIKN6TagLib6StringENS2_3MP44ItemEEED2Ev@Base 1.7-1ubuntu5
 _ZN9__gnu_cxx13new_allocatorISt4pairIKN6TagLib6StringENS2_4ListINS2_3ASF9AttributeEEEEE7destroyEPS9_@Base 1.7-1ubuntu5
 _ZN9__gnu_cxx13new_allocatorISt4pairIKN6TagLib6StringENS2_4ListINS2_3ASF9AttributeEEEEE9constructEPS9_RKS9_@Base 1.7-1ubuntu5
 _ZN9__gnu_cxx13new_allocatorISt4pairIKN6TagLib6StringENS2_4ListINS2_3ASF9AttributeEEEEEC1Ev@Base 1.7-1ubuntu5
 _ZN9__gnu_cxx13new_allocatorISt4pairIKN6TagLib6StringENS2_4ListINS2_3ASF9AttributeEEEEEC2Ev@Base 1.7-1ubuntu5
 _ZN9__gnu_cxx13new_allocatorISt4pairIKN6TagLib6StringENS2_4ListINS2_3ASF9AttributeEEEEED1Ev@Base 1.7-1ubuntu5
 _ZN9__gnu_cxx13new_allocatorISt4pairIKN6TagLib6StringENS2_4ListINS2_3ASF9AttributeEEEEED2Ev@Base 1.7-1ubuntu5
 _ZN9__gnu_cxx13new_allocatorISt4pairIKN6TagLib6StringEiEE7destroyEPS5_@Base 1.7-1ubuntu5
 _ZN9__gnu_cxx13new_allocatorISt4pairIKN6TagLib6StringEiEE9constructEPS5_RKS5_@Base 1.7-1ubuntu5
 _ZN9__gnu_cxx13new_allocatorISt4pairIKN6TagLib6StringEiEEC1Ev@Base 1.7-1ubuntu5
 _ZN9__gnu_cxx13new_allocatorISt4pairIKN6TagLib6StringEiEEC2Ev@Base 1.7-1ubuntu5
 _ZN9__gnu_cxx13new_allocatorISt4pairIKN6TagLib6StringEiEED1Ev@Base 1.7-1ubuntu5
 _ZN9__gnu_cxx13new_allocatorISt4pairIKN6TagLib6StringEiEED2Ev@Base 1.7-1ubuntu5
 _ZN9__gnu_cxx13new_allocatorISt4pairIKiN6TagLib10ByteVectorEEE7destroyEPS5_@Base 1.7-1ubuntu5
 _ZN9__gnu_cxx13new_allocatorISt4pairIKiN6TagLib10ByteVectorEEE9constructEPS5_RKS5_@Base 1.7-1ubuntu5
 _ZN9__gnu_cxx13new_allocatorISt4pairIKiN6TagLib10ByteVectorEEEC1Ev@Base 1.7-1ubuntu5
 _ZN9__gnu_cxx13new_allocatorISt4pairIKiN6TagLib10ByteVectorEEEC2Ev@Base 1.7-1ubuntu5
 _ZN9__gnu_cxx13new_allocatorISt4pairIKiN6TagLib10ByteVectorEEED1Ev@Base 1.7-1ubuntu5
 _ZN9__gnu_cxx13new_allocatorISt4pairIKiN6TagLib10ByteVectorEEED2Ev@Base 1.7-1ubuntu5
 _ZN9__gnu_cxx13new_allocatorIcE10deallocateEPcj@Base 1.7-1ubuntu5
 _ZN9__gnu_cxx13new_allocatorIcE7destroyEPc@Base 1.7-1ubuntu5
 _ZN9__gnu_cxx13new_allocatorIcE8allocateEjPKv@Base 1.7-1ubuntu5
 _ZN9__gnu_cxx13new_allocatorIcE9constructEPcRKc@Base 1.7-1ubuntu5
 _ZN9__gnu_cxx13new_allocatorIiE7destroyEPi@Base 1.7-1ubuntu5
 _ZN9__gnu_cxx13new_allocatorIiE9constructEPiRKi@Base 1.7-1ubuntu5
 _ZN9__gnu_cxx13new_allocatorIiEC1Ev@Base 1.7-1ubuntu5
 _ZN9__gnu_cxx13new_allocatorIiEC2Ev@Base 1.7-1ubuntu5
 _ZN9__gnu_cxx13new_allocatorIiED1Ev@Base 1.7-1ubuntu5
 _ZN9__gnu_cxx13new_allocatorIiED2Ev@Base 1.7-1ubuntu5
 _ZN9__gnu_cxx17__is_null_pointerINS_17__normal_iteratorIPKwSbIwSt11char_traitsIwESaIwEEEEEEbT_@Base 1.7-1ubuntu5
 _ZN9__gnu_cxx17__normal_iteratorIP5ChunkSt6vectorIS1_SaIS1_EEEC1ERKS2_@Base 1.7-1ubuntu5
 _ZN9__gnu_cxx17__normal_iteratorIP5ChunkSt6vectorIS1_SaIS1_EEEC2ERKS2_@Base 1.7-1ubuntu5
 _ZN9__gnu_cxx17__normal_iteratorIPKcSsEC1ERKS2_@Base 1.7-1ubuntu5
 _ZN9__gnu_cxx17__normal_iteratorIPKcSsEC2ERKS2_@Base 1.7-1ubuntu5
 _ZN9__gnu_cxx17__normal_iteratorIPKcSsEppEi@Base 1.7-1ubuntu5
 _ZN9__gnu_cxx17__normal_iteratorIPKcSt6vectorIcSaIcEEEC1ERKS2_@Base 1.7-1ubuntu5
 _ZN9__gnu_cxx17__normal_iteratorIPKcSt6vectorIcSaIcEEEC1Ev@Base 1.7-1ubuntu5
 _ZN9__gnu_cxx17__normal_iteratorIPKcSt6vectorIcSaIcEEEC1IPcEERKNS0_IT_NS_11__enable_ifIXsrSt10__are_sameIS9_S8_E7__valueES5_E6__typeEEE@Base 1.7-1ubuntu5
 _ZN9__gnu_cxx17__normal_iteratorIPKcSt6vectorIcSaIcEEEC2ERKS2_@Base 1.7-1ubuntu5
 _ZN9__gnu_cxx17__normal_iteratorIPKcSt6vectorIcSaIcEEEC2Ev@Base 1.7-1ubuntu5
 _ZN9__gnu_cxx17__normal_iteratorIPKcSt6vectorIcSaIcEEEC2IPcEERKNS0_IT_NS_11__enable_ifIXsrSt10__are_sameIS9_S8_E7__valueES5_E6__typeEEE@Base 1.7-1ubuntu5
 _ZN9__gnu_cxx17__normal_iteratorIPKcSt6vectorIcSaIcEEEpLERKi@Base 1.7-1ubuntu5
 _ZN9__gnu_cxx17__normal_iteratorIPKcSt6vectorIcSaIcEEEppEi@Base 1.7-1ubuntu5
 _ZN9__gnu_cxx17__normal_iteratorIPKcSt6vectorIcSaIcEEEppEv@Base 1.7-1ubuntu5
 _ZN9__gnu_cxx17__normal_iteratorIPKwSbIwSt11char_traitsIwESaIwEEEC1ERKS2_@Base 1.7-1ubuntu5
 _ZN9__gnu_cxx17__normal_iteratorIPKwSbIwSt11char_traitsIwESaIwEEEC1IPwEERKNS0_IT_NS_11__enable_ifIXsrSt10__are_sameISA_S9_E7__valueES6_E6__typeEEE@Base 1.7-1ubuntu5
 _ZN9__gnu_cxx17__normal_iteratorIPKwSbIwSt11char_traitsIwESaIwEEEC2ERKS2_@Base 1.7-1ubuntu5
 _ZN9__gnu_cxx17__normal_iteratorIPKwSbIwSt11char_traitsIwESaIwEEEC2IPwEERKNS0_IT_NS_11__enable_ifIXsrSt10__are_sameISA_S9_E7__valueES6_E6__typeEEE@Base 1.7-1ubuntu5
 _ZN9__gnu_cxx17__normal_iteratorIPKwSbIwSt11char_traitsIwESaIwEEEmmEv@Base 1.7-1ubuntu5
 _ZN9__gnu_cxx17__normal_iteratorIPKwSbIwSt11char_traitsIwESaIwEEEppEi@Base 1.7-1ubuntu5
 _ZN9__gnu_cxx17__normal_iteratorIPKwSbIwSt11char_traitsIwESaIwEEEppEv@Base 1.7-1ubuntu5
 _ZN9__gnu_cxx17__normal_iteratorIPN6TagLib4ListIiEESt6vectorIS3_SaIS3_EEEC1ERKS4_@Base 1.7-1ubuntu5
 _ZN9__gnu_cxx17__normal_iteratorIPN6TagLib4ListIiEESt6vectorIS3_SaIS3_EEEC2ERKS4_@Base 1.7-1ubuntu5
 _ZN9__gnu_cxx17__normal_iteratorIPcSsEppEv@Base 1.7-1ubuntu5
 _ZN9__gnu_cxx17__normal_iteratorIPcSt6vectorIcSaIcEEEC1ERKS1_@Base 1.7-1ubuntu5
 _ZN9__gnu_cxx17__normal_iteratorIPcSt6vectorIcSaIcEEEC2ERKS1_@Base 1.7-1ubuntu5
 _ZN9__gnu_cxx17__normal_iteratorIPcSt6vectorIcSaIcEEEppEi@Base 1.7-1ubuntu5
 _ZN9__gnu_cxx17__normal_iteratorIPwSbIwSt11char_traitsIwESaIwEEEC1ERKS1_@Base 1.7-1ubuntu5
 _ZN9__gnu_cxx17__normal_iteratorIPwSbIwSt11char_traitsIwESaIwEEEC2ERKS1_@Base 1.7-1ubuntu5
 _ZN9__gnu_cxx17__normal_iteratorIPwSbIwSt11char_traitsIwESaIwEEEppEv@Base 1.7-1ubuntu5
 _ZN9__gnu_cxxeqIPKwSbIwSt11char_traitsIwESaIwEEEEbRKNS_17__normal_iteratorIT_T0_EESC_@Base 1.7-1ubuntu5
 _ZN9__gnu_cxxmiIP5ChunkSt6vectorIS1_SaIS1_EEEENS_17__normal_iteratorIT_T0_E15difference_typeERKS9_SC_@Base 1.7-1ubuntu5
 _ZN9__gnu_cxxmiIPKcSt6vectorIcSaIcEEEENS_17__normal_iteratorIT_T0_E15difference_typeERKS9_SC_@Base 1.7-1ubuntu5
 _ZN9__gnu_cxxmiIPKwSbIwSt11char_traitsIwESaIwEEEENS_17__normal_iteratorIT_T0_E15difference_typeERKSA_SD_@Base 1.7-1ubuntu5
 _ZN9__gnu_cxxmiIPN6TagLib4ListIiEESt6vectorIS3_SaIS3_EEEENS_17__normal_iteratorIT_T0_E15difference_typeERKSB_SE_@Base 1.7-1ubuntu5
 _ZN9__gnu_cxxmiIPcSt6vectorIcSaIcEEEENS_17__normal_iteratorIT_T0_E15difference_typeERKS8_SB_@Base 1.7-1ubuntu5
 _ZN9__gnu_cxxneIPKcPcSt6vectorIcSaIcEEEEbRKNS_17__normal_iteratorIT_T1_EERKNS7_IT0_S9_EE@Base 1.7-1ubuntu5
 _ZN9__gnu_cxxneIPKcSsEEbRKNS_17__normal_iteratorIT_T0_EES8_@Base 1.7-1ubuntu5
 _ZN9__gnu_cxxneIPKcSt6vectorIcSaIcEEEEbRKNS_17__normal_iteratorIT_T0_EESB_@Base 1.7-1ubuntu5
 _ZN9__gnu_cxxneIPKwPwSbIwSt11char_traitsIwESaIwEEEEbRKNS_17__normal_iteratorIT_T1_EERKNS8_IT0_SA_EE@Base 1.7-1ubuntu5
 _ZN9__gnu_cxxneIPKwSbIwSt11char_traitsIwESaIwEEEEbRKNS_17__normal_iteratorIT_T0_EESC_@Base 1.7-1ubuntu5
 _ZN9__gnu_cxxneIPcSt6vectorIcSaIcEEEEbRKNS_17__normal_iteratorIT_T0_EESA_@Base 1.7-1ubuntu5
 _ZNK6TagLib10ByteVector10containsAtERKS0_jjj@Base 1.4 1
 _ZNK6TagLib10ByteVector10startsWithERKS0_@Base 1.4 1
 _ZNK6TagLib10ByteVector10toLongLongEb@Base 1.4 1
 _ZNK6TagLib10ByteVector20endsWithPartialMatchERKS0_@Base 1.4 1
 _ZNK6TagLib10ByteVector2atEj@Base 1.4 1
 _ZNK6TagLib10ByteVector3endEv@Base 1.4 1
 _ZNK6TagLib10ByteVector3midEjj@Base 1.4 1
 _ZNK6TagLib10ByteVector4dataEv@Base 1.4 1
 _ZNK6TagLib10ByteVector4findERKS0_ji@Base 1.4 1
 _ZNK6TagLib10ByteVector4sizeEv@Base 1.4 1
 _ZNK6TagLib10ByteVector5beginEv@Base 1.4 1
 _ZNK6TagLib10ByteVector5rfindERKS0_ji@Base 1.4 1
 _ZNK6TagLib10ByteVector5toHexEv@Base 1.7
 _ZNK6TagLib10ByteVector6isNullEv@Base 1.4 1
 _ZNK6TagLib10ByteVector6toUIntEb@Base 1.4 1
 _ZNK6TagLib10ByteVector7isEmptyEv@Base 1.4 1
 _ZNK6TagLib10ByteVector7toShortEb@Base 1.4 1
 _ZNK6TagLib10ByteVector8checksumEv@Base 1.4 1
 _ZNK6TagLib10ByteVector8endsWithERKS0_@Base 1.4 1
 _ZNK6TagLib10ByteVector8toUShortEb@Base 1.7
 _ZNK6TagLib10ByteVectoreqEPKc@Base 1.4 1
 _ZNK6TagLib10ByteVectoreqERKS0_@Base 1.4 1
 _ZNK6TagLib10ByteVectorgtERKS0_@Base 1.4 1
 _ZNK6TagLib10ByteVectorixEi@Base 1.4 1
 _ZNK6TagLib10ByteVectorltERKS0_@Base 1.4 1
 _ZNK6TagLib10ByteVectorneEPKc@Base 1.4 1
 _ZNK6TagLib10ByteVectorneERKS0_@Base 1.4 1
 _ZNK6TagLib10ByteVectorplERKS0_@Base 1.4 1
 _ZNK6TagLib10StringList8toStringERKNS_6StringE@Base 1.4 1
 _ZNK6TagLib14ByteVectorList12toByteVectorERKNS_10ByteVectorE@Base 1.4 1
 _ZNK6TagLib3APE10Properties10sampleRateEv@Base 1.7
 _ZNK6TagLib3APE10Properties13bitsPerSampleEv@Base 1.7
 _ZNK6TagLib3APE10Properties6lengthEv@Base 1.7
 _ZNK6TagLib3APE10Properties7bitrateEv@Base 1.7
 _ZNK6TagLib3APE10Properties7versionEv@Base 1.7
 _ZNK6TagLib3APE10Properties8channelsEv@Base 1.7
 _ZNK6TagLib3APE3Tag11itemListMapEv@Base 1.4 1
 _ZNK6TagLib3APE3Tag4yearEv@Base 1.4 1
 _ZNK6TagLib3APE3Tag5albumEv@Base 1.4 1
 _ZNK6TagLib3APE3Tag5genreEv@Base 1.4 1
 _ZNK6TagLib3APE3Tag5titleEv@Base 1.4 1
 _ZNK6TagLib3APE3Tag5trackEv@Base 1.4 1
 _ZNK6TagLib3APE3Tag6artistEv@Base 1.4 1
 _ZNK6TagLib3APE3Tag6footerEv@Base 1.4 1
 _ZNK6TagLib3APE3Tag6renderEv@Base 1.4 1
 _ZNK6TagLib3APE3Tag7commentEv@Base 1.4 1
 _ZNK6TagLib3APE3Tag7isEmptyEv@Base 1.7
 _ZNK6TagLib3APE4File15audioPropertiesEv@Base 1.7
 _ZNK6TagLib3APE4File3tagEv@Base 1.7
 _ZNK6TagLib3APE4Item10isReadOnlyEv@Base 1.4 1
 _ZNK6TagLib3APE4Item12toStringListEv@Base 1.4 1
 _ZNK6TagLib3APE4Item3keyEv@Base 1.4 1
 _ZNK6TagLib3APE4Item4sizeEv@Base 1.4 1
 _ZNK6TagLib3APE4Item4typeEv@Base 1.4 1
 _ZNK6TagLib3APE4Item5valueEv@Base 1.4 1
 _ZNK6TagLib3APE4Item6renderEv@Base 1.4 1
 _ZNK6TagLib3APE4Item6valuesEv@Base 1.5
 _ZNK6TagLib3APE4Item7isEmptyEv@Base 1.4 1
 _ZNK6TagLib3APE4Item8toStringEv@Base 1.4 1
 _ZNK6TagLib3APE6Footer12renderFooterEv@Base 1.4 1
 _ZNK6TagLib3APE6Footer12renderHeaderEv@Base 1.4 1
 _ZNK6TagLib3APE6Footer13footerPresentEv@Base 1.4 1
 _ZNK6TagLib3APE6Footer13headerPresentEv@Base 1.4 1
 _ZNK6TagLib3APE6Footer15completeTagSizeEv@Base 1.4 1
 _ZNK6TagLib3APE6Footer16setHeaderPresentEb@Base 1.4 1
 _ZNK6TagLib3APE6Footer6renderEb@Base 1.4 1
 _ZNK6TagLib3APE6Footer7tagSizeEv@Base 1.4 1
 _ZNK6TagLib3APE6Footer7versionEv@Base 1.4 1
 _ZNK6TagLib3APE6Footer8isHeaderEv@Base 1.4 1
 _ZNK6TagLib3APE6Footer9itemCountEv@Base 1.4 1
 _ZNK6TagLib3ASF10Properties10sampleRateEv@Base 1.6-2~
 _ZNK6TagLib3ASF10Properties6lengthEv@Base 1.6-2~
 _ZNK6TagLib3ASF10Properties7bitrateEv@Base 1.6-2~
 _ZNK6TagLib3ASF10Properties8channelsEv@Base 1.6-2~
 _ZNK6TagLib3ASF3Tag4yearEv@Base 1.6-2~
 _ZNK6TagLib3ASF3Tag5albumEv@Base 1.6-2~
 _ZNK6TagLib3ASF3Tag5genreEv@Base 1.6-2~
 _ZNK6TagLib3ASF3Tag5titleEv@Base 1.6-2~
 _ZNK6TagLib3ASF3Tag5trackEv@Base 1.6-2~
 _ZNK6TagLib3ASF3Tag6artistEv@Base 1.6-2~
 _ZNK6TagLib3ASF3Tag6ratingEv@Base 1.6-2~
 _ZNK6TagLib3ASF3Tag7commentEv@Base 1.6-2~
 _ZNK6TagLib3ASF3Tag7isEmptyEv@Base 1.6-2~
 _ZNK6TagLib3ASF3Tag9copyrightEv@Base 1.6-2~
 _ZNK6TagLib3ASF4File15audioPropertiesEv@Base 1.6-2~
 _ZNK6TagLib3ASF4File3tagEv@Base 1.6-2~
 _ZNK6TagLib3ASF7Picture11descriptionEv@Base 1.7
 _ZNK6TagLib3ASF7Picture4typeEv@Base 1.7
 _ZNK6TagLib3ASF7Picture6renderEv@Base 1.7
 _ZNK6TagLib3ASF7Picture7isValidEv@Base 1.7
 _ZNK6TagLib3ASF7Picture7pictureEv@Base 1.7
 _ZNK6TagLib3ASF7Picture8dataSizeEv@Base 1.7
 _ZNK6TagLib3ASF7Picture8mimeTypeEv@Base 1.7
 _ZNK6TagLib3ASF9Attribute11toULongLongEv@Base 1.6-2~
 _ZNK6TagLib3ASF9Attribute12toByteVectorEv@Base 1.6-2~
 _ZNK6TagLib3ASF9Attribute4typeEv@Base 1.6-2~
 _ZNK6TagLib3ASF9Attribute6renderERKNS_6StringEi@Base 1.6-2~
 _ZNK6TagLib3ASF9Attribute6streamEv@Base 1.6-2~
 _ZNK6TagLib3ASF9Attribute6toBoolEv@Base 1.6-2~
 _ZNK6TagLib3ASF9Attribute6toUIntEv@Base 1.6-2~
 _ZNK6TagLib3ASF9Attribute8dataSizeEv@Base 1.6.2
 _ZNK6TagLib3ASF9Attribute8languageEv@Base 1.6-2~
 _ZNK6TagLib3ASF9Attribute8toStringEv@Base 1.6-2~
 _ZNK6TagLib3ASF9Attribute8toUShortEv@Base 1.6-2~
 _ZNK6TagLib3ASF9Attribute9toPictureEv@Base 1.7
 _ZNK6TagLib3MP410Properties10sampleRateEv@Base 1.6-2~
 _ZNK6TagLib3MP410Properties13bitsPerSampleEv@Base 1.6-2~
 _ZNK6TagLib3MP410Properties6lengthEv@Base 1.6-2~
 _ZNK6TagLib3MP410Properties7bitrateEv@Base 1.6-2~
 _ZNK6TagLib3MP410Properties8channelsEv@Base 1.6-2~
 _ZNK6TagLib3MP43Tag4yearEv@Base 1.6-2~
 _ZNK6TagLib3MP43Tag5albumEv@Base 1.6-2~
 _ZNK6TagLib3MP43Tag5genreEv@Base 1.6-2~
 _ZNK6TagLib3MP43Tag5titleEv@Base 1.6-2~
 _ZNK6TagLib3MP43Tag5trackEv@Base 1.6-2~
 _ZNK6TagLib3MP43Tag6artistEv@Base 1.6-2~
 _ZNK6TagLib3MP43Tag7commentEv@Base 1.6-2~
 _ZNK6TagLib3MP44File15audioPropertiesEv@Base 1.6-2~
 _ZNK6TagLib3MP44File3tagEv@Base 1.6-2~
 _ZNK6TagLib3MP44Item12toStringListEv@Base 1.6-2~
 _ZNK6TagLib3MP44Item14toCoverArtListEv@Base 1.6.1
 _ZNK6TagLib3MP44Item5toIntEv@Base 1.6-2~
 _ZNK6TagLib3MP44Item6toBoolEv@Base 1.6-2~
 _ZNK6TagLib3MP44Item7isValidEv@Base 1.6-2~
 _ZNK6TagLib3MP44Item9toIntPairEv@Base 1.6-2~
 _ZNK6TagLib3MP48CoverArt4dataEv@Base 1.6.1
 _ZNK6TagLib3MP48CoverArt6formatEv@Base 1.6.1
 _ZNK6TagLib3MPC10Properties10mpcVersionEv@Base 1.4 1
 _ZNK6TagLib3MPC10Properties10sampleRateEv@Base 1.4 1
 _ZNK6TagLib3MPC10Properties6lengthEv@Base 1.4 1
 _ZNK6TagLib3MPC10Properties7bitrateEv@Base 1.4 1
 _ZNK6TagLib3MPC10Properties8channelsEv@Base 1.4 1
 _ZNK6TagLib3MPC4File15audioPropertiesEv@Base 1.4 1
 _ZNK6TagLib3MPC4File3tagEv@Base 1.4 1
 _ZNK6TagLib3Ogg10PageHeader11packetSizesEv@Base 1.4 1
 _ZNK6TagLib3Ogg10PageHeader12lacingValuesEv@Base 1.4 1
 _ZNK6TagLib3Ogg10PageHeader16lastPageOfStreamEv@Base 1.4 1
 _ZNK6TagLib3Ogg10PageHeader17firstPageOfStreamEv@Base 1.4 1
 _ZNK6TagLib3Ogg10PageHeader18pageSequenceNumberEv@Base 1.4 1
 _ZNK6TagLib3Ogg10PageHeader18streamSerialNumberEv@Base 1.4 1
 _ZNK6TagLib3Ogg10PageHeader19lastPacketCompletedEv@Base 1.4 1
 _ZNK6TagLib3Ogg10PageHeader20firstPacketContinuedEv@Base 1.4 1
 _ZNK6TagLib3Ogg10PageHeader24absoluteGranularPositionEv@Base 1.4 1
 _ZNK6TagLib3Ogg10PageHeader4sizeEv@Base 1.4 1
 _ZNK6TagLib3Ogg10PageHeader6renderEv@Base 1.4 1
 _ZNK6TagLib3Ogg10PageHeader7isValidEv@Base 1.4 1
 _ZNK6TagLib3Ogg10PageHeader8dataSizeEv@Base 1.4 1
 _ZNK6TagLib3Ogg11XiphComment10fieldCountEv@Base 1.4 1
 _ZNK6TagLib3Ogg11XiphComment12fieldListMapEv@Base 1.4 1
 _ZNK6TagLib3Ogg11XiphComment4yearEv@Base 1.4 1
 _ZNK6TagLib3Ogg11XiphComment5albumEv@Base 1.4 1
 _ZNK6TagLib3Ogg11XiphComment5genreEv@Base 1.4 1
 _ZNK6TagLib3Ogg11XiphComment5titleEv@Base 1.4 1
 _ZNK6TagLib3Ogg11XiphComment5trackEv@Base 1.4 1
 _ZNK6TagLib3Ogg11XiphComment6artistEv@Base 1.4 1
 _ZNK6TagLib3Ogg11XiphComment6renderEb@Base 1.4 1
 _ZNK6TagLib3Ogg11XiphComment6renderEv@Base 1.4 1
 _ZNK6TagLib3Ogg11XiphComment7commentEv@Base 1.4 1
 _ZNK6TagLib3Ogg11XiphComment7isEmptyEv@Base 1.4 1
 _ZNK6TagLib3Ogg11XiphComment8containsERKNS_6StringE@Base 1.5
 _ZNK6TagLib3Ogg11XiphComment8vendorIDEv@Base 1.4 1
 _ZNK6TagLib3Ogg4FLAC4File15audioPropertiesEv@Base 1.4 1
 _ZNK6TagLib3Ogg4FLAC4File3tagEv@Base 1.4 1
 _ZNK6TagLib3Ogg4Page10fileOffsetEv@Base 1.4 1
 _ZNK6TagLib3Ogg4Page11packetCountEv@Base 1.4 1
 _ZNK6TagLib3Ogg4Page14containsPacketEi@Base 1.4 1
 _ZNK6TagLib3Ogg4Page16firstPacketIndexEv@Base 1.4 1
 _ZNK6TagLib3Ogg4Page4sizeEv@Base 1.4 1
 _ZNK6TagLib3Ogg4Page6headerEv@Base 1.4 1
 _ZNK6TagLib3Ogg4Page6renderEv@Base 1.4 1
 _ZNK6TagLib3Ogg4Page7packetsEv@Base 1.4 1
 _ZNK6TagLib3Ogg5Speex10Properties10sampleRateEv@Base 1.5
 _ZNK6TagLib3Ogg5Speex10Properties12speexVersionEv@Base 1.5
 _ZNK6TagLib3Ogg5Speex10Properties6lengthEv@Base 1.5
 _ZNK6TagLib3Ogg5Speex10Properties7bitrateEv@Base 1.5
 _ZNK6TagLib3Ogg5Speex10Properties8channelsEv@Base 1.5
 _ZNK6TagLib3Ogg5Speex4File15audioPropertiesEv@Base 1.5
 _ZNK6TagLib3Ogg5Speex4File3tagEv@Base 1.5
 _ZNK6TagLib3Tag7isEmptyEv@Base 1.4 1
 _ZNK6TagLib4FLAC10Properties10sampleRateEv@Base 1.4 1
 _ZNK6TagLib4FLAC10Properties11sampleWidthEv@Base 1.4 1
 _ZNK6TagLib4FLAC10Properties6lengthEv@Base 1.4 1
 _ZNK6TagLib4FLAC10Properties7bitrateEv@Base 1.4 1
 _ZNK6TagLib4FLAC10Properties8channelsEv@Base 1.4 1
 _ZNK6TagLib4FLAC10Properties9signatureEv@Base 1.7
 _ZNK6TagLib4FLAC20UnknownMetadataBlock4codeEv@Base 1.7
 _ZNK6TagLib4FLAC20UnknownMetadataBlock4dataEv@Base 1.7
 _ZNK6TagLib4FLAC20UnknownMetadataBlock6renderEv@Base 1.7
 _ZNK6TagLib4FLAC4File15audioPropertiesEv@Base 1.4 1
 _ZNK6TagLib4FLAC4File15xiphCommentDataEv@Base 1.5
 _ZNK6TagLib4FLAC4File3tagEv@Base 1.4 1
 _ZNK6TagLib4FLAC7Picture10colorDepthEv@Base 1.7
 _ZNK6TagLib4FLAC7Picture11descriptionEv@Base 1.7
 _ZNK6TagLib4FLAC7Picture4codeEv@Base 1.7
 _ZNK6TagLib4FLAC7Picture4dataEv@Base 1.7
 _ZNK6TagLib4FLAC7Picture4typeEv@Base 1.7
 _ZNK6TagLib4FLAC7Picture5widthEv@Base 1.7
 _ZNK6TagLib4FLAC7Picture6heightEv@Base 1.7
 _ZNK6TagLib4FLAC7Picture6renderEv@Base 1.7
 _ZNK6TagLib4FLAC7Picture8mimeTypeEv@Base 1.7
 _ZNK6TagLib4FLAC7Picture9numColorsEv@Base 1.7
 _ZNK6TagLib4File4nameEv@Base 1.4 1
 _ZNK6TagLib4File4tellEv@Base 1.4 1
 _ZNK6TagLib4File6isOpenEv@Base 1.4 1
 _ZNK6TagLib4File7isValidEv@Base 1.4 1
 _ZNK6TagLib4File8readOnlyEv@Base 1.4 1
 _ZNK6TagLib4MPEG10Properties10isOriginalEv@Base 1.4 1
 _ZNK6TagLib4MPEG10Properties10sampleRateEv@Base 1.4 1
 _ZNK6TagLib4MPEG10Properties10xingHeaderEv@Base 1.5
 _ZNK6TagLib4MPEG10Properties11channelModeEv@Base 1.4 1
 _ZNK6TagLib4MPEG10Properties13isCopyrightedEv@Base 1.4 1
 _ZNK6TagLib4MPEG10Properties17protectionEnabledEv@Base 1.5
 _ZNK6TagLib4MPEG10Properties5layerEv@Base 1.4 1
 _ZNK6TagLib4MPEG10Properties6lengthEv@Base 1.4 1
 _ZNK6TagLib4MPEG10Properties7bitrateEv@Base 1.4 1
 _ZNK6TagLib4MPEG10Properties7versionEv@Base 1.4 1
 _ZNK6TagLib4MPEG10Properties8channelsEv@Base 1.4 1
 _ZNK6TagLib4MPEG10XingHeader11totalFramesEv@Base 1.4 1
 _ZNK6TagLib4MPEG10XingHeader7isValidEv@Base 1.4 1
 _ZNK6TagLib4MPEG10XingHeader9totalSizeEv@Base 1.4 1
 _ZNK6TagLib4MPEG4File15audioPropertiesEv@Base 1.4 1
 _ZNK6TagLib4MPEG4File3tagEv@Base 1.4 1
 _ZNK6TagLib4MPEG6Header10isOriginalEv@Base 1.4 1
 _ZNK6TagLib4MPEG6Header10sampleRateEv@Base 1.4 1
 _ZNK6TagLib4MPEG6Header11channelModeEv@Base 1.4 1
 _ZNK6TagLib4MPEG6Header11frameLengthEv@Base 1.4 1
 _ZNK6TagLib4MPEG6Header13isCopyrightedEv@Base 1.4 1
 _ZNK6TagLib4MPEG6Header15samplesPerFrameEv@Base 1.5
 _ZNK6TagLib4MPEG6Header17protectionEnabledEv@Base 1.4 1
 _ZNK6TagLib4MPEG6Header5layerEv@Base 1.4 1
 _ZNK6TagLib4MPEG6Header7bitrateEv@Base 1.4 1
 _ZNK6TagLib4MPEG6Header7isValidEv@Base 1.4 1
 _ZNK6TagLib4MPEG6Header7versionEv@Base 1.4 1
 _ZNK6TagLib4MPEG6Header8isPaddedEv@Base 1.4 1
 _ZNK6TagLib4RIFF3WAV10Properties10sampleRateEv@Base 1.6
 _ZNK6TagLib4RIFF3WAV10Properties11sampleWidthEv@Base 1.7
 _ZNK6TagLib4RIFF3WAV10Properties6lengthEv@Base 1.6
 _ZNK6TagLib4RIFF3WAV10Properties7bitrateEv@Base 1.6
 _ZNK6TagLib4RIFF3WAV10Properties8channelsEv@Base 1.6
 _ZNK6TagLib4RIFF3WAV4File15audioPropertiesEv@Base 1.6
 _ZNK6TagLib4RIFF3WAV4File3tagEv@Base 1.6
 _ZNK6TagLib4RIFF4AIFF10Properties10sampleRateEv@Base 1.6
 _ZNK6TagLib4RIFF4AIFF10Properties11sampleWidthEv@Base 1.7
 _ZNK6TagLib4RIFF4AIFF10Properties6lengthEv@Base 1.6
 _ZNK6TagLib4RIFF4AIFF10Properties7bitrateEv@Base 1.6
 _ZNK6TagLib4RIFF4AIFF10Properties8channelsEv@Base 1.6
 _ZNK6TagLib4RIFF4AIFF4File15audioPropertiesEv@Base 1.6
 _ZNK6TagLib4RIFF4AIFF4File3tagEv@Base 1.6
 _ZNK6TagLib4RIFF4File10chunkCountEv@Base 1.6
 _ZNK6TagLib4RIFF4File11chunkOffsetEj@Base 1.6
 _ZNK6TagLib4RIFF4File12chunkPaddingEj@Base 1.7
 _ZNK6TagLib4RIFF4File13chunkDataSizeEj@Base 1.7
 _ZNK6TagLib4RIFF4File8riffSizeEv@Base 1.7
 _ZNK6TagLib4RIFF4File9chunkNameEj@Base 1.6
 _ZNK6TagLib5ID3v113StringHandler5parseERKNS_10ByteVectorE@Base 1.4 1
 _ZNK6TagLib5ID3v113StringHandler6renderERKNS_6StringE@Base 1.4 1
 _ZNK6TagLib5ID3v13Tag4yearEv@Base 1.4 1
 _ZNK6TagLib5ID3v13Tag5albumEv@Base 1.4 1
 _ZNK6TagLib5ID3v13Tag5genreEv@Base 1.4 1
 _ZNK6TagLib5ID3v13Tag5titleEv@Base 1.4 1
 _ZNK6TagLib5ID3v13Tag5trackEv@Base 1.4 1
 _ZNK6TagLib5ID3v13Tag6artistEv@Base 1.4 1
 _ZNK6TagLib5ID3v13Tag6renderEv@Base 1.4 1
 _ZNK6TagLib5ID3v13Tag7commentEv@Base 1.4 1
 _ZNK6TagLib5ID3v212FrameFactory11createFrameERKNS_10ByteVectorEPNS0_6HeaderE@Base 1.5
 _ZNK6TagLib5ID3v212FrameFactory11createFrameERKNS_10ByteVectorEb@Base 1.4 1
 _ZNK6TagLib5ID3v212FrameFactory11createFrameERKNS_10ByteVectorEj@Base 1.4 1
 _ZNK6TagLib5ID3v212FrameFactory11updateFrameEPNS0_5Frame6HeaderE@Base 1.4 1
 _ZNK6TagLib5ID3v212FrameFactory11updateGenreEPNS0_23TextIdentificationFrameE@Base 1.5
 _ZNK6TagLib5ID3v212FrameFactory12convertFrameEPKcS3_PNS0_5Frame6HeaderE@Base 1.4 1
 _ZNK6TagLib5ID3v212FrameFactory19defaultTextEncodingEv@Base 1.4 1
 _ZNK6TagLib5ID3v212PrivateFrame12renderFieldsEv@Base 1.6
 _ZNK6TagLib5ID3v212PrivateFrame4dataEv@Base 1.6
 _ZNK6TagLib5ID3v212PrivateFrame5ownerEv@Base 1.6
 _ZNK6TagLib5ID3v212PrivateFrame8toStringEv@Base 1.6
 _ZNK6TagLib5ID3v212UnknownFrame12renderFieldsEv@Base 1.4 1
 _ZNK6TagLib5ID3v212UnknownFrame4dataEv@Base 1.4 1
 _ZNK6TagLib5ID3v212UnknownFrame8toStringEv@Base 1.4 1
 _ZNK6TagLib5ID3v212UrlLinkFrame12renderFieldsEv@Base 1.5
 _ZNK6TagLib5ID3v212UrlLinkFrame3urlEv@Base 1.5
 _ZNK6TagLib5ID3v212UrlLinkFrame8toStringEv@Base 1.5
 _ZNK6TagLib5ID3v213CommentsFrame11descriptionEv@Base 1.4 1
 _ZNK6TagLib5ID3v213CommentsFrame12renderFieldsEv@Base 1.4 1
 _ZNK6TagLib5ID3v213CommentsFrame12textEncodingEv@Base 1.4 1
 _ZNK6TagLib5ID3v213CommentsFrame4textEv@Base 1.4 1
 _ZNK6TagLib5ID3v213CommentsFrame8languageEv@Base 1.4 1
 _ZNK6TagLib5ID3v213CommentsFrame8toStringEv@Base 1.4 1
 _ZNK6TagLib5ID3v214ExtendedHeader4sizeEv@Base 1.4 1
 _ZNK6TagLib5ID3v216UserUrlLinkFrame11descriptionEv@Base 1.5
 _ZNK6TagLib5ID3v216UserUrlLinkFrame12renderFieldsEv@Base 1.5
 _ZNK6TagLib5ID3v216UserUrlLinkFrame12textEncodingEv@Base 1.5
 _ZNK6TagLib5ID3v216UserUrlLinkFrame8toStringEv@Base 1.5
 _ZNK6TagLib5ID3v218PopularimeterFrame12renderFieldsEv@Base 1.6
 _ZNK6TagLib5ID3v218PopularimeterFrame5emailEv@Base 1.6
 _ZNK6TagLib5ID3v218PopularimeterFrame6ratingEv@Base 1.6
 _ZNK6TagLib5ID3v218PopularimeterFrame7counterEv@Base 1.6
 _ZNK6TagLib5ID3v218PopularimeterFrame8toStringEv@Base 1.6
 _ZNK6TagLib5ID3v219RelativeVolumeFrame10peakVolumeENS1_11ChannelTypeE@Base 1.4 1
 _ZNK6TagLib5ID3v219RelativeVolumeFrame10peakVolumeEv@Base 1.4 1
 _ZNK6TagLib5ID3v219RelativeVolumeFrame11channelTypeEv@Base 1.4 1
 _ZNK6TagLib5ID3v219RelativeVolumeFrame12renderFieldsEv@Base 1.4 1
 _ZNK6TagLib5ID3v219RelativeVolumeFrame14identificationEv@Base 1.5
 _ZNK6TagLib5ID3v219RelativeVolumeFrame16volumeAdjustmentENS1_11ChannelTypeE@Base 1.4 1
 _ZNK6TagLib5ID3v219RelativeVolumeFrame16volumeAdjustmentEv@Base 1.4 1
 _ZNK6TagLib5ID3v219RelativeVolumeFrame21volumeAdjustmentIndexENS1_11ChannelTypeE@Base 1.4 1
 _ZNK6TagLib5ID3v219RelativeVolumeFrame21volumeAdjustmentIndexEv@Base 1.4 1
 _ZNK6TagLib5ID3v219RelativeVolumeFrame8channelsEv@Base 1.4 1
 _ZNK6TagLib5ID3v219RelativeVolumeFrame8toStringEv@Base 1.4 1
 _ZNK6TagLib5ID3v220AttachedPictureFrame11descriptionEv@Base 1.4 1
 _ZNK6TagLib5ID3v220AttachedPictureFrame12renderFieldsEv@Base 1.4 1
 _ZNK6TagLib5ID3v220AttachedPictureFrame12textEncodingEv@Base 1.4 1
 _ZNK6TagLib5ID3v220AttachedPictureFrame4typeEv@Base 1.4 1
 _ZNK6TagLib5ID3v220AttachedPictureFrame7pictureEv@Base 1.4 1
 _ZNK6TagLib5ID3v220AttachedPictureFrame8mimeTypeEv@Base 1.4 1
 _ZNK6TagLib5ID3v220AttachedPictureFrame8toStringEv@Base 1.4 1
 _ZNK6TagLib5ID3v223TextIdentificationFrame12renderFieldsEv@Base 1.4 1
 _ZNK6TagLib5ID3v223TextIdentificationFrame12textEncodingEv@Base 1.4 1
 _ZNK6TagLib5ID3v223TextIdentificationFrame8toStringEv@Base 1.4 1
 _ZNK6TagLib5ID3v223TextIdentificationFrame9fieldListEv@Base 1.4 1
 _ZNK6TagLib5ID3v225UniqueFileIdentifierFrame10identifierEv@Base 1.4 1
 _ZNK6TagLib5ID3v225UniqueFileIdentifierFrame12renderFieldsEv@Base 1.4 1
 _ZNK6TagLib5ID3v225UniqueFileIdentifierFrame5ownerEv@Base 1.4 1
 _ZNK6TagLib5ID3v225UniqueFileIdentifierFrame8toStringEv@Base 1.4 1
 _ZNK6TagLib5ID3v225UnsynchronizedLyricsFrame11descriptionEv@Base 1.5
 _ZNK6TagLib5ID3v225UnsynchronizedLyricsFrame12renderFieldsEv@Base 1.5
 _ZNK6TagLib5ID3v225UnsynchronizedLyricsFrame12textEncodingEv@Base 1.5
 _ZNK6TagLib5ID3v225UnsynchronizedLyricsFrame4textEv@Base 1.5
 _ZNK6TagLib5ID3v225UnsynchronizedLyricsFrame8languageEv@Base 1.5
 _ZNK6TagLib5ID3v225UnsynchronizedLyricsFrame8toStringEv@Base 1.5
 _ZNK6TagLib5ID3v227UserTextIdentificationFrame11descriptionEv@Base 1.4 1
 _ZNK6TagLib5ID3v227UserTextIdentificationFrame8toStringEv@Base 1.4 1
 _ZNK6TagLib5ID3v227UserTextIdentificationFrame9fieldListEv@Base 1.4 1
 _ZNK6TagLib5ID3v230GeneralEncapsulatedObjectFrame11descriptionEv@Base 1.5
 _ZNK6TagLib5ID3v230GeneralEncapsulatedObjectFrame12renderFieldsEv@Base 1.5
 _ZNK6TagLib5ID3v230GeneralEncapsulatedObjectFrame12textEncodingEv@Base 1.5
 _ZNK6TagLib5ID3v230GeneralEncapsulatedObjectFrame6objectEv@Base 1.5
 _ZNK6TagLib5ID3v230GeneralEncapsulatedObjectFrame8fileNameEv@Base 1.5
 _ZNK6TagLib5ID3v230GeneralEncapsulatedObjectFrame8mimeTypeEv@Base 1.5
 _ZNK6TagLib5ID3v230GeneralEncapsulatedObjectFrame8toStringEv@Base 1.5
 _ZNK6TagLib5ID3v23Tag12frameListMapEv@Base 1.4 1
 _ZNK6TagLib5ID3v23Tag14extendedHeaderEv@Base 1.4 1
 _ZNK6TagLib5ID3v23Tag4yearEv@Base 1.4 1
 _ZNK6TagLib5ID3v23Tag5albumEv@Base 1.4 1
 _ZNK6TagLib5ID3v23Tag5genreEv@Base 1.4 1
 _ZNK6TagLib5ID3v23Tag5titleEv@Base 1.4 1
 _ZNK6TagLib5ID3v23Tag5trackEv@Base 1.4 1
 _ZNK6TagLib5ID3v23Tag6artistEv@Base 1.4 1
 _ZNK6TagLib5ID3v23Tag6footerEv@Base 1.4 1
 _ZNK6TagLib5ID3v23Tag6headerEv@Base 1.4 1
 _ZNK6TagLib5ID3v23Tag6renderEv@Base 1.4 1
 _ZNK6TagLib5ID3v23Tag7commentEv@Base 1.4 1
 _ZNK6TagLib5ID3v23Tag7isEmptyEv@Base 1.4 1
 _ZNK6TagLib5ID3v23Tag9frameListERKNS_10ByteVectorE@Base 1.4 1
 _ZNK6TagLib5ID3v23Tag9frameListEv@Base 1.4 1
 _ZNK6TagLib5ID3v25Frame4sizeEv@Base 1.4 1
 _ZNK6TagLib5ID3v25Frame6Header10encryptionEv@Base 1.4 1
 _ZNK6TagLib5ID3v25Frame6Header11compressionEv@Base 1.4 1
 _ZNK6TagLib5ID3v25Frame6Header15unsycronisationEv@Base 1.4 1
 _ZNK6TagLib5ID3v25Frame6Header16groupingIdentityEv@Base 1.4 1
 _ZNK6TagLib5ID3v25Frame6Header17unsynchronisationEv@Base 1.5
 _ZNK6TagLib5ID3v25Frame6Header19dataLengthIndicatorEv@Base 1.4 1
 _ZNK6TagLib5ID3v25Frame6Header20tagAlterPreservationEv@Base 1.4 1
 _ZNK6TagLib5ID3v25Frame6Header21fileAlterPreservationEv@Base 1.4 1
 _ZNK6TagLib5ID3v25Frame6Header22frameAlterPreservationEv@Base 1.4 1
 _ZNK6TagLib5ID3v25Frame6Header6renderEv@Base 1.4 1
 _ZNK6TagLib5ID3v25Frame6Header7frameIDEv@Base 1.4 1
 _ZNK6TagLib5ID3v25Frame6Header7versionEv@Base 1.4 1
 _ZNK6TagLib5ID3v25Frame6Header8readOnlyEv@Base 1.4 1
 _ZNK6TagLib5ID3v25Frame6Header9frameSizeEv@Base 1.4 1
 _ZNK6TagLib5ID3v25Frame6headerEv@Base 1.4 1
 _ZNK6TagLib5ID3v25Frame6renderEv@Base 1.4 1
 _ZNK6TagLib5ID3v25Frame7frameIDEv@Base 1.4 1
 _ZNK6TagLib5ID3v25Frame9fieldDataERKNS_10ByteVectorE@Base 1.4 1
 _ZNK6TagLib5ID3v26Footer6renderEPKNS0_6HeaderE@Base 1.4 1
 _ZNK6TagLib5ID3v26Header12majorVersionEv@Base 1.4 1
 _ZNK6TagLib5ID3v26Header13footerPresentEv@Base 1.4 1
 _ZNK6TagLib5ID3v26Header14extendedHeaderEv@Base 1.4 1
 _ZNK6TagLib5ID3v26Header14revisionNumberEv@Base 1.4 1
 _ZNK6TagLib5ID3v26Header15completeTagSizeEv@Base 1.4 1
 _ZNK6TagLib5ID3v26Header17unsynchronisationEv@Base 1.4 1
 _ZNK6TagLib5ID3v26Header21experimentalIndicatorEv@Base 1.4 1
 _ZNK6TagLib5ID3v26Header6renderEv@Base 1.4 1
 _ZNK6TagLib5ID3v26Header7tagSizeEv@Base 1.4 1
 _ZNK6TagLib6String10startsWithERKS0_@Base 1.5
 _ZNK6TagLib6String15stripWhiteSpaceEv@Base 1.4 1
 _ZNK6TagLib6String3endEv@Base 1.4 1
 _ZNK6TagLib6String4dataENS0_4TypeE@Base 1.4 1
 _ZNK6TagLib6String4findERKS0_i@Base 1.4 1
 _ZNK6TagLib6String4sizeEv@Base 1.4 1
 _ZNK6TagLib6String5beginEv@Base 1.4 1
 _ZNK6TagLib6String5rfindERKS0_i@Base 1.6
 _ZNK6TagLib6String5toIntEPb@Base 1.6.3
 _ZNK6TagLib6String5toIntEv@Base 1.4 1
 _ZNK6TagLib6String5upperEv@Base 1.4 1
 _ZNK6TagLib6String6isNullEv@Base 1.4 1
 _ZNK6TagLib6String6lengthEv@Base 1.5
 _ZNK6TagLib6String6substrEjj@Base 1.4 1
 _ZNK6TagLib6String6to8BitEb@Base 1.4 1
 _ZNK6TagLib6String7isAsciiEv@Base 1.5
 _ZNK6TagLib6String7isEmptyEv@Base 1.4 1
 _ZNK6TagLib6String8isLatin1Ev@Base 1.5
 _ZNK6TagLib6String9toCStringEb@Base 1.4 1
 _ZNK6TagLib6String9toWStringEv@Base 1.5
 _ZNK6TagLib6StringeqERKS0_@Base 1.4 1
 _ZNK6TagLib6StringixEi@Base 1.4 1
 _ZNK6TagLib6StringltERKS0_@Base 1.4 1
 _ZNK6TagLib6Vorbis10Properties10sampleRateEv@Base 1.4 1
 _ZNK6TagLib6Vorbis10Properties13vorbisVersionEv@Base 1.4 1
 _ZNK6TagLib6Vorbis10Properties14bitrateMaximumEv@Base 1.4 1
 _ZNK6TagLib6Vorbis10Properties14bitrateMinimumEv@Base 1.4 1
 _ZNK6TagLib6Vorbis10Properties14bitrateNominalEv@Base 1.4 1
 _ZNK6TagLib6Vorbis10Properties6lengthEv@Base 1.4 1
 _ZNK6TagLib6Vorbis10Properties7bitrateEv@Base 1.4 1
 _ZNK6TagLib6Vorbis10Properties8channelsEv@Base 1.4 1
 _ZNK6TagLib6Vorbis4File15audioPropertiesEv@Base 1.4 1
 _ZNK6TagLib6Vorbis4File3tagEv@Base 1.4 1
 _ZNK6TagLib7FileRef15audioPropertiesEv@Base 1.4 1
 _ZNK6TagLib7FileRef3tagEv@Base 1.4 1
 _ZNK6TagLib7FileRef4fileEv@Base 1.4 1
 _ZNK6TagLib7FileRef6isNullEv@Base 1.4 1
 _ZNK6TagLib7FileRefeqERKS0_@Base 1.4 1
 _ZNK6TagLib7FileRefneERKS0_@Base 1.4 1
 _ZNK6TagLib7WavPack10Properties10sampleRateEv@Base 1.5
 _ZNK6TagLib7WavPack10Properties13bitsPerSampleEv@Base 1.5
 _ZNK6TagLib7WavPack10Properties6lengthEv@Base 1.5
 _ZNK6TagLib7WavPack10Properties7bitrateEv@Base 1.5
 _ZNK6TagLib7WavPack10Properties7versionEv@Base 1.5
 _ZNK6TagLib7WavPack10Properties8channelsEv@Base 1.5
 _ZNK6TagLib7WavPack4File15audioPropertiesEv@Base 1.5
 _ZNK6TagLib7WavPack4File3tagEv@Base 1.5
 _ZNK6TagLib9TrueAudio10Properties10sampleRateEv@Base 1.5
 _ZNK6TagLib9TrueAudio10Properties10ttaVersionEv@Base 1.5
 _ZNK6TagLib9TrueAudio10Properties13bitsPerSampleEv@Base 1.5
 _ZNK6TagLib9TrueAudio10Properties6lengthEv@Base 1.5
 _ZNK6TagLib9TrueAudio10Properties7bitrateEv@Base 1.5
 _ZNK6TagLib9TrueAudio10Properties8channelsEv@Base 1.5
 _ZNK6TagLib9TrueAudio4File15audioPropertiesEv@Base 1.5
 _ZNK6TagLib9TrueAudio4File3tagEv@Base 1.5
 _ZNK9__gnu_cxx13new_allocatorI5ChunkE8max_sizeEv@Base 1.7-1ubuntu5
 _ZNK9__gnu_cxx13new_allocatorIN6TagLib4ListIiEEE8max_sizeEv@Base 1.7-1ubuntu5
 _ZNK9__gnu_cxx13new_allocatorIPN6TagLib3TagEE8max_sizeEv@Base 1.7-1ubuntu5
 _ZNK9__gnu_cxx13new_allocatorISt10_List_nodeIN6TagLib10ByteVectorEEE8max_sizeEv@Base 1.7-1ubuntu5
 _ZNK9__gnu_cxx13new_allocatorISt10_List_nodeIN6TagLib3ASF9AttributeEEE8max_sizeEv@Base 1.7-1ubuntu5
 _ZNK9__gnu_cxx13new_allocatorISt10_List_nodeIN6TagLib3MP48CoverArtEEE8max_sizeEv@Base 1.7-1ubuntu5
 _ZNK9__gnu_cxx13new_allocatorISt10_List_nodeIN6TagLib5ID3v219RelativeVolumeFrame11ChannelTypeEEE8max_sizeEv@Base 1.7-1ubuntu5
 _ZNK9__gnu_cxx13new_allocatorISt10_List_nodeIN6TagLib6StringEEE8max_sizeEv@Base 1.7-1ubuntu5
 _ZNK9__gnu_cxx13new_allocatorISt10_List_nodeIPKN6TagLib7FileRef16FileTypeResolverEEE8max_sizeEv@Base 1.7-1ubuntu5
 _ZNK9__gnu_cxx13new_allocatorISt10_List_nodeIPN6TagLib3ASF4File10BaseObjectEEE8max_sizeEv@Base 1.7-1ubuntu5
 _ZNK9__gnu_cxx13new_allocatorISt10_List_nodeIPN6TagLib3MP44AtomEEE8max_sizeEv@Base 1.7-1ubuntu5
 _ZNK9__gnu_cxx13new_allocatorISt10_List_nodeIPN6TagLib3Ogg4PageEEE8max_sizeEv@Base 1.7-1ubuntu5
 _ZNK9__gnu_cxx13new_allocatorISt10_List_nodeIPN6TagLib4FLAC13MetadataBlockEEE8max_sizeEv@Base 1.7-1ubuntu5
 _ZNK9__gnu_cxx13new_allocatorISt10_List_nodeIPN6TagLib4FLAC7PictureEEE8max_sizeEv@Base 1.7-1ubuntu5
 _ZNK9__gnu_cxx13new_allocatorISt10_List_nodeIPN6TagLib5ID3v25FrameEEE8max_sizeEv@Base 1.7-1ubuntu5
 _ZNK9__gnu_cxx13new_allocatorISt10_List_nodeIiEE8max_sizeEv@Base 1.7-1ubuntu5
 _ZNK9__gnu_cxx13new_allocatorISt13_Rb_tree_nodeISt4pairIKN6TagLib10ByteVectorENS3_4ListIPNS3_5ID3v25FrameEEEEEE8max_sizeEv@Base 1.7-1ubuntu5
 _ZNK9__gnu_cxx13new_allocatorISt13_Rb_tree_nodeISt4pairIKN6TagLib5ID3v219RelativeVolumeFrame11ChannelTypeE11ChannelDataEEE8max_sizeEv@Base 1.7-1ubuntu5
 _ZNK9__gnu_cxx13new_allocatorISt13_Rb_tree_nodeISt4pairIKN6TagLib6StringENS3_10StringListEEEE8max_sizeEv@Base 1.7-1ubuntu5
 _ZNK9__gnu_cxx13new_allocatorISt13_Rb_tree_nodeISt4pairIKN6TagLib6StringENS3_3APE4ItemEEEE8max_sizeEv@Base 1.7-1ubuntu5
 _ZNK9__gnu_cxx13new_allocatorISt13_Rb_tree_nodeISt4pairIKN6TagLib6StringENS3_3MP44ItemEEEE8max_sizeEv@Base 1.7-1ubuntu5
 _ZNK9__gnu_cxx13new_allocatorISt13_Rb_tree_nodeISt4pairIKN6TagLib6StringENS3_4ListINS3_3ASF9AttributeEEEEEE8max_sizeEv@Base 1.7-1ubuntu5
 _ZNK9__gnu_cxx13new_allocatorISt13_Rb_tree_nodeISt4pairIKN6TagLib6StringEiEEE8max_sizeEv@Base 1.7-1ubuntu5
 _ZNK9__gnu_cxx13new_allocatorISt13_Rb_tree_nodeISt4pairIKiN6TagLib10ByteVectorEEEE8max_sizeEv@Base 1.7-1ubuntu5
 _ZNK9__gnu_cxx13new_allocatorIcE8max_sizeEv@Base 1.7-1ubuntu5
 _ZNK9__gnu_cxx17__normal_iteratorIP5ChunkSt6vectorIS1_SaIS1_EEE4baseEv@Base 1.7-1ubuntu5
 _ZNK9__gnu_cxx17__normal_iteratorIP5ChunkSt6vectorIS1_SaIS1_EEEdeEv@Base 1.7-1ubuntu5
 _ZNK9__gnu_cxx17__normal_iteratorIPKcSsE4baseEv@Base 1.7-1ubuntu5
 _ZNK9__gnu_cxx17__normal_iteratorIPKcSsEdeEv@Base 1.7-1ubuntu5
 _ZNK9__gnu_cxx17__normal_iteratorIPKcSt6vectorIcSaIcEEE4baseEv@Base 1.7-1ubuntu5
 _ZNK9__gnu_cxx17__normal_iteratorIPKcSt6vectorIcSaIcEEEdeEv@Base 1.7-1ubuntu5
 _ZNK9__gnu_cxx17__normal_iteratorIPKcSt6vectorIcSaIcEEEplERKi@Base 1.7-1ubuntu5
 _ZNK9__gnu_cxx17__normal_iteratorIPKwSbIwSt11char_traitsIwESaIwEEE4baseEv@Base 1.7-1ubuntu5
 _ZNK9__gnu_cxx17__normal_iteratorIPKwSbIwSt11char_traitsIwESaIwEEEdeEv@Base 1.7-1ubuntu5
 _ZNK9__gnu_cxx17__normal_iteratorIPKwSbIwSt11char_traitsIwESaIwEEEplERKi@Base 1.7-1ubuntu5
 _ZNK9__gnu_cxx17__normal_iteratorIPN6TagLib4ListIiEESt6vectorIS3_SaIS3_EEE4baseEv@Base 1.7-1ubuntu5
 _ZNK9__gnu_cxx17__normal_iteratorIPN6TagLib4ListIiEESt6vectorIS3_SaIS3_EEEdeEv@Base 1.7-1ubuntu5
 _ZNK9__gnu_cxx17__normal_iteratorIPcSsEdeEv@Base 1.7-1ubuntu5
 _ZNK9__gnu_cxx17__normal_iteratorIPcSt6vectorIcSaIcEEE4baseEv@Base 1.7-1ubuntu5
 _ZNK9__gnu_cxx17__normal_iteratorIPcSt6vectorIcSaIcEEEdeEv@Base 1.7-1ubuntu5
 _ZNK9__gnu_cxx17__normal_iteratorIPcSt6vectorIcSaIcEEEplERKi@Base 1.7-1ubuntu5
 _ZNK9__gnu_cxx17__normal_iteratorIPwSbIwSt11char_traitsIwESaIwEEE4baseEv@Base 1.7-1ubuntu5
 _ZNK9__gnu_cxx17__normal_iteratorIPwSbIwSt11char_traitsIwESaIwEEEdeEv@Base 1.7-1ubuntu5
 _ZNK9__gnu_cxx17__normal_iteratorIPwSbIwSt11char_traitsIwESaIwEEEplERKi@Base 1.7-1ubuntu5
 _ZNKSt10_List_baseIN6TagLib10ByteVectorESaIS1_EE19_M_get_Tp_allocatorEv@Base 1.7-1ubuntu5
 _ZNKSt10_List_baseIN6TagLib10ByteVectorESaIS1_EE21_M_get_Node_allocatorEv@Base 1.7-1ubuntu5
 _ZNKSt10_List_baseIN6TagLib3ASF9AttributeESaIS2_EE19_M_get_Tp_allocatorEv@Base 1.7-1ubuntu5
 _ZNKSt10_List_baseIN6TagLib3ASF9AttributeESaIS2_EE21_M_get_Node_allocatorEv@Base 1.7-1ubuntu5
 _ZNKSt10_List_baseIN6TagLib3MP48CoverArtESaIS2_EE19_M_get_Tp_allocatorEv@Base 1.7-1ubuntu5
 _ZNKSt10_List_baseIN6TagLib3MP48CoverArtESaIS2_EE21_M_get_Node_allocatorEv@Base 1.7-1ubuntu5
 _ZNKSt10_List_baseIN6TagLib5ID3v219RelativeVolumeFrame11ChannelTypeESaIS3_EE19_M_get_Tp_allocatorEv@Base 1.7-1ubuntu5
 _ZNKSt10_List_baseIN6TagLib5ID3v219RelativeVolumeFrame11ChannelTypeESaIS3_EE21_M_get_Node_allocatorEv@Base 1.7-1ubuntu5
 _ZNKSt10_List_baseIN6TagLib6StringESaIS1_EE19_M_get_Tp_allocatorEv@Base 1.7-1ubuntu5
 _ZNKSt10_List_baseIN6TagLib6StringESaIS1_EE21_M_get_Node_allocatorEv@Base 1.7-1ubuntu5
 _ZNKSt10_List_baseIPKN6TagLib7FileRef16FileTypeResolverESaIS4_EE19_M_get_Tp_allocatorEv@Base 1.7-1ubuntu5
 _ZNKSt10_List_baseIPKN6TagLib7FileRef16FileTypeResolverESaIS4_EE21_M_get_Node_allocatorEv@Base 1.7-1ubuntu5
 _ZNKSt10_List_baseIPN6TagLib3ASF4File10BaseObjectESaIS4_EE19_M_get_Tp_allocatorEv@Base 1.7-1ubuntu5
 _ZNKSt10_List_baseIPN6TagLib3ASF4File10BaseObjectESaIS4_EE21_M_get_Node_allocatorEv@Base 1.7-1ubuntu5
 _ZNKSt10_List_baseIPN6TagLib3MP44AtomESaIS3_EE19_M_get_Tp_allocatorEv@Base 1.7-1ubuntu5
 _ZNKSt10_List_baseIPN6TagLib3MP44AtomESaIS3_EE21_M_get_Node_allocatorEv@Base 1.7-1ubuntu5
 _ZNKSt10_List_baseIPN6TagLib3Ogg4PageESaIS3_EE19_M_get_Tp_allocatorEv@Base 1.7-1ubuntu5
 _ZNKSt10_List_baseIPN6TagLib3Ogg4PageESaIS3_EE21_M_get_Node_allocatorEv@Base 1.7-1ubuntu5
 _ZNKSt10_List_baseIPN6TagLib4FLAC13MetadataBlockESaIS3_EE19_M_get_Tp_allocatorEv@Base 1.7-1ubuntu5
 _ZNKSt10_List_baseIPN6TagLib4FLAC13MetadataBlockESaIS3_EE21_M_get_Node_allocatorEv@Base 1.7-1ubuntu5
 _ZNKSt10_List_baseIPN6TagLib4FLAC7PictureESaIS3_EE19_M_get_Tp_allocatorEv@Base 1.7-1ubuntu5
 _ZNKSt10_List_baseIPN6TagLib4FLAC7PictureESaIS3_EE21_M_get_Node_allocatorEv@Base 1.7-1ubuntu5
 _ZNKSt10_List_baseIPN6TagLib5ID3v25FrameESaIS3_EE19_M_get_Tp_allocatorEv@Base 1.7-1ubuntu5
 _ZNKSt10_List_baseIPN6TagLib5ID3v25FrameESaIS3_EE21_M_get_Node_allocatorEv@Base 1.7-1ubuntu5
 _ZNKSt10_List_baseIiSaIiEE19_M_get_Tp_allocatorEv@Base 1.7-1ubuntu5
 _ZNKSt10_List_baseIiSaIiEE21_M_get_Node_allocatorEv@Base 1.7-1ubuntu5
 _ZNKSt10_Select1stISt4pairIKN6TagLib10ByteVectorENS1_4ListIPNS1_5ID3v25FrameEEEEEclERKS9_@Base 1.7-1ubuntu5
 _ZNKSt10_Select1stISt4pairIKN6TagLib5ID3v219RelativeVolumeFrame11ChannelTypeE11ChannelDataEEclERKS7_@Base 1.7-1ubuntu5
 _ZNKSt10_Select1stISt4pairIKN6TagLib6StringENS1_10StringListEEEclERKS5_@Base 1.7-1ubuntu5
 _ZNKSt10_Select1stISt4pairIKN6TagLib6StringENS1_3APE4ItemEEEclERKS6_@Base 1.7-1ubuntu5
 _ZNKSt10_Select1stISt4pairIKN6TagLib6StringENS1_3MP44ItemEEEclERKS6_@Base 1.7-1ubuntu5
 _ZNKSt10_Select1stISt4pairIKN6TagLib6StringENS1_4ListINS1_3ASF9AttributeEEEEEclERKS8_@Base 1.7-1ubuntu5
 _ZNKSt10_Select1stISt4pairIKN6TagLib6StringEiEEclERKS4_@Base 1.7-1ubuntu5
 _ZNKSt10_Select1stISt4pairIKiN6TagLib10ByteVectorEEEclERKS4_@Base 1.7-1ubuntu5
 _ZNKSt12_Vector_baseI5ChunkSaIS0_EE19_M_get_Tp_allocatorEv@Base 1.7-1ubuntu5
 _ZNKSt12_Vector_baseIN6TagLib4ListIiEESaIS2_EE19_M_get_Tp_allocatorEv@Base 1.7-1ubuntu5
 _ZNKSt12_Vector_baseIcSaIcEE19_M_get_Tp_allocatorEv@Base 1.7-1ubuntu5
 _ZNKSt14_List_iteratorIN6TagLib10ByteVectorEEdeEv@Base 1.7-1ubuntu5
 _ZNKSt14_List_iteratorIN6TagLib10ByteVectorEEneERKS2_@Base 1.7-1ubuntu5
 _ZNKSt14_List_iteratorIN6TagLib3ASF9AttributeEEdeEv@Base 1.7-1ubuntu5
 _ZNKSt14_List_iteratorIN6TagLib3MP48CoverArtEEdeEv@Base 1.7-1ubuntu5
 _ZNKSt14_List_iteratorIN6TagLib6StringEEdeEv@Base 1.7-1ubuntu5
 _ZNKSt14_List_iteratorIN6TagLib6StringEEeqERKS2_@Base 1.7-1ubuntu5
 _ZNKSt14_List_iteratorIN6TagLib6StringEEneERKS2_@Base 1.7-1ubuntu5
 _ZNKSt14_List_iteratorIPN6TagLib3ASF4File10BaseObjectEEdeEv@Base 1.7-1ubuntu5
 _ZNKSt14_List_iteratorIPN6TagLib3MP44AtomEEdeEv@Base 1.7-1ubuntu5
 _ZNKSt14_List_iteratorIPN6TagLib3MP44AtomEEneERKS4_@Base 1.7-1ubuntu5
 _ZNKSt14_List_iteratorIPN6TagLib3Ogg4PageEEdeEv@Base 1.7-1ubuntu5
 _ZNKSt14_List_iteratorIPN6TagLib3Ogg4PageEEneERKS4_@Base 1.7-1ubuntu5
 _ZNKSt14_List_iteratorIPN6TagLib4FLAC13MetadataBlockEEdeEv@Base 1.7-1ubuntu5
 _ZNKSt14_List_iteratorIPN6TagLib5ID3v25FrameEEdeEv@Base 1.7-1ubuntu5
 _ZNKSt14_List_iteratorIPN6TagLib5ID3v25FrameEEneERKS4_@Base 1.7-1ubuntu5
 _ZNKSt14_List_iteratorIiEdeEv@Base 1.7-1ubuntu5
 _ZNKSt14_List_iteratorIiEneERKS0_@Base 1.7-1ubuntu5
 _ZNKSt17_Rb_tree_iteratorISt4pairIKN6TagLib10ByteVectorENS1_4ListIPNS1_5ID3v25FrameEEEEEdeEv@Base 1.7-1ubuntu5
 _ZNKSt17_Rb_tree_iteratorISt4pairIKN6TagLib10ByteVectorENS1_4ListIPNS1_5ID3v25FrameEEEEEeqERKSA_@Base 1.7-1ubuntu5
 _ZNKSt17_Rb_tree_iteratorISt4pairIKN6TagLib5ID3v219RelativeVolumeFrame11ChannelTypeE11ChannelDataEEdeEv@Base 1.7-1ubuntu5
 _ZNKSt17_Rb_tree_iteratorISt4pairIKN6TagLib5ID3v219RelativeVolumeFrame11ChannelTypeE11ChannelDataEEeqERKS8_@Base 1.7-1ubuntu5
 _ZNKSt17_Rb_tree_iteratorISt4pairIKN6TagLib5ID3v219RelativeVolumeFrame11ChannelTypeE11ChannelDataEEneERKS8_@Base 1.7-1ubuntu5
 _ZNKSt17_Rb_tree_iteratorISt4pairIKN6TagLib6StringENS1_10StringListEEEdeEv@Base 1.7-1ubuntu5
 _ZNKSt17_Rb_tree_iteratorISt4pairIKN6TagLib6StringENS1_10StringListEEEeqERKS6_@Base 1.7-1ubuntu5
 _ZNKSt17_Rb_tree_iteratorISt4pairIKN6TagLib6StringENS1_10StringListEEEneERKS6_@Base 1.7-1ubuntu5
 _ZNKSt17_Rb_tree_iteratorISt4pairIKN6TagLib6StringENS1_3APE4ItemEEEdeEv@Base 1.7-1ubuntu5
 _ZNKSt17_Rb_tree_iteratorISt4pairIKN6TagLib6StringENS1_3APE4ItemEEEeqERKS7_@Base 1.7-1ubuntu5
 _ZNKSt17_Rb_tree_iteratorISt4pairIKN6TagLib6StringENS1_3APE4ItemEEEneERKS7_@Base 1.7-1ubuntu5
 _ZNKSt17_Rb_tree_iteratorISt4pairIKN6TagLib6StringENS1_3MP44ItemEEEdeEv@Base 1.7-1ubuntu5
 _ZNKSt17_Rb_tree_iteratorISt4pairIKN6TagLib6StringENS1_3MP44ItemEEEeqERKS7_@Base 1.7-1ubuntu5
 _ZNKSt17_Rb_tree_iteratorISt4pairIKN6TagLib6StringENS1_3MP44ItemEEEneERKS7_@Base 1.7-1ubuntu5
 _ZNKSt17_Rb_tree_iteratorISt4pairIKN6TagLib6StringENS1_3MP44ItemEEEptEv@Base 1.7-1ubuntu5
 _ZNKSt17_Rb_tree_iteratorISt4pairIKN6TagLib6StringENS1_4ListINS1_3ASF9AttributeEEEEEdeEv@Base 1.7-1ubuntu5
 _ZNKSt17_Rb_tree_iteratorISt4pairIKN6TagLib6StringENS1_4ListINS1_3ASF9AttributeEEEEEeqERKS9_@Base 1.7-1ubuntu5
 _ZNKSt17_Rb_tree_iteratorISt4pairIKN6TagLib6StringENS1_4ListINS1_3ASF9AttributeEEEEEneERKS9_@Base 1.7-1ubuntu5
 _ZNKSt17_Rb_tree_iteratorISt4pairIKN6TagLib6StringEiEEdeEv@Base 1.7-1ubuntu5
 _ZNKSt17_Rb_tree_iteratorISt4pairIKN6TagLib6StringEiEEeqERKS5_@Base 1.7-1ubuntu5
 _ZNKSt17_Rb_tree_iteratorISt4pairIKN6TagLib6StringEiEEneERKS5_@Base 1.7-1ubuntu5
 _ZNKSt17_Rb_tree_iteratorISt4pairIKiN6TagLib10ByteVectorEEEdeEv@Base 1.7-1ubuntu5
 _ZNKSt17_Rb_tree_iteratorISt4pairIKiN6TagLib10ByteVectorEEEeqERKS5_@Base 1.7-1ubuntu5
 _ZNKSt17_Rb_tree_iteratorISt4pairIKiN6TagLib10ByteVectorEEEneERKS5_@Base 1.7-1ubuntu5
 _ZNKSt20_List_const_iteratorIN6TagLib10ByteVectorEEdeEv@Base 1.7-1ubuntu5
 _ZNKSt20_List_const_iteratorIN6TagLib10ByteVectorEEeqERKS2_@Base 1.7-1ubuntu5
 _ZNKSt20_List_const_iteratorIN6TagLib10ByteVectorEEneERKS2_@Base 1.7-1ubuntu5
 _ZNKSt20_List_const_iteratorIN6TagLib3ASF9AttributeEEdeEv@Base 1.7-1ubuntu5
 _ZNKSt20_List_const_iteratorIN6TagLib3ASF9AttributeEEneERKS3_@Base 1.7-1ubuntu5
 _ZNKSt20_List_const_iteratorIN6TagLib3MP48CoverArtEEdeEv@Base 1.7-1ubuntu5
 _ZNKSt20_List_const_iteratorIN6TagLib3MP48CoverArtEEneERKS3_@Base 1.7-1ubuntu5
 _ZNKSt20_List_const_iteratorIN6TagLib5ID3v219RelativeVolumeFrame11ChannelTypeEEdeEv@Base 1.7-1ubuntu5
 _ZNKSt20_List_const_iteratorIN6TagLib5ID3v219RelativeVolumeFrame11ChannelTypeEEneERKS4_@Base 1.7-1ubuntu5
 _ZNKSt20_List_const_iteratorIN6TagLib6StringEEdeEv@Base 1.7-1ubuntu5
 _ZNKSt20_List_const_iteratorIN6TagLib6StringEEneERKS2_@Base 1.7-1ubuntu5
 _ZNKSt20_List_const_iteratorIN6TagLib6StringEEptEv@Base 1.7-1ubuntu5
 _ZNKSt20_List_const_iteratorIPKN6TagLib7FileRef16FileTypeResolverEEdeEv@Base 1.7-1ubuntu5
 _ZNKSt20_List_const_iteratorIPKN6TagLib7FileRef16FileTypeResolverEEneERKS5_@Base 1.7-1ubuntu5
 _ZNKSt20_List_const_iteratorIPN6TagLib3ASF4File10BaseObjectEEdeEv@Base 1.7-1ubuntu5
 _ZNKSt20_List_const_iteratorIPN6TagLib3ASF4File10BaseObjectEEneERKS5_@Base 1.7-1ubuntu5
 _ZNKSt20_List_const_iteratorIPN6TagLib3MP44AtomEEdeEv@Base 1.7-1ubuntu5
 _ZNKSt20_List_const_iteratorIPN6TagLib3MP44AtomEEneERKS4_@Base 1.7-1ubuntu5
 _ZNKSt20_List_const_iteratorIPN6TagLib3Ogg4PageEEdeEv@Base 1.7-1ubuntu5
 _ZNKSt20_List_const_iteratorIPN6TagLib3Ogg4PageEEneERKS4_@Base 1.7-1ubuntu5
 _ZNKSt20_List_const_iteratorIPN6TagLib4FLAC13MetadataBlockEEdeEv@Base 1.7-1ubuntu5
 _ZNKSt20_List_const_iteratorIPN6TagLib4FLAC13MetadataBlockEEneERKS4_@Base 1.7-1ubuntu5
 _ZNKSt20_List_const_iteratorIPN6TagLib4FLAC7PictureEEdeEv@Base 1.7-1ubuntu5
 _ZNKSt20_List_const_iteratorIPN6TagLib4FLAC7PictureEEneERKS4_@Base 1.7-1ubuntu5
 _ZNKSt20_List_const_iteratorIPN6TagLib5ID3v25FrameEEdeEv@Base 1.7-1ubuntu5
 _ZNKSt20_List_const_iteratorIPN6TagLib5ID3v25FrameEEneERKS4_@Base 1.7-1ubuntu5
 _ZNKSt20_List_const_iteratorIiEdeEv@Base 1.7-1ubuntu5
 _ZNKSt20_List_const_iteratorIiEeqERKS0_@Base 1.7-1ubuntu5
 _ZNKSt20_List_const_iteratorIiEneERKS0_@Base 1.7-1ubuntu5
 _ZNKSt23_Rb_tree_const_iteratorISt4pairIKN6TagLib10ByteVectorENS1_4ListIPNS1_5ID3v25FrameEEEEE13_M_const_castEv@Base 1.7-1ubuntu5
 _ZNKSt23_Rb_tree_const_iteratorISt4pairIKN6TagLib5ID3v219RelativeVolumeFrame11ChannelTypeE11ChannelDataEE13_M_const_castEv@Base 1.7-1ubuntu5
 _ZNKSt23_Rb_tree_const_iteratorISt4pairIKN6TagLib5ID3v219RelativeVolumeFrame11ChannelTypeE11ChannelDataEEdeEv@Base 1.7-1ubuntu5
 _ZNKSt23_Rb_tree_const_iteratorISt4pairIKN6TagLib5ID3v219RelativeVolumeFrame11ChannelTypeE11ChannelDataEEneERKS8_@Base 1.7-1ubuntu5
 _ZNKSt23_Rb_tree_const_iteratorISt4pairIKN6TagLib6StringENS1_10StringListEEE13_M_const_castEv@Base 1.7-1ubuntu5
 _ZNKSt23_Rb_tree_const_iteratorISt4pairIKN6TagLib6StringENS1_10StringListEEEdeEv@Base 1.7-1ubuntu5
 _ZNKSt23_Rb_tree_const_iteratorISt4pairIKN6TagLib6StringENS1_10StringListEEEneERKS6_@Base 1.7-1ubuntu5
 _ZNKSt23_Rb_tree_const_iteratorISt4pairIKN6TagLib6StringENS1_3APE4ItemEEE13_M_const_castEv@Base 1.7-1ubuntu5
 _ZNKSt23_Rb_tree_const_iteratorISt4pairIKN6TagLib6StringENS1_3APE4ItemEEEneERKS7_@Base 1.7-1ubuntu5
 _ZNKSt23_Rb_tree_const_iteratorISt4pairIKN6TagLib6StringENS1_3APE4ItemEEEptEv@Base 1.7-1ubuntu5
 _ZNKSt23_Rb_tree_const_iteratorISt4pairIKN6TagLib6StringENS1_3MP44ItemEEE13_M_const_castEv@Base 1.7-1ubuntu5
 _ZNKSt23_Rb_tree_const_iteratorISt4pairIKN6TagLib6StringENS1_4ListINS1_3ASF9AttributeEEEEE13_M_const_castEv@Base 1.7-1ubuntu5
 _ZNKSt23_Rb_tree_const_iteratorISt4pairIKN6TagLib6StringENS1_4ListINS1_3ASF9AttributeEEEEEneERKS9_@Base 1.7-1ubuntu5
 _ZNKSt23_Rb_tree_const_iteratorISt4pairIKN6TagLib6StringENS1_4ListINS1_3ASF9AttributeEEEEEptEv@Base 1.7-1ubuntu5
 _ZNKSt23_Rb_tree_const_iteratorISt4pairIKN6TagLib6StringEiEE13_M_const_castEv@Base 1.7-1ubuntu5
 _ZNKSt23_Rb_tree_const_iteratorISt4pairIKiN6TagLib10ByteVectorEEE13_M_const_castEv@Base 1.7-1ubuntu5
 _ZNKSt3mapIKN6TagLib6StringENS0_3APE4ItemESt4lessIS2_ESaISt4pairIS2_S4_EEE5emptyEv@Base 1.7-1ubuntu5
 _ZNKSt3mapIKN6TagLib6StringENS0_3APE4ItemESt4lessIS2_ESaISt4pairIS2_S4_EEE8key_compEv@Base 1.7-1ubuntu5
 _ZNKSt3mapIN6TagLib10ByteVectorENS0_4ListIPNS0_5ID3v25FrameEEESt4lessIS1_ESaISt4pairIKS1_S6_EEE8key_compEv@Base 1.7-1ubuntu5
 _ZNKSt3mapIN6TagLib5ID3v219RelativeVolumeFrame11ChannelTypeE11ChannelDataSt4lessIS3_ESaISt4pairIKS3_S4_EEE8key_compEv@Base 1.7-1ubuntu5
 _ZNKSt3mapIN6TagLib6StringENS0_10StringListESt4lessIS1_ESaISt4pairIKS1_S2_EEE8key_compEv@Base 1.7-1ubuntu5
 _ZNKSt3mapIN6TagLib6StringENS0_3MP44ItemESt4lessIS1_ESaISt4pairIKS1_S3_EEE8key_compEv@Base 1.7-1ubuntu5
 _ZNKSt3mapIN6TagLib6StringENS0_4ListINS0_3ASF9AttributeEEESt4lessIS1_ESaISt4pairIKS1_S5_EEE5emptyEv@Base 1.7-1ubuntu5
 _ZNKSt3mapIN6TagLib6StringENS0_4ListINS0_3ASF9AttributeEEESt4lessIS1_ESaISt4pairIKS1_S5_EEE8key_compEv@Base 1.7-1ubuntu5
 _ZNKSt3mapIN6TagLib6StringEiSt4lessIS1_ESaISt4pairIKS1_iEEE5emptyEv@Base 1.7-1ubuntu5
 _ZNKSt3mapIN6TagLib6StringEiSt4lessIS1_ESaISt4pairIKS1_iEEE8key_compEv@Base 1.7-1ubuntu5
 _ZNKSt3mapIiN6TagLib10ByteVectorESt4lessIiESaISt4pairIKiS1_EEE8key_compEv@Base 1.7-1ubuntu5
 _ZNKSt4lessIKN6TagLib6StringEEclERS2_S4_@Base 1.7-1ubuntu5
 _ZNKSt4lessIN6TagLib10ByteVectorEEclERKS1_S4_@Base 1.7-1ubuntu5
 _ZNKSt4lessIN6TagLib5ID3v219RelativeVolumeFrame11ChannelTypeEEclERKS3_S6_@Base 1.7-1ubuntu5
 _ZNKSt4lessIN6TagLib6StringEEclERKS1_S4_@Base 1.7-1ubuntu5
 _ZNKSt4lessIiEclERKiS2_@Base 1.7-1ubuntu5
 _ZNKSt4listIN6TagLib10ByteVectorESaIS1_EE3endEv@Base 1.7-1ubuntu5
 _ZNKSt4listIN6TagLib10ByteVectorESaIS1_EE4sizeEv@Base 1.7-1ubuntu5
 _ZNKSt4listIN6TagLib10ByteVectorESaIS1_EE5beginEv@Base 1.7-1ubuntu5
 _ZNKSt4listIN6TagLib10ByteVectorESaIS1_EE5emptyEv@Base 1.7-1ubuntu5
 _ZNKSt4listIN6TagLib3ASF9AttributeESaIS2_EE3endEv@Base 1.7-1ubuntu5
 _ZNKSt4listIN6TagLib3ASF9AttributeESaIS2_EE4sizeEv@Base 1.7-1ubuntu5
 _ZNKSt4listIN6TagLib3ASF9AttributeESaIS2_EE5beginEv@Base 1.7-1ubuntu5
 _ZNKSt4listIN6TagLib3MP48CoverArtESaIS2_EE3endEv@Base 1.7-1ubuntu5
 _ZNKSt4listIN6TagLib3MP48CoverArtESaIS2_EE4sizeEv@Base 1.7-1ubuntu5
 _ZNKSt4listIN6TagLib3MP48CoverArtESaIS2_EE5beginEv@Base 1.7-1ubuntu5
 _ZNKSt4listIN6TagLib5ID3v219RelativeVolumeFrame11ChannelTypeESaIS3_EE3endEv@Base 1.7-1ubuntu5
 _ZNKSt4listIN6TagLib5ID3v219RelativeVolumeFrame11ChannelTypeESaIS3_EE5beginEv@Base 1.7-1ubuntu5
 _ZNKSt4listIN6TagLib6StringESaIS1_EE3endEv@Base 1.7-1ubuntu5
 _ZNKSt4listIN6TagLib6StringESaIS1_EE4sizeEv@Base 1.7-1ubuntu5
 _ZNKSt4listIN6TagLib6StringESaIS1_EE5beginEv@Base 1.7-1ubuntu5
 _ZNKSt4listIN6TagLib6StringESaIS1_EE5emptyEv@Base 1.7-1ubuntu5
 _ZNKSt4listIPKN6TagLib7FileRef16FileTypeResolverESaIS4_EE3endEv@Base 1.7-1ubuntu5
 _ZNKSt4listIPKN6TagLib7FileRef16FileTypeResolverESaIS4_EE5beginEv@Base 1.7-1ubuntu5
 _ZNKSt4listIPN6TagLib3ASF4File10BaseObjectESaIS4_EE3endEv@Base 1.7-1ubuntu5
 _ZNKSt4listIPN6TagLib3ASF4File10BaseObjectESaIS4_EE4sizeEv@Base 1.7-1ubuntu5
 _ZNKSt4listIPN6TagLib3ASF4File10BaseObjectESaIS4_EE5beginEv@Base 1.7-1ubuntu5
 _ZNKSt4listIPN6TagLib3MP44AtomESaIS3_EE3endEv@Base 1.7-1ubuntu5
 _ZNKSt4listIPN6TagLib3MP44AtomESaIS3_EE4sizeEv@Base 1.7-1ubuntu5
 _ZNKSt4listIPN6TagLib3MP44AtomESaIS3_EE5beginEv@Base 1.7-1ubuntu5
 _ZNKSt4listIPN6TagLib3MP44AtomESaIS3_EE5emptyEv@Base 1.7-1ubuntu5
 _ZNKSt4listIPN6TagLib3Ogg4PageESaIS3_EE3endEv@Base 1.7-1ubuntu5
 _ZNKSt4listIPN6TagLib3Ogg4PageESaIS3_EE4sizeEv@Base 1.7-1ubuntu5
 _ZNKSt4listIPN6TagLib3Ogg4PageESaIS3_EE5beginEv@Base 1.7-1ubuntu5
 _ZNKSt4listIPN6TagLib3Ogg4PageESaIS3_EE5emptyEv@Base 1.7-1ubuntu5
 _ZNKSt4listIPN6TagLib4FLAC13MetadataBlockESaIS3_EE3endEv@Base 1.7-1ubuntu5
 _ZNKSt4listIPN6TagLib4FLAC13MetadataBlockESaIS3_EE4sizeEv@Base 1.7-1ubuntu5
 _ZNKSt4listIPN6TagLib4FLAC13MetadataBlockESaIS3_EE5beginEv@Base 1.7-1ubuntu5
 _ZNKSt4listIPN6TagLib4FLAC7PictureESaIS3_EE3endEv@Base 1.7-1ubuntu5
 _ZNKSt4listIPN6TagLib4FLAC7PictureESaIS3_EE5beginEv@Base 1.7-1ubuntu5
 _ZNKSt4listIPN6TagLib5ID3v25FrameESaIS3_EE3endEv@Base 1.7-1ubuntu5
 _ZNKSt4listIPN6TagLib5ID3v25FrameESaIS3_EE5beginEv@Base 1.7-1ubuntu5
 _ZNKSt4listIPN6TagLib5ID3v25FrameESaIS3_EE5emptyEv@Base 1.7-1ubuntu5
 _ZNKSt4listIiSaIiEE3endEv@Base 1.7-1ubuntu5
 _ZNKSt4listIiSaIiEE4sizeEv@Base 1.7-1ubuntu5
 _ZNKSt4listIiSaIiEE5beginEv@Base 1.7-1ubuntu5
 _ZNKSt4listIiSaIiEE5emptyEv@Base 1.7-1ubuntu5
 _ZNKSt6bitsetILj32EE8to_ulongEv@Base 1.7-1ubuntu5
 _ZNKSt6bitsetILj32EE9referencecvbEv@Base 1.7-1ubuntu5
 _ZNKSt6bitsetILj8EE15_Unchecked_testEj@Base 1.7-1ubuntu5
 _ZNKSt6bitsetILj8EE4testEj@Base 1.7-1ubuntu5
 _ZNKSt6bitsetILj8EE8to_ulongEv@Base 1.7-1ubuntu5
 _ZNKSt6bitsetILj8EE9referencecvbEv@Base 1.7-1ubuntu5
 _ZNKSt6vectorI5ChunkSaIS0_EE12_M_check_lenEjPKc@Base 1.7-1ubuntu5
 _ZNKSt6vectorI5ChunkSaIS0_EE4sizeEv@Base 1.7-1ubuntu5
 _ZNKSt6vectorI5ChunkSaIS0_EE8max_sizeEv@Base 1.7-1ubuntu5
 _ZNKSt6vectorIN6TagLib4ListIiEESaIS2_EE12_M_check_lenEjPKc@Base 1.7-1ubuntu5
 _ZNKSt6vectorIN6TagLib4ListIiEESaIS2_EE4sizeEv@Base 1.7-1ubuntu5
 _ZNKSt6vectorIN6TagLib4ListIiEESaIS2_EE8max_sizeEv@Base 1.7-1ubuntu5
 _ZNKSt6vectorIcSaIcEE12_M_check_lenEjPKc@Base 1.5
 _ZNKSt6vectorIcSaIcEE3endEv@Base 1.7-1ubuntu5
 _ZNKSt6vectorIcSaIcEE4sizeEv@Base 1.7-1ubuntu5
 _ZNKSt6vectorIcSaIcEE5beginEv@Base 1.7-1ubuntu5
 _ZNKSt6vectorIcSaIcEE8capacityEv@Base 1.7-1ubuntu5
 _ZNKSt6vectorIcSaIcEE8max_sizeEv@Base 1.7-1ubuntu5
 _ZNKSt6vectorIcSaIcEEixEj@Base 1.7-1ubuntu5
 _ZNKSt8_Rb_treeIKN6TagLib6StringESt4pairIS2_NS0_3APE4ItemEESt10_Select1stIS6_ESt4lessIS2_ESaIS6_EE13get_allocatorEv@Base 1.7-1ubuntu5
 _ZNKSt8_Rb_treeIKN6TagLib6StringESt4pairIS2_NS0_3APE4ItemEESt10_Select1stIS6_ESt4lessIS2_ESaIS6_EE21_M_get_Node_allocatorEv@Base 1.7-1ubuntu5
 _ZNKSt8_Rb_treeIKN6TagLib6StringESt4pairIS2_NS0_3APE4ItemEESt10_Select1stIS6_ESt4lessIS2_ESaIS6_EE4sizeEv@Base 1.7-1ubuntu5
 _ZNKSt8_Rb_treeIKN6TagLib6StringESt4pairIS2_NS0_3APE4ItemEESt10_Select1stIS6_ESt4lessIS2_ESaIS6_EE5emptyEv@Base 1.7-1ubuntu5
 _ZNKSt8_Rb_treeIKN6TagLib6StringESt4pairIS2_NS0_3APE4ItemEESt10_Select1stIS6_ESt4lessIS2_ESaIS6_EE7_M_rootEv@Base 1.7-1ubuntu5
 _ZNKSt8_Rb_treeIKN6TagLib6StringESt4pairIS2_NS0_3APE4ItemEESt10_Select1stIS6_ESt4lessIS2_ESaIS6_EE8_M_beginEv@Base 1.7-1ubuntu5
 _ZNKSt8_Rb_treeIKN6TagLib6StringESt4pairIS2_NS0_3APE4ItemEESt10_Select1stIS6_ESt4lessIS2_ESaIS6_EE8key_compEv@Base 1.7-1ubuntu5
 _ZNKSt8_Rb_treeIN6TagLib10ByteVectorESt4pairIKS1_NS0_4ListIPNS0_5ID3v25FrameEEEESt10_Select1stIS9_ESt4lessIS1_ESaIS9_EE13get_allocatorEv@Base 1.7-1ubuntu5
 _ZNKSt8_Rb_treeIN6TagLib10ByteVectorESt4pairIKS1_NS0_4ListIPNS0_5ID3v25FrameEEEESt10_Select1stIS9_ESt4lessIS1_ESaIS9_EE21_M_get_Node_allocatorEv@Base 1.7-1ubuntu5
 _ZNKSt8_Rb_treeIN6TagLib10ByteVectorESt4pairIKS1_NS0_4ListIPNS0_5ID3v25FrameEEEESt10_Select1stIS9_ESt4lessIS1_ESaIS9_EE4sizeEv@Base 1.7-1ubuntu5
 _ZNKSt8_Rb_treeIN6TagLib10ByteVectorESt4pairIKS1_NS0_4ListIPNS0_5ID3v25FrameEEEESt10_Select1stIS9_ESt4lessIS1_ESaIS9_EE7_M_rootEv@Base 1.7-1ubuntu5
 _ZNKSt8_Rb_treeIN6TagLib10ByteVectorESt4pairIKS1_NS0_4ListIPNS0_5ID3v25FrameEEEESt10_Select1stIS9_ESt4lessIS1_ESaIS9_EE8_M_beginEv@Base 1.7-1ubuntu5
 _ZNKSt8_Rb_treeIN6TagLib10ByteVectorESt4pairIKS1_NS0_4ListIPNS0_5ID3v25FrameEEEESt10_Select1stIS9_ESt4lessIS1_ESaIS9_EE8key_compEv@Base 1.7-1ubuntu5
 _ZNKSt8_Rb_treeIN6TagLib5ID3v219RelativeVolumeFrame11ChannelTypeESt4pairIKS3_11ChannelDataESt10_Select1stIS7_ESt4lessIS3_ESaIS7_EE13get_allocatorEv@Base 1.7-1ubuntu5
 _ZNKSt8_Rb_treeIN6TagLib5ID3v219RelativeVolumeFrame11ChannelTypeESt4pairIKS3_11ChannelDataESt10_Select1stIS7_ESt4lessIS3_ESaIS7_EE21_M_get_Node_allocatorEv@Base 1.7-1ubuntu5
 _ZNKSt8_Rb_treeIN6TagLib5ID3v219RelativeVolumeFrame11ChannelTypeESt4pairIKS3_11ChannelDataESt10_Select1stIS7_ESt4lessIS3_ESaIS7_EE4sizeEv@Base 1.7-1ubuntu5
 _ZNKSt8_Rb_treeIN6TagLib5ID3v219RelativeVolumeFrame11ChannelTypeESt4pairIKS3_11ChannelDataESt10_Select1stIS7_ESt4lessIS3_ESaIS7_EE7_M_rootEv@Base 1.7-1ubuntu5
 _ZNKSt8_Rb_treeIN6TagLib5ID3v219RelativeVolumeFrame11ChannelTypeESt4pairIKS3_11ChannelDataESt10_Select1stIS7_ESt4lessIS3_ESaIS7_EE8_M_beginEv@Base 1.7-1ubuntu5
 _ZNKSt8_Rb_treeIN6TagLib5ID3v219RelativeVolumeFrame11ChannelTypeESt4pairIKS3_11ChannelDataESt10_Select1stIS7_ESt4lessIS3_ESaIS7_EE8key_compEv@Base 1.7-1ubuntu5
 _ZNKSt8_Rb_treeIN6TagLib6StringESt4pairIKS1_NS0_10StringListEESt10_Select1stIS5_ESt4lessIS1_ESaIS5_EE13get_allocatorEv@Base 1.7-1ubuntu5
 _ZNKSt8_Rb_treeIN6TagLib6StringESt4pairIKS1_NS0_10StringListEESt10_Select1stIS5_ESt4lessIS1_ESaIS5_EE21_M_get_Node_allocatorEv@Base 1.7-1ubuntu5
 _ZNKSt8_Rb_treeIN6TagLib6StringESt4pairIKS1_NS0_10StringListEESt10_Select1stIS5_ESt4lessIS1_ESaIS5_EE4sizeEv@Base 1.7-1ubuntu5
 _ZNKSt8_Rb_treeIN6TagLib6StringESt4pairIKS1_NS0_10StringListEESt10_Select1stIS5_ESt4lessIS1_ESaIS5_EE7_M_rootEv@Base 1.7-1ubuntu5
 _ZNKSt8_Rb_treeIN6TagLib6StringESt4pairIKS1_NS0_10StringListEESt10_Select1stIS5_ESt4lessIS1_ESaIS5_EE8_M_beginEv@Base 1.7-1ubuntu5
 _ZNKSt8_Rb_treeIN6TagLib6StringESt4pairIKS1_NS0_10StringListEESt10_Select1stIS5_ESt4lessIS1_ESaIS5_EE8key_compEv@Base 1.7-1ubuntu5
 _ZNKSt8_Rb_treeIN6TagLib6StringESt4pairIKS1_NS0_3MP44ItemEESt10_Select1stIS6_ESt4lessIS1_ESaIS6_EE13get_allocatorEv@Base 1.7-1ubuntu5
 _ZNKSt8_Rb_treeIN6TagLib6StringESt4pairIKS1_NS0_3MP44ItemEESt10_Select1stIS6_ESt4lessIS1_ESaIS6_EE21_M_get_Node_allocatorEv@Base 1.7-1ubuntu5
 _ZNKSt8_Rb_treeIN6TagLib6StringESt4pairIKS1_NS0_3MP44ItemEESt10_Select1stIS6_ESt4lessIS1_ESaIS6_EE4sizeEv@Base 1.7-1ubuntu5
 _ZNKSt8_Rb_treeIN6TagLib6StringESt4pairIKS1_NS0_3MP44ItemEESt10_Select1stIS6_ESt4lessIS1_ESaIS6_EE7_M_rootEv@Base 1.7-1ubuntu5
 _ZNKSt8_Rb_treeIN6TagLib6StringESt4pairIKS1_NS0_3MP44ItemEESt10_Select1stIS6_ESt4lessIS1_ESaIS6_EE8_M_beginEv@Base 1.7-1ubuntu5
 _ZNKSt8_Rb_treeIN6TagLib6StringESt4pairIKS1_NS0_3MP44ItemEESt10_Select1stIS6_ESt4lessIS1_ESaIS6_EE8key_compEv@Base 1.7-1ubuntu5
 _ZNKSt8_Rb_treeIN6TagLib6StringESt4pairIKS1_NS0_4ListINS0_3ASF9AttributeEEEESt10_Select1stIS8_ESt4lessIS1_ESaIS8_EE13get_allocatorEv@Base 1.7-1ubuntu5
 _ZNKSt8_Rb_treeIN6TagLib6StringESt4pairIKS1_NS0_4ListINS0_3ASF9AttributeEEEESt10_Select1stIS8_ESt4lessIS1_ESaIS8_EE21_M_get_Node_allocatorEv@Base 1.7-1ubuntu5
 _ZNKSt8_Rb_treeIN6TagLib6StringESt4pairIKS1_NS0_4ListINS0_3ASF9AttributeEEEESt10_Select1stIS8_ESt4lessIS1_ESaIS8_EE4sizeEv@Base 1.7-1ubuntu5
 _ZNKSt8_Rb_treeIN6TagLib6StringESt4pairIKS1_NS0_4ListINS0_3ASF9AttributeEEEESt10_Select1stIS8_ESt4lessIS1_ESaIS8_EE5emptyEv@Base 1.7-1ubuntu5
 _ZNKSt8_Rb_treeIN6TagLib6StringESt4pairIKS1_NS0_4ListINS0_3ASF9AttributeEEEESt10_Select1stIS8_ESt4lessIS1_ESaIS8_EE7_M_rootEv@Base 1.7-1ubuntu5
 _ZNKSt8_Rb_treeIN6TagLib6StringESt4pairIKS1_NS0_4ListINS0_3ASF9AttributeEEEESt10_Select1stIS8_ESt4lessIS1_ESaIS8_EE8_M_beginEv@Base 1.7-1ubuntu5
 _ZNKSt8_Rb_treeIN6TagLib6StringESt4pairIKS1_NS0_4ListINS0_3ASF9AttributeEEEESt10_Select1stIS8_ESt4lessIS1_ESaIS8_EE8key_compEv@Base 1.7-1ubuntu5
 _ZNKSt8_Rb_treeIN6TagLib6StringESt4pairIKS1_iESt10_Select1stIS4_ESt4lessIS1_ESaIS4_EE13get_allocatorEv@Base 1.7-1ubuntu5
 _ZNKSt8_Rb_treeIN6TagLib6StringESt4pairIKS1_iESt10_Select1stIS4_ESt4lessIS1_ESaIS4_EE21_M_get_Node_allocatorEv@Base 1.7-1ubuntu5
 _ZNKSt8_Rb_treeIN6TagLib6StringESt4pairIKS1_iESt10_Select1stIS4_ESt4lessIS1_ESaIS4_EE4sizeEv@Base 1.7-1ubuntu5
 _ZNKSt8_Rb_treeIN6TagLib6StringESt4pairIKS1_iESt10_Select1stIS4_ESt4lessIS1_ESaIS4_EE5emptyEv@Base 1.7-1ubuntu5
 _ZNKSt8_Rb_treeIN6TagLib6StringESt4pairIKS1_iESt10_Select1stIS4_ESt4lessIS1_ESaIS4_EE7_M_rootEv@Base 1.7-1ubuntu5
 _ZNKSt8_Rb_treeIN6TagLib6StringESt4pairIKS1_iESt10_Select1stIS4_ESt4lessIS1_ESaIS4_EE8_M_beginEv@Base 1.7-1ubuntu5
 _ZNKSt8_Rb_treeIN6TagLib6StringESt4pairIKS1_iESt10_Select1stIS4_ESt4lessIS1_ESaIS4_EE8key_compEv@Base 1.7-1ubuntu5
 _ZNKSt8_Rb_treeIiSt4pairIKiN6TagLib10ByteVectorEESt10_Select1stIS4_ESt4lessIiESaIS4_EE13get_allocatorEv@Base 1.7-1ubuntu5
 _ZNKSt8_Rb_treeIiSt4pairIKiN6TagLib10ByteVectorEESt10_Select1stIS4_ESt4lessIiESaIS4_EE21_M_get_Node_allocatorEv@Base 1.7-1ubuntu5
 _ZNKSt8_Rb_treeIiSt4pairIKiN6TagLib10ByteVectorEESt10_Select1stIS4_ESt4lessIiESaIS4_EE4sizeEv@Base 1.7-1ubuntu5
 _ZNKSt8_Rb_treeIiSt4pairIKiN6TagLib10ByteVectorEESt10_Select1stIS4_ESt4lessIiESaIS4_EE7_M_rootEv@Base 1.7-1ubuntu5
 _ZNKSt8_Rb_treeIiSt4pairIKiN6TagLib10ByteVectorEESt10_Select1stIS4_ESt4lessIiESaIS4_EE8_M_beginEv@Base 1.7-1ubuntu5
 _ZNKSt8_Rb_treeIiSt4pairIKiN6TagLib10ByteVectorEESt10_Select1stIS4_ESt4lessIiESaIS4_EE8key_compEv@Base 1.7-1ubuntu5
 _ZNSaI5ChunkEC1Ev@Base 1.7-1ubuntu5
 _ZNSaI5ChunkEC2Ev@Base 1.7-1ubuntu5
 _ZNSaI5ChunkED1Ev@Base 1.7-1ubuntu5
 _ZNSaI5ChunkED2Ev@Base 1.7-1ubuntu5
 _ZNSaIN6TagLib10ByteVectorEEC1ISt10_List_nodeIS0_EEERKSaIT_E@Base 1.7-1ubuntu5
 _ZNSaIN6TagLib10ByteVectorEEC2ISt10_List_nodeIS0_EEERKSaIT_E@Base 1.7-1ubuntu5
 _ZNSaIN6TagLib10ByteVectorEED1Ev@Base 1.7-1ubuntu5
 _ZNSaIN6TagLib10ByteVectorEED2Ev@Base 1.7-1ubuntu5
 _ZNSaIN6TagLib3ASF9AttributeEEC1ISt10_List_nodeIS1_EEERKSaIT_E@Base 1.7-1ubuntu5
 _ZNSaIN6TagLib3ASF9AttributeEEC2ISt10_List_nodeIS1_EEERKSaIT_E@Base 1.7-1ubuntu5
 _ZNSaIN6TagLib3ASF9AttributeEED1Ev@Base 1.7-1ubuntu5
 _ZNSaIN6TagLib3ASF9AttributeEED2Ev@Base 1.7-1ubuntu5
 _ZNSaIN6TagLib3MP48CoverArtEEC1ISt10_List_nodeIS1_EEERKSaIT_E@Base 1.7-1ubuntu5
 _ZNSaIN6TagLib3MP48CoverArtEEC2ISt10_List_nodeIS1_EEERKSaIT_E@Base 1.7-1ubuntu5
 _ZNSaIN6TagLib3MP48CoverArtEED1Ev@Base 1.7-1ubuntu5
 _ZNSaIN6TagLib3MP48CoverArtEED2Ev@Base 1.7-1ubuntu5
 _ZNSaIN6TagLib4ListIiEEEC1Ev@Base 1.7-1ubuntu5
 _ZNSaIN6TagLib4ListIiEEEC2Ev@Base 1.7-1ubuntu5
 _ZNSaIN6TagLib4ListIiEEED1Ev@Base 1.7-1ubuntu5
 _ZNSaIN6TagLib4ListIiEEED2Ev@Base 1.7-1ubuntu5
 _ZNSaIN6TagLib5ID3v219RelativeVolumeFrame11ChannelTypeEEC1ISt10_List_nodeIS2_EEERKSaIT_E@Base 1.7-1ubuntu5
 _ZNSaIN6TagLib5ID3v219RelativeVolumeFrame11ChannelTypeEEC2ISt10_List_nodeIS2_EEERKSaIT_E@Base 1.7-1ubuntu5
 _ZNSaIN6TagLib5ID3v219RelativeVolumeFrame11ChannelTypeEED1Ev@Base 1.7-1ubuntu5
 _ZNSaIN6TagLib5ID3v219RelativeVolumeFrame11ChannelTypeEED2Ev@Base 1.7-1ubuntu5
 _ZNSaIN6TagLib6StringEEC1ISt10_List_nodeIS0_EEERKSaIT_E@Base 1.7-1ubuntu5
 _ZNSaIN6TagLib6StringEEC2ISt10_List_nodeIS0_EEERKSaIT_E@Base 1.7-1ubuntu5
 _ZNSaIN6TagLib6StringEED1Ev@Base 1.7-1ubuntu5
 _ZNSaIN6TagLib6StringEED2Ev@Base 1.7-1ubuntu5
 _ZNSaIPKN6TagLib7FileRef16FileTypeResolverEEC1ISt10_List_nodeIS3_EEERKSaIT_E@Base 1.7-1ubuntu5
 _ZNSaIPKN6TagLib7FileRef16FileTypeResolverEEC2ISt10_List_nodeIS3_EEERKSaIT_E@Base 1.7-1ubuntu5
 _ZNSaIPKN6TagLib7FileRef16FileTypeResolverEED1Ev@Base 1.7-1ubuntu5
 _ZNSaIPKN6TagLib7FileRef16FileTypeResolverEED2Ev@Base 1.7-1ubuntu5
 _ZNSaIPN6TagLib3ASF4File10BaseObjectEEC1ISt10_List_nodeIS3_EEERKSaIT_E@Base 1.7-1ubuntu5
 _ZNSaIPN6TagLib3ASF4File10BaseObjectEEC2ISt10_List_nodeIS3_EEERKSaIT_E@Base 1.7-1ubuntu5
 _ZNSaIPN6TagLib3ASF4File10BaseObjectEED1Ev@Base 1.7-1ubuntu5
 _ZNSaIPN6TagLib3ASF4File10BaseObjectEED2Ev@Base 1.7-1ubuntu5
 _ZNSaIPN6TagLib3MP44AtomEEC1ISt10_List_nodeIS2_EEERKSaIT_E@Base 1.7-1ubuntu5
 _ZNSaIPN6TagLib3MP44AtomEEC2ISt10_List_nodeIS2_EEERKSaIT_E@Base 1.7-1ubuntu5
 _ZNSaIPN6TagLib3MP44AtomEED1Ev@Base 1.7-1ubuntu5
 _ZNSaIPN6TagLib3MP44AtomEED2Ev@Base 1.7-1ubuntu5
 _ZNSaIPN6TagLib3Ogg4PageEEC1ISt10_List_nodeIS2_EEERKSaIT_E@Base 1.7-1ubuntu5
 _ZNSaIPN6TagLib3Ogg4PageEEC2ISt10_List_nodeIS2_EEERKSaIT_E@Base 1.7-1ubuntu5
 _ZNSaIPN6TagLib3Ogg4PageEED1Ev@Base 1.7-1ubuntu5
 _ZNSaIPN6TagLib3Ogg4PageEED2Ev@Base 1.7-1ubuntu5
 _ZNSaIPN6TagLib3TagEEC1ERKS2_@Base 1.7-1ubuntu5
 _ZNSaIPN6TagLib3TagEEC1Ev@Base 1.7-1ubuntu5
 _ZNSaIPN6TagLib3TagEEC2ERKS2_@Base 1.7-1ubuntu5
 _ZNSaIPN6TagLib3TagEEC2Ev@Base 1.7-1ubuntu5
 _ZNSaIPN6TagLib3TagEED1Ev@Base 1.7-1ubuntu5
 _ZNSaIPN6TagLib3TagEED2Ev@Base 1.7-1ubuntu5
 _ZNSaIPN6TagLib4FLAC13MetadataBlockEEC1ISt10_List_nodeIS2_EEERKSaIT_E@Base 1.7-1ubuntu5
 _ZNSaIPN6TagLib4FLAC13MetadataBlockEEC2ISt10_List_nodeIS2_EEERKSaIT_E@Base 1.7-1ubuntu5
 _ZNSaIPN6TagLib4FLAC13MetadataBlockEED1Ev@Base 1.7-1ubuntu5
 _ZNSaIPN6TagLib4FLAC13MetadataBlockEED2Ev@Base 1.7-1ubuntu5
 _ZNSaIPN6TagLib4FLAC7PictureEEC1ISt10_List_nodeIS2_EEERKSaIT_E@Base 1.7-1ubuntu5
 _ZNSaIPN6TagLib4FLAC7PictureEEC2ISt10_List_nodeIS2_EEERKSaIT_E@Base 1.7-1ubuntu5
 _ZNSaIPN6TagLib4FLAC7PictureEED1Ev@Base 1.7-1ubuntu5
 _ZNSaIPN6TagLib4FLAC7PictureEED2Ev@Base 1.7-1ubuntu5
 _ZNSaIPN6TagLib5ID3v25FrameEEC1ISt10_List_nodeIS2_EEERKSaIT_E@Base 1.7-1ubuntu5
 _ZNSaIPN6TagLib5ID3v25FrameEEC2ISt10_List_nodeIS2_EEERKSaIT_E@Base 1.7-1ubuntu5
 _ZNSaIPN6TagLib5ID3v25FrameEED1Ev@Base 1.7-1ubuntu5
 _ZNSaIPN6TagLib5ID3v25FrameEED2Ev@Base 1.7-1ubuntu5
 _ZNSaISt10_List_nodeIN6TagLib10ByteVectorEEEC1ERKS3_@Base 1.7-1ubuntu5
 _ZNSaISt10_List_nodeIN6TagLib10ByteVectorEEEC1Ev@Base 1.7-1ubuntu5
 _ZNSaISt10_List_nodeIN6TagLib10ByteVectorEEEC1IS1_EERKSaIT_E@Base 1.7-1ubuntu5
 _ZNSaISt10_List_nodeIN6TagLib10ByteVectorEEEC2ERKS3_@Base 1.7-1ubuntu5
 _ZNSaISt10_List_nodeIN6TagLib10ByteVectorEEEC2Ev@Base 1.7-1ubuntu5
 _ZNSaISt10_List_nodeIN6TagLib10ByteVectorEEEC2IS1_EERKSaIT_E@Base 1.7-1ubuntu5
 _ZNSaISt10_List_nodeIN6TagLib10ByteVectorEEED1Ev@Base 1.7-1ubuntu5
 _ZNSaISt10_List_nodeIN6TagLib10ByteVectorEEED2Ev@Base 1.7-1ubuntu5
 _ZNSaISt10_List_nodeIN6TagLib3ASF9AttributeEEEC1ERKS4_@Base 1.7-1ubuntu5
 _ZNSaISt10_List_nodeIN6TagLib3ASF9AttributeEEEC1Ev@Base 1.7-1ubuntu5
 _ZNSaISt10_List_nodeIN6TagLib3ASF9AttributeEEEC1IS2_EERKSaIT_E@Base 1.7-1ubuntu5
 _ZNSaISt10_List_nodeIN6TagLib3ASF9AttributeEEEC2ERKS4_@Base 1.7-1ubuntu5
 _ZNSaISt10_List_nodeIN6TagLib3ASF9AttributeEEEC2Ev@Base 1.7-1ubuntu5
 _ZNSaISt10_List_nodeIN6TagLib3ASF9AttributeEEEC2IS2_EERKSaIT_E@Base 1.7-1ubuntu5
 _ZNSaISt10_List_nodeIN6TagLib3ASF9AttributeEEED1Ev@Base 1.7-1ubuntu5
 _ZNSaISt10_List_nodeIN6TagLib3ASF9AttributeEEED2Ev@Base 1.7-1ubuntu5
 _ZNSaISt10_List_nodeIN6TagLib3MP48CoverArtEEEC1ERKS4_@Base 1.7-1ubuntu5
 _ZNSaISt10_List_nodeIN6TagLib3MP48CoverArtEEEC1Ev@Base 1.7-1ubuntu5
 _ZNSaISt10_List_nodeIN6TagLib3MP48CoverArtEEEC1IS2_EERKSaIT_E@Base 1.7-1ubuntu5
 _ZNSaISt10_List_nodeIN6TagLib3MP48CoverArtEEEC2ERKS4_@Base 1.7-1ubuntu5
 _ZNSaISt10_List_nodeIN6TagLib3MP48CoverArtEEEC2Ev@Base 1.7-1ubuntu5
 _ZNSaISt10_List_nodeIN6TagLib3MP48CoverArtEEEC2IS2_EERKSaIT_E@Base 1.7-1ubuntu5
 _ZNSaISt10_List_nodeIN6TagLib3MP48CoverArtEEED1Ev@Base 1.7-1ubuntu5
 _ZNSaISt10_List_nodeIN6TagLib3MP48CoverArtEEED2Ev@Base 1.7-1ubuntu5
 _ZNSaISt10_List_nodeIN6TagLib5ID3v219RelativeVolumeFrame11ChannelTypeEEEC1ERKS5_@Base 1.7-1ubuntu5
 _ZNSaISt10_List_nodeIN6TagLib5ID3v219RelativeVolumeFrame11ChannelTypeEEEC1Ev@Base 1.7-1ubuntu5
 _ZNSaISt10_List_nodeIN6TagLib5ID3v219RelativeVolumeFrame11ChannelTypeEEEC1IS3_EERKSaIT_E@Base 1.7-1ubuntu5
 _ZNSaISt10_List_nodeIN6TagLib5ID3v219RelativeVolumeFrame11ChannelTypeEEEC2ERKS5_@Base 1.7-1ubuntu5
 _ZNSaISt10_List_nodeIN6TagLib5ID3v219RelativeVolumeFrame11ChannelTypeEEEC2Ev@Base 1.7-1ubuntu5
 _ZNSaISt10_List_nodeIN6TagLib5ID3v219RelativeVolumeFrame11ChannelTypeEEEC2IS3_EERKSaIT_E@Base 1.7-1ubuntu5
 _ZNSaISt10_List_nodeIN6TagLib5ID3v219RelativeVolumeFrame11ChannelTypeEEED1Ev@Base 1.7-1ubuntu5
 _ZNSaISt10_List_nodeIN6TagLib5ID3v219RelativeVolumeFrame11ChannelTypeEEED2Ev@Base 1.7-1ubuntu5
 _ZNSaISt10_List_nodeIN6TagLib6StringEEEC1ERKS3_@Base 1.7-1ubuntu5
 _ZNSaISt10_List_nodeIN6TagLib6StringEEEC1Ev@Base 1.7-1ubuntu5
 _ZNSaISt10_List_nodeIN6TagLib6StringEEEC1IS1_EERKSaIT_E@Base 1.7-1ubuntu5
 _ZNSaISt10_List_nodeIN6TagLib6StringEEEC2ERKS3_@Base 1.7-1ubuntu5
 _ZNSaISt10_List_nodeIN6TagLib6StringEEEC2Ev@Base 1.7-1ubuntu5
 _ZNSaISt10_List_nodeIN6TagLib6StringEEEC2IS1_EERKSaIT_E@Base 1.7-1ubuntu5
 _ZNSaISt10_List_nodeIN6TagLib6StringEEED1Ev@Base 1.7-1ubuntu5
 _ZNSaISt10_List_nodeIN6TagLib6StringEEED2Ev@Base 1.7-1ubuntu5
 _ZNSaISt10_List_nodeIPKN6TagLib7FileRef16FileTypeResolverEEEC1ERKS6_@Base 1.7-1ubuntu5
 _ZNSaISt10_List_nodeIPKN6TagLib7FileRef16FileTypeResolverEEEC1Ev@Base 1.7-1ubuntu5
 _ZNSaISt10_List_nodeIPKN6TagLib7FileRef16FileTypeResolverEEEC1IS4_EERKSaIT_E@Base 1.7-1ubuntu5
 _ZNSaISt10_List_nodeIPKN6TagLib7FileRef16FileTypeResolverEEEC2ERKS6_@Base 1.7-1ubuntu5
 _ZNSaISt10_List_nodeIPKN6TagLib7FileRef16FileTypeResolverEEEC2Ev@Base 1.7-1ubuntu5
 _ZNSaISt10_List_nodeIPKN6TagLib7FileRef16FileTypeResolverEEEC2IS4_EERKSaIT_E@Base 1.7-1ubuntu5
 _ZNSaISt10_List_nodeIPKN6TagLib7FileRef16FileTypeResolverEEED1Ev@Base 1.7-1ubuntu5
 _ZNSaISt10_List_nodeIPKN6TagLib7FileRef16FileTypeResolverEEED2Ev@Base 1.7-1ubuntu5
 _ZNSaISt10_List_nodeIPN6TagLib3ASF4File10BaseObjectEEEC1ERKS6_@Base 1.7-1ubuntu5
 _ZNSaISt10_List_nodeIPN6TagLib3ASF4File10BaseObjectEEEC1Ev@Base 1.7-1ubuntu5
 _ZNSaISt10_List_nodeIPN6TagLib3ASF4File10BaseObjectEEEC1IS4_EERKSaIT_E@Base 1.7-1ubuntu5
 _ZNSaISt10_List_nodeIPN6TagLib3ASF4File10BaseObjectEEEC2ERKS6_@Base 1.7-1ubuntu5
 _ZNSaISt10_List_nodeIPN6TagLib3ASF4File10BaseObjectEEEC2Ev@Base 1.7-1ubuntu5
 _ZNSaISt10_List_nodeIPN6TagLib3ASF4File10BaseObjectEEEC2IS4_EERKSaIT_E@Base 1.7-1ubuntu5
 _ZNSaISt10_List_nodeIPN6TagLib3ASF4File10BaseObjectEEED1Ev@Base 1.7-1ubuntu5
 _ZNSaISt10_List_nodeIPN6TagLib3ASF4File10BaseObjectEEED2Ev@Base 1.7-1ubuntu5
 _ZNSaISt10_List_nodeIPN6TagLib3MP44AtomEEEC1ERKS5_@Base 1.7-1ubuntu5
 _ZNSaISt10_List_nodeIPN6TagLib3MP44AtomEEEC1Ev@Base 1.7-1ubuntu5
 _ZNSaISt10_List_nodeIPN6TagLib3MP44AtomEEEC1IS3_EERKSaIT_E@Base 1.7-1ubuntu5
 _ZNSaISt10_List_nodeIPN6TagLib3MP44AtomEEEC2ERKS5_@Base 1.7-1ubuntu5
 _ZNSaISt10_List_nodeIPN6TagLib3MP44AtomEEEC2Ev@Base 1.7-1ubuntu5
 _ZNSaISt10_List_nodeIPN6TagLib3MP44AtomEEEC2IS3_EERKSaIT_E@Base 1.7-1ubuntu5
 _ZNSaISt10_List_nodeIPN6TagLib3MP44AtomEEED1Ev@Base 1.7-1ubuntu5
 _ZNSaISt10_List_nodeIPN6TagLib3MP44AtomEEED2Ev@Base 1.7-1ubuntu5
 _ZNSaISt10_List_nodeIPN6TagLib3Ogg4PageEEEC1ERKS5_@Base 1.7-1ubuntu5
 _ZNSaISt10_List_nodeIPN6TagLib3Ogg4PageEEEC1Ev@Base 1.7-1ubuntu5
 _ZNSaISt10_List_nodeIPN6TagLib3Ogg4PageEEEC1IS3_EERKSaIT_E@Base 1.7-1ubuntu5
 _ZNSaISt10_List_nodeIPN6TagLib3Ogg4PageEEEC2ERKS5_@Base 1.7-1ubuntu5
 _ZNSaISt10_List_nodeIPN6TagLib3Ogg4PageEEEC2Ev@Base 1.7-1ubuntu5
 _ZNSaISt10_List_nodeIPN6TagLib3Ogg4PageEEEC2IS3_EERKSaIT_E@Base 1.7-1ubuntu5
 _ZNSaISt10_List_nodeIPN6TagLib3Ogg4PageEEED1Ev@Base 1.7-1ubuntu5
 _ZNSaISt10_List_nodeIPN6TagLib3Ogg4PageEEED2Ev@Base 1.7-1ubuntu5
 _ZNSaISt10_List_nodeIPN6TagLib4FLAC13MetadataBlockEEEC1ERKS5_@Base 1.7-1ubuntu5
 _ZNSaISt10_List_nodeIPN6TagLib4FLAC13MetadataBlockEEEC1Ev@Base 1.7-1ubuntu5
 _ZNSaISt10_List_nodeIPN6TagLib4FLAC13MetadataBlockEEEC1IS3_EERKSaIT_E@Base 1.7-1ubuntu5
 _ZNSaISt10_List_nodeIPN6TagLib4FLAC13MetadataBlockEEEC2ERKS5_@Base 1.7-1ubuntu5
 _ZNSaISt10_List_nodeIPN6TagLib4FLAC13MetadataBlockEEEC2Ev@Base 1.7-1ubuntu5
 _ZNSaISt10_List_nodeIPN6TagLib4FLAC13MetadataBlockEEEC2IS3_EERKSaIT_E@Base 1.7-1ubuntu5
 _ZNSaISt10_List_nodeIPN6TagLib4FLAC13MetadataBlockEEED1Ev@Base 1.7-1ubuntu5
 _ZNSaISt10_List_nodeIPN6TagLib4FLAC13MetadataBlockEEED2Ev@Base 1.7-1ubuntu5
 _ZNSaISt10_List_nodeIPN6TagLib4FLAC7PictureEEEC1ERKS5_@Base 1.7-1ubuntu5
 _ZNSaISt10_List_nodeIPN6TagLib4FLAC7PictureEEEC1Ev@Base 1.7-1ubuntu5
 _ZNSaISt10_List_nodeIPN6TagLib4FLAC7PictureEEEC1IS3_EERKSaIT_E@Base 1.7-1ubuntu5
 _ZNSaISt10_List_nodeIPN6TagLib4FLAC7PictureEEEC2ERKS5_@Base 1.7-1ubuntu5
 _ZNSaISt10_List_nodeIPN6TagLib4FLAC7PictureEEEC2Ev@Base 1.7-1ubuntu5
 _ZNSaISt10_List_nodeIPN6TagLib4FLAC7PictureEEEC2IS3_EERKSaIT_E@Base 1.7-1ubuntu5
 _ZNSaISt10_List_nodeIPN6TagLib4FLAC7PictureEEED1Ev@Base 1.7-1ubuntu5
 _ZNSaISt10_List_nodeIPN6TagLib4FLAC7PictureEEED2Ev@Base 1.7-1ubuntu5
 _ZNSaISt10_List_nodeIPN6TagLib5ID3v25FrameEEEC1ERKS5_@Base 1.7-1ubuntu5
 _ZNSaISt10_List_nodeIPN6TagLib5ID3v25FrameEEEC1Ev@Base 1.7-1ubuntu5
 _ZNSaISt10_List_nodeIPN6TagLib5ID3v25FrameEEEC1IS3_EERKSaIT_E@Base 1.7-1ubuntu5
 _ZNSaISt10_List_nodeIPN6TagLib5ID3v25FrameEEEC2ERKS5_@Base 1.7-1ubuntu5
 _ZNSaISt10_List_nodeIPN6TagLib5ID3v25FrameEEEC2Ev@Base 1.7-1ubuntu5
 _ZNSaISt10_List_nodeIPN6TagLib5ID3v25FrameEEEC2IS3_EERKSaIT_E@Base 1.7-1ubuntu5
 _ZNSaISt10_List_nodeIPN6TagLib5ID3v25FrameEEED1Ev@Base 1.7-1ubuntu5
 _ZNSaISt10_List_nodeIPN6TagLib5ID3v25FrameEEED2Ev@Base 1.7-1ubuntu5
 _ZNSaISt10_List_nodeIiEEC1ERKS1_@Base 1.7-1ubuntu5
 _ZNSaISt10_List_nodeIiEEC1Ev@Base 1.7-1ubuntu5
 _ZNSaISt10_List_nodeIiEEC1IiEERKSaIT_E@Base 1.7-1ubuntu5
 _ZNSaISt10_List_nodeIiEEC2ERKS1_@Base 1.7-1ubuntu5
 _ZNSaISt10_List_nodeIiEEC2Ev@Base 1.7-1ubuntu5
 _ZNSaISt10_List_nodeIiEEC2IiEERKSaIT_E@Base 1.7-1ubuntu5
 _ZNSaISt10_List_nodeIiEED1Ev@Base 1.7-1ubuntu5
 _ZNSaISt10_List_nodeIiEED2Ev@Base 1.7-1ubuntu5
 _ZNSaISt13_Rb_tree_nodeISt4pairIKN6TagLib10ByteVectorENS1_4ListIPNS1_5ID3v25FrameEEEEEEC1ERKSB_@Base 1.7-1ubuntu5
 _ZNSaISt13_Rb_tree_nodeISt4pairIKN6TagLib10ByteVectorENS1_4ListIPNS1_5ID3v25FrameEEEEEEC1Ev@Base 1.7-1ubuntu5
 _ZNSaISt13_Rb_tree_nodeISt4pairIKN6TagLib10ByteVectorENS1_4ListIPNS1_5ID3v25FrameEEEEEEC2ERKSB_@Base 1.7-1ubuntu5
 _ZNSaISt13_Rb_tree_nodeISt4pairIKN6TagLib10ByteVectorENS1_4ListIPNS1_5ID3v25FrameEEEEEEC2Ev@Base 1.7-1ubuntu5
 _ZNSaISt13_Rb_tree_nodeISt4pairIKN6TagLib10ByteVectorENS1_4ListIPNS1_5ID3v25FrameEEEEEED1Ev@Base 1.7-1ubuntu5
 _ZNSaISt13_Rb_tree_nodeISt4pairIKN6TagLib10ByteVectorENS1_4ListIPNS1_5ID3v25FrameEEEEEED2Ev@Base 1.7-1ubuntu5
 _ZNSaISt13_Rb_tree_nodeISt4pairIKN6TagLib5ID3v219RelativeVolumeFrame11ChannelTypeE11ChannelDataEEEC1ERKS9_@Base 1.7-1ubuntu5
 _ZNSaISt13_Rb_tree_nodeISt4pairIKN6TagLib5ID3v219RelativeVolumeFrame11ChannelTypeE11ChannelDataEEEC1Ev@Base 1.7-1ubuntu5
 _ZNSaISt13_Rb_tree_nodeISt4pairIKN6TagLib5ID3v219RelativeVolumeFrame11ChannelTypeE11ChannelDataEEEC2ERKS9_@Base 1.7-1ubuntu5
 _ZNSaISt13_Rb_tree_nodeISt4pairIKN6TagLib5ID3v219RelativeVolumeFrame11ChannelTypeE11ChannelDataEEEC2Ev@Base 1.7-1ubuntu5
 _ZNSaISt13_Rb_tree_nodeISt4pairIKN6TagLib5ID3v219RelativeVolumeFrame11ChannelTypeE11ChannelDataEEED1Ev@Base 1.7-1ubuntu5
 _ZNSaISt13_Rb_tree_nodeISt4pairIKN6TagLib5ID3v219RelativeVolumeFrame11ChannelTypeE11ChannelDataEEED2Ev@Base 1.7-1ubuntu5
 _ZNSaISt13_Rb_tree_nodeISt4pairIKN6TagLib6StringENS1_10StringListEEEEC1ERKS7_@Base 1.7-1ubuntu5
 _ZNSaISt13_Rb_tree_nodeISt4pairIKN6TagLib6StringENS1_10StringListEEEEC1Ev@Base 1.7-1ubuntu5
 _ZNSaISt13_Rb_tree_nodeISt4pairIKN6TagLib6StringENS1_10StringListEEEEC2ERKS7_@Base 1.7-1ubuntu5
 _ZNSaISt13_Rb_tree_nodeISt4pairIKN6TagLib6StringENS1_10StringListEEEEC2Ev@Base 1.7-1ubuntu5
 _ZNSaISt13_Rb_tree_nodeISt4pairIKN6TagLib6StringENS1_10StringListEEEED1Ev@Base 1.7-1ubuntu5
 _ZNSaISt13_Rb_tree_nodeISt4pairIKN6TagLib6StringENS1_10StringListEEEED2Ev@Base 1.7-1ubuntu5
 _ZNSaISt13_Rb_tree_nodeISt4pairIKN6TagLib6StringENS1_3APE4ItemEEEEC1ERKS8_@Base 1.7-1ubuntu5
 _ZNSaISt13_Rb_tree_nodeISt4pairIKN6TagLib6StringENS1_3APE4ItemEEEEC1Ev@Base 1.7-1ubuntu5
 _ZNSaISt13_Rb_tree_nodeISt4pairIKN6TagLib6StringENS1_3APE4ItemEEEEC2ERKS8_@Base 1.7-1ubuntu5
 _ZNSaISt13_Rb_tree_nodeISt4pairIKN6TagLib6StringENS1_3APE4ItemEEEEC2Ev@Base 1.7-1ubuntu5
 _ZNSaISt13_Rb_tree_nodeISt4pairIKN6TagLib6StringENS1_3APE4ItemEEEED1Ev@Base 1.7-1ubuntu5
 _ZNSaISt13_Rb_tree_nodeISt4pairIKN6TagLib6StringENS1_3APE4ItemEEEED2Ev@Base 1.7-1ubuntu5
 _ZNSaISt13_Rb_tree_nodeISt4pairIKN6TagLib6StringENS1_3MP44ItemEEEEC1ERKS8_@Base 1.7-1ubuntu5
 _ZNSaISt13_Rb_tree_nodeISt4pairIKN6TagLib6StringENS1_3MP44ItemEEEEC1Ev@Base 1.7-1ubuntu5
 _ZNSaISt13_Rb_tree_nodeISt4pairIKN6TagLib6StringENS1_3MP44ItemEEEEC2ERKS8_@Base 1.7-1ubuntu5
 _ZNSaISt13_Rb_tree_nodeISt4pairIKN6TagLib6StringENS1_3MP44ItemEEEEC2Ev@Base 1.7-1ubuntu5
 _ZNSaISt13_Rb_tree_nodeISt4pairIKN6TagLib6StringENS1_3MP44ItemEEEED1Ev@Base 1.7-1ubuntu5
 _ZNSaISt13_Rb_tree_nodeISt4pairIKN6TagLib6StringENS1_3MP44ItemEEEED2Ev@Base 1.7-1ubuntu5
 _ZNSaISt13_Rb_tree_nodeISt4pairIKN6TagLib6StringENS1_4ListINS1_3ASF9AttributeEEEEEEC1ERKSA_@Base 1.7-1ubuntu5
 _ZNSaISt13_Rb_tree_nodeISt4pairIKN6TagLib6StringENS1_4ListINS1_3ASF9AttributeEEEEEEC1Ev@Base 1.7-1ubuntu5
 _ZNSaISt13_Rb_tree_nodeISt4pairIKN6TagLib6StringENS1_4ListINS1_3ASF9AttributeEEEEEEC2ERKSA_@Base 1.7-1ubuntu5
 _ZNSaISt13_Rb_tree_nodeISt4pairIKN6TagLib6StringENS1_4ListINS1_3ASF9AttributeEEEEEEC2Ev@Base 1.7-1ubuntu5
 _ZNSaISt13_Rb_tree_nodeISt4pairIKN6TagLib6StringENS1_4ListINS1_3ASF9AttributeEEEEEED1Ev@Base 1.7-1ubuntu5
 _ZNSaISt13_Rb_tree_nodeISt4pairIKN6TagLib6StringENS1_4ListINS1_3ASF9AttributeEEEEEED2Ev@Base 1.7-1ubuntu5
 _ZNSaISt13_Rb_tree_nodeISt4pairIKN6TagLib6StringEiEEEC1ERKS6_@Base 1.7-1ubuntu5
 _ZNSaISt13_Rb_tree_nodeISt4pairIKN6TagLib6StringEiEEEC1Ev@Base 1.7-1ubuntu5
 _ZNSaISt13_Rb_tree_nodeISt4pairIKN6TagLib6StringEiEEEC2ERKS6_@Base 1.7-1ubuntu5
 _ZNSaISt13_Rb_tree_nodeISt4pairIKN6TagLib6StringEiEEEC2Ev@Base 1.7-1ubuntu5
 _ZNSaISt13_Rb_tree_nodeISt4pairIKN6TagLib6StringEiEEED1Ev@Base 1.7-1ubuntu5
 _ZNSaISt13_Rb_tree_nodeISt4pairIKN6TagLib6StringEiEEED2Ev@Base 1.7-1ubuntu5
 _ZNSaISt13_Rb_tree_nodeISt4pairIKiN6TagLib10ByteVectorEEEEC1ERKS6_@Base 1.7-1ubuntu5
 _ZNSaISt13_Rb_tree_nodeISt4pairIKiN6TagLib10ByteVectorEEEEC1Ev@Base 1.7-1ubuntu5
 _ZNSaISt13_Rb_tree_nodeISt4pairIKiN6TagLib10ByteVectorEEEEC2ERKS6_@Base 1.7-1ubuntu5
 _ZNSaISt13_Rb_tree_nodeISt4pairIKiN6TagLib10ByteVectorEEEEC2Ev@Base 1.7-1ubuntu5
 _ZNSaISt13_Rb_tree_nodeISt4pairIKiN6TagLib10ByteVectorEEEED1Ev@Base 1.7-1ubuntu5
 _ZNSaISt13_Rb_tree_nodeISt4pairIKiN6TagLib10ByteVectorEEEED2Ev@Base 1.7-1ubuntu5
 _ZNSaISt4pairIKN6TagLib10ByteVectorENS0_4ListIPNS0_5ID3v25FrameEEEEEC1ISt13_Rb_tree_nodeIS8_EEERKSaIT_E@Base 1.7-1ubuntu5
 _ZNSaISt4pairIKN6TagLib10ByteVectorENS0_4ListIPNS0_5ID3v25FrameEEEEEC2ISt13_Rb_tree_nodeIS8_EEERKSaIT_E@Base 1.7-1ubuntu5
 _ZNSaISt4pairIKN6TagLib10ByteVectorENS0_4ListIPNS0_5ID3v25FrameEEEEED1Ev@Base 1.7-1ubuntu5
 _ZNSaISt4pairIKN6TagLib10ByteVectorENS0_4ListIPNS0_5ID3v25FrameEEEEED2Ev@Base 1.7-1ubuntu5
 _ZNSaISt4pairIKN6TagLib5ID3v219RelativeVolumeFrame11ChannelTypeE11ChannelDataEEC1ISt13_Rb_tree_nodeIS6_EEERKSaIT_E@Base 1.7-1ubuntu5
 _ZNSaISt4pairIKN6TagLib5ID3v219RelativeVolumeFrame11ChannelTypeE11ChannelDataEEC2ISt13_Rb_tree_nodeIS6_EEERKSaIT_E@Base 1.7-1ubuntu5
 _ZNSaISt4pairIKN6TagLib5ID3v219RelativeVolumeFrame11ChannelTypeE11ChannelDataEED1Ev@Base 1.7-1ubuntu5
 _ZNSaISt4pairIKN6TagLib5ID3v219RelativeVolumeFrame11ChannelTypeE11ChannelDataEED2Ev@Base 1.7-1ubuntu5
 _ZNSaISt4pairIKN6TagLib6StringENS0_10StringListEEEC1ISt13_Rb_tree_nodeIS4_EEERKSaIT_E@Base 1.7-1ubuntu5
 _ZNSaISt4pairIKN6TagLib6StringENS0_10StringListEEEC2ISt13_Rb_tree_nodeIS4_EEERKSaIT_E@Base 1.7-1ubuntu5
 _ZNSaISt4pairIKN6TagLib6StringENS0_10StringListEEED1Ev@Base 1.7-1ubuntu5
 _ZNSaISt4pairIKN6TagLib6StringENS0_10StringListEEED2Ev@Base 1.7-1ubuntu5
 _ZNSaISt4pairIKN6TagLib6StringENS0_3APE4ItemEEEC1ISt13_Rb_tree_nodeIS5_EEERKSaIT_E@Base 1.7-1ubuntu5
 _ZNSaISt4pairIKN6TagLib6StringENS0_3APE4ItemEEEC2ISt13_Rb_tree_nodeIS5_EEERKSaIT_E@Base 1.7-1ubuntu5
 _ZNSaISt4pairIKN6TagLib6StringENS0_3APE4ItemEEED1Ev@Base 1.7-1ubuntu5
 _ZNSaISt4pairIKN6TagLib6StringENS0_3APE4ItemEEED2Ev@Base 1.7-1ubuntu5
 _ZNSaISt4pairIKN6TagLib6StringENS0_3MP44ItemEEEC1ISt13_Rb_tree_nodeIS5_EEERKSaIT_E@Base 1.7-1ubuntu5
 _ZNSaISt4pairIKN6TagLib6StringENS0_3MP44ItemEEEC2ISt13_Rb_tree_nodeIS5_EEERKSaIT_E@Base 1.7-1ubuntu5
 _ZNSaISt4pairIKN6TagLib6StringENS0_3MP44ItemEEED1Ev@Base 1.7-1ubuntu5
 _ZNSaISt4pairIKN6TagLib6StringENS0_3MP44ItemEEED2Ev@Base 1.7-1ubuntu5
 _ZNSaISt4pairIKN6TagLib6StringENS0_4ListINS0_3ASF9AttributeEEEEEC1ISt13_Rb_tree_nodeIS7_EEERKSaIT_E@Base 1.7-1ubuntu5
 _ZNSaISt4pairIKN6TagLib6StringENS0_4ListINS0_3ASF9AttributeEEEEEC2ISt13_Rb_tree_nodeIS7_EEERKSaIT_E@Base 1.7-1ubuntu5
 _ZNSaISt4pairIKN6TagLib6StringENS0_4ListINS0_3ASF9AttributeEEEEED1Ev@Base 1.7-1ubuntu5
 _ZNSaISt4pairIKN6TagLib6StringENS0_4ListINS0_3ASF9AttributeEEEEED2Ev@Base 1.7-1ubuntu5
 _ZNSaISt4pairIKN6TagLib6StringEiEEC1ISt13_Rb_tree_nodeIS3_EEERKSaIT_E@Base 1.7-1ubuntu5
 _ZNSaISt4pairIKN6TagLib6StringEiEEC2ISt13_Rb_tree_nodeIS3_EEERKSaIT_E@Base 1.7-1ubuntu5
 _ZNSaISt4pairIKN6TagLib6StringEiEED1Ev@Base 1.7-1ubuntu5
 _ZNSaISt4pairIKN6TagLib6StringEiEED2Ev@Base 1.7-1ubuntu5
 _ZNSaISt4pairIKiN6TagLib10ByteVectorEEEC1ISt13_Rb_tree_nodeIS3_EEERKSaIT_E@Base 1.7-1ubuntu5
 _ZNSaISt4pairIKiN6TagLib10ByteVectorEEEC2ISt13_Rb_tree_nodeIS3_EEERKSaIT_E@Base 1.7-1ubuntu5
 _ZNSaISt4pairIKiN6TagLib10ByteVectorEEED1Ev@Base 1.7-1ubuntu5
 _ZNSaISt4pairIKiN6TagLib10ByteVectorEEED2Ev@Base 1.7-1ubuntu5
 _ZNSaIiEC1ISt10_List_nodeIiEEERKSaIT_E@Base 1.7-1ubuntu5
 _ZNSaIiEC2ISt10_List_nodeIiEEERKSaIT_E@Base 1.7-1ubuntu5
 _ZNSaIiED1Ev@Base 1.7-1ubuntu5
 _ZNSaIiED2Ev@Base 1.7-1ubuntu5
 _ZNSbIwSt11char_traitsIwESaIwEE12_S_constructIN9__gnu_cxx17__normal_iteratorIPKwS2_EEEEPwT_SA_RKS1_@Base 1.7-1ubuntu5
 _ZNSbIwSt11char_traitsIwESaIwEE12_S_constructIN9__gnu_cxx17__normal_iteratorIPKwS2_EEEEPwT_SA_RKS1_St20forward_iterator_tag@Base 1.4 1
 _ZNSbIwSt11char_traitsIwESaIwEE16_S_construct_auxIN9__gnu_cxx17__normal_iteratorIPKwS2_EEEEPwT_SA_RKS1_St12__false_type@Base 1.7-1ubuntu5
 _ZNSbIwSt11char_traitsIwESaIwEEC1IN9__gnu_cxx17__normal_iteratorIPKwS2_EEEET_S9_RKS1_@Base 1.7-1ubuntu5
 _ZNSbIwSt11char_traitsIwESaIwEEC2IN9__gnu_cxx17__normal_iteratorIPKwS2_EEEET_S9_RKS1_@Base 1.7-1ubuntu5
 _ZNSt10_Iter_baseIN9__gnu_cxx17__normal_iteratorIPKcSt6vectorIcSaIcEEEELb0EE7_S_baseES7_@Base 1.7-1ubuntu5
 _ZNSt10_Iter_baseIN9__gnu_cxx17__normal_iteratorIPKcSt6vectorIcSaIcEEEELb1EE7_S_baseES7_@Base 1.7-1ubuntu5
 _ZNSt10_Iter_baseIN9__gnu_cxx17__normal_iteratorIPcSt6vectorIcSaIcEEEELb0EE7_S_baseES6_@Base 1.7-1ubuntu5
 _ZNSt10_Iter_baseIN9__gnu_cxx17__normal_iteratorIPcSt6vectorIcSaIcEEEELb1EE7_S_baseES6_@Base 1.7-1ubuntu5
 _ZNSt10_Iter_baseIP5ChunkLb0EE7_S_baseES1_@Base 1.7-1ubuntu5
 _ZNSt10_Iter_baseIPN6TagLib4ListIiEELb0EE7_S_baseES3_@Base 1.7-1ubuntu5
 _ZNSt10_Iter_baseIPPN6TagLib3TagELb0EE7_S_baseES3_@Base 1.7-1ubuntu5
 _ZNSt10_Iter_baseIPcLb0EE7_S_baseES0_@Base 1.7-1ubuntu5
 _ZNSt10_List_baseIN6TagLib10ByteVectorESaIS1_EE10_List_implC1ERKSaISt10_List_nodeIS1_EE@Base 1.7-1ubuntu5
 _ZNSt10_List_baseIN6TagLib10ByteVectorESaIS1_EE10_List_implC1Ev@Base 1.7-1ubuntu5
 _ZNSt10_List_baseIN6TagLib10ByteVectorESaIS1_EE10_List_implC2ERKSaISt10_List_nodeIS1_EE@Base 1.7-1ubuntu5
 _ZNSt10_List_baseIN6TagLib10ByteVectorESaIS1_EE10_List_implC2Ev@Base 1.7-1ubuntu5
 _ZNSt10_List_baseIN6TagLib10ByteVectorESaIS1_EE10_List_implD1Ev@Base 1.7-1ubuntu5
 _ZNSt10_List_baseIN6TagLib10ByteVectorESaIS1_EE10_List_implD2Ev@Base 1.7-1ubuntu5
 _ZNSt10_List_baseIN6TagLib10ByteVectorESaIS1_EE11_M_get_nodeEv@Base 1.7-1ubuntu5
 _ZNSt10_List_baseIN6TagLib10ByteVectorESaIS1_EE11_M_put_nodeEPSt10_List_nodeIS1_E@Base 1.7-1ubuntu5
 _ZNSt10_List_baseIN6TagLib10ByteVectorESaIS1_EE7_M_initEv@Base 1.7-1ubuntu5
 _ZNSt10_List_baseIN6TagLib10ByteVectorESaIS1_EE8_M_clearEv@Base 1.7
 _ZNSt10_List_baseIN6TagLib10ByteVectorESaIS1_EEC1ERKS2_@Base 1.7-1ubuntu5
 _ZNSt10_List_baseIN6TagLib10ByteVectorESaIS1_EEC1Ev@Base 1.7-1ubuntu5
 _ZNSt10_List_baseIN6TagLib10ByteVectorESaIS1_EEC2ERKS2_@Base 1.7-1ubuntu5
 _ZNSt10_List_baseIN6TagLib10ByteVectorESaIS1_EEC2Ev@Base 1.7-1ubuntu5
 _ZNSt10_List_baseIN6TagLib10ByteVectorESaIS1_EED1Ev@Base 1.7-1ubuntu5
 _ZNSt10_List_baseIN6TagLib10ByteVectorESaIS1_EED2Ev@Base 1.7-1ubuntu5
 _ZNSt10_List_baseIN6TagLib3ASF9AttributeESaIS2_EE10_List_implC1ERKSaISt10_List_nodeIS2_EE@Base 1.7-1ubuntu5
 _ZNSt10_List_baseIN6TagLib3ASF9AttributeESaIS2_EE10_List_implC1Ev@Base 1.7-1ubuntu5
 _ZNSt10_List_baseIN6TagLib3ASF9AttributeESaIS2_EE10_List_implC2ERKSaISt10_List_nodeIS2_EE@Base 1.7-1ubuntu5
 _ZNSt10_List_baseIN6TagLib3ASF9AttributeESaIS2_EE10_List_implC2Ev@Base 1.7-1ubuntu5
 _ZNSt10_List_baseIN6TagLib3ASF9AttributeESaIS2_EE10_List_implD1Ev@Base 1.7-1ubuntu5
 _ZNSt10_List_baseIN6TagLib3ASF9AttributeESaIS2_EE10_List_implD2Ev@Base 1.7-1ubuntu5
 _ZNSt10_List_baseIN6TagLib3ASF9AttributeESaIS2_EE11_M_get_nodeEv@Base 1.7-1ubuntu5
 _ZNSt10_List_baseIN6TagLib3ASF9AttributeESaIS2_EE11_M_put_nodeEPSt10_List_nodeIS2_E@Base 1.7-1ubuntu5
 _ZNSt10_List_baseIN6TagLib3ASF9AttributeESaIS2_EE7_M_initEv@Base 1.7-1ubuntu5
 _ZNSt10_List_baseIN6TagLib3ASF9AttributeESaIS2_EE8_M_clearEv@Base 1.7
 _ZNSt10_List_baseIN6TagLib3ASF9AttributeESaIS2_EEC1ERKS3_@Base 1.7-1ubuntu5
 _ZNSt10_List_baseIN6TagLib3ASF9AttributeESaIS2_EEC1Ev@Base 1.7-1ubuntu5
 _ZNSt10_List_baseIN6TagLib3ASF9AttributeESaIS2_EEC2ERKS3_@Base 1.7-1ubuntu5
 _ZNSt10_List_baseIN6TagLib3ASF9AttributeESaIS2_EEC2Ev@Base 1.7-1ubuntu5
 _ZNSt10_List_baseIN6TagLib3ASF9AttributeESaIS2_EED1Ev@Base 1.7-1ubuntu5
 _ZNSt10_List_baseIN6TagLib3ASF9AttributeESaIS2_EED2Ev@Base 1.7-1ubuntu5
 _ZNSt10_List_baseIN6TagLib3MP48CoverArtESaIS2_EE10_List_implC1ERKSaISt10_List_nodeIS2_EE@Base 1.7-1ubuntu5
 _ZNSt10_List_baseIN6TagLib3MP48CoverArtESaIS2_EE10_List_implC1Ev@Base 1.7-1ubuntu5
 _ZNSt10_List_baseIN6TagLib3MP48CoverArtESaIS2_EE10_List_implC2ERKSaISt10_List_nodeIS2_EE@Base 1.7-1ubuntu5
 _ZNSt10_List_baseIN6TagLib3MP48CoverArtESaIS2_EE10_List_implC2Ev@Base 1.7-1ubuntu5
 _ZNSt10_List_baseIN6TagLib3MP48CoverArtESaIS2_EE10_List_implD1Ev@Base 1.7-1ubuntu5
 _ZNSt10_List_baseIN6TagLib3MP48CoverArtESaIS2_EE10_List_implD2Ev@Base 1.7-1ubuntu5
 _ZNSt10_List_baseIN6TagLib3MP48CoverArtESaIS2_EE11_M_get_nodeEv@Base 1.7-1ubuntu5
 _ZNSt10_List_baseIN6TagLib3MP48CoverArtESaIS2_EE11_M_put_nodeEPSt10_List_nodeIS2_E@Base 1.7-1ubuntu5
 _ZNSt10_List_baseIN6TagLib3MP48CoverArtESaIS2_EE7_M_initEv@Base 1.7-1ubuntu5
 _ZNSt10_List_baseIN6TagLib3MP48CoverArtESaIS2_EE8_M_clearEv@Base 1.7
 _ZNSt10_List_baseIN6TagLib3MP48CoverArtESaIS2_EEC1ERKS3_@Base 1.7-1ubuntu5
 _ZNSt10_List_baseIN6TagLib3MP48CoverArtESaIS2_EEC1Ev@Base 1.7-1ubuntu5
 _ZNSt10_List_baseIN6TagLib3MP48CoverArtESaIS2_EEC2ERKS3_@Base 1.7-1ubuntu5
 _ZNSt10_List_baseIN6TagLib3MP48CoverArtESaIS2_EEC2Ev@Base 1.7-1ubuntu5
 _ZNSt10_List_baseIN6TagLib3MP48CoverArtESaIS2_EED1Ev@Base 1.7-1ubuntu5
 _ZNSt10_List_baseIN6TagLib3MP48CoverArtESaIS2_EED2Ev@Base 1.7-1ubuntu5
 _ZNSt10_List_baseIN6TagLib5ID3v219RelativeVolumeFrame11ChannelTypeESaIS3_EE10_List_implC1ERKSaISt10_List_nodeIS3_EE@Base 1.7-1ubuntu5
 _ZNSt10_List_baseIN6TagLib5ID3v219RelativeVolumeFrame11ChannelTypeESaIS3_EE10_List_implC1Ev@Base 1.7-1ubuntu5
 _ZNSt10_List_baseIN6TagLib5ID3v219RelativeVolumeFrame11ChannelTypeESaIS3_EE10_List_implC2ERKSaISt10_List_nodeIS3_EE@Base 1.7-1ubuntu5
 _ZNSt10_List_baseIN6TagLib5ID3v219RelativeVolumeFrame11ChannelTypeESaIS3_EE10_List_implC2Ev@Base 1.7-1ubuntu5
 _ZNSt10_List_baseIN6TagLib5ID3v219RelativeVolumeFrame11ChannelTypeESaIS3_EE10_List_implD1Ev@Base 1.7-1ubuntu5
 _ZNSt10_List_baseIN6TagLib5ID3v219RelativeVolumeFrame11ChannelTypeESaIS3_EE10_List_implD2Ev@Base 1.7-1ubuntu5
 _ZNSt10_List_baseIN6TagLib5ID3v219RelativeVolumeFrame11ChannelTypeESaIS3_EE11_M_get_nodeEv@Base 1.7-1ubuntu5
 _ZNSt10_List_baseIN6TagLib5ID3v219RelativeVolumeFrame11ChannelTypeESaIS3_EE11_M_put_nodeEPSt10_List_nodeIS3_E@Base 1.7-1ubuntu5
 _ZNSt10_List_baseIN6TagLib5ID3v219RelativeVolumeFrame11ChannelTypeESaIS3_EE7_M_initEv@Base 1.7-1ubuntu5
 _ZNSt10_List_baseIN6TagLib5ID3v219RelativeVolumeFrame11ChannelTypeESaIS3_EE8_M_clearEv@Base 1.7
 _ZNSt10_List_baseIN6TagLib5ID3v219RelativeVolumeFrame11ChannelTypeESaIS3_EEC1ERKS4_@Base 1.7-1ubuntu5
 _ZNSt10_List_baseIN6TagLib5ID3v219RelativeVolumeFrame11ChannelTypeESaIS3_EEC1Ev@Base 1.7-1ubuntu5
 _ZNSt10_List_baseIN6TagLib5ID3v219RelativeVolumeFrame11ChannelTypeESaIS3_EEC2ERKS4_@Base 1.7-1ubuntu5
 _ZNSt10_List_baseIN6TagLib5ID3v219RelativeVolumeFrame11ChannelTypeESaIS3_EEC2Ev@Base 1.7-1ubuntu5
 _ZNSt10_List_baseIN6TagLib5ID3v219RelativeVolumeFrame11ChannelTypeESaIS3_EED1Ev@Base 1.7-1ubuntu5
 _ZNSt10_List_baseIN6TagLib5ID3v219RelativeVolumeFrame11ChannelTypeESaIS3_EED2Ev@Base 1.7-1ubuntu5
 _ZNSt10_List_baseIN6TagLib6StringESaIS1_EE10_List_implC1ERKSaISt10_List_nodeIS1_EE@Base 1.7-1ubuntu5
 _ZNSt10_List_baseIN6TagLib6StringESaIS1_EE10_List_implC1Ev@Base 1.7-1ubuntu5
 _ZNSt10_List_baseIN6TagLib6StringESaIS1_EE10_List_implC2ERKSaISt10_List_nodeIS1_EE@Base 1.7-1ubuntu5
 _ZNSt10_List_baseIN6TagLib6StringESaIS1_EE10_List_implC2Ev@Base 1.7-1ubuntu5
 _ZNSt10_List_baseIN6TagLib6StringESaIS1_EE10_List_implD1Ev@Base 1.7-1ubuntu5
 _ZNSt10_List_baseIN6TagLib6StringESaIS1_EE10_List_implD2Ev@Base 1.7-1ubuntu5
 _ZNSt10_List_baseIN6TagLib6StringESaIS1_EE11_M_get_nodeEv@Base 1.7-1ubuntu5
 _ZNSt10_List_baseIN6TagLib6StringESaIS1_EE11_M_put_nodeEPSt10_List_nodeIS1_E@Base 1.7-1ubuntu5
 _ZNSt10_List_baseIN6TagLib6StringESaIS1_EE21_M_get_Node_allocatorEv@Base 1.7-1ubuntu5
 _ZNSt10_List_baseIN6TagLib6StringESaIS1_EE7_M_initEv@Base 1.7-1ubuntu5
 _ZNSt10_List_baseIN6TagLib6StringESaIS1_EE8_M_clearEv@Base 1.4 1
 _ZNSt10_List_baseIN6TagLib6StringESaIS1_EEC1ERKS2_@Base 1.7-1ubuntu5
 _ZNSt10_List_baseIN6TagLib6StringESaIS1_EEC1Ev@Base 1.7-1ubuntu5
 _ZNSt10_List_baseIN6TagLib6StringESaIS1_EEC2ERKS2_@Base 1.7-1ubuntu5
 _ZNSt10_List_baseIN6TagLib6StringESaIS1_EEC2Ev@Base 1.7-1ubuntu5
 _ZNSt10_List_baseIN6TagLib6StringESaIS1_EED1Ev@Base 1.7-1ubuntu5
 _ZNSt10_List_baseIN6TagLib6StringESaIS1_EED2Ev@Base 1.7-1ubuntu5
 _ZNSt10_List_baseIPKN6TagLib7FileRef16FileTypeResolverESaIS4_EE10_List_implC1ERKSaISt10_List_nodeIS4_EE@Base 1.7-1ubuntu5
 _ZNSt10_List_baseIPKN6TagLib7FileRef16FileTypeResolverESaIS4_EE10_List_implC1Ev@Base 1.7-1ubuntu5
 _ZNSt10_List_baseIPKN6TagLib7FileRef16FileTypeResolverESaIS4_EE10_List_implC2ERKSaISt10_List_nodeIS4_EE@Base 1.7-1ubuntu5
 _ZNSt10_List_baseIPKN6TagLib7FileRef16FileTypeResolverESaIS4_EE10_List_implC2Ev@Base 1.7-1ubuntu5
 _ZNSt10_List_baseIPKN6TagLib7FileRef16FileTypeResolverESaIS4_EE10_List_implD1Ev@Base 1.7-1ubuntu5
 _ZNSt10_List_baseIPKN6TagLib7FileRef16FileTypeResolverESaIS4_EE10_List_implD2Ev@Base 1.7-1ubuntu5
 _ZNSt10_List_baseIPKN6TagLib7FileRef16FileTypeResolverESaIS4_EE11_M_get_nodeEv@Base 1.7-1ubuntu5
 _ZNSt10_List_baseIPKN6TagLib7FileRef16FileTypeResolverESaIS4_EE11_M_put_nodeEPSt10_List_nodeIS4_E@Base 1.7-1ubuntu5
 _ZNSt10_List_baseIPKN6TagLib7FileRef16FileTypeResolverESaIS4_EE7_M_initEv@Base 1.7-1ubuntu5
 _ZNSt10_List_baseIPKN6TagLib7FileRef16FileTypeResolverESaIS4_EE8_M_clearEv@Base 1.7
 _ZNSt10_List_baseIPKN6TagLib7FileRef16FileTypeResolverESaIS4_EEC1ERKS5_@Base 1.7-1ubuntu5
 _ZNSt10_List_baseIPKN6TagLib7FileRef16FileTypeResolverESaIS4_EEC1Ev@Base 1.7-1ubuntu5
 _ZNSt10_List_baseIPKN6TagLib7FileRef16FileTypeResolverESaIS4_EEC2ERKS5_@Base 1.7-1ubuntu5
 _ZNSt10_List_baseIPKN6TagLib7FileRef16FileTypeResolverESaIS4_EEC2Ev@Base 1.7-1ubuntu5
 _ZNSt10_List_baseIPKN6TagLib7FileRef16FileTypeResolverESaIS4_EED1Ev@Base 1.7-1ubuntu5
 _ZNSt10_List_baseIPKN6TagLib7FileRef16FileTypeResolverESaIS4_EED2Ev@Base 1.7-1ubuntu5
 _ZNSt10_List_baseIPN6TagLib3ASF4File10BaseObjectESaIS4_EE10_List_implC1ERKSaISt10_List_nodeIS4_EE@Base 1.7-1ubuntu5
 _ZNSt10_List_baseIPN6TagLib3ASF4File10BaseObjectESaIS4_EE10_List_implC1Ev@Base 1.7-1ubuntu5
 _ZNSt10_List_baseIPN6TagLib3ASF4File10BaseObjectESaIS4_EE10_List_implC2ERKSaISt10_List_nodeIS4_EE@Base 1.7-1ubuntu5
 _ZNSt10_List_baseIPN6TagLib3ASF4File10BaseObjectESaIS4_EE10_List_implC2Ev@Base 1.7-1ubuntu5
 _ZNSt10_List_baseIPN6TagLib3ASF4File10BaseObjectESaIS4_EE10_List_implD1Ev@Base 1.7-1ubuntu5
 _ZNSt10_List_baseIPN6TagLib3ASF4File10BaseObjectESaIS4_EE10_List_implD2Ev@Base 1.7-1ubuntu5
 _ZNSt10_List_baseIPN6TagLib3ASF4File10BaseObjectESaIS4_EE11_M_get_nodeEv@Base 1.7-1ubuntu5
 _ZNSt10_List_baseIPN6TagLib3ASF4File10BaseObjectESaIS4_EE11_M_put_nodeEPSt10_List_nodeIS4_E@Base 1.7-1ubuntu5
 _ZNSt10_List_baseIPN6TagLib3ASF4File10BaseObjectESaIS4_EE7_M_initEv@Base 1.7-1ubuntu5
 _ZNSt10_List_baseIPN6TagLib3ASF4File10BaseObjectESaIS4_EE8_M_clearEv@Base 1.7
 _ZNSt10_List_baseIPN6TagLib3ASF4File10BaseObjectESaIS4_EEC1ERKS5_@Base 1.7-1ubuntu5
 _ZNSt10_List_baseIPN6TagLib3ASF4File10BaseObjectESaIS4_EEC1Ev@Base 1.7-1ubuntu5
 _ZNSt10_List_baseIPN6TagLib3ASF4File10BaseObjectESaIS4_EEC2ERKS5_@Base 1.7-1ubuntu5
 _ZNSt10_List_baseIPN6TagLib3ASF4File10BaseObjectESaIS4_EEC2Ev@Base 1.7-1ubuntu5
 _ZNSt10_List_baseIPN6TagLib3ASF4File10BaseObjectESaIS4_EED1Ev@Base 1.7-1ubuntu5
 _ZNSt10_List_baseIPN6TagLib3ASF4File10BaseObjectESaIS4_EED2Ev@Base 1.7-1ubuntu5
 _ZNSt10_List_baseIPN6TagLib3MP44AtomESaIS3_EE10_List_implC1ERKSaISt10_List_nodeIS3_EE@Base 1.7-1ubuntu5
 _ZNSt10_List_baseIPN6TagLib3MP44AtomESaIS3_EE10_List_implC1Ev@Base 1.7-1ubuntu5
 _ZNSt10_List_baseIPN6TagLib3MP44AtomESaIS3_EE10_List_implC2ERKSaISt10_List_nodeIS3_EE@Base 1.7-1ubuntu5
 _ZNSt10_List_baseIPN6TagLib3MP44AtomESaIS3_EE10_List_implC2Ev@Base 1.7-1ubuntu5
 _ZNSt10_List_baseIPN6TagLib3MP44AtomESaIS3_EE10_List_implD1Ev@Base 1.7-1ubuntu5
 _ZNSt10_List_baseIPN6TagLib3MP44AtomESaIS3_EE10_List_implD2Ev@Base 1.7-1ubuntu5
 _ZNSt10_List_baseIPN6TagLib3MP44AtomESaIS3_EE11_M_get_nodeEv@Base 1.7-1ubuntu5
 _ZNSt10_List_baseIPN6TagLib3MP44AtomESaIS3_EE11_M_put_nodeEPSt10_List_nodeIS3_E@Base 1.7-1ubuntu5
 _ZNSt10_List_baseIPN6TagLib3MP44AtomESaIS3_EE21_M_get_Node_allocatorEv@Base 1.7-1ubuntu5
 _ZNSt10_List_baseIPN6TagLib3MP44AtomESaIS3_EE7_M_initEv@Base 1.7-1ubuntu5
 _ZNSt10_List_baseIPN6TagLib3MP44AtomESaIS3_EE8_M_clearEv@Base 1.7
 _ZNSt10_List_baseIPN6TagLib3MP44AtomESaIS3_EEC1ERKS4_@Base 1.7-1ubuntu5
 _ZNSt10_List_baseIPN6TagLib3MP44AtomESaIS3_EEC1Ev@Base 1.7-1ubuntu5
 _ZNSt10_List_baseIPN6TagLib3MP44AtomESaIS3_EEC2ERKS4_@Base 1.7-1ubuntu5
 _ZNSt10_List_baseIPN6TagLib3MP44AtomESaIS3_EEC2Ev@Base 1.7-1ubuntu5
 _ZNSt10_List_baseIPN6TagLib3MP44AtomESaIS3_EED1Ev@Base 1.7-1ubuntu5
 _ZNSt10_List_baseIPN6TagLib3MP44AtomESaIS3_EED2Ev@Base 1.7-1ubuntu5
 _ZNSt10_List_baseIPN6TagLib3Ogg4PageESaIS3_EE10_List_implC1ERKSaISt10_List_nodeIS3_EE@Base 1.7-1ubuntu5
 _ZNSt10_List_baseIPN6TagLib3Ogg4PageESaIS3_EE10_List_implC1Ev@Base 1.7-1ubuntu5
 _ZNSt10_List_baseIPN6TagLib3Ogg4PageESaIS3_EE10_List_implC2ERKSaISt10_List_nodeIS3_EE@Base 1.7-1ubuntu5
 _ZNSt10_List_baseIPN6TagLib3Ogg4PageESaIS3_EE10_List_implC2Ev@Base 1.7-1ubuntu5
 _ZNSt10_List_baseIPN6TagLib3Ogg4PageESaIS3_EE10_List_implD1Ev@Base 1.7-1ubuntu5
 _ZNSt10_List_baseIPN6TagLib3Ogg4PageESaIS3_EE10_List_implD2Ev@Base 1.7-1ubuntu5
 _ZNSt10_List_baseIPN6TagLib3Ogg4PageESaIS3_EE11_M_get_nodeEv@Base 1.7-1ubuntu5
 _ZNSt10_List_baseIPN6TagLib3Ogg4PageESaIS3_EE11_M_put_nodeEPSt10_List_nodeIS3_E@Base 1.7-1ubuntu5
 _ZNSt10_List_baseIPN6TagLib3Ogg4PageESaIS3_EE7_M_initEv@Base 1.7-1ubuntu5
 _ZNSt10_List_baseIPN6TagLib3Ogg4PageESaIS3_EE8_M_clearEv@Base 1.7
 _ZNSt10_List_baseIPN6TagLib3Ogg4PageESaIS3_EEC1ERKS4_@Base 1.7-1ubuntu5
 _ZNSt10_List_baseIPN6TagLib3Ogg4PageESaIS3_EEC1Ev@Base 1.7-1ubuntu5
 _ZNSt10_List_baseIPN6TagLib3Ogg4PageESaIS3_EEC2ERKS4_@Base 1.7-1ubuntu5
 _ZNSt10_List_baseIPN6TagLib3Ogg4PageESaIS3_EEC2Ev@Base 1.7-1ubuntu5
 _ZNSt10_List_baseIPN6TagLib3Ogg4PageESaIS3_EED1Ev@Base 1.7-1ubuntu5
 _ZNSt10_List_baseIPN6TagLib3Ogg4PageESaIS3_EED2Ev@Base 1.7-1ubuntu5
 _ZNSt10_List_baseIPN6TagLib4FLAC13MetadataBlockESaIS3_EE10_List_implC1ERKSaISt10_List_nodeIS3_EE@Base 1.7-1ubuntu5
 _ZNSt10_List_baseIPN6TagLib4FLAC13MetadataBlockESaIS3_EE10_List_implC1Ev@Base 1.7-1ubuntu5
 _ZNSt10_List_baseIPN6TagLib4FLAC13MetadataBlockESaIS3_EE10_List_implC2ERKSaISt10_List_nodeIS3_EE@Base 1.7-1ubuntu5
 _ZNSt10_List_baseIPN6TagLib4FLAC13MetadataBlockESaIS3_EE10_List_implC2Ev@Base 1.7-1ubuntu5
 _ZNSt10_List_baseIPN6TagLib4FLAC13MetadataBlockESaIS3_EE10_List_implD1Ev@Base 1.7-1ubuntu5
 _ZNSt10_List_baseIPN6TagLib4FLAC13MetadataBlockESaIS3_EE10_List_implD2Ev@Base 1.7-1ubuntu5
 _ZNSt10_List_baseIPN6TagLib4FLAC13MetadataBlockESaIS3_EE11_M_get_nodeEv@Base 1.7-1ubuntu5
 _ZNSt10_List_baseIPN6TagLib4FLAC13MetadataBlockESaIS3_EE11_M_put_nodeEPSt10_List_nodeIS3_E@Base 1.7-1ubuntu5
 _ZNSt10_List_baseIPN6TagLib4FLAC13MetadataBlockESaIS3_EE7_M_initEv@Base 1.7-1ubuntu5
 _ZNSt10_List_baseIPN6TagLib4FLAC13MetadataBlockESaIS3_EE8_M_clearEv@Base 1.7
 _ZNSt10_List_baseIPN6TagLib4FLAC13MetadataBlockESaIS3_EEC1ERKS4_@Base 1.7-1ubuntu5
 _ZNSt10_List_baseIPN6TagLib4FLAC13MetadataBlockESaIS3_EEC1Ev@Base 1.7-1ubuntu5
 _ZNSt10_List_baseIPN6TagLib4FLAC13MetadataBlockESaIS3_EEC2ERKS4_@Base 1.7-1ubuntu5
 _ZNSt10_List_baseIPN6TagLib4FLAC13MetadataBlockESaIS3_EEC2Ev@Base 1.7-1ubuntu5
 _ZNSt10_List_baseIPN6TagLib4FLAC13MetadataBlockESaIS3_EED1Ev@Base 1.7-1ubuntu5
 _ZNSt10_List_baseIPN6TagLib4FLAC13MetadataBlockESaIS3_EED2Ev@Base 1.7-1ubuntu5
 _ZNSt10_List_baseIPN6TagLib4FLAC7PictureESaIS3_EE10_List_implC1ERKSaISt10_List_nodeIS3_EE@Base 1.7-1ubuntu5
 _ZNSt10_List_baseIPN6TagLib4FLAC7PictureESaIS3_EE10_List_implC1Ev@Base 1.7-1ubuntu5
 _ZNSt10_List_baseIPN6TagLib4FLAC7PictureESaIS3_EE10_List_implC2ERKSaISt10_List_nodeIS3_EE@Base 1.7-1ubuntu5
 _ZNSt10_List_baseIPN6TagLib4FLAC7PictureESaIS3_EE10_List_implC2Ev@Base 1.7-1ubuntu5
 _ZNSt10_List_baseIPN6TagLib4FLAC7PictureESaIS3_EE10_List_implD1Ev@Base 1.7-1ubuntu5
 _ZNSt10_List_baseIPN6TagLib4FLAC7PictureESaIS3_EE10_List_implD2Ev@Base 1.7-1ubuntu5
 _ZNSt10_List_baseIPN6TagLib4FLAC7PictureESaIS3_EE11_M_get_nodeEv@Base 1.7-1ubuntu5
 _ZNSt10_List_baseIPN6TagLib4FLAC7PictureESaIS3_EE11_M_put_nodeEPSt10_List_nodeIS3_E@Base 1.7-1ubuntu5
 _ZNSt10_List_baseIPN6TagLib4FLAC7PictureESaIS3_EE7_M_initEv@Base 1.7-1ubuntu5
 _ZNSt10_List_baseIPN6TagLib4FLAC7PictureESaIS3_EE8_M_clearEv@Base 1.7
 _ZNSt10_List_baseIPN6TagLib4FLAC7PictureESaIS3_EEC1ERKS4_@Base 1.7-1ubuntu5
 _ZNSt10_List_baseIPN6TagLib4FLAC7PictureESaIS3_EEC1Ev@Base 1.7-1ubuntu5
 _ZNSt10_List_baseIPN6TagLib4FLAC7PictureESaIS3_EEC2ERKS4_@Base 1.7-1ubuntu5
 _ZNSt10_List_baseIPN6TagLib4FLAC7PictureESaIS3_EEC2Ev@Base 1.7-1ubuntu5
 _ZNSt10_List_baseIPN6TagLib4FLAC7PictureESaIS3_EED1Ev@Base 1.7-1ubuntu5
 _ZNSt10_List_baseIPN6TagLib4FLAC7PictureESaIS3_EED2Ev@Base 1.7-1ubuntu5
 _ZNSt10_List_baseIPN6TagLib5ID3v25FrameESaIS3_EE10_List_implC1ERKSaISt10_List_nodeIS3_EE@Base 1.7-1ubuntu5
 _ZNSt10_List_baseIPN6TagLib5ID3v25FrameESaIS3_EE10_List_implC1Ev@Base 1.7-1ubuntu5
 _ZNSt10_List_baseIPN6TagLib5ID3v25FrameESaIS3_EE10_List_implC2ERKSaISt10_List_nodeIS3_EE@Base 1.7-1ubuntu5
 _ZNSt10_List_baseIPN6TagLib5ID3v25FrameESaIS3_EE10_List_implC2Ev@Base 1.7-1ubuntu5
 _ZNSt10_List_baseIPN6TagLib5ID3v25FrameESaIS3_EE10_List_implD1Ev@Base 1.7-1ubuntu5
 _ZNSt10_List_baseIPN6TagLib5ID3v25FrameESaIS3_EE10_List_implD2Ev@Base 1.7-1ubuntu5
 _ZNSt10_List_baseIPN6TagLib5ID3v25FrameESaIS3_EE11_M_get_nodeEv@Base 1.7-1ubuntu5
 _ZNSt10_List_baseIPN6TagLib5ID3v25FrameESaIS3_EE11_M_put_nodeEPSt10_List_nodeIS3_E@Base 1.7-1ubuntu5
 _ZNSt10_List_baseIPN6TagLib5ID3v25FrameESaIS3_EE7_M_initEv@Base 1.7-1ubuntu5
 _ZNSt10_List_baseIPN6TagLib5ID3v25FrameESaIS3_EE8_M_clearEv@Base 1.7
 _ZNSt10_List_baseIPN6TagLib5ID3v25FrameESaIS3_EEC1ERKS4_@Base 1.7-1ubuntu5
 _ZNSt10_List_baseIPN6TagLib5ID3v25FrameESaIS3_EEC1Ev@Base 1.7-1ubuntu5
 _ZNSt10_List_baseIPN6TagLib5ID3v25FrameESaIS3_EEC2ERKS4_@Base 1.7-1ubuntu5
 _ZNSt10_List_baseIPN6TagLib5ID3v25FrameESaIS3_EEC2Ev@Base 1.7-1ubuntu5
 _ZNSt10_List_baseIPN6TagLib5ID3v25FrameESaIS3_EED1Ev@Base 1.7-1ubuntu5
 _ZNSt10_List_baseIPN6TagLib5ID3v25FrameESaIS3_EED2Ev@Base 1.7-1ubuntu5
 _ZNSt10_List_baseIiSaIiEE10_List_implC1ERKSaISt10_List_nodeIiEE@Base 1.7-1ubuntu5
 _ZNSt10_List_baseIiSaIiEE10_List_implC1Ev@Base 1.7-1ubuntu5
 _ZNSt10_List_baseIiSaIiEE10_List_implC2ERKSaISt10_List_nodeIiEE@Base 1.7-1ubuntu5
 _ZNSt10_List_baseIiSaIiEE10_List_implC2Ev@Base 1.7-1ubuntu5
 _ZNSt10_List_baseIiSaIiEE10_List_implD1Ev@Base 1.7-1ubuntu5
 _ZNSt10_List_baseIiSaIiEE10_List_implD2Ev@Base 1.7-1ubuntu5
 _ZNSt10_List_baseIiSaIiEE11_M_get_nodeEv@Base 1.7-1ubuntu5
 _ZNSt10_List_baseIiSaIiEE11_M_put_nodeEPSt10_List_nodeIiE@Base 1.7-1ubuntu5
 _ZNSt10_List_baseIiSaIiEE7_M_initEv@Base 1.7-1ubuntu5
 _ZNSt10_List_baseIiSaIiEE8_M_clearEv@Base 1.7
 _ZNSt10_List_baseIiSaIiEEC1ERKS0_@Base 1.7-1ubuntu5
 _ZNSt10_List_baseIiSaIiEEC1Ev@Base 1.7-1ubuntu5
 _ZNSt10_List_baseIiSaIiEEC2ERKS0_@Base 1.7-1ubuntu5
 _ZNSt10_List_baseIiSaIiEEC2Ev@Base 1.7-1ubuntu5
 _ZNSt10_List_baseIiSaIiEED1Ev@Base 1.7-1ubuntu5
 _ZNSt10_List_baseIiSaIiEED2Ev@Base 1.7-1ubuntu5
 _ZNSt11__alloc_neqISaISt10_List_nodeIN6TagLib6StringEEELb1EE8_S_do_itERKS4_S7_@Base 1.7-1ubuntu5
 _ZNSt11__alloc_neqISaISt10_List_nodeIPN6TagLib3MP44AtomEEELb1EE8_S_do_itERKS6_S9_@Base 1.7-1ubuntu5
 _ZNSt11__copy_moveILb0ELb1ESt26random_access_iterator_tagE8__copy_mIcEEPT_PKS3_S6_S4_@Base 1.7-1ubuntu5
 _ZNSt12_Destroy_auxILb0EE9__destroyIP5ChunkEEvT_S4_@Base 1.7
 _ZNSt12_Destroy_auxILb0EE9__destroyIPN6TagLib4ListIiEEEEvT_S6_@Base 1.7-1ubuntu5
 _ZNSt12_Destroy_auxILb1EE9__destroyIPPN6TagLib3TagEEEvT_S6_@Base 1.7-1ubuntu5
 _ZNSt12_Destroy_auxILb1EE9__destroyIPcEEvT_S3_@Base 1.7-1ubuntu5
 _ZNSt12_Vector_baseI5ChunkSaIS0_EE11_M_allocateEj@Base 1.7-1ubuntu5
 _ZNSt12_Vector_baseI5ChunkSaIS0_EE12_Vector_implC1Ev@Base 1.7-1ubuntu5
 _ZNSt12_Vector_baseI5ChunkSaIS0_EE12_Vector_implC2Ev@Base 1.7-1ubuntu5
 _ZNSt12_Vector_baseI5ChunkSaIS0_EE12_Vector_implD1Ev@Base 1.7-1ubuntu5
 _ZNSt12_Vector_baseI5ChunkSaIS0_EE12_Vector_implD2Ev@Base 1.7-1ubuntu5
 _ZNSt12_Vector_baseI5ChunkSaIS0_EE13_M_deallocateEPS0_j@Base 1.7-1ubuntu5
 _ZNSt12_Vector_baseI5ChunkSaIS0_EE19_M_get_Tp_allocatorEv@Base 1.7-1ubuntu5
 _ZNSt12_Vector_baseI5ChunkSaIS0_EEC1Ev@Base 1.7-1ubuntu5
 _ZNSt12_Vector_baseI5ChunkSaIS0_EEC2Ev@Base 1.7-1ubuntu5
 _ZNSt12_Vector_baseI5ChunkSaIS0_EED1Ev@Base 1.7-1ubuntu5
 _ZNSt12_Vector_baseI5ChunkSaIS0_EED2Ev@Base 1.7-1ubuntu5
 _ZNSt12_Vector_baseIN6TagLib4ListIiEESaIS2_EE11_M_allocateEj@Base 1.7-1ubuntu5
 _ZNSt12_Vector_baseIN6TagLib4ListIiEESaIS2_EE12_Vector_implC1Ev@Base 1.7-1ubuntu5
 _ZNSt12_Vector_baseIN6TagLib4ListIiEESaIS2_EE12_Vector_implC2Ev@Base 1.7-1ubuntu5
 _ZNSt12_Vector_baseIN6TagLib4ListIiEESaIS2_EE12_Vector_implD1Ev@Base 1.7-1ubuntu5
 _ZNSt12_Vector_baseIN6TagLib4ListIiEESaIS2_EE12_Vector_implD2Ev@Base 1.7-1ubuntu5
 _ZNSt12_Vector_baseIN6TagLib4ListIiEESaIS2_EE13_M_deallocateEPS2_j@Base 1.7-1ubuntu5
 _ZNSt12_Vector_baseIN6TagLib4ListIiEESaIS2_EE19_M_get_Tp_allocatorEv@Base 1.7-1ubuntu5
 _ZNSt12_Vector_baseIN6TagLib4ListIiEESaIS2_EEC1Ev@Base 1.7-1ubuntu5
 _ZNSt12_Vector_baseIN6TagLib4ListIiEESaIS2_EEC2Ev@Base 1.7-1ubuntu5
 _ZNSt12_Vector_baseIN6TagLib4ListIiEESaIS2_EED1Ev@Base 1.7-1ubuntu5
 _ZNSt12_Vector_baseIN6TagLib4ListIiEESaIS2_EED2Ev@Base 1.7-1ubuntu5
 _ZNSt12_Vector_baseIPN6TagLib3TagESaIS2_EE11_M_allocateEj@Base 1.7-1ubuntu5
 _ZNSt12_Vector_baseIPN6TagLib3TagESaIS2_EE12_Vector_implC1ERKS3_@Base 1.7-1ubuntu5
 _ZNSt12_Vector_baseIPN6TagLib3TagESaIS2_EE12_Vector_implC2ERKS3_@Base 1.7-1ubuntu5
 _ZNSt12_Vector_baseIPN6TagLib3TagESaIS2_EE12_Vector_implD1Ev@Base 1.7-1ubuntu5
 _ZNSt12_Vector_baseIPN6TagLib3TagESaIS2_EE12_Vector_implD2Ev@Base 1.7-1ubuntu5
 _ZNSt12_Vector_baseIPN6TagLib3TagESaIS2_EE13_M_deallocateEPS2_j@Base 1.7-1ubuntu5
 _ZNSt12_Vector_baseIPN6TagLib3TagESaIS2_EE19_M_get_Tp_allocatorEv@Base 1.7-1ubuntu5
 _ZNSt12_Vector_baseIPN6TagLib3TagESaIS2_EEC1EjRKS3_@Base 1.7-1ubuntu5
 _ZNSt12_Vector_baseIPN6TagLib3TagESaIS2_EEC2EjRKS3_@Base 1.7-1ubuntu5
 _ZNSt12_Vector_baseIPN6TagLib3TagESaIS2_EED1Ev@Base 1.7-1ubuntu5
 _ZNSt12_Vector_baseIPN6TagLib3TagESaIS2_EED2Ev@Base 1.7-1ubuntu5
 _ZNSt12_Vector_baseIcSaIcEE11_M_allocateEj@Base 1.7-1ubuntu5
 _ZNSt12_Vector_baseIcSaIcEE12_Vector_implC1ERKS0_@Base 1.7-1ubuntu5
 _ZNSt12_Vector_baseIcSaIcEE12_Vector_implC1Ev@Base 1.7-1ubuntu5
 _ZNSt12_Vector_baseIcSaIcEE12_Vector_implC2ERKS0_@Base 1.7-1ubuntu5
 _ZNSt12_Vector_baseIcSaIcEE12_Vector_implC2Ev@Base 1.7-1ubuntu5
 _ZNSt12_Vector_baseIcSaIcEE12_Vector_implD1Ev@Base 1.7-1ubuntu5
 _ZNSt12_Vector_baseIcSaIcEE12_Vector_implD2Ev@Base 1.7-1ubuntu5
 _ZNSt12_Vector_baseIcSaIcEE13_M_deallocateEPcj@Base 1.7-1ubuntu5
 _ZNSt12_Vector_baseIcSaIcEE19_M_get_Tp_allocatorEv@Base 1.7-1ubuntu5
 _ZNSt12_Vector_baseIcSaIcEEC1EjRKS0_@Base 1.7-1ubuntu5
 _ZNSt12_Vector_baseIcSaIcEEC1Ev@Base 1.7-1ubuntu5
 _ZNSt12_Vector_baseIcSaIcEEC2EjRKS0_@Base 1.7-1ubuntu5
 _ZNSt12_Vector_baseIcSaIcEEC2Ev@Base 1.7-1ubuntu5
 _ZNSt12_Vector_baseIcSaIcEED1Ev@Base 1.7-1ubuntu5
 _ZNSt12_Vector_baseIcSaIcEED2Ev@Base 1.7-1ubuntu5
 _ZNSt14_List_iteratorIN6TagLib10ByteVectorEEC1EPNSt8__detail15_List_node_baseE@Base 1.7-1ubuntu5
 _ZNSt14_List_iteratorIN6TagLib10ByteVectorEEC2EPNSt8__detail15_List_node_baseE@Base 1.7-1ubuntu5
 _ZNSt14_List_iteratorIN6TagLib10ByteVectorEEmmEv@Base 1.7-1ubuntu5
 _ZNSt14_List_iteratorIN6TagLib10ByteVectorEEppEi@Base 1.7-1ubuntu5
 _ZNSt14_List_iteratorIN6TagLib10ByteVectorEEppEv@Base 1.7-1ubuntu5
 _ZNSt14_List_iteratorIN6TagLib3ASF9AttributeEEC1EPNSt8__detail15_List_node_baseE@Base 1.7-1ubuntu5
 _ZNSt14_List_iteratorIN6TagLib3ASF9AttributeEEC2EPNSt8__detail15_List_node_baseE@Base 1.7-1ubuntu5
 _ZNSt14_List_iteratorIN6TagLib3ASF9AttributeEEppEv@Base 1.7-1ubuntu5
 _ZNSt14_List_iteratorIN6TagLib3MP48CoverArtEEC1EPNSt8__detail15_List_node_baseE@Base 1.7-1ubuntu5
 _ZNSt14_List_iteratorIN6TagLib3MP48CoverArtEEC2EPNSt8__detail15_List_node_baseE@Base 1.7-1ubuntu5
 _ZNSt14_List_iteratorIN6TagLib3MP48CoverArtEEppEv@Base 1.7-1ubuntu5
 _ZNSt14_List_iteratorIN6TagLib5ID3v219RelativeVolumeFrame11ChannelTypeEEC1EPNSt8__detail15_List_node_baseE@Base 1.7-1ubuntu5
 _ZNSt14_List_iteratorIN6TagLib5ID3v219RelativeVolumeFrame11ChannelTypeEEC2EPNSt8__detail15_List_node_baseE@Base 1.7-1ubuntu5
 _ZNSt14_List_iteratorIN6TagLib6StringEEC1EPNSt8__detail15_List_node_baseE@Base 1.7-1ubuntu5
 _ZNSt14_List_iteratorIN6TagLib6StringEEC2EPNSt8__detail15_List_node_baseE@Base 1.7-1ubuntu5
 _ZNSt14_List_iteratorIN6TagLib6StringEEppEi@Base 1.7-1ubuntu5
 _ZNSt14_List_iteratorIN6TagLib6StringEEppEv@Base 1.7-1ubuntu5
 _ZNSt14_List_iteratorIPKN6TagLib7FileRef16FileTypeResolverEEC1EPNSt8__detail15_List_node_baseE@Base 1.7-1ubuntu5
 _ZNSt14_List_iteratorIPKN6TagLib7FileRef16FileTypeResolverEEC2EPNSt8__detail15_List_node_baseE@Base 1.7-1ubuntu5
 _ZNSt14_List_iteratorIPN6TagLib3ASF4File10BaseObjectEEC1EPNSt8__detail15_List_node_baseE@Base 1.7-1ubuntu5
 _ZNSt14_List_iteratorIPN6TagLib3ASF4File10BaseObjectEEC2EPNSt8__detail15_List_node_baseE@Base 1.7-1ubuntu5
 _ZNSt14_List_iteratorIPN6TagLib3ASF4File10BaseObjectEEppEv@Base 1.7-1ubuntu5
 _ZNSt14_List_iteratorIPN6TagLib3MP44AtomEEC1EPNSt8__detail15_List_node_baseE@Base 1.7-1ubuntu5
 _ZNSt14_List_iteratorIPN6TagLib3MP44AtomEEC2EPNSt8__detail15_List_node_baseE@Base 1.7-1ubuntu5
 _ZNSt14_List_iteratorIPN6TagLib3MP44AtomEEmmEi@Base 1.7-1ubuntu5
 _ZNSt14_List_iteratorIPN6TagLib3MP44AtomEEppEi@Base 1.7-1ubuntu5
 _ZNSt14_List_iteratorIPN6TagLib3MP44AtomEEppEv@Base 1.7-1ubuntu5
 _ZNSt14_List_iteratorIPN6TagLib3Ogg4PageEEC1EPNSt8__detail15_List_node_baseE@Base 1.7-1ubuntu5
 _ZNSt14_List_iteratorIPN6TagLib3Ogg4PageEEC2EPNSt8__detail15_List_node_baseE@Base 1.7-1ubuntu5
 _ZNSt14_List_iteratorIPN6TagLib3Ogg4PageEEmmEv@Base 1.7-1ubuntu5
 _ZNSt14_List_iteratorIPN6TagLib3Ogg4PageEEppEv@Base 1.7-1ubuntu5
 _ZNSt14_List_iteratorIPN6TagLib4FLAC13MetadataBlockEEC1EPNSt8__detail15_List_node_baseE@Base 1.7-1ubuntu5
 _ZNSt14_List_iteratorIPN6TagLib4FLAC13MetadataBlockEEC2EPNSt8__detail15_List_node_baseE@Base 1.7-1ubuntu5
 _ZNSt14_List_iteratorIPN6TagLib4FLAC13MetadataBlockEEppEv@Base 1.7-1ubuntu5
 _ZNSt14_List_iteratorIPN6TagLib4FLAC7PictureEEC1EPNSt8__detail15_List_node_baseE@Base 1.7-1ubuntu5
 _ZNSt14_List_iteratorIPN6TagLib4FLAC7PictureEEC2EPNSt8__detail15_List_node_baseE@Base 1.7-1ubuntu5
 _ZNSt14_List_iteratorIPN6TagLib5ID3v25FrameEEC1EPNSt8__detail15_List_node_baseE@Base 1.7-1ubuntu5
 _ZNSt14_List_iteratorIPN6TagLib5ID3v25FrameEEC2EPNSt8__detail15_List_node_baseE@Base 1.7-1ubuntu5
 _ZNSt14_List_iteratorIPN6TagLib5ID3v25FrameEEppEi@Base 1.7-1ubuntu5
 _ZNSt14_List_iteratorIPN6TagLib5ID3v25FrameEEppEv@Base 1.7-1ubuntu5
 _ZNSt14_List_iteratorIiEC1EPNSt8__detail15_List_node_baseE@Base 1.7-1ubuntu5
 _ZNSt14_List_iteratorIiEC2EPNSt8__detail15_List_node_baseE@Base 1.7-1ubuntu5
 _ZNSt14_List_iteratorIiEmmEv@Base 1.7-1ubuntu5
 _ZNSt14_List_iteratorIiEppEv@Base 1.7-1ubuntu5
 _ZNSt17_Rb_tree_iteratorISt4pairIKN6TagLib10ByteVectorENS1_4ListIPNS1_5ID3v25FrameEEEEEC1EPSt13_Rb_tree_nodeIS9_E@Base 1.7-1ubuntu5
 _ZNSt17_Rb_tree_iteratorISt4pairIKN6TagLib10ByteVectorENS1_4ListIPNS1_5ID3v25FrameEEEEEC2EPSt13_Rb_tree_nodeIS9_E@Base 1.7-1ubuntu5
 _ZNSt17_Rb_tree_iteratorISt4pairIKN6TagLib10ByteVectorENS1_4ListIPNS1_5ID3v25FrameEEEEEmmEv@Base 1.7-1ubuntu5
 _ZNSt17_Rb_tree_iteratorISt4pairIKN6TagLib5ID3v219RelativeVolumeFrame11ChannelTypeE11ChannelDataEEC1EPSt13_Rb_tree_nodeIS7_E@Base 1.7-1ubuntu5
 _ZNSt17_Rb_tree_iteratorISt4pairIKN6TagLib5ID3v219RelativeVolumeFrame11ChannelTypeE11ChannelDataEEC2EPSt13_Rb_tree_nodeIS7_E@Base 1.7-1ubuntu5
 _ZNSt17_Rb_tree_iteratorISt4pairIKN6TagLib5ID3v219RelativeVolumeFrame11ChannelTypeE11ChannelDataEEmmEv@Base 1.7-1ubuntu5
 _ZNSt17_Rb_tree_iteratorISt4pairIKN6TagLib6StringENS1_10StringListEEEC1EPSt13_Rb_tree_nodeIS5_E@Base 1.7-1ubuntu5
 _ZNSt17_Rb_tree_iteratorISt4pairIKN6TagLib6StringENS1_10StringListEEEC2EPSt13_Rb_tree_nodeIS5_E@Base 1.7-1ubuntu5
 _ZNSt17_Rb_tree_iteratorISt4pairIKN6TagLib6StringENS1_10StringListEEEmmEv@Base 1.7-1ubuntu5
 _ZNSt17_Rb_tree_iteratorISt4pairIKN6TagLib6StringENS1_3APE4ItemEEEC1EPSt13_Rb_tree_nodeIS6_E@Base 1.7-1ubuntu5
 _ZNSt17_Rb_tree_iteratorISt4pairIKN6TagLib6StringENS1_3APE4ItemEEEC2EPSt13_Rb_tree_nodeIS6_E@Base 1.7-1ubuntu5
 _ZNSt17_Rb_tree_iteratorISt4pairIKN6TagLib6StringENS1_3APE4ItemEEEmmEv@Base 1.7-1ubuntu5
 _ZNSt17_Rb_tree_iteratorISt4pairIKN6TagLib6StringENS1_3MP44ItemEEEC1EPSt13_Rb_tree_nodeIS6_E@Base 1.7-1ubuntu5
 _ZNSt17_Rb_tree_iteratorISt4pairIKN6TagLib6StringENS1_3MP44ItemEEEC2EPSt13_Rb_tree_nodeIS6_E@Base 1.7-1ubuntu5
 _ZNSt17_Rb_tree_iteratorISt4pairIKN6TagLib6StringENS1_3MP44ItemEEEmmEv@Base 1.7-1ubuntu5
 _ZNSt17_Rb_tree_iteratorISt4pairIKN6TagLib6StringENS1_3MP44ItemEEEppEi@Base 1.7-1ubuntu5
 _ZNSt17_Rb_tree_iteratorISt4pairIKN6TagLib6StringENS1_4ListINS1_3ASF9AttributeEEEEEC1EPSt13_Rb_tree_nodeIS8_E@Base 1.7-1ubuntu5
 _ZNSt17_Rb_tree_iteratorISt4pairIKN6TagLib6StringENS1_4ListINS1_3ASF9AttributeEEEEEC2EPSt13_Rb_tree_nodeIS8_E@Base 1.7-1ubuntu5
 _ZNSt17_Rb_tree_iteratorISt4pairIKN6TagLib6StringENS1_4ListINS1_3ASF9AttributeEEEEEmmEv@Base 1.7-1ubuntu5
 _ZNSt17_Rb_tree_iteratorISt4pairIKN6TagLib6StringEiEEC1EPSt13_Rb_tree_nodeIS4_E@Base 1.7-1ubuntu5
 _ZNSt17_Rb_tree_iteratorISt4pairIKN6TagLib6StringEiEEC2EPSt13_Rb_tree_nodeIS4_E@Base 1.7-1ubuntu5
 _ZNSt17_Rb_tree_iteratorISt4pairIKN6TagLib6StringEiEEmmEv@Base 1.7-1ubuntu5
 _ZNSt17_Rb_tree_iteratorISt4pairIKiN6TagLib10ByteVectorEEEC1EPSt13_Rb_tree_nodeIS4_E@Base 1.7-1ubuntu5
 _ZNSt17_Rb_tree_iteratorISt4pairIKiN6TagLib10ByteVectorEEEC2EPSt13_Rb_tree_nodeIS4_E@Base 1.7-1ubuntu5
 _ZNSt17_Rb_tree_iteratorISt4pairIKiN6TagLib10ByteVectorEEEmmEv@Base 1.7-1ubuntu5
 _ZNSt20_List_const_iteratorIN6TagLib10ByteVectorEEC1EPKNSt8__detail15_List_node_baseE@Base 1.7-1ubuntu5
 _ZNSt20_List_const_iteratorIN6TagLib10ByteVectorEEC1ERKSt14_List_iteratorIS1_E@Base 1.7-1ubuntu5
 _ZNSt20_List_const_iteratorIN6TagLib10ByteVectorEEC2EPKNSt8__detail15_List_node_baseE@Base 1.7-1ubuntu5
 _ZNSt20_List_const_iteratorIN6TagLib10ByteVectorEEC2ERKSt14_List_iteratorIS1_E@Base 1.7-1ubuntu5
 _ZNSt20_List_const_iteratorIN6TagLib10ByteVectorEEppEi@Base 1.7-1ubuntu5
 _ZNSt20_List_const_iteratorIN6TagLib10ByteVectorEEppEv@Base 1.7-1ubuntu5
 _ZNSt20_List_const_iteratorIN6TagLib3ASF9AttributeEEC1EPKNSt8__detail15_List_node_baseE@Base 1.7-1ubuntu5
 _ZNSt20_List_const_iteratorIN6TagLib3ASF9AttributeEEC1ERKSt14_List_iteratorIS2_E@Base 1.7-1ubuntu5
 _ZNSt20_List_const_iteratorIN6TagLib3ASF9AttributeEEC2EPKNSt8__detail15_List_node_baseE@Base 1.7-1ubuntu5
 _ZNSt20_List_const_iteratorIN6TagLib3ASF9AttributeEEC2ERKSt14_List_iteratorIS2_E@Base 1.7-1ubuntu5
 _ZNSt20_List_const_iteratorIN6TagLib3ASF9AttributeEEppEv@Base 1.7-1ubuntu5
 _ZNSt20_List_const_iteratorIN6TagLib3MP48CoverArtEEC1EPKNSt8__detail15_List_node_baseE@Base 1.7-1ubuntu5
 _ZNSt20_List_const_iteratorIN6TagLib3MP48CoverArtEEC2EPKNSt8__detail15_List_node_baseE@Base 1.7-1ubuntu5
 _ZNSt20_List_const_iteratorIN6TagLib3MP48CoverArtEEppEv@Base 1.7-1ubuntu5
 _ZNSt20_List_const_iteratorIN6TagLib5ID3v219RelativeVolumeFrame11ChannelTypeEEC1EPKNSt8__detail15_List_node_baseE@Base 1.7-1ubuntu5
 _ZNSt20_List_const_iteratorIN6TagLib5ID3v219RelativeVolumeFrame11ChannelTypeEEC2EPKNSt8__detail15_List_node_baseE@Base 1.7-1ubuntu5
 _ZNSt20_List_const_iteratorIN6TagLib5ID3v219RelativeVolumeFrame11ChannelTypeEEppEv@Base 1.7-1ubuntu5
 _ZNSt20_List_const_iteratorIN6TagLib6StringEEC1EPKNSt8__detail15_List_node_baseE@Base 1.7-1ubuntu5
 _ZNSt20_List_const_iteratorIN6TagLib6StringEEC1ERKSt14_List_iteratorIS1_E@Base 1.7-1ubuntu5
 _ZNSt20_List_const_iteratorIN6TagLib6StringEEC2EPKNSt8__detail15_List_node_baseE@Base 1.7-1ubuntu5
 _ZNSt20_List_const_iteratorIN6TagLib6StringEEC2ERKSt14_List_iteratorIS1_E@Base 1.7-1ubuntu5
 _ZNSt20_List_const_iteratorIN6TagLib6StringEEppEi@Base 1.7-1ubuntu5
 _ZNSt20_List_const_iteratorIN6TagLib6StringEEppEv@Base 1.7-1ubuntu5
 _ZNSt20_List_const_iteratorIPKN6TagLib7FileRef16FileTypeResolverEEC1EPKNSt8__detail15_List_node_baseE@Base 1.7-1ubuntu5
 _ZNSt20_List_const_iteratorIPKN6TagLib7FileRef16FileTypeResolverEEC1ERKSt14_List_iteratorIS4_E@Base 1.7-1ubuntu5
 _ZNSt20_List_const_iteratorIPKN6TagLib7FileRef16FileTypeResolverEEC2EPKNSt8__detail15_List_node_baseE@Base 1.7-1ubuntu5
 _ZNSt20_List_const_iteratorIPKN6TagLib7FileRef16FileTypeResolverEEC2ERKSt14_List_iteratorIS4_E@Base 1.7-1ubuntu5
 _ZNSt20_List_const_iteratorIPKN6TagLib7FileRef16FileTypeResolverEEppEv@Base 1.7-1ubuntu5
 _ZNSt20_List_const_iteratorIPN6TagLib3ASF4File10BaseObjectEEC1EPKNSt8__detail15_List_node_baseE@Base 1.7-1ubuntu5
 _ZNSt20_List_const_iteratorIPN6TagLib3ASF4File10BaseObjectEEC1ERKSt14_List_iteratorIS4_E@Base 1.7-1ubuntu5
 _ZNSt20_List_const_iteratorIPN6TagLib3ASF4File10BaseObjectEEC2EPKNSt8__detail15_List_node_baseE@Base 1.7-1ubuntu5
 _ZNSt20_List_const_iteratorIPN6TagLib3ASF4File10BaseObjectEEC2ERKSt14_List_iteratorIS4_E@Base 1.7-1ubuntu5
 _ZNSt20_List_const_iteratorIPN6TagLib3ASF4File10BaseObjectEEppEv@Base 1.7-1ubuntu5
 _ZNSt20_List_const_iteratorIPN6TagLib3MP44AtomEEC1EPKNSt8__detail15_List_node_baseE@Base 1.7-1ubuntu5
 _ZNSt20_List_const_iteratorIPN6TagLib3MP44AtomEEC1ERKSt14_List_iteratorIS3_E@Base 1.7-1ubuntu5
 _ZNSt20_List_const_iteratorIPN6TagLib3MP44AtomEEC2EPKNSt8__detail15_List_node_baseE@Base 1.7-1ubuntu5
 _ZNSt20_List_const_iteratorIPN6TagLib3MP44AtomEEC2ERKSt14_List_iteratorIS3_E@Base 1.7-1ubuntu5
 _ZNSt20_List_const_iteratorIPN6TagLib3MP44AtomEEppEv@Base 1.7-1ubuntu5
 _ZNSt20_List_const_iteratorIPN6TagLib3Ogg4PageEEC1EPKNSt8__detail15_List_node_baseE@Base 1.7-1ubuntu5
 _ZNSt20_List_const_iteratorIPN6TagLib3Ogg4PageEEC1ERKSt14_List_iteratorIS3_E@Base 1.7-1ubuntu5
 _ZNSt20_List_const_iteratorIPN6TagLib3Ogg4PageEEC2EPKNSt8__detail15_List_node_baseE@Base 1.7-1ubuntu5
 _ZNSt20_List_const_iteratorIPN6TagLib3Ogg4PageEEC2ERKSt14_List_iteratorIS3_E@Base 1.7-1ubuntu5
 _ZNSt20_List_const_iteratorIPN6TagLib3Ogg4PageEEppEv@Base 1.7-1ubuntu5
 _ZNSt20_List_const_iteratorIPN6TagLib4FLAC13MetadataBlockEEC1EPKNSt8__detail15_List_node_baseE@Base 1.7-1ubuntu5
 _ZNSt20_List_const_iteratorIPN6TagLib4FLAC13MetadataBlockEEC1ERKSt14_List_iteratorIS3_E@Base 1.7-1ubuntu5
 _ZNSt20_List_const_iteratorIPN6TagLib4FLAC13MetadataBlockEEC2EPKNSt8__detail15_List_node_baseE@Base 1.7-1ubuntu5
 _ZNSt20_List_const_iteratorIPN6TagLib4FLAC13MetadataBlockEEC2ERKSt14_List_iteratorIS3_E@Base 1.7-1ubuntu5
 _ZNSt20_List_const_iteratorIPN6TagLib4FLAC13MetadataBlockEEppEv@Base 1.7-1ubuntu5
 _ZNSt20_List_const_iteratorIPN6TagLib4FLAC7PictureEEC1EPKNSt8__detail15_List_node_baseE@Base 1.7-1ubuntu5
 _ZNSt20_List_const_iteratorIPN6TagLib4FLAC7PictureEEC1ERKSt14_List_iteratorIS3_E@Base 1.7-1ubuntu5
 _ZNSt20_List_const_iteratorIPN6TagLib4FLAC7PictureEEC2EPKNSt8__detail15_List_node_baseE@Base 1.7-1ubuntu5
 _ZNSt20_List_const_iteratorIPN6TagLib4FLAC7PictureEEC2ERKSt14_List_iteratorIS3_E@Base 1.7-1ubuntu5
 _ZNSt20_List_const_iteratorIPN6TagLib4FLAC7PictureEEppEv@Base 1.7-1ubuntu5
 _ZNSt20_List_const_iteratorIPN6TagLib5ID3v25FrameEEC1EPKNSt8__detail15_List_node_baseE@Base 1.7-1ubuntu5
 _ZNSt20_List_const_iteratorIPN6TagLib5ID3v25FrameEEC1ERKSt14_List_iteratorIS3_E@Base 1.7-1ubuntu5
 _ZNSt20_List_const_iteratorIPN6TagLib5ID3v25FrameEEC2EPKNSt8__detail15_List_node_baseE@Base 1.7-1ubuntu5
 _ZNSt20_List_const_iteratorIPN6TagLib5ID3v25FrameEEC2ERKSt14_List_iteratorIS3_E@Base 1.7-1ubuntu5
 _ZNSt20_List_const_iteratorIPN6TagLib5ID3v25FrameEEppEv@Base 1.7-1ubuntu5
 _ZNSt20_List_const_iteratorIiEC1EPKNSt8__detail15_List_node_baseE@Base 1.7-1ubuntu5
 _ZNSt20_List_const_iteratorIiEC1ERKSt14_List_iteratorIiE@Base 1.7-1ubuntu5
 _ZNSt20_List_const_iteratorIiEC2EPKNSt8__detail15_List_node_baseE@Base 1.7-1ubuntu5
 _ZNSt20_List_const_iteratorIiEC2ERKSt14_List_iteratorIiE@Base 1.7-1ubuntu5
 _ZNSt20_List_const_iteratorIiEppEv@Base 1.7-1ubuntu5
 _ZNSt20__copy_move_backwardILb0ELb0ESt26random_access_iterator_tagE13__copy_move_bIP5ChunkS4_EET0_T_S6_S5_@Base 1.7-1ubuntu5
 _ZNSt20__copy_move_backwardILb0ELb0ESt26random_access_iterator_tagE13__copy_move_bIPN6TagLib4ListIiEES6_EET0_T_S8_S7_@Base 1.7-1ubuntu5
 _ZNSt20__copy_move_backwardILb0ELb1ESt26random_access_iterator_tagE13__copy_move_bIcEEPT_PKS3_S6_S4_@Base 1.7-1ubuntu5
 _ZNSt20__uninitialized_copyILb0EE13__uninit_copyIP5ChunkS3_EET0_T_S5_S4_@Base 1.7-1ubuntu5
 _ZNSt20__uninitialized_copyILb0EE13__uninit_copyIPN6TagLib4ListIiEES5_EET0_T_S7_S6_@Base 1.7-1ubuntu5
 _ZNSt20__uninitialized_copyILb1EE13__uninit_copyIN9__gnu_cxx17__normal_iteratorIPKcSt6vectorIcSaIcEEEEPcEET0_T_SC_SB_@Base 1.7-1ubuntu5
 _ZNSt20__uninitialized_copyILb1EE13__uninit_copyIPcS2_EET0_T_S4_S3_@Base 1.7-1ubuntu5
 _ZNSt22__uninitialized_fill_nILb1EE15__uninit_fill_nIPPN6TagLib3TagEjS4_EEvT_T0_RKT1_@Base 1.7-1ubuntu5
 _ZNSt22__uninitialized_fill_nILb1EE15__uninit_fill_nIPcjcEEvT_T0_RKT1_@Base 1.7-1ubuntu5
 _ZNSt23_Rb_tree_const_iteratorISt4pairIKN6TagLib10ByteVectorENS1_4ListIPNS1_5ID3v25FrameEEEEEC1ERKSt17_Rb_tree_iteratorIS9_E@Base 1.7-1ubuntu5
 _ZNSt23_Rb_tree_const_iteratorISt4pairIKN6TagLib10ByteVectorENS1_4ListIPNS1_5ID3v25FrameEEEEEC2ERKSt17_Rb_tree_iteratorIS9_E@Base 1.7-1ubuntu5
 _ZNSt23_Rb_tree_const_iteratorISt4pairIKN6TagLib10ByteVectorENS1_4ListIPNS1_5ID3v25FrameEEEEEmmEv@Base 1.7-1ubuntu5
 _ZNSt23_Rb_tree_const_iteratorISt4pairIKN6TagLib10ByteVectorENS1_4ListIPNS1_5ID3v25FrameEEEEEppEv@Base 1.7-1ubuntu5
 _ZNSt23_Rb_tree_const_iteratorISt4pairIKN6TagLib5ID3v219RelativeVolumeFrame11ChannelTypeE11ChannelDataEEC1ERKSt17_Rb_tree_iteratorIS7_E@Base 1.7-1ubuntu5
 _ZNSt23_Rb_tree_const_iteratorISt4pairIKN6TagLib5ID3v219RelativeVolumeFrame11ChannelTypeE11ChannelDataEEC2ERKSt17_Rb_tree_iteratorIS7_E@Base 1.7-1ubuntu5
 _ZNSt23_Rb_tree_const_iteratorISt4pairIKN6TagLib5ID3v219RelativeVolumeFrame11ChannelTypeE11ChannelDataEEmmEv@Base 1.7-1ubuntu5
 _ZNSt23_Rb_tree_const_iteratorISt4pairIKN6TagLib5ID3v219RelativeVolumeFrame11ChannelTypeE11ChannelDataEEppEv@Base 1.7-1ubuntu5
 _ZNSt23_Rb_tree_const_iteratorISt4pairIKN6TagLib6StringENS1_10StringListEEEC1ERKSt17_Rb_tree_iteratorIS5_E@Base 1.7-1ubuntu5
 _ZNSt23_Rb_tree_const_iteratorISt4pairIKN6TagLib6StringENS1_10StringListEEEC2ERKSt17_Rb_tree_iteratorIS5_E@Base 1.7-1ubuntu5
 _ZNSt23_Rb_tree_const_iteratorISt4pairIKN6TagLib6StringENS1_10StringListEEEmmEv@Base 1.7-1ubuntu5
 _ZNSt23_Rb_tree_const_iteratorISt4pairIKN6TagLib6StringENS1_10StringListEEEppEv@Base 1.7-1ubuntu5
 _ZNSt23_Rb_tree_const_iteratorISt4pairIKN6TagLib6StringENS1_3APE4ItemEEEC1ERKSt17_Rb_tree_iteratorIS6_E@Base 1.7-1ubuntu5
 _ZNSt23_Rb_tree_const_iteratorISt4pairIKN6TagLib6StringENS1_3APE4ItemEEEC2ERKSt17_Rb_tree_iteratorIS6_E@Base 1.7-1ubuntu5
 _ZNSt23_Rb_tree_const_iteratorISt4pairIKN6TagLib6StringENS1_3APE4ItemEEEmmEv@Base 1.7-1ubuntu5
 _ZNSt23_Rb_tree_const_iteratorISt4pairIKN6TagLib6StringENS1_3APE4ItemEEEppEv@Base 1.7-1ubuntu5
 _ZNSt23_Rb_tree_const_iteratorISt4pairIKN6TagLib6StringENS1_3MP44ItemEEEC1ERKSt17_Rb_tree_iteratorIS6_E@Base 1.7-1ubuntu5
 _ZNSt23_Rb_tree_const_iteratorISt4pairIKN6TagLib6StringENS1_3MP44ItemEEEC2ERKSt17_Rb_tree_iteratorIS6_E@Base 1.7-1ubuntu5
 _ZNSt23_Rb_tree_const_iteratorISt4pairIKN6TagLib6StringENS1_3MP44ItemEEEmmEv@Base 1.7-1ubuntu5
 _ZNSt23_Rb_tree_const_iteratorISt4pairIKN6TagLib6StringENS1_3MP44ItemEEEppEv@Base 1.7-1ubuntu5
 _ZNSt23_Rb_tree_const_iteratorISt4pairIKN6TagLib6StringENS1_4ListINS1_3ASF9AttributeEEEEEC1ERKSt17_Rb_tree_iteratorIS8_E@Base 1.7-1ubuntu5
 _ZNSt23_Rb_tree_const_iteratorISt4pairIKN6TagLib6StringENS1_4ListINS1_3ASF9AttributeEEEEEC2ERKSt17_Rb_tree_iteratorIS8_E@Base 1.7-1ubuntu5
 _ZNSt23_Rb_tree_const_iteratorISt4pairIKN6TagLib6StringENS1_4ListINS1_3ASF9AttributeEEEEEmmEv@Base 1.7-1ubuntu5
 _ZNSt23_Rb_tree_const_iteratorISt4pairIKN6TagLib6StringENS1_4ListINS1_3ASF9AttributeEEEEEppEi@Base 1.7-1ubuntu5
 _ZNSt23_Rb_tree_const_iteratorISt4pairIKN6TagLib6StringENS1_4ListINS1_3ASF9AttributeEEEEEppEv@Base 1.7-1ubuntu5
 _ZNSt23_Rb_tree_const_iteratorISt4pairIKN6TagLib6StringEiEEC1ERKSt17_Rb_tree_iteratorIS4_E@Base 1.7-1ubuntu5
 _ZNSt23_Rb_tree_const_iteratorISt4pairIKN6TagLib6StringEiEEC2ERKSt17_Rb_tree_iteratorIS4_E@Base 1.7-1ubuntu5
 _ZNSt23_Rb_tree_const_iteratorISt4pairIKN6TagLib6StringEiEEmmEv@Base 1.7-1ubuntu5
 _ZNSt23_Rb_tree_const_iteratorISt4pairIKN6TagLib6StringEiEEppEv@Base 1.7-1ubuntu5
 _ZNSt23_Rb_tree_const_iteratorISt4pairIKiN6TagLib10ByteVectorEEEC1ERKSt17_Rb_tree_iteratorIS4_E@Base 1.7-1ubuntu5
 _ZNSt23_Rb_tree_const_iteratorISt4pairIKiN6TagLib10ByteVectorEEEC2ERKSt17_Rb_tree_iteratorIS4_E@Base 1.7-1ubuntu5
 _ZNSt23_Rb_tree_const_iteratorISt4pairIKiN6TagLib10ByteVectorEEEmmEv@Base 1.7-1ubuntu5
 _ZNSt23_Rb_tree_const_iteratorISt4pairIKiN6TagLib10ByteVectorEEEppEv@Base 1.7-1ubuntu5
 _ZNSt3mapIKN6TagLib6StringENS0_3APE4ItemESt4lessIS2_ESaISt4pairIS2_S4_EEE11lower_boundERS2_@Base 1.7-1ubuntu5
 _ZNSt3mapIKN6TagLib6StringENS0_3APE4ItemESt4lessIS2_ESaISt4pairIS2_S4_EEE3endEv@Base 1.7-1ubuntu5
 _ZNSt3mapIKN6TagLib6StringENS0_3APE4ItemESt4lessIS2_ESaISt4pairIS2_S4_EEE4findERS2_@Base 1.7-1ubuntu5
 _ZNSt3mapIKN6TagLib6StringENS0_3APE4ItemESt4lessIS2_ESaISt4pairIS2_S4_EEE5beginEv@Base 1.7-1ubuntu5
 _ZNSt3mapIKN6TagLib6StringENS0_3APE4ItemESt4lessIS2_ESaISt4pairIS2_S4_EEE5eraseESt17_Rb_tree_iteratorIS8_E@Base 1.7-1ubuntu5
 _ZNSt3mapIKN6TagLib6StringENS0_3APE4ItemESt4lessIS2_ESaISt4pairIS2_S4_EEE6insertESt17_Rb_tree_iteratorIS8_ERKS8_@Base 1.7-1ubuntu5
 _ZNSt3mapIKN6TagLib6StringENS0_3APE4ItemESt4lessIS2_ESaISt4pairIS2_S4_EEEC1ERKSA_@Base 1.7-1ubuntu5
 _ZNSt3mapIKN6TagLib6StringENS0_3APE4ItemESt4lessIS2_ESaISt4pairIS2_S4_EEEC1Ev@Base 1.7-1ubuntu5
 _ZNSt3mapIKN6TagLib6StringENS0_3APE4ItemESt4lessIS2_ESaISt4pairIS2_S4_EEEC2ERKSA_@Base 1.7-1ubuntu5
 _ZNSt3mapIKN6TagLib6StringENS0_3APE4ItemESt4lessIS2_ESaISt4pairIS2_S4_EEEC2Ev@Base 1.7-1ubuntu5
 _ZNSt3mapIKN6TagLib6StringENS0_3APE4ItemESt4lessIS2_ESaISt4pairIS2_S4_EEED1Ev@Base 1.7-1ubuntu5
 _ZNSt3mapIKN6TagLib6StringENS0_3APE4ItemESt4lessIS2_ESaISt4pairIS2_S4_EEED2Ev@Base 1.7-1ubuntu5
 _ZNSt3mapIKN6TagLib6StringENS0_3APE4ItemESt4lessIS2_ESaISt4pairIS2_S4_EEEixERS2_@Base 1.7-1ubuntu5
 _ZNSt3mapIN6TagLib10ByteVectorENS0_4ListIPNS0_5ID3v25FrameEEESt4lessIS1_ESaISt4pairIKS1_S6_EEE11lower_boundERSA_@Base 1.7-1ubuntu5
 _ZNSt3mapIN6TagLib10ByteVectorENS0_4ListIPNS0_5ID3v25FrameEEESt4lessIS1_ESaISt4pairIKS1_S6_EEE3endEv@Base 1.7-1ubuntu5
 _ZNSt3mapIN6TagLib10ByteVectorENS0_4ListIPNS0_5ID3v25FrameEEESt4lessIS1_ESaISt4pairIKS1_S6_EEE6insertESt17_Rb_tree_iteratorISB_ERKSB_@Base 1.7-1ubuntu5
 _ZNSt3mapIN6TagLib10ByteVectorENS0_4ListIPNS0_5ID3v25FrameEEESt4lessIS1_ESaISt4pairIKS1_S6_EEEC1ERKSD_@Base 1.7-1ubuntu5
 _ZNSt3mapIN6TagLib10ByteVectorENS0_4ListIPNS0_5ID3v25FrameEEESt4lessIS1_ESaISt4pairIKS1_S6_EEEC1Ev@Base 1.7-1ubuntu5
 _ZNSt3mapIN6TagLib10ByteVectorENS0_4ListIPNS0_5ID3v25FrameEEESt4lessIS1_ESaISt4pairIKS1_S6_EEEC2ERKSD_@Base 1.7-1ubuntu5
 _ZNSt3mapIN6TagLib10ByteVectorENS0_4ListIPNS0_5ID3v25FrameEEESt4lessIS1_ESaISt4pairIKS1_S6_EEEC2Ev@Base 1.7-1ubuntu5
 _ZNSt3mapIN6TagLib10ByteVectorENS0_4ListIPNS0_5ID3v25FrameEEESt4lessIS1_ESaISt4pairIKS1_S6_EEED1Ev@Base 1.7-1ubuntu5
 _ZNSt3mapIN6TagLib10ByteVectorENS0_4ListIPNS0_5ID3v25FrameEEESt4lessIS1_ESaISt4pairIKS1_S6_EEED2Ev@Base 1.7-1ubuntu5
 _ZNSt3mapIN6TagLib10ByteVectorENS0_4ListIPNS0_5ID3v25FrameEEESt4lessIS1_ESaISt4pairIKS1_S6_EEEixERSA_@Base 1.7-1ubuntu5
 _ZNSt3mapIN6TagLib5ID3v219RelativeVolumeFrame11ChannelTypeE11ChannelDataSt4lessIS3_ESaISt4pairIKS3_S4_EEE11lower_boundERS8_@Base 1.7-1ubuntu5
 _ZNSt3mapIN6TagLib5ID3v219RelativeVolumeFrame11ChannelTypeE11ChannelDataSt4lessIS3_ESaISt4pairIKS3_S4_EEE3endEv@Base 1.7-1ubuntu5
 _ZNSt3mapIN6TagLib5ID3v219RelativeVolumeFrame11ChannelTypeE11ChannelDataSt4lessIS3_ESaISt4pairIKS3_S4_EEE4findERS8_@Base 1.7-1ubuntu5
 _ZNSt3mapIN6TagLib5ID3v219RelativeVolumeFrame11ChannelTypeE11ChannelDataSt4lessIS3_ESaISt4pairIKS3_S4_EEE5beginEv@Base 1.7-1ubuntu5
 _ZNSt3mapIN6TagLib5ID3v219RelativeVolumeFrame11ChannelTypeE11ChannelDataSt4lessIS3_ESaISt4pairIKS3_S4_EEE6insertESt17_Rb_tree_iteratorIS9_ERKS9_@Base 1.7-1ubuntu5
 _ZNSt3mapIN6TagLib5ID3v219RelativeVolumeFrame11ChannelTypeE11ChannelDataSt4lessIS3_ESaISt4pairIKS3_S4_EEEC1ERKSB_@Base 1.7-1ubuntu5
 _ZNSt3mapIN6TagLib5ID3v219RelativeVolumeFrame11ChannelTypeE11ChannelDataSt4lessIS3_ESaISt4pairIKS3_S4_EEEC1Ev@Base 1.7-1ubuntu5
 _ZNSt3mapIN6TagLib5ID3v219RelativeVolumeFrame11ChannelTypeE11ChannelDataSt4lessIS3_ESaISt4pairIKS3_S4_EEEC2ERKSB_@Base 1.7-1ubuntu5
 _ZNSt3mapIN6TagLib5ID3v219RelativeVolumeFrame11ChannelTypeE11ChannelDataSt4lessIS3_ESaISt4pairIKS3_S4_EEEC2Ev@Base 1.7-1ubuntu5
 _ZNSt3mapIN6TagLib5ID3v219RelativeVolumeFrame11ChannelTypeE11ChannelDataSt4lessIS3_ESaISt4pairIKS3_S4_EEED1Ev@Base 1.7-1ubuntu5
 _ZNSt3mapIN6TagLib5ID3v219RelativeVolumeFrame11ChannelTypeE11ChannelDataSt4lessIS3_ESaISt4pairIKS3_S4_EEED2Ev@Base 1.7-1ubuntu5
 _ZNSt3mapIN6TagLib5ID3v219RelativeVolumeFrame11ChannelTypeE11ChannelDataSt4lessIS3_ESaISt4pairIKS3_S4_EEEixERS8_@Base 1.7-1ubuntu5
 _ZNSt3mapIN6TagLib6StringENS0_10StringListESt4lessIS1_ESaISt4pairIKS1_S2_EEE11lower_boundERS6_@Base 1.7-1ubuntu5
 _ZNSt3mapIN6TagLib6StringENS0_10StringListESt4lessIS1_ESaISt4pairIKS1_S2_EEE3endEv@Base 1.7-1ubuntu5
 _ZNSt3mapIN6TagLib6StringENS0_10StringListESt4lessIS1_ESaISt4pairIKS1_S2_EEE4findERS6_@Base 1.7-1ubuntu5
 _ZNSt3mapIN6TagLib6StringENS0_10StringListESt4lessIS1_ESaISt4pairIKS1_S2_EEE5beginEv@Base 1.7-1ubuntu5
 _ZNSt3mapIN6TagLib6StringENS0_10StringListESt4lessIS1_ESaISt4pairIKS1_S2_EEE5eraseESt17_Rb_tree_iteratorIS7_E@Base 1.7-1ubuntu5
 _ZNSt3mapIN6TagLib6StringENS0_10StringListESt4lessIS1_ESaISt4pairIKS1_S2_EEE6insertESt17_Rb_tree_iteratorIS7_ERKS7_@Base 1.7-1ubuntu5
 _ZNSt3mapIN6TagLib6StringENS0_10StringListESt4lessIS1_ESaISt4pairIKS1_S2_EEEC1ERKS9_@Base 1.7-1ubuntu5
 _ZNSt3mapIN6TagLib6StringENS0_10StringListESt4lessIS1_ESaISt4pairIKS1_S2_EEEC1Ev@Base 1.7-1ubuntu5
 _ZNSt3mapIN6TagLib6StringENS0_10StringListESt4lessIS1_ESaISt4pairIKS1_S2_EEEC2ERKS9_@Base 1.7-1ubuntu5
 _ZNSt3mapIN6TagLib6StringENS0_10StringListESt4lessIS1_ESaISt4pairIKS1_S2_EEEC2Ev@Base 1.7-1ubuntu5
 _ZNSt3mapIN6TagLib6StringENS0_10StringListESt4lessIS1_ESaISt4pairIKS1_S2_EEED1Ev@Base 1.7-1ubuntu5
 _ZNSt3mapIN6TagLib6StringENS0_10StringListESt4lessIS1_ESaISt4pairIKS1_S2_EEED2Ev@Base 1.7-1ubuntu5
 _ZNSt3mapIN6TagLib6StringENS0_10StringListESt4lessIS1_ESaISt4pairIKS1_S2_EEEixERS6_@Base 1.7-1ubuntu5
 _ZNSt3mapIN6TagLib6StringENS0_3MP44ItemESt4lessIS1_ESaISt4pairIKS1_S3_EEE11lower_boundERS7_@Base 1.7-1ubuntu5
 _ZNSt3mapIN6TagLib6StringENS0_3MP44ItemESt4lessIS1_ESaISt4pairIKS1_S3_EEE3endEv@Base 1.7-1ubuntu5
 _ZNSt3mapIN6TagLib6StringENS0_3MP44ItemESt4lessIS1_ESaISt4pairIKS1_S3_EEE4findERS7_@Base 1.7-1ubuntu5
 _ZNSt3mapIN6TagLib6StringENS0_3MP44ItemESt4lessIS1_ESaISt4pairIKS1_S3_EEE5beginEv@Base 1.7-1ubuntu5
 _ZNSt3mapIN6TagLib6StringENS0_3MP44ItemESt4lessIS1_ESaISt4pairIKS1_S3_EEE6insertESt17_Rb_tree_iteratorIS8_ERKS8_@Base 1.7-1ubuntu5
 _ZNSt3mapIN6TagLib6StringENS0_3MP44ItemESt4lessIS1_ESaISt4pairIKS1_S3_EEEC1ERKSA_@Base 1.7-1ubuntu5
 _ZNSt3mapIN6TagLib6StringENS0_3MP44ItemESt4lessIS1_ESaISt4pairIKS1_S3_EEEC1Ev@Base 1.7-1ubuntu5
 _ZNSt3mapIN6TagLib6StringENS0_3MP44ItemESt4lessIS1_ESaISt4pairIKS1_S3_EEEC2ERKSA_@Base 1.7-1ubuntu5
 _ZNSt3mapIN6TagLib6StringENS0_3MP44ItemESt4lessIS1_ESaISt4pairIKS1_S3_EEEC2Ev@Base 1.7-1ubuntu5
 _ZNSt3mapIN6TagLib6StringENS0_3MP44ItemESt4lessIS1_ESaISt4pairIKS1_S3_EEED1Ev@Base 1.7-1ubuntu5
 _ZNSt3mapIN6TagLib6StringENS0_3MP44ItemESt4lessIS1_ESaISt4pairIKS1_S3_EEED2Ev@Base 1.7-1ubuntu5
 _ZNSt3mapIN6TagLib6StringENS0_3MP44ItemESt4lessIS1_ESaISt4pairIKS1_S3_EEEixERS7_@Base 1.7-1ubuntu5
 _ZNSt3mapIN6TagLib6StringENS0_4ListINS0_3ASF9AttributeEEESt4lessIS1_ESaISt4pairIKS1_S5_EEE11lower_boundERS9_@Base 1.7-1ubuntu5
 _ZNSt3mapIN6TagLib6StringENS0_4ListINS0_3ASF9AttributeEEESt4lessIS1_ESaISt4pairIKS1_S5_EEE3endEv@Base 1.7-1ubuntu5
 _ZNSt3mapIN6TagLib6StringENS0_4ListINS0_3ASF9AttributeEEESt4lessIS1_ESaISt4pairIKS1_S5_EEE4findERS9_@Base 1.7-1ubuntu5
 _ZNSt3mapIN6TagLib6StringENS0_4ListINS0_3ASF9AttributeEEESt4lessIS1_ESaISt4pairIKS1_S5_EEE5beginEv@Base 1.7-1ubuntu5
 _ZNSt3mapIN6TagLib6StringENS0_4ListINS0_3ASF9AttributeEEESt4lessIS1_ESaISt4pairIKS1_S5_EEE5eraseESt17_Rb_tree_iteratorISA_E@Base 1.7-1ubuntu5
 _ZNSt3mapIN6TagLib6StringENS0_4ListINS0_3ASF9AttributeEEESt4lessIS1_ESaISt4pairIKS1_S5_EEE6insertESt17_Rb_tree_iteratorISA_ERKSA_@Base 1.7-1ubuntu5
 _ZNSt3mapIN6TagLib6StringENS0_4ListINS0_3ASF9AttributeEEESt4lessIS1_ESaISt4pairIKS1_S5_EEEC1ERKSC_@Base 1.7-1ubuntu5
 _ZNSt3mapIN6TagLib6StringENS0_4ListINS0_3ASF9AttributeEEESt4lessIS1_ESaISt4pairIKS1_S5_EEEC1Ev@Base 1.7-1ubuntu5
 _ZNSt3mapIN6TagLib6StringENS0_4ListINS0_3ASF9AttributeEEESt4lessIS1_ESaISt4pairIKS1_S5_EEEC2ERKSC_@Base 1.7-1ubuntu5
 _ZNSt3mapIN6TagLib6StringENS0_4ListINS0_3ASF9AttributeEEESt4lessIS1_ESaISt4pairIKS1_S5_EEEC2Ev@Base 1.7-1ubuntu5
 _ZNSt3mapIN6TagLib6StringENS0_4ListINS0_3ASF9AttributeEEESt4lessIS1_ESaISt4pairIKS1_S5_EEED1Ev@Base 1.7-1ubuntu5
 _ZNSt3mapIN6TagLib6StringENS0_4ListINS0_3ASF9AttributeEEESt4lessIS1_ESaISt4pairIKS1_S5_EEED2Ev@Base 1.7-1ubuntu5
 _ZNSt3mapIN6TagLib6StringENS0_4ListINS0_3ASF9AttributeEEESt4lessIS1_ESaISt4pairIKS1_S5_EEEixERS9_@Base 1.7-1ubuntu5
 _ZNSt3mapIN6TagLib6StringEiSt4lessIS1_ESaISt4pairIKS1_iEEE11lower_boundERS5_@Base 1.7-1ubuntu5
 _ZNSt3mapIN6TagLib6StringEiSt4lessIS1_ESaISt4pairIKS1_iEEE3endEv@Base 1.7-1ubuntu5
 _ZNSt3mapIN6TagLib6StringEiSt4lessIS1_ESaISt4pairIKS1_iEEE4findERS5_@Base 1.7-1ubuntu5
 _ZNSt3mapIN6TagLib6StringEiSt4lessIS1_ESaISt4pairIKS1_iEEE6insertESt17_Rb_tree_iteratorIS6_ERKS6_@Base 1.7-1ubuntu5
 _ZNSt3mapIN6TagLib6StringEiSt4lessIS1_ESaISt4pairIKS1_iEEEC1ERKS8_@Base 1.7-1ubuntu5
 _ZNSt3mapIN6TagLib6StringEiSt4lessIS1_ESaISt4pairIKS1_iEEEC1Ev@Base 1.7-1ubuntu5
 _ZNSt3mapIN6TagLib6StringEiSt4lessIS1_ESaISt4pairIKS1_iEEEC2ERKS8_@Base 1.7-1ubuntu5
 _ZNSt3mapIN6TagLib6StringEiSt4lessIS1_ESaISt4pairIKS1_iEEEC2Ev@Base 1.7-1ubuntu5
 _ZNSt3mapIN6TagLib6StringEiSt4lessIS1_ESaISt4pairIKS1_iEEED1Ev@Base 1.7-1ubuntu5
 _ZNSt3mapIN6TagLib6StringEiSt4lessIS1_ESaISt4pairIKS1_iEEED2Ev@Base 1.7-1ubuntu5
 _ZNSt3mapIN6TagLib6StringEiSt4lessIS1_ESaISt4pairIKS1_iEEEixERS5_@Base 1.7-1ubuntu5
 _ZNSt3mapIiN6TagLib10ByteVectorESt4lessIiESaISt4pairIKiS1_EEE11lower_boundERS5_@Base 1.7-1ubuntu5
 _ZNSt3mapIiN6TagLib10ByteVectorESt4lessIiESaISt4pairIKiS1_EEE3endEv@Base 1.7-1ubuntu5
 _ZNSt3mapIiN6TagLib10ByteVectorESt4lessIiESaISt4pairIKiS1_EEE4findERS5_@Base 1.7-1ubuntu5
 _ZNSt3mapIiN6TagLib10ByteVectorESt4lessIiESaISt4pairIKiS1_EEE5clearEv@Base 1.7-1ubuntu5
 _ZNSt3mapIiN6TagLib10ByteVectorESt4lessIiESaISt4pairIKiS1_EEE6insertESt17_Rb_tree_iteratorIS6_ERKS6_@Base 1.7-1ubuntu5
 _ZNSt3mapIiN6TagLib10ByteVectorESt4lessIiESaISt4pairIKiS1_EEEC1ERKS8_@Base 1.7-1ubuntu5
 _ZNSt3mapIiN6TagLib10ByteVectorESt4lessIiESaISt4pairIKiS1_EEEC1Ev@Base 1.7-1ubuntu5
 _ZNSt3mapIiN6TagLib10ByteVectorESt4lessIiESaISt4pairIKiS1_EEEC2ERKS8_@Base 1.7-1ubuntu5
 _ZNSt3mapIiN6TagLib10ByteVectorESt4lessIiESaISt4pairIKiS1_EEEC2Ev@Base 1.7-1ubuntu5
 _ZNSt3mapIiN6TagLib10ByteVectorESt4lessIiESaISt4pairIKiS1_EEED1Ev@Base 1.7-1ubuntu5
 _ZNSt3mapIiN6TagLib10ByteVectorESt4lessIiESaISt4pairIKiS1_EEED2Ev@Base 1.7-1ubuntu5
 _ZNSt3mapIiN6TagLib10ByteVectorESt4lessIiESaISt4pairIKiS1_EEEixERS5_@Base 1.7-1ubuntu5
 _ZNSt4listIN6TagLib10ByteVectorESaIS1_EE14_M_create_nodeERKS1_@Base 1.7-1ubuntu5
 _ZNSt4listIN6TagLib10ByteVectorESaIS1_EE22_M_initialize_dispatchISt20_List_const_iteratorIS1_EEEvT_S7_St12__false_type@Base 1.7-1ubuntu5
 _ZNSt4listIN6TagLib10ByteVectorESaIS1_EE3endEv@Base 1.7-1ubuntu5
 _ZNSt4listIN6TagLib10ByteVectorESaIS1_EE4backEv@Base 1.7-1ubuntu5
 _ZNSt4listIN6TagLib10ByteVectorESaIS1_EE5beginEv@Base 1.7-1ubuntu5
 _ZNSt4listIN6TagLib10ByteVectorESaIS1_EE5frontEv@Base 1.7-1ubuntu5
 _ZNSt4listIN6TagLib10ByteVectorESaIS1_EE9_M_insertESt14_List_iteratorIS1_ERKS1_@Base 1.7-1ubuntu5
 _ZNSt4listIN6TagLib10ByteVectorESaIS1_EE9push_backERKS1_@Base 1.7-1ubuntu5
 _ZNSt4listIN6TagLib10ByteVectorESaIS1_EEC1ERKS3_@Base 1.7-1ubuntu5
 _ZNSt4listIN6TagLib10ByteVectorESaIS1_EEC1Ev@Base 1.7-1ubuntu5
 _ZNSt4listIN6TagLib10ByteVectorESaIS1_EEC2ERKS3_@Base 1.7-1ubuntu5
 _ZNSt4listIN6TagLib10ByteVectorESaIS1_EEC2Ev@Base 1.7-1ubuntu5
 _ZNSt4listIN6TagLib10ByteVectorESaIS1_EED1Ev@Base 1.7-1ubuntu5
 _ZNSt4listIN6TagLib10ByteVectorESaIS1_EED2Ev@Base 1.7-1ubuntu5
 _ZNSt4listIN6TagLib3ASF9AttributeESaIS2_EE14_M_create_nodeERKS2_@Base 1.7-1ubuntu5
 _ZNSt4listIN6TagLib3ASF9AttributeESaIS2_EE22_M_initialize_dispatchISt20_List_const_iteratorIS2_EEEvT_S8_St12__false_type@Base 1.7-1ubuntu5
 _ZNSt4listIN6TagLib3ASF9AttributeESaIS2_EE3endEv@Base 1.7-1ubuntu5
 _ZNSt4listIN6TagLib3ASF9AttributeESaIS2_EE5beginEv@Base 1.7-1ubuntu5
 _ZNSt4listIN6TagLib3ASF9AttributeESaIS2_EE9_M_insertESt14_List_iteratorIS2_ERKS2_@Base 1.7-1ubuntu5
 _ZNSt4listIN6TagLib3ASF9AttributeESaIS2_EE9push_backERKS2_@Base 1.7-1ubuntu5
 _ZNSt4listIN6TagLib3ASF9AttributeESaIS2_EEC1ERKS4_@Base 1.7-1ubuntu5
 _ZNSt4listIN6TagLib3ASF9AttributeESaIS2_EEC1Ev@Base 1.7-1ubuntu5
 _ZNSt4listIN6TagLib3ASF9AttributeESaIS2_EEC2ERKS4_@Base 1.7-1ubuntu5
 _ZNSt4listIN6TagLib3ASF9AttributeESaIS2_EEC2Ev@Base 1.7-1ubuntu5
 _ZNSt4listIN6TagLib3ASF9AttributeESaIS2_EED1Ev@Base 1.7-1ubuntu5
 _ZNSt4listIN6TagLib3ASF9AttributeESaIS2_EED2Ev@Base 1.7-1ubuntu5
 _ZNSt4listIN6TagLib3MP48CoverArtESaIS2_EE14_M_create_nodeERKS2_@Base 1.7-1ubuntu5
 _ZNSt4listIN6TagLib3MP48CoverArtESaIS2_EE22_M_initialize_dispatchISt20_List_const_iteratorIS2_EEEvT_S8_St12__false_type@Base 1.7-1ubuntu5
 _ZNSt4listIN6TagLib3MP48CoverArtESaIS2_EE3endEv@Base 1.7-1ubuntu5
 _ZNSt4listIN6TagLib3MP48CoverArtESaIS2_EE5beginEv@Base 1.7-1ubuntu5
 _ZNSt4listIN6TagLib3MP48CoverArtESaIS2_EE9_M_insertESt14_List_iteratorIS2_ERKS2_@Base 1.7-1ubuntu5
 _ZNSt4listIN6TagLib3MP48CoverArtESaIS2_EE9push_backERKS2_@Base 1.7-1ubuntu5
 _ZNSt4listIN6TagLib3MP48CoverArtESaIS2_EEC1ERKS4_@Base 1.7-1ubuntu5
 _ZNSt4listIN6TagLib3MP48CoverArtESaIS2_EEC1Ev@Base 1.7-1ubuntu5
 _ZNSt4listIN6TagLib3MP48CoverArtESaIS2_EEC2ERKS4_@Base 1.7-1ubuntu5
 _ZNSt4listIN6TagLib3MP48CoverArtESaIS2_EEC2Ev@Base 1.7-1ubuntu5
 _ZNSt4listIN6TagLib3MP48CoverArtESaIS2_EED1Ev@Base 1.7-1ubuntu5
 _ZNSt4listIN6TagLib3MP48CoverArtESaIS2_EED2Ev@Base 1.7-1ubuntu5
 _ZNSt4listIN6TagLib5ID3v219RelativeVolumeFrame11ChannelTypeESaIS3_EE14_M_create_nodeERKS3_@Base 1.7-1ubuntu5
 _ZNSt4listIN6TagLib5ID3v219RelativeVolumeFrame11ChannelTypeESaIS3_EE22_M_initialize_dispatchISt20_List_const_iteratorIS3_EEEvT_S9_St12__false_type@Base 1.7-1ubuntu5
 _ZNSt4listIN6TagLib5ID3v219RelativeVolumeFrame11ChannelTypeESaIS3_EE3endEv@Base 1.7-1ubuntu5
 _ZNSt4listIN6TagLib5ID3v219RelativeVolumeFrame11ChannelTypeESaIS3_EE9_M_insertESt14_List_iteratorIS3_ERKS3_@Base 1.7-1ubuntu5
 _ZNSt4listIN6TagLib5ID3v219RelativeVolumeFrame11ChannelTypeESaIS3_EE9push_backERKS3_@Base 1.7-1ubuntu5
 _ZNSt4listIN6TagLib5ID3v219RelativeVolumeFrame11ChannelTypeESaIS3_EEC1ERKS5_@Base 1.7-1ubuntu5
 _ZNSt4listIN6TagLib5ID3v219RelativeVolumeFrame11ChannelTypeESaIS3_EEC1Ev@Base 1.7-1ubuntu5
 _ZNSt4listIN6TagLib5ID3v219RelativeVolumeFrame11ChannelTypeESaIS3_EEC2ERKS5_@Base 1.7-1ubuntu5
 _ZNSt4listIN6TagLib5ID3v219RelativeVolumeFrame11ChannelTypeESaIS3_EEC2Ev@Base 1.7-1ubuntu5
 _ZNSt4listIN6TagLib5ID3v219RelativeVolumeFrame11ChannelTypeESaIS3_EED1Ev@Base 1.7-1ubuntu5
 _ZNSt4listIN6TagLib5ID3v219RelativeVolumeFrame11ChannelTypeESaIS3_EED2Ev@Base 1.7-1ubuntu5
 _ZNSt4listIN6TagLib6StringESaIS1_EE11_M_transferESt14_List_iteratorIS1_ES5_S5_@Base 1.7-1ubuntu5
 _ZNSt4listIN6TagLib6StringESaIS1_EE14_M_create_nodeERKS1_@Base 1.7-1ubuntu5
 _ZNSt4listIN6TagLib6StringESaIS1_EE22_M_initialize_dispatchISt20_List_const_iteratorIS1_EEEvT_S7_St12__false_type@Base 1.7-1ubuntu5
 _ZNSt4listIN6TagLib6StringESaIS1_EE25_M_check_equal_allocatorsERS3_@Base 1.7-1ubuntu5
 _ZNSt4listIN6TagLib6StringESaIS1_EE3endEv@Base 1.7-1ubuntu5
 _ZNSt4listIN6TagLib6StringESaIS1_EE5beginEv@Base 1.7-1ubuntu5
 _ZNSt4listIN6TagLib6StringESaIS1_EE5clearEv@Base 1.7-1ubuntu5
 _ZNSt4listIN6TagLib6StringESaIS1_EE5eraseESt14_List_iteratorIS1_E@Base 1.7-1ubuntu5
 _ZNSt4listIN6TagLib6StringESaIS1_EE5frontEv@Base 1.7-1ubuntu5
 _ZNSt4listIN6TagLib6StringESaIS1_EE6insertISt20_List_const_iteratorIS1_EEEvSt14_List_iteratorIS1_ET_S9_@Base 1.7-1ubuntu5
 _ZNSt4listIN6TagLib6StringESaIS1_EE6spliceESt14_List_iteratorIS1_ERS3_@Base 1.7-1ubuntu5
 _ZNSt4listIN6TagLib6StringESaIS1_EE8_M_eraseESt14_List_iteratorIS1_E@Base 1.7-1ubuntu5
 _ZNSt4listIN6TagLib6StringESaIS1_EE9_M_insertESt14_List_iteratorIS1_ERKS1_@Base 1.7-1ubuntu5
 _ZNSt4listIN6TagLib6StringESaIS1_EE9push_backERKS1_@Base 1.7-1ubuntu5
 _ZNSt4listIN6TagLib6StringESaIS1_EEC1ERKS3_@Base 1.7-1ubuntu5
 _ZNSt4listIN6TagLib6StringESaIS1_EEC1Ev@Base 1.7-1ubuntu5
 _ZNSt4listIN6TagLib6StringESaIS1_EEC1ISt20_List_const_iteratorIS1_EEET_S7_RKS2_@Base 1.7-1ubuntu5
 _ZNSt4listIN6TagLib6StringESaIS1_EEC2ERKS3_@Base 1.7-1ubuntu5
 _ZNSt4listIN6TagLib6StringESaIS1_EEC2Ev@Base 1.7-1ubuntu5
 _ZNSt4listIN6TagLib6StringESaIS1_EEC2ISt20_List_const_iteratorIS1_EEET_S7_RKS2_@Base 1.7-1ubuntu5
 _ZNSt4listIN6TagLib6StringESaIS1_EED1Ev@Base 1.7-1ubuntu5
 _ZNSt4listIN6TagLib6StringESaIS1_EED2Ev@Base 1.7-1ubuntu5
 _ZNSt4listIPKN6TagLib7FileRef16FileTypeResolverESaIS4_EE10push_frontERKS4_@Base 1.7-1ubuntu5
 _ZNSt4listIPKN6TagLib7FileRef16FileTypeResolverESaIS4_EE14_M_create_nodeERKS4_@Base 1.7-1ubuntu5
 _ZNSt4listIPKN6TagLib7FileRef16FileTypeResolverESaIS4_EE22_M_initialize_dispatchISt20_List_const_iteratorIS4_EEEvT_SA_St12__false_type@Base 1.7-1ubuntu5
 _ZNSt4listIPKN6TagLib7FileRef16FileTypeResolverESaIS4_EE3endEv@Base 1.7-1ubuntu5
 _ZNSt4listIPKN6TagLib7FileRef16FileTypeResolverESaIS4_EE5beginEv@Base 1.7-1ubuntu5
 _ZNSt4listIPKN6TagLib7FileRef16FileTypeResolverESaIS4_EE5clearEv@Base 1.7-1ubuntu5
 _ZNSt4listIPKN6TagLib7FileRef16FileTypeResolverESaIS4_EE9_M_insertESt14_List_iteratorIS4_ERKS4_@Base 1.7-1ubuntu5
 _ZNSt4listIPKN6TagLib7FileRef16FileTypeResolverESaIS4_EE9push_backERKS4_@Base 1.7-1ubuntu5
 _ZNSt4listIPKN6TagLib7FileRef16FileTypeResolverESaIS4_EEC1ERKS6_@Base 1.7-1ubuntu5
 _ZNSt4listIPKN6TagLib7FileRef16FileTypeResolverESaIS4_EEC1Ev@Base 1.7-1ubuntu5
 _ZNSt4listIPKN6TagLib7FileRef16FileTypeResolverESaIS4_EEC2ERKS6_@Base 1.7-1ubuntu5
 _ZNSt4listIPKN6TagLib7FileRef16FileTypeResolverESaIS4_EEC2Ev@Base 1.7-1ubuntu5
 _ZNSt4listIPKN6TagLib7FileRef16FileTypeResolverESaIS4_EED1Ev@Base 1.7-1ubuntu5
 _ZNSt4listIPKN6TagLib7FileRef16FileTypeResolverESaIS4_EED2Ev@Base 1.7-1ubuntu5
 _ZNSt4listIPN6TagLib3ASF4File10BaseObjectESaIS4_EE14_M_create_nodeERKS4_@Base 1.7-1ubuntu5
 _ZNSt4listIPN6TagLib3ASF4File10BaseObjectESaIS4_EE22_M_initialize_dispatchISt20_List_const_iteratorIS4_EEEvT_SA_St12__false_type@Base 1.7-1ubuntu5
 _ZNSt4listIPN6TagLib3ASF4File10BaseObjectESaIS4_EE3endEv@Base 1.7-1ubuntu5
 _ZNSt4listIPN6TagLib3ASF4File10BaseObjectESaIS4_EE5beginEv@Base 1.7-1ubuntu5
 _ZNSt4listIPN6TagLib3ASF4File10BaseObjectESaIS4_EE5clearEv@Base 1.7-1ubuntu5
 _ZNSt4listIPN6TagLib3ASF4File10BaseObjectESaIS4_EE9_M_insertESt14_List_iteratorIS4_ERKS4_@Base 1.7-1ubuntu5
 _ZNSt4listIPN6TagLib3ASF4File10BaseObjectESaIS4_EE9push_backERKS4_@Base 1.7-1ubuntu5
 _ZNSt4listIPN6TagLib3ASF4File10BaseObjectESaIS4_EEC1ERKS6_@Base 1.7-1ubuntu5
 _ZNSt4listIPN6TagLib3ASF4File10BaseObjectESaIS4_EEC1Ev@Base 1.7-1ubuntu5
 _ZNSt4listIPN6TagLib3ASF4File10BaseObjectESaIS4_EEC2ERKS6_@Base 1.7-1ubuntu5
 _ZNSt4listIPN6TagLib3ASF4File10BaseObjectESaIS4_EEC2Ev@Base 1.7-1ubuntu5
 _ZNSt4listIPN6TagLib3ASF4File10BaseObjectESaIS4_EED1Ev@Base 1.7-1ubuntu5
 _ZNSt4listIPN6TagLib3ASF4File10BaseObjectESaIS4_EED2Ev@Base 1.7-1ubuntu5
 _ZNSt4listIPN6TagLib3MP44AtomESaIS3_EE11_M_transferESt14_List_iteratorIS3_ES7_S7_@Base 1.7-1ubuntu5
 _ZNSt4listIPN6TagLib3MP44AtomESaIS3_EE14_M_create_nodeERKS3_@Base 1.7-1ubuntu5
 _ZNSt4listIPN6TagLib3MP44AtomESaIS3_EE22_M_initialize_dispatchISt20_List_const_iteratorIS3_EEEvT_S9_St12__false_type@Base 1.7-1ubuntu5
 _ZNSt4listIPN6TagLib3MP44AtomESaIS3_EE25_M_check_equal_allocatorsERS5_@Base 1.7-1ubuntu5
 _ZNSt4listIPN6TagLib3MP44AtomESaIS3_EE3endEv@Base 1.7-1ubuntu5
 _ZNSt4listIPN6TagLib3MP44AtomESaIS3_EE5beginEv@Base 1.7-1ubuntu5
 _ZNSt4listIPN6TagLib3MP44AtomESaIS3_EE5clearEv@Base 1.7-1ubuntu5
 _ZNSt4listIPN6TagLib3MP44AtomESaIS3_EE6insertISt20_List_const_iteratorIS3_EEEvSt14_List_iteratorIS3_ET_SB_@Base 1.7-1ubuntu5
 _ZNSt4listIPN6TagLib3MP44AtomESaIS3_EE6spliceESt14_List_iteratorIS3_ERS5_@Base 1.7-1ubuntu5
 _ZNSt4listIPN6TagLib3MP44AtomESaIS3_EE9_M_insertESt14_List_iteratorIS3_ERKS3_@Base 1.7-1ubuntu5
 _ZNSt4listIPN6TagLib3MP44AtomESaIS3_EE9push_backERKS3_@Base 1.7-1ubuntu5
 _ZNSt4listIPN6TagLib3MP44AtomESaIS3_EEC1ERKS5_@Base 1.7-1ubuntu5
 _ZNSt4listIPN6TagLib3MP44AtomESaIS3_EEC1Ev@Base 1.7-1ubuntu5
 _ZNSt4listIPN6TagLib3MP44AtomESaIS3_EEC1ISt20_List_const_iteratorIS3_EEET_S9_RKS4_@Base 1.7-1ubuntu5
 _ZNSt4listIPN6TagLib3MP44AtomESaIS3_EEC2ERKS5_@Base 1.7-1ubuntu5
 _ZNSt4listIPN6TagLib3MP44AtomESaIS3_EEC2Ev@Base 1.7-1ubuntu5
 _ZNSt4listIPN6TagLib3MP44AtomESaIS3_EEC2ISt20_List_const_iteratorIS3_EEET_S9_RKS4_@Base 1.7-1ubuntu5
 _ZNSt4listIPN6TagLib3MP44AtomESaIS3_EED1Ev@Base 1.7-1ubuntu5
 _ZNSt4listIPN6TagLib3MP44AtomESaIS3_EED2Ev@Base 1.7-1ubuntu5
 _ZNSt4listIPN6TagLib3Ogg4PageESaIS3_EE14_M_create_nodeERKS3_@Base 1.7-1ubuntu5
 _ZNSt4listIPN6TagLib3Ogg4PageESaIS3_EE22_M_initialize_dispatchISt20_List_const_iteratorIS3_EEEvT_S9_St12__false_type@Base 1.7-1ubuntu5
 _ZNSt4listIPN6TagLib3Ogg4PageESaIS3_EE3endEv@Base 1.7-1ubuntu5
 _ZNSt4listIPN6TagLib3Ogg4PageESaIS3_EE4backEv@Base 1.7-1ubuntu5
 _ZNSt4listIPN6TagLib3Ogg4PageESaIS3_EE5beginEv@Base 1.7-1ubuntu5
 _ZNSt4listIPN6TagLib3Ogg4PageESaIS3_EE5clearEv@Base 1.7-1ubuntu5
 _ZNSt4listIPN6TagLib3Ogg4PageESaIS3_EE9_M_insertESt14_List_iteratorIS3_ERKS3_@Base 1.7-1ubuntu5
 _ZNSt4listIPN6TagLib3Ogg4PageESaIS3_EE9push_backERKS3_@Base 1.7-1ubuntu5
 _ZNSt4listIPN6TagLib3Ogg4PageESaIS3_EEC1ERKS5_@Base 1.7-1ubuntu5
 _ZNSt4listIPN6TagLib3Ogg4PageESaIS3_EEC1Ev@Base 1.7-1ubuntu5
 _ZNSt4listIPN6TagLib3Ogg4PageESaIS3_EEC2ERKS5_@Base 1.7-1ubuntu5
 _ZNSt4listIPN6TagLib3Ogg4PageESaIS3_EEC2Ev@Base 1.7-1ubuntu5
 _ZNSt4listIPN6TagLib3Ogg4PageESaIS3_EED1Ev@Base 1.7-1ubuntu5
 _ZNSt4listIPN6TagLib3Ogg4PageESaIS3_EED2Ev@Base 1.7-1ubuntu5
 _ZNSt4listIPN6TagLib4FLAC13MetadataBlockESaIS3_EE14_M_create_nodeERKS3_@Base 1.7-1ubuntu5
 _ZNSt4listIPN6TagLib4FLAC13MetadataBlockESaIS3_EE22_M_initialize_dispatchISt20_List_const_iteratorIS3_EEEvT_S9_St12__false_type@Base 1.7-1ubuntu5
 _ZNSt4listIPN6TagLib4FLAC13MetadataBlockESaIS3_EE3endEv@Base 1.7-1ubuntu5
 _ZNSt4listIPN6TagLib4FLAC13MetadataBlockESaIS3_EE5beginEv@Base 1.7-1ubuntu5
 _ZNSt4listIPN6TagLib4FLAC13MetadataBlockESaIS3_EE5clearEv@Base 1.7-1ubuntu5
 _ZNSt4listIPN6TagLib4FLAC13MetadataBlockESaIS3_EE9_M_insertESt14_List_iteratorIS3_ERKS3_@Base 1.7-1ubuntu5
 _ZNSt4listIPN6TagLib4FLAC13MetadataBlockESaIS3_EE9push_backERKS3_@Base 1.7-1ubuntu5
 _ZNSt4listIPN6TagLib4FLAC13MetadataBlockESaIS3_EEC1ERKS5_@Base 1.7-1ubuntu5
 _ZNSt4listIPN6TagLib4FLAC13MetadataBlockESaIS3_EEC1Ev@Base 1.7-1ubuntu5
 _ZNSt4listIPN6TagLib4FLAC13MetadataBlockESaIS3_EEC2ERKS5_@Base 1.7-1ubuntu5
 _ZNSt4listIPN6TagLib4FLAC13MetadataBlockESaIS3_EEC2Ev@Base 1.7-1ubuntu5
 _ZNSt4listIPN6TagLib4FLAC13MetadataBlockESaIS3_EED1Ev@Base 1.7-1ubuntu5
 _ZNSt4listIPN6TagLib4FLAC13MetadataBlockESaIS3_EED2Ev@Base 1.7-1ubuntu5
 _ZNSt4listIPN6TagLib4FLAC7PictureESaIS3_EE14_M_create_nodeERKS3_@Base 1.7-1ubuntu5
 _ZNSt4listIPN6TagLib4FLAC7PictureESaIS3_EE22_M_initialize_dispatchISt20_List_const_iteratorIS3_EEEvT_S9_St12__false_type@Base 1.7-1ubuntu5
 _ZNSt4listIPN6TagLib4FLAC7PictureESaIS3_EE3endEv@Base 1.7-1ubuntu5
 _ZNSt4listIPN6TagLib4FLAC7PictureESaIS3_EE5beginEv@Base 1.7-1ubuntu5
 _ZNSt4listIPN6TagLib4FLAC7PictureESaIS3_EE5clearEv@Base 1.7-1ubuntu5
 _ZNSt4listIPN6TagLib4FLAC7PictureESaIS3_EE9_M_insertESt14_List_iteratorIS3_ERKS3_@Base 1.7-1ubuntu5
 _ZNSt4listIPN6TagLib4FLAC7PictureESaIS3_EE9push_backERKS3_@Base 1.7-1ubuntu5
 _ZNSt4listIPN6TagLib4FLAC7PictureESaIS3_EEC1ERKS5_@Base 1.7-1ubuntu5
 _ZNSt4listIPN6TagLib4FLAC7PictureESaIS3_EEC1Ev@Base 1.7-1ubuntu5
 _ZNSt4listIPN6TagLib4FLAC7PictureESaIS3_EEC2ERKS5_@Base 1.7-1ubuntu5
 _ZNSt4listIPN6TagLib4FLAC7PictureESaIS3_EEC2Ev@Base 1.7-1ubuntu5
 _ZNSt4listIPN6TagLib4FLAC7PictureESaIS3_EED1Ev@Base 1.7-1ubuntu5
 _ZNSt4listIPN6TagLib4FLAC7PictureESaIS3_EED2Ev@Base 1.7-1ubuntu5
 _ZNSt4listIPN6TagLib5ID3v25FrameESaIS3_EE14_M_create_nodeERKS3_@Base 1.7-1ubuntu5
 _ZNSt4listIPN6TagLib5ID3v25FrameESaIS3_EE22_M_initialize_dispatchISt20_List_const_iteratorIS3_EEEvT_S9_St12__false_type@Base 1.7-1ubuntu5
 _ZNSt4listIPN6TagLib5ID3v25FrameESaIS3_EE3endEv@Base 1.7-1ubuntu5
 _ZNSt4listIPN6TagLib5ID3v25FrameESaIS3_EE5beginEv@Base 1.7-1ubuntu5
 _ZNSt4listIPN6TagLib5ID3v25FrameESaIS3_EE5clearEv@Base 1.7-1ubuntu5
 _ZNSt4listIPN6TagLib5ID3v25FrameESaIS3_EE5eraseESt14_List_iteratorIS3_E@Base 1.7-1ubuntu5
 _ZNSt4listIPN6TagLib5ID3v25FrameESaIS3_EE5frontEv@Base 1.7-1ubuntu5
 _ZNSt4listIPN6TagLib5ID3v25FrameESaIS3_EE8_M_eraseESt14_List_iteratorIS3_E@Base 1.7-1ubuntu5
 _ZNSt4listIPN6TagLib5ID3v25FrameESaIS3_EE9_M_insertESt14_List_iteratorIS3_ERKS3_@Base 1.7-1ubuntu5
 _ZNSt4listIPN6TagLib5ID3v25FrameESaIS3_EE9push_backERKS3_@Base 1.7-1ubuntu5
 _ZNSt4listIPN6TagLib5ID3v25FrameESaIS3_EEC1ERKS5_@Base 1.7-1ubuntu5
 _ZNSt4listIPN6TagLib5ID3v25FrameESaIS3_EEC1Ev@Base 1.7-1ubuntu5
 _ZNSt4listIPN6TagLib5ID3v25FrameESaIS3_EEC2ERKS5_@Base 1.7-1ubuntu5
 _ZNSt4listIPN6TagLib5ID3v25FrameESaIS3_EEC2Ev@Base 1.7-1ubuntu5
 _ZNSt4listIPN6TagLib5ID3v25FrameESaIS3_EED1Ev@Base 1.7-1ubuntu5
 _ZNSt4listIPN6TagLib5ID3v25FrameESaIS3_EED2Ev@Base 1.7-1ubuntu5
 _ZNSt4listIiSaIiEE14_M_create_nodeERKi@Base 1.7-1ubuntu5
 _ZNSt4listIiSaIiEE22_M_initialize_dispatchISt20_List_const_iteratorIiEEEvT_S5_St12__false_type@Base 1.7-1ubuntu5
 _ZNSt4listIiSaIiEE3endEv@Base 1.7-1ubuntu5
 _ZNSt4listIiSaIiEE4backEv@Base 1.7-1ubuntu5
 _ZNSt4listIiSaIiEE5beginEv@Base 1.7-1ubuntu5
 _ZNSt4listIiSaIiEE5clearEv@Base 1.7-1ubuntu5
 _ZNSt4listIiSaIiEE5frontEv@Base 1.7-1ubuntu5
 _ZNSt4listIiSaIiEE6insertESt14_List_iteratorIiERKi@Base 1.7-1ubuntu5
 _ZNSt4listIiSaIiEE9_M_insertESt14_List_iteratorIiERKi@Base 1.7-1ubuntu5
 _ZNSt4listIiSaIiEE9push_backERKi@Base 1.7-1ubuntu5
 _ZNSt4listIiSaIiEEC1ERKS1_@Base 1.7-1ubuntu5
 _ZNSt4listIiSaIiEEC1Ev@Base 1.7-1ubuntu5
 _ZNSt4listIiSaIiEEC2ERKS1_@Base 1.7-1ubuntu5
 _ZNSt4listIiSaIiEEC2Ev@Base 1.7-1ubuntu5
 _ZNSt4listIiSaIiEED1Ev@Base 1.7-1ubuntu5
 _ZNSt4listIiSaIiEED2Ev@Base 1.7-1ubuntu5
 _ZNSt4pairIKN6TagLib10ByteVectorENS0_4ListIPNS0_5ID3v25FrameEEEEC1ERKS8_@Base 1.7-1ubuntu5
 _ZNSt4pairIKN6TagLib10ByteVectorENS0_4ListIPNS0_5ID3v25FrameEEEEC1ERS2_RKS7_@Base 1.7-1ubuntu5
 _ZNSt4pairIKN6TagLib10ByteVectorENS0_4ListIPNS0_5ID3v25FrameEEEEC2ERKS8_@Base 1.7-1ubuntu5
 _ZNSt4pairIKN6TagLib10ByteVectorENS0_4ListIPNS0_5ID3v25FrameEEEEC2ERS2_RKS7_@Base 1.7-1ubuntu5
 _ZNSt4pairIKN6TagLib10ByteVectorENS0_4ListIPNS0_5ID3v25FrameEEEED1Ev@Base 1.7-1ubuntu5
 _ZNSt4pairIKN6TagLib10ByteVectorENS0_4ListIPNS0_5ID3v25FrameEEEED2Ev@Base 1.7-1ubuntu5
 _ZNSt4pairIKN6TagLib5ID3v219RelativeVolumeFrame11ChannelTypeE11ChannelDataEC1ERKS6_@Base 1.7-1ubuntu5
 _ZNSt4pairIKN6TagLib5ID3v219RelativeVolumeFrame11ChannelTypeE11ChannelDataEC1ERS4_RKS5_@Base 1.7-1ubuntu5
 _ZNSt4pairIKN6TagLib5ID3v219RelativeVolumeFrame11ChannelTypeE11ChannelDataEC2ERKS6_@Base 1.7-1ubuntu5
 _ZNSt4pairIKN6TagLib5ID3v219RelativeVolumeFrame11ChannelTypeE11ChannelDataEC2ERS4_RKS5_@Base 1.7-1ubuntu5
 _ZNSt4pairIKN6TagLib5ID3v219RelativeVolumeFrame11ChannelTypeE11ChannelDataED1Ev@Base 1.7-1ubuntu5
 _ZNSt4pairIKN6TagLib5ID3v219RelativeVolumeFrame11ChannelTypeE11ChannelDataED2Ev@Base 1.7-1ubuntu5
 _ZNSt4pairIKN6TagLib6StringENS0_10StringListEEC1ERKS4_@Base 1.7-1ubuntu5
 _ZNSt4pairIKN6TagLib6StringENS0_10StringListEEC1ERS2_RKS3_@Base 1.7-1ubuntu5
 _ZNSt4pairIKN6TagLib6StringENS0_10StringListEEC2ERKS4_@Base 1.7-1ubuntu5
 _ZNSt4pairIKN6TagLib6StringENS0_10StringListEEC2ERS2_RKS3_@Base 1.7-1ubuntu5
 _ZNSt4pairIKN6TagLib6StringENS0_10StringListEED1Ev@Base 1.7-1ubuntu5
 _ZNSt4pairIKN6TagLib6StringENS0_10StringListEED2Ev@Base 1.7-1ubuntu5
 _ZNSt4pairIKN6TagLib6StringENS0_3APE4ItemEEC1ERKS5_@Base 1.7-1ubuntu5
 _ZNSt4pairIKN6TagLib6StringENS0_3APE4ItemEEC1ERS2_RKS4_@Base 1.7-1ubuntu5
 _ZNSt4pairIKN6TagLib6StringENS0_3APE4ItemEEC2ERKS5_@Base 1.7-1ubuntu5
 _ZNSt4pairIKN6TagLib6StringENS0_3APE4ItemEEC2ERS2_RKS4_@Base 1.7-1ubuntu5
 _ZNSt4pairIKN6TagLib6StringENS0_3APE4ItemEED1Ev@Base 1.7-1ubuntu5
 _ZNSt4pairIKN6TagLib6StringENS0_3APE4ItemEED2Ev@Base 1.7-1ubuntu5
 _ZNSt4pairIKN6TagLib6StringENS0_3MP44ItemEEC1ERKS5_@Base 1.7-1ubuntu5
 _ZNSt4pairIKN6TagLib6StringENS0_3MP44ItemEEC1ERS2_RKS4_@Base 1.7-1ubuntu5
 _ZNSt4pairIKN6TagLib6StringENS0_3MP44ItemEEC2ERKS5_@Base 1.7-1ubuntu5
 _ZNSt4pairIKN6TagLib6StringENS0_3MP44ItemEEC2ERS2_RKS4_@Base 1.7-1ubuntu5
 _ZNSt4pairIKN6TagLib6StringENS0_3MP44ItemEED1Ev@Base 1.7-1ubuntu5
 _ZNSt4pairIKN6TagLib6StringENS0_3MP44ItemEED2Ev@Base 1.7-1ubuntu5
 _ZNSt4pairIKN6TagLib6StringENS0_4ListINS0_3ASF9AttributeEEEEC1ERKS7_@Base 1.7-1ubuntu5
 _ZNSt4pairIKN6TagLib6StringENS0_4ListINS0_3ASF9AttributeEEEEC1ERS2_RKS6_@Base 1.7-1ubuntu5
 _ZNSt4pairIKN6TagLib6StringENS0_4ListINS0_3ASF9AttributeEEEEC2ERKS7_@Base 1.7-1ubuntu5
 _ZNSt4pairIKN6TagLib6StringENS0_4ListINS0_3ASF9AttributeEEEEC2ERS2_RKS6_@Base 1.7-1ubuntu5
 _ZNSt4pairIKN6TagLib6StringENS0_4ListINS0_3ASF9AttributeEEEED1Ev@Base 1.7-1ubuntu5
 _ZNSt4pairIKN6TagLib6StringENS0_4ListINS0_3ASF9AttributeEEEED2Ev@Base 1.7-1ubuntu5
 _ZNSt4pairIKN6TagLib6StringEiEC1ERKS3_@Base 1.7-1ubuntu5
 _ZNSt4pairIKN6TagLib6StringEiEC1ERS2_RKi@Base 1.7-1ubuntu5
 _ZNSt4pairIKN6TagLib6StringEiEC2ERKS3_@Base 1.7-1ubuntu5
 _ZNSt4pairIKN6TagLib6StringEiEC2ERS2_RKi@Base 1.7-1ubuntu5
 _ZNSt4pairIKN6TagLib6StringEiED1Ev@Base 1.7-1ubuntu5
 _ZNSt4pairIKN6TagLib6StringEiED2Ev@Base 1.7-1ubuntu5
 _ZNSt4pairIKiN6TagLib10ByteVectorEEC1ERKS3_@Base 1.7-1ubuntu5
 _ZNSt4pairIKiN6TagLib10ByteVectorEEC1ERS0_RKS2_@Base 1.7-1ubuntu5
 _ZNSt4pairIKiN6TagLib10ByteVectorEEC2ERKS3_@Base 1.7-1ubuntu5
 _ZNSt4pairIKiN6TagLib10ByteVectorEEC2ERS0_RKS2_@Base 1.7-1ubuntu5
 _ZNSt4pairIKiN6TagLib10ByteVectorEED1Ev@Base 1.7-1ubuntu5
 _ZNSt4pairIKiN6TagLib10ByteVectorEED2Ev@Base 1.7-1ubuntu5
 _ZNSt4pairISt17_Rb_tree_iteratorIS_IKN6TagLib10ByteVectorENS1_4ListIPNS1_5ID3v25FrameEEEEEbEC1ERKSA_RKb@Base 1.7-1ubuntu5
 _ZNSt4pairISt17_Rb_tree_iteratorIS_IKN6TagLib10ByteVectorENS1_4ListIPNS1_5ID3v25FrameEEEEEbEC2ERKSA_RKb@Base 1.7-1ubuntu5
 _ZNSt4pairISt17_Rb_tree_iteratorIS_IKN6TagLib5ID3v219RelativeVolumeFrame11ChannelTypeE11ChannelDataEEbEC1ERKS8_RKb@Base 1.7-1ubuntu5
 _ZNSt4pairISt17_Rb_tree_iteratorIS_IKN6TagLib5ID3v219RelativeVolumeFrame11ChannelTypeE11ChannelDataEEbEC2ERKS8_RKb@Base 1.7-1ubuntu5
 _ZNSt4pairISt17_Rb_tree_iteratorIS_IKN6TagLib6StringENS1_10StringListEEEbEC1ERKS6_RKb@Base 1.7-1ubuntu5
 _ZNSt4pairISt17_Rb_tree_iteratorIS_IKN6TagLib6StringENS1_10StringListEEEbEC2ERKS6_RKb@Base 1.7-1ubuntu5
 _ZNSt4pairISt17_Rb_tree_iteratorIS_IKN6TagLib6StringENS1_3APE4ItemEEEbEC1ERKS7_RKb@Base 1.7-1ubuntu5
 _ZNSt4pairISt17_Rb_tree_iteratorIS_IKN6TagLib6StringENS1_3APE4ItemEEEbEC2ERKS7_RKb@Base 1.7-1ubuntu5
 _ZNSt4pairISt17_Rb_tree_iteratorIS_IKN6TagLib6StringENS1_3MP44ItemEEEbEC1ERKS7_RKb@Base 1.7-1ubuntu5
 _ZNSt4pairISt17_Rb_tree_iteratorIS_IKN6TagLib6StringENS1_3MP44ItemEEEbEC2ERKS7_RKb@Base 1.7-1ubuntu5
 _ZNSt4pairISt17_Rb_tree_iteratorIS_IKN6TagLib6StringENS1_4ListINS1_3ASF9AttributeEEEEEbEC1ERKS9_RKb@Base 1.7-1ubuntu5
 _ZNSt4pairISt17_Rb_tree_iteratorIS_IKN6TagLib6StringENS1_4ListINS1_3ASF9AttributeEEEEEbEC2ERKS9_RKb@Base 1.7-1ubuntu5
 _ZNSt4pairISt17_Rb_tree_iteratorIS_IKN6TagLib6StringEiEEbEC1ERKS5_RKb@Base 1.7-1ubuntu5
 _ZNSt4pairISt17_Rb_tree_iteratorIS_IKN6TagLib6StringEiEEbEC2ERKS5_RKb@Base 1.7-1ubuntu5
 _ZNSt4pairISt17_Rb_tree_iteratorIS_IKiN6TagLib10ByteVectorEEEbEC1ERKS5_RKb@Base 1.7-1ubuntu5
 _ZNSt4pairISt17_Rb_tree_iteratorIS_IKiN6TagLib10ByteVectorEEEbEC2ERKS5_RKb@Base 1.7-1ubuntu5
 _ZNSt6bitsetILj32EE14_M_do_sanitizeEv@Base 1.7-1ubuntu5
 _ZNSt6bitsetILj32EE9referenceC1ERS0_j@Base 1.7-1ubuntu5
 _ZNSt6bitsetILj32EE9referenceC2ERS0_j@Base 1.7-1ubuntu5
 _ZNSt6bitsetILj32EE9referenceD1Ev@Base 1.7-1ubuntu5
 _ZNSt6bitsetILj32EE9referenceD2Ev@Base 1.7-1ubuntu5
 _ZNSt6bitsetILj32EE9referenceaSEb@Base 1.7-1ubuntu5
 _ZNSt6bitsetILj32EEC1Em@Base 1.7-1ubuntu5
 _ZNSt6bitsetILj32EEC1Ev@Base 1.7-1ubuntu5
 _ZNSt6bitsetILj32EEC2Em@Base 1.7-1ubuntu5
 _ZNSt6bitsetILj32EEC2Ev@Base 1.7-1ubuntu5
 _ZNSt6bitsetILj32EEixEj@Base 1.7-1ubuntu5
 _ZNSt6bitsetILj8EE14_M_do_sanitizeEv@Base 1.7-1ubuntu5
 _ZNSt6bitsetILj8EE9referenceC1ERS0_j@Base 1.7-1ubuntu5
 _ZNSt6bitsetILj8EE9referenceC2ERS0_j@Base 1.7-1ubuntu5
 _ZNSt6bitsetILj8EE9referenceD1Ev@Base 1.7-1ubuntu5
 _ZNSt6bitsetILj8EE9referenceD2Ev@Base 1.7-1ubuntu5
 _ZNSt6bitsetILj8EE9referenceaSEb@Base 1.7-1ubuntu5
 _ZNSt6bitsetILj8EEC1Em@Base 1.7-1ubuntu5
 _ZNSt6bitsetILj8EEC1Ev@Base 1.7-1ubuntu5
 _ZNSt6bitsetILj8EEC2Em@Base 1.7-1ubuntu5
 _ZNSt6bitsetILj8EEC2Ev@Base 1.7-1ubuntu5
 _ZNSt6bitsetILj8EEixEj@Base 1.7-1ubuntu5
 _ZNSt6vectorI5ChunkSaIS0_EE13_M_insert_auxEN9__gnu_cxx17__normal_iteratorIPS0_S2_EERKS0_@Base 1.7
 _ZNSt6vectorI5ChunkSaIS0_EE3endEv@Base 1.7-1ubuntu5
 _ZNSt6vectorI5ChunkSaIS0_EE5beginEv@Base 1.7-1ubuntu5
 _ZNSt6vectorI5ChunkSaIS0_EE9push_backERKS0_@Base 1.7-1ubuntu5
 _ZNSt6vectorI5ChunkSaIS0_EEC1Ev@Base 1.7-1ubuntu5
 _ZNSt6vectorI5ChunkSaIS0_EEC2Ev@Base 1.7-1ubuntu5
 _ZNSt6vectorI5ChunkSaIS0_EED1Ev@Base 1.7-1ubuntu5
 _ZNSt6vectorI5ChunkSaIS0_EED2Ev@Base 1.7-1ubuntu5
 _ZNSt6vectorI5ChunkSaIS0_EEixEj@Base 1.7-1ubuntu5
 _ZNSt6vectorIN6TagLib4ListIiEESaIS2_EE13_M_insert_auxEN9__gnu_cxx17__normal_iteratorIPS2_S4_EERKS2_@Base 1.4 1
 _ZNSt6vectorIN6TagLib4ListIiEESaIS2_EE3endEv@Base 1.7-1ubuntu5
 _ZNSt6vectorIN6TagLib4ListIiEESaIS2_EE5beginEv@Base 1.7-1ubuntu5
 _ZNSt6vectorIN6TagLib4ListIiEESaIS2_EE9push_backERKS2_@Base 1.7-1ubuntu5
 _ZNSt6vectorIN6TagLib4ListIiEESaIS2_EEC1Ev@Base 1.7-1ubuntu5
 _ZNSt6vectorIN6TagLib4ListIiEESaIS2_EEC2Ev@Base 1.7-1ubuntu5
 _ZNSt6vectorIN6TagLib4ListIiEESaIS2_EED1Ev@Base 1.5
 _ZNSt6vectorIN6TagLib4ListIiEESaIS2_EED2Ev@Base 1.7
 _ZNSt6vectorIN6TagLib4ListIiEESaIS2_EEixEj@Base 1.7-1ubuntu5
 _ZNSt6vectorIPN6TagLib3TagESaIS2_EE18_M_fill_initializeEjRKS2_@Base 1.7-1ubuntu5
 _ZNSt6vectorIPN6TagLib3TagESaIS2_EEC1EjRKS2_RKS3_@Base 1.7-1ubuntu5
 _ZNSt6vectorIPN6TagLib3TagESaIS2_EEC2EjRKS2_RKS3_@Base 1.7-1ubuntu5
 _ZNSt6vectorIPN6TagLib3TagESaIS2_EED1Ev@Base 1.7
 _ZNSt6vectorIPN6TagLib3TagESaIS2_EED2Ev@Base 1.7
 _ZNSt6vectorIPN6TagLib3TagESaIS2_EEixEj@Base 1.7-1ubuntu5
 _ZNSt6vectorIcSaIcEE13_M_insert_auxEN9__gnu_cxx17__normal_iteratorIPcS1_EERKc@Base 1.4 1
 _ZNSt6vectorIcSaIcEE14_M_fill_insertEN9__gnu_cxx17__normal_iteratorIPcS1_EEjRKc@Base 1.4 1
 _ZNSt6vectorIcSaIcEE15_M_erase_at_endEPc@Base 1.7-1ubuntu5
 _ZNSt6vectorIcSaIcEE15_M_range_insertIN9__gnu_cxx17__normal_iteratorIPKcS1_EEEEvNS4_IPcS1_EET_SA_St20forward_iterator_tag@Base 1.4 1
 _ZNSt6vectorIcSaIcEE18_M_fill_initializeEjRKc@Base 1.7-1ubuntu5
 _ZNSt6vectorIcSaIcEE18_M_insert_dispatchIN9__gnu_cxx17__normal_iteratorIPKcS1_EEEEvNS4_IPcS1_EET_SA_St12__false_type@Base 1.7-1ubuntu5
 _ZNSt6vectorIcSaIcEE20_M_allocate_and_copyIPcEES3_jT_S4_@Base 1.7-1ubuntu5
 _ZNSt6vectorIcSaIcEE3endEv@Base 1.7-1ubuntu5
 _ZNSt6vectorIcSaIcEE5beginEv@Base 1.7-1ubuntu5
 _ZNSt6vectorIcSaIcEE5clearEv@Base 1.7-1ubuntu5
 _ZNSt6vectorIcSaIcEE5eraseEN9__gnu_cxx17__normal_iteratorIPcS1_EES5_@Base 1.7-1ubuntu5
 _ZNSt6vectorIcSaIcEE6insertEN9__gnu_cxx17__normal_iteratorIPcS1_EEjRKc@Base 1.7-1ubuntu5
 _ZNSt6vectorIcSaIcEE6insertIN9__gnu_cxx17__normal_iteratorIPKcS1_EEEEvNS4_IPcS1_EET_SA_@Base 1.7-1ubuntu5
 _ZNSt6vectorIcSaIcEE7reserveEj@Base 1.7-1ubuntu5
 _ZNSt6vectorIcSaIcEE9push_backERKc@Base 1.7-1ubuntu5
 _ZNSt6vectorIcSaIcEEC1ERKS1_@Base 1.7-1ubuntu5
 _ZNSt6vectorIcSaIcEEC1EjRKcRKS0_@Base 1.7-1ubuntu5
 _ZNSt6vectorIcSaIcEEC1Ev@Base 1.7-1ubuntu5
 _ZNSt6vectorIcSaIcEEC2ERKS1_@Base 1.7-1ubuntu5
 _ZNSt6vectorIcSaIcEEC2EjRKcRKS0_@Base 1.7-1ubuntu5
 _ZNSt6vectorIcSaIcEEC2Ev@Base 1.7-1ubuntu5
 _ZNSt6vectorIcSaIcEED1Ev@Base 1.7-1ubuntu5
 _ZNSt6vectorIcSaIcEED2Ev@Base 1.7-1ubuntu5
 _ZNSt6vectorIcSaIcEEixEj@Base 1.7-1ubuntu5
 _ZNSt8_Rb_treeIKN6TagLib6StringESt4pairIS2_NS0_3APE4ItemEESt10_Select1stIS6_ESt4lessIS2_ESaIS6_EE10_M_insert_EPKSt18_Rb_tree_node_baseSF_RKS6_@Base 1.5
 _ZNSt8_Rb_treeIKN6TagLib6StringESt4pairIS2_NS0_3APE4ItemEESt10_Select1stIS6_ESt4lessIS2_ESaIS6_EE10_S_maximumEPSt18_Rb_tree_node_base@Base 1.7-1ubuntu5
 _ZNSt8_Rb_treeIKN6TagLib6StringESt4pairIS2_NS0_3APE4ItemEESt10_Select1stIS6_ESt4lessIS2_ESaIS6_EE10_S_minimumEPSt18_Rb_tree_node_base@Base 1.7-1ubuntu5
 _ZNSt8_Rb_treeIKN6TagLib6StringESt4pairIS2_NS0_3APE4ItemEESt10_Select1stIS6_ESt4lessIS2_ESaIS6_EE11_M_get_nodeEv@Base 1.7-1ubuntu5
 _ZNSt8_Rb_treeIKN6TagLib6StringESt4pairIS2_NS0_3APE4ItemEESt10_Select1stIS6_ESt4lessIS2_ESaIS6_EE11_M_leftmostEv@Base 1.7-1ubuntu5
 _ZNSt8_Rb_treeIKN6TagLib6StringESt4pairIS2_NS0_3APE4ItemEESt10_Select1stIS6_ESt4lessIS2_ESaIS6_EE11_M_put_nodeEPSt13_Rb_tree_nodeIS6_E@Base 1.7-1ubuntu5
 _ZNSt8_Rb_treeIKN6TagLib6StringESt4pairIS2_NS0_3APE4ItemEESt10_Select1stIS6_ESt4lessIS2_ESaIS6_EE11lower_boundERS2_@Base 1.7-1ubuntu5
 _ZNSt8_Rb_treeIKN6TagLib6StringESt4pairIS2_NS0_3APE4ItemEESt10_Select1stIS6_ESt4lessIS2_ESaIS6_EE12_M_erase_auxESt23_Rb_tree_const_iteratorIS6_E@Base 1.7-1ubuntu5
 _ZNSt8_Rb_treeIKN6TagLib6StringESt4pairIS2_NS0_3APE4ItemEESt10_Select1stIS6_ESt4lessIS2_ESaIS6_EE12_M_rightmostEv@Base 1.7-1ubuntu5
 _ZNSt8_Rb_treeIKN6TagLib6StringESt4pairIS2_NS0_3APE4ItemEESt10_Select1stIS6_ESt4lessIS2_ESaIS6_EE13_M_clone_nodeEPKSt13_Rb_tree_nodeIS6_E@Base 1.7-1ubuntu5
 _ZNSt8_Rb_treeIKN6TagLib6StringESt4pairIS2_NS0_3APE4ItemEESt10_Select1stIS6_ESt4lessIS2_ESaIS6_EE13_Rb_tree_implISA_Lb0EE13_M_initializeEv@Base 1.7-1ubuntu5
 _ZNSt8_Rb_treeIKN6TagLib6StringESt4pairIS2_NS0_3APE4ItemEESt10_Select1stIS6_ESt4lessIS2_ESaIS6_EE13_Rb_tree_implISA_Lb0EEC1ERKSA_RKSaISt13_Rb_tree_nodeIS6_EE@Base 1.7-1ubuntu5
 _ZNSt8_Rb_treeIKN6TagLib6StringESt4pairIS2_NS0_3APE4ItemEESt10_Select1stIS6_ESt4lessIS2_ESaIS6_EE13_Rb_tree_implISA_Lb0EEC1Ev@Base 1.7-1ubuntu5
 _ZNSt8_Rb_treeIKN6TagLib6StringESt4pairIS2_NS0_3APE4ItemEESt10_Select1stIS6_ESt4lessIS2_ESaIS6_EE13_Rb_tree_implISA_Lb0EEC2ERKSA_RKSaISt13_Rb_tree_nodeIS6_EE@Base 1.7-1ubuntu5
 _ZNSt8_Rb_treeIKN6TagLib6StringESt4pairIS2_NS0_3APE4ItemEESt10_Select1stIS6_ESt4lessIS2_ESaIS6_EE13_Rb_tree_implISA_Lb0EEC2Ev@Base 1.7-1ubuntu5
 _ZNSt8_Rb_treeIKN6TagLib6StringESt4pairIS2_NS0_3APE4ItemEESt10_Select1stIS6_ESt4lessIS2_ESaIS6_EE13_Rb_tree_implISA_Lb0EED1Ev@Base 1.7-1ubuntu5
 _ZNSt8_Rb_treeIKN6TagLib6StringESt4pairIS2_NS0_3APE4ItemEESt10_Select1stIS6_ESt4lessIS2_ESaIS6_EE13_Rb_tree_implISA_Lb0EED2Ev@Base 1.7-1ubuntu5
 _ZNSt8_Rb_treeIKN6TagLib6StringESt4pairIS2_NS0_3APE4ItemEESt10_Select1stIS6_ESt4lessIS2_ESaIS6_EE14_M_create_nodeERKS6_@Base 1.7-1ubuntu5
 _ZNSt8_Rb_treeIKN6TagLib6StringESt4pairIS2_NS0_3APE4ItemEESt10_Select1stIS6_ESt4lessIS2_ESaIS6_EE14_M_lower_boundEPSt13_Rb_tree_nodeIS6_ESF_RS2_@Base 1.7-1ubuntu5
 _ZNSt8_Rb_treeIKN6TagLib6StringESt4pairIS2_NS0_3APE4ItemEESt10_Select1stIS6_ESt4lessIS2_ESaIS6_EE15_M_destroy_nodeEPSt13_Rb_tree_nodeIS6_E@Base 1.7-1ubuntu5
 _ZNSt8_Rb_treeIKN6TagLib6StringESt4pairIS2_NS0_3APE4ItemEESt10_Select1stIS6_ESt4lessIS2_ESaIS6_EE16_M_insert_uniqueERKS6_@Base 1.4 1
 _ZNSt8_Rb_treeIKN6TagLib6StringESt4pairIS2_NS0_3APE4ItemEESt10_Select1stIS6_ESt4lessIS2_ESaIS6_EE17_M_insert_unique_ESt23_Rb_tree_const_iteratorIS6_ERKS6_@Base 1.5
 _ZNSt8_Rb_treeIKN6TagLib6StringESt4pairIS2_NS0_3APE4ItemEESt10_Select1stIS6_ESt4lessIS2_ESaIS6_EE3endEv@Base 1.7-1ubuntu5
 _ZNSt8_Rb_treeIKN6TagLib6StringESt4pairIS2_NS0_3APE4ItemEESt10_Select1stIS6_ESt4lessIS2_ESaIS6_EE4findERS2_@Base 1.7
 _ZNSt8_Rb_treeIKN6TagLib6StringESt4pairIS2_NS0_3APE4ItemEESt10_Select1stIS6_ESt4lessIS2_ESaIS6_EE5beginEv@Base 1.7-1ubuntu5
 _ZNSt8_Rb_treeIKN6TagLib6StringESt4pairIS2_NS0_3APE4ItemEESt10_Select1stIS6_ESt4lessIS2_ESaIS6_EE5eraseESt17_Rb_tree_iteratorIS6_E@Base 1.7-1ubuntu5
 _ZNSt8_Rb_treeIKN6TagLib6StringESt4pairIS2_NS0_3APE4ItemEESt10_Select1stIS6_ESt4lessIS2_ESaIS6_EE6_M_endEv@Base 1.7-1ubuntu5
 _ZNSt8_Rb_treeIKN6TagLib6StringESt4pairIS2_NS0_3APE4ItemEESt10_Select1stIS6_ESt4lessIS2_ESaIS6_EE6_S_keyEPKSt13_Rb_tree_nodeIS6_E@Base 1.7-1ubuntu5
 _ZNSt8_Rb_treeIKN6TagLib6StringESt4pairIS2_NS0_3APE4ItemEESt10_Select1stIS6_ESt4lessIS2_ESaIS6_EE6_S_keyEPKSt18_Rb_tree_node_base@Base 1.7-1ubuntu5
 _ZNSt8_Rb_treeIKN6TagLib6StringESt4pairIS2_NS0_3APE4ItemEESt10_Select1stIS6_ESt4lessIS2_ESaIS6_EE7_M_copyEPKSt13_Rb_tree_nodeIS6_EPSE_@Base 1.4 1
 _ZNSt8_Rb_treeIKN6TagLib6StringESt4pairIS2_NS0_3APE4ItemEESt10_Select1stIS6_ESt4lessIS2_ESaIS6_EE7_M_rootEv@Base 1.7-1ubuntu5
 _ZNSt8_Rb_treeIKN6TagLib6StringESt4pairIS2_NS0_3APE4ItemEESt10_Select1stIS6_ESt4lessIS2_ESaIS6_EE7_S_leftEPKSt18_Rb_tree_node_base@Base 1.7-1ubuntu5
 _ZNSt8_Rb_treeIKN6TagLib6StringESt4pairIS2_NS0_3APE4ItemEESt10_Select1stIS6_ESt4lessIS2_ESaIS6_EE7_S_leftEPSt18_Rb_tree_node_base@Base 1.7-1ubuntu5
 _ZNSt8_Rb_treeIKN6TagLib6StringESt4pairIS2_NS0_3APE4ItemEESt10_Select1stIS6_ESt4lessIS2_ESaIS6_EE8_M_beginEv@Base 1.7-1ubuntu5
 _ZNSt8_Rb_treeIKN6TagLib6StringESt4pairIS2_NS0_3APE4ItemEESt10_Select1stIS6_ESt4lessIS2_ESaIS6_EE8_M_eraseEPSt13_Rb_tree_nodeIS6_E@Base 1.4 1
 _ZNSt8_Rb_treeIKN6TagLib6StringESt4pairIS2_NS0_3APE4ItemEESt10_Select1stIS6_ESt4lessIS2_ESaIS6_EE8_S_rightEPKSt18_Rb_tree_node_base@Base 1.7-1ubuntu5
 _ZNSt8_Rb_treeIKN6TagLib6StringESt4pairIS2_NS0_3APE4ItemEESt10_Select1stIS6_ESt4lessIS2_ESaIS6_EE8_S_rightEPSt18_Rb_tree_node_base@Base 1.7-1ubuntu5
 _ZNSt8_Rb_treeIKN6TagLib6StringESt4pairIS2_NS0_3APE4ItemEESt10_Select1stIS6_ESt4lessIS2_ESaIS6_EE8_S_valueEPKSt13_Rb_tree_nodeIS6_E@Base 1.7-1ubuntu5
 _ZNSt8_Rb_treeIKN6TagLib6StringESt4pairIS2_NS0_3APE4ItemEESt10_Select1stIS6_ESt4lessIS2_ESaIS6_EE8_S_valueEPKSt18_Rb_tree_node_base@Base 1.7-1ubuntu5
 _ZNSt8_Rb_treeIKN6TagLib6StringESt4pairIS2_NS0_3APE4ItemEESt10_Select1stIS6_ESt4lessIS2_ESaIS6_EEC1ERKSC_@Base 1.7-1ubuntu5
 _ZNSt8_Rb_treeIKN6TagLib6StringESt4pairIS2_NS0_3APE4ItemEESt10_Select1stIS6_ESt4lessIS2_ESaIS6_EEC1Ev@Base 1.7-1ubuntu5
 _ZNSt8_Rb_treeIKN6TagLib6StringESt4pairIS2_NS0_3APE4ItemEESt10_Select1stIS6_ESt4lessIS2_ESaIS6_EEC2ERKSC_@Base 1.7-1ubuntu5
 _ZNSt8_Rb_treeIKN6TagLib6StringESt4pairIS2_NS0_3APE4ItemEESt10_Select1stIS6_ESt4lessIS2_ESaIS6_EEC2Ev@Base 1.7-1ubuntu5
 _ZNSt8_Rb_treeIKN6TagLib6StringESt4pairIS2_NS0_3APE4ItemEESt10_Select1stIS6_ESt4lessIS2_ESaIS6_EED1Ev@Base 1.7-1ubuntu5
 _ZNSt8_Rb_treeIKN6TagLib6StringESt4pairIS2_NS0_3APE4ItemEESt10_Select1stIS6_ESt4lessIS2_ESaIS6_EED2Ev@Base 1.7-1ubuntu5
 _ZNSt8_Rb_treeIN6TagLib10ByteVectorESt4pairIKS1_NS0_4ListIPNS0_5ID3v25FrameEEEESt10_Select1stIS9_ESt4lessIS1_ESaIS9_EE10_M_insert_EPKSt18_Rb_tree_node_baseSI_RKS9_@Base 1.5
 _ZNSt8_Rb_treeIN6TagLib10ByteVectorESt4pairIKS1_NS0_4ListIPNS0_5ID3v25FrameEEEESt10_Select1stIS9_ESt4lessIS1_ESaIS9_EE10_S_maximumEPSt18_Rb_tree_node_base@Base 1.7-1ubuntu5
 _ZNSt8_Rb_treeIN6TagLib10ByteVectorESt4pairIKS1_NS0_4ListIPNS0_5ID3v25FrameEEEESt10_Select1stIS9_ESt4lessIS1_ESaIS9_EE10_S_minimumEPSt18_Rb_tree_node_base@Base 1.7-1ubuntu5
 _ZNSt8_Rb_treeIN6TagLib10ByteVectorESt4pairIKS1_NS0_4ListIPNS0_5ID3v25FrameEEEESt10_Select1stIS9_ESt4lessIS1_ESaIS9_EE11_M_get_nodeEv@Base 1.7-1ubuntu5
 _ZNSt8_Rb_treeIN6TagLib10ByteVectorESt4pairIKS1_NS0_4ListIPNS0_5ID3v25FrameEEEESt10_Select1stIS9_ESt4lessIS1_ESaIS9_EE11_M_leftmostEv@Base 1.7-1ubuntu5
 _ZNSt8_Rb_treeIN6TagLib10ByteVectorESt4pairIKS1_NS0_4ListIPNS0_5ID3v25FrameEEEESt10_Select1stIS9_ESt4lessIS1_ESaIS9_EE11_M_put_nodeEPSt13_Rb_tree_nodeIS9_E@Base 1.7-1ubuntu5
 _ZNSt8_Rb_treeIN6TagLib10ByteVectorESt4pairIKS1_NS0_4ListIPNS0_5ID3v25FrameEEEESt10_Select1stIS9_ESt4lessIS1_ESaIS9_EE11lower_boundERS3_@Base 1.7-1ubuntu5
 _ZNSt8_Rb_treeIN6TagLib10ByteVectorESt4pairIKS1_NS0_4ListIPNS0_5ID3v25FrameEEEESt10_Select1stIS9_ESt4lessIS1_ESaIS9_EE12_M_rightmostEv@Base 1.7-1ubuntu5
 _ZNSt8_Rb_treeIN6TagLib10ByteVectorESt4pairIKS1_NS0_4ListIPNS0_5ID3v25FrameEEEESt10_Select1stIS9_ESt4lessIS1_ESaIS9_EE13_M_clone_nodeEPKSt13_Rb_tree_nodeIS9_E@Base 1.7-1ubuntu5
 _ZNSt8_Rb_treeIN6TagLib10ByteVectorESt4pairIKS1_NS0_4ListIPNS0_5ID3v25FrameEEEESt10_Select1stIS9_ESt4lessIS1_ESaIS9_EE13_Rb_tree_implISD_Lb0EE13_M_initializeEv@Base 1.7-1ubuntu5
 _ZNSt8_Rb_treeIN6TagLib10ByteVectorESt4pairIKS1_NS0_4ListIPNS0_5ID3v25FrameEEEESt10_Select1stIS9_ESt4lessIS1_ESaIS9_EE13_Rb_tree_implISD_Lb0EEC1ERKSD_RKSaISt13_Rb_tree_nodeIS9_EE@Base 1.7-1ubuntu5
 _ZNSt8_Rb_treeIN6TagLib10ByteVectorESt4pairIKS1_NS0_4ListIPNS0_5ID3v25FrameEEEESt10_Select1stIS9_ESt4lessIS1_ESaIS9_EE13_Rb_tree_implISD_Lb0EEC1Ev@Base 1.7-1ubuntu5
 _ZNSt8_Rb_treeIN6TagLib10ByteVectorESt4pairIKS1_NS0_4ListIPNS0_5ID3v25FrameEEEESt10_Select1stIS9_ESt4lessIS1_ESaIS9_EE13_Rb_tree_implISD_Lb0EEC2ERKSD_RKSaISt13_Rb_tree_nodeIS9_EE@Base 1.7-1ubuntu5
 _ZNSt8_Rb_treeIN6TagLib10ByteVectorESt4pairIKS1_NS0_4ListIPNS0_5ID3v25FrameEEEESt10_Select1stIS9_ESt4lessIS1_ESaIS9_EE13_Rb_tree_implISD_Lb0EEC2Ev@Base 1.7-1ubuntu5
 _ZNSt8_Rb_treeIN6TagLib10ByteVectorESt4pairIKS1_NS0_4ListIPNS0_5ID3v25FrameEEEESt10_Select1stIS9_ESt4lessIS1_ESaIS9_EE13_Rb_tree_implISD_Lb0EED1Ev@Base 1.7-1ubuntu5
 _ZNSt8_Rb_treeIN6TagLib10ByteVectorESt4pairIKS1_NS0_4ListIPNS0_5ID3v25FrameEEEESt10_Select1stIS9_ESt4lessIS1_ESaIS9_EE13_Rb_tree_implISD_Lb0EED2Ev@Base 1.7-1ubuntu5
 _ZNSt8_Rb_treeIN6TagLib10ByteVectorESt4pairIKS1_NS0_4ListIPNS0_5ID3v25FrameEEEESt10_Select1stIS9_ESt4lessIS1_ESaIS9_EE14_M_create_nodeERKS9_@Base 1.7-1ubuntu5
 _ZNSt8_Rb_treeIN6TagLib10ByteVectorESt4pairIKS1_NS0_4ListIPNS0_5ID3v25FrameEEEESt10_Select1stIS9_ESt4lessIS1_ESaIS9_EE14_M_lower_boundEPSt13_Rb_tree_nodeIS9_ESI_RS3_@Base 1.7-1ubuntu5
 _ZNSt8_Rb_treeIN6TagLib10ByteVectorESt4pairIKS1_NS0_4ListIPNS0_5ID3v25FrameEEEESt10_Select1stIS9_ESt4lessIS1_ESaIS9_EE15_M_destroy_nodeEPSt13_Rb_tree_nodeIS9_E@Base 1.7-1ubuntu5
 _ZNSt8_Rb_treeIN6TagLib10ByteVectorESt4pairIKS1_NS0_4ListIPNS0_5ID3v25FrameEEEESt10_Select1stIS9_ESt4lessIS1_ESaIS9_EE16_M_insert_uniqueERKS9_@Base 1.4 1
 _ZNSt8_Rb_treeIN6TagLib10ByteVectorESt4pairIKS1_NS0_4ListIPNS0_5ID3v25FrameEEEESt10_Select1stIS9_ESt4lessIS1_ESaIS9_EE17_M_insert_unique_ESt23_Rb_tree_const_iteratorIS9_ERKS9_@Base 1.5
 _ZNSt8_Rb_treeIN6TagLib10ByteVectorESt4pairIKS1_NS0_4ListIPNS0_5ID3v25FrameEEEESt10_Select1stIS9_ESt4lessIS1_ESaIS9_EE3endEv@Base 1.7-1ubuntu5
 _ZNSt8_Rb_treeIN6TagLib10ByteVectorESt4pairIKS1_NS0_4ListIPNS0_5ID3v25FrameEEEESt10_Select1stIS9_ESt4lessIS1_ESaIS9_EE5beginEv@Base 1.7-1ubuntu5
 _ZNSt8_Rb_treeIN6TagLib10ByteVectorESt4pairIKS1_NS0_4ListIPNS0_5ID3v25FrameEEEESt10_Select1stIS9_ESt4lessIS1_ESaIS9_EE6_M_endEv@Base 1.7-1ubuntu5
 _ZNSt8_Rb_treeIN6TagLib10ByteVectorESt4pairIKS1_NS0_4ListIPNS0_5ID3v25FrameEEEESt10_Select1stIS9_ESt4lessIS1_ESaIS9_EE6_S_keyEPKSt13_Rb_tree_nodeIS9_E@Base 1.7-1ubuntu5
 _ZNSt8_Rb_treeIN6TagLib10ByteVectorESt4pairIKS1_NS0_4ListIPNS0_5ID3v25FrameEEEESt10_Select1stIS9_ESt4lessIS1_ESaIS9_EE6_S_keyEPKSt18_Rb_tree_node_base@Base 1.7-1ubuntu5
 _ZNSt8_Rb_treeIN6TagLib10ByteVectorESt4pairIKS1_NS0_4ListIPNS0_5ID3v25FrameEEEESt10_Select1stIS9_ESt4lessIS1_ESaIS9_EE7_M_copyEPKSt13_Rb_tree_nodeIS9_EPSH_@Base 1.5
 _ZNSt8_Rb_treeIN6TagLib10ByteVectorESt4pairIKS1_NS0_4ListIPNS0_5ID3v25FrameEEEESt10_Select1stIS9_ESt4lessIS1_ESaIS9_EE7_M_rootEv@Base 1.7-1ubuntu5
 _ZNSt8_Rb_treeIN6TagLib10ByteVectorESt4pairIKS1_NS0_4ListIPNS0_5ID3v25FrameEEEESt10_Select1stIS9_ESt4lessIS1_ESaIS9_EE7_S_leftEPKSt18_Rb_tree_node_base@Base 1.7-1ubuntu5
 _ZNSt8_Rb_treeIN6TagLib10ByteVectorESt4pairIKS1_NS0_4ListIPNS0_5ID3v25FrameEEEESt10_Select1stIS9_ESt4lessIS1_ESaIS9_EE7_S_leftEPSt18_Rb_tree_node_base@Base 1.7-1ubuntu5
 _ZNSt8_Rb_treeIN6TagLib10ByteVectorESt4pairIKS1_NS0_4ListIPNS0_5ID3v25FrameEEEESt10_Select1stIS9_ESt4lessIS1_ESaIS9_EE8_M_beginEv@Base 1.7-1ubuntu5
 _ZNSt8_Rb_treeIN6TagLib10ByteVectorESt4pairIKS1_NS0_4ListIPNS0_5ID3v25FrameEEEESt10_Select1stIS9_ESt4lessIS1_ESaIS9_EE8_M_eraseEPSt13_Rb_tree_nodeIS9_E@Base 1.4 1
 _ZNSt8_Rb_treeIN6TagLib10ByteVectorESt4pairIKS1_NS0_4ListIPNS0_5ID3v25FrameEEEESt10_Select1stIS9_ESt4lessIS1_ESaIS9_EE8_S_rightEPKSt18_Rb_tree_node_base@Base 1.7-1ubuntu5
 _ZNSt8_Rb_treeIN6TagLib10ByteVectorESt4pairIKS1_NS0_4ListIPNS0_5ID3v25FrameEEEESt10_Select1stIS9_ESt4lessIS1_ESaIS9_EE8_S_rightEPSt18_Rb_tree_node_base@Base 1.7-1ubuntu5
 _ZNSt8_Rb_treeIN6TagLib10ByteVectorESt4pairIKS1_NS0_4ListIPNS0_5ID3v25FrameEEEESt10_Select1stIS9_ESt4lessIS1_ESaIS9_EE8_S_valueEPKSt13_Rb_tree_nodeIS9_E@Base 1.7-1ubuntu5
 _ZNSt8_Rb_treeIN6TagLib10ByteVectorESt4pairIKS1_NS0_4ListIPNS0_5ID3v25FrameEEEESt10_Select1stIS9_ESt4lessIS1_ESaIS9_EE8_S_valueEPKSt18_Rb_tree_node_base@Base 1.7-1ubuntu5
 _ZNSt8_Rb_treeIN6TagLib10ByteVectorESt4pairIKS1_NS0_4ListIPNS0_5ID3v25FrameEEEESt10_Select1stIS9_ESt4lessIS1_ESaIS9_EEC1ERKSF_@Base 1.7-1ubuntu5
 _ZNSt8_Rb_treeIN6TagLib10ByteVectorESt4pairIKS1_NS0_4ListIPNS0_5ID3v25FrameEEEESt10_Select1stIS9_ESt4lessIS1_ESaIS9_EEC1Ev@Base 1.7-1ubuntu5
 _ZNSt8_Rb_treeIN6TagLib10ByteVectorESt4pairIKS1_NS0_4ListIPNS0_5ID3v25FrameEEEESt10_Select1stIS9_ESt4lessIS1_ESaIS9_EEC2ERKSF_@Base 1.7-1ubuntu5
 _ZNSt8_Rb_treeIN6TagLib10ByteVectorESt4pairIKS1_NS0_4ListIPNS0_5ID3v25FrameEEEESt10_Select1stIS9_ESt4lessIS1_ESaIS9_EEC2Ev@Base 1.7-1ubuntu5
 _ZNSt8_Rb_treeIN6TagLib10ByteVectorESt4pairIKS1_NS0_4ListIPNS0_5ID3v25FrameEEEESt10_Select1stIS9_ESt4lessIS1_ESaIS9_EED1Ev@Base 1.7-1ubuntu5
 _ZNSt8_Rb_treeIN6TagLib10ByteVectorESt4pairIKS1_NS0_4ListIPNS0_5ID3v25FrameEEEESt10_Select1stIS9_ESt4lessIS1_ESaIS9_EED2Ev@Base 1.7-1ubuntu5
 _ZNSt8_Rb_treeIN6TagLib5ID3v219RelativeVolumeFrame11ChannelTypeESt4pairIKS3_11ChannelDataESt10_Select1stIS7_ESt4lessIS3_ESaIS7_EE10_M_insert_EPKSt18_Rb_tree_node_baseSG_RKS7_@Base 1.5
 _ZNSt8_Rb_treeIN6TagLib5ID3v219RelativeVolumeFrame11ChannelTypeESt4pairIKS3_11ChannelDataESt10_Select1stIS7_ESt4lessIS3_ESaIS7_EE10_S_maximumEPSt18_Rb_tree_node_base@Base 1.7-1ubuntu5
 _ZNSt8_Rb_treeIN6TagLib5ID3v219RelativeVolumeFrame11ChannelTypeESt4pairIKS3_11ChannelDataESt10_Select1stIS7_ESt4lessIS3_ESaIS7_EE10_S_minimumEPSt18_Rb_tree_node_base@Base 1.7-1ubuntu5
 _ZNSt8_Rb_treeIN6TagLib5ID3v219RelativeVolumeFrame11ChannelTypeESt4pairIKS3_11ChannelDataESt10_Select1stIS7_ESt4lessIS3_ESaIS7_EE11_M_get_nodeEv@Base 1.7-1ubuntu5
 _ZNSt8_Rb_treeIN6TagLib5ID3v219RelativeVolumeFrame11ChannelTypeESt4pairIKS3_11ChannelDataESt10_Select1stIS7_ESt4lessIS3_ESaIS7_EE11_M_leftmostEv@Base 1.7-1ubuntu5
 _ZNSt8_Rb_treeIN6TagLib5ID3v219RelativeVolumeFrame11ChannelTypeESt4pairIKS3_11ChannelDataESt10_Select1stIS7_ESt4lessIS3_ESaIS7_EE11_M_put_nodeEPSt13_Rb_tree_nodeIS7_E@Base 1.7-1ubuntu5
 _ZNSt8_Rb_treeIN6TagLib5ID3v219RelativeVolumeFrame11ChannelTypeESt4pairIKS3_11ChannelDataESt10_Select1stIS7_ESt4lessIS3_ESaIS7_EE11lower_boundERS5_@Base 1.7-1ubuntu5
 _ZNSt8_Rb_treeIN6TagLib5ID3v219RelativeVolumeFrame11ChannelTypeESt4pairIKS3_11ChannelDataESt10_Select1stIS7_ESt4lessIS3_ESaIS7_EE12_M_rightmostEv@Base 1.7-1ubuntu5
 _ZNSt8_Rb_treeIN6TagLib5ID3v219RelativeVolumeFrame11ChannelTypeESt4pairIKS3_11ChannelDataESt10_Select1stIS7_ESt4lessIS3_ESaIS7_EE13_M_clone_nodeEPKSt13_Rb_tree_nodeIS7_E@Base 1.7-1ubuntu5
 _ZNSt8_Rb_treeIN6TagLib5ID3v219RelativeVolumeFrame11ChannelTypeESt4pairIKS3_11ChannelDataESt10_Select1stIS7_ESt4lessIS3_ESaIS7_EE13_Rb_tree_implISB_Lb0EE13_M_initializeEv@Base 1.7-1ubuntu5
 _ZNSt8_Rb_treeIN6TagLib5ID3v219RelativeVolumeFrame11ChannelTypeESt4pairIKS3_11ChannelDataESt10_Select1stIS7_ESt4lessIS3_ESaIS7_EE13_Rb_tree_implISB_Lb0EEC1ERKSB_RKSaISt13_Rb_tree_nodeIS7_EE@Base 1.7-1ubuntu5
 _ZNSt8_Rb_treeIN6TagLib5ID3v219RelativeVolumeFrame11ChannelTypeESt4pairIKS3_11ChannelDataESt10_Select1stIS7_ESt4lessIS3_ESaIS7_EE13_Rb_tree_implISB_Lb0EEC1Ev@Base 1.7-1ubuntu5
 _ZNSt8_Rb_treeIN6TagLib5ID3v219RelativeVolumeFrame11ChannelTypeESt4pairIKS3_11ChannelDataESt10_Select1stIS7_ESt4lessIS3_ESaIS7_EE13_Rb_tree_implISB_Lb0EEC2ERKSB_RKSaISt13_Rb_tree_nodeIS7_EE@Base 1.7-1ubuntu5
 _ZNSt8_Rb_treeIN6TagLib5ID3v219RelativeVolumeFrame11ChannelTypeESt4pairIKS3_11ChannelDataESt10_Select1stIS7_ESt4lessIS3_ESaIS7_EE13_Rb_tree_implISB_Lb0EEC2Ev@Base 1.7-1ubuntu5
 _ZNSt8_Rb_treeIN6TagLib5ID3v219RelativeVolumeFrame11ChannelTypeESt4pairIKS3_11ChannelDataESt10_Select1stIS7_ESt4lessIS3_ESaIS7_EE13_Rb_tree_implISB_Lb0EED1Ev@Base 1.7-1ubuntu5
 _ZNSt8_Rb_treeIN6TagLib5ID3v219RelativeVolumeFrame11ChannelTypeESt4pairIKS3_11ChannelDataESt10_Select1stIS7_ESt4lessIS3_ESaIS7_EE13_Rb_tree_implISB_Lb0EED2Ev@Base 1.7-1ubuntu5
 _ZNSt8_Rb_treeIN6TagLib5ID3v219RelativeVolumeFrame11ChannelTypeESt4pairIKS3_11ChannelDataESt10_Select1stIS7_ESt4lessIS3_ESaIS7_EE14_M_create_nodeERKS7_@Base 1.7-1ubuntu5
 _ZNSt8_Rb_treeIN6TagLib5ID3v219RelativeVolumeFrame11ChannelTypeESt4pairIKS3_11ChannelDataESt10_Select1stIS7_ESt4lessIS3_ESaIS7_EE14_M_lower_boundEPSt13_Rb_tree_nodeIS7_ESG_RS5_@Base 1.7-1ubuntu5
 _ZNSt8_Rb_treeIN6TagLib5ID3v219RelativeVolumeFrame11ChannelTypeESt4pairIKS3_11ChannelDataESt10_Select1stIS7_ESt4lessIS3_ESaIS7_EE15_M_destroy_nodeEPSt13_Rb_tree_nodeIS7_E@Base 1.7-1ubuntu5
 _ZNSt8_Rb_treeIN6TagLib5ID3v219RelativeVolumeFrame11ChannelTypeESt4pairIKS3_11ChannelDataESt10_Select1stIS7_ESt4lessIS3_ESaIS7_EE16_M_insert_uniqueERKS7_@Base 1.4 1
 _ZNSt8_Rb_treeIN6TagLib5ID3v219RelativeVolumeFrame11ChannelTypeESt4pairIKS3_11ChannelDataESt10_Select1stIS7_ESt4lessIS3_ESaIS7_EE17_M_insert_unique_ESt23_Rb_tree_const_iteratorIS7_ERKS7_@Base 1.5
 _ZNSt8_Rb_treeIN6TagLib5ID3v219RelativeVolumeFrame11ChannelTypeESt4pairIKS3_11ChannelDataESt10_Select1stIS7_ESt4lessIS3_ESaIS7_EE3endEv@Base 1.7-1ubuntu5
 _ZNSt8_Rb_treeIN6TagLib5ID3v219RelativeVolumeFrame11ChannelTypeESt4pairIKS3_11ChannelDataESt10_Select1stIS7_ESt4lessIS3_ESaIS7_EE4findERS5_@Base 1.7
 _ZNSt8_Rb_treeIN6TagLib5ID3v219RelativeVolumeFrame11ChannelTypeESt4pairIKS3_11ChannelDataESt10_Select1stIS7_ESt4lessIS3_ESaIS7_EE5beginEv@Base 1.7-1ubuntu5
 _ZNSt8_Rb_treeIN6TagLib5ID3v219RelativeVolumeFrame11ChannelTypeESt4pairIKS3_11ChannelDataESt10_Select1stIS7_ESt4lessIS3_ESaIS7_EE6_M_endEv@Base 1.7-1ubuntu5
 _ZNSt8_Rb_treeIN6TagLib5ID3v219RelativeVolumeFrame11ChannelTypeESt4pairIKS3_11ChannelDataESt10_Select1stIS7_ESt4lessIS3_ESaIS7_EE6_S_keyEPKSt13_Rb_tree_nodeIS7_E@Base 1.7-1ubuntu5
 _ZNSt8_Rb_treeIN6TagLib5ID3v219RelativeVolumeFrame11ChannelTypeESt4pairIKS3_11ChannelDataESt10_Select1stIS7_ESt4lessIS3_ESaIS7_EE6_S_keyEPKSt18_Rb_tree_node_base@Base 1.7-1ubuntu5
 _ZNSt8_Rb_treeIN6TagLib5ID3v219RelativeVolumeFrame11ChannelTypeESt4pairIKS3_11ChannelDataESt10_Select1stIS7_ESt4lessIS3_ESaIS7_EE7_M_copyEPKSt13_Rb_tree_nodeIS7_EPSF_@Base 1.4 1
 _ZNSt8_Rb_treeIN6TagLib5ID3v219RelativeVolumeFrame11ChannelTypeESt4pairIKS3_11ChannelDataESt10_Select1stIS7_ESt4lessIS3_ESaIS7_EE7_M_rootEv@Base 1.7-1ubuntu5
 _ZNSt8_Rb_treeIN6TagLib5ID3v219RelativeVolumeFrame11ChannelTypeESt4pairIKS3_11ChannelDataESt10_Select1stIS7_ESt4lessIS3_ESaIS7_EE7_S_leftEPKSt18_Rb_tree_node_base@Base 1.7-1ubuntu5
 _ZNSt8_Rb_treeIN6TagLib5ID3v219RelativeVolumeFrame11ChannelTypeESt4pairIKS3_11ChannelDataESt10_Select1stIS7_ESt4lessIS3_ESaIS7_EE7_S_leftEPSt18_Rb_tree_node_base@Base 1.7-1ubuntu5
 _ZNSt8_Rb_treeIN6TagLib5ID3v219RelativeVolumeFrame11ChannelTypeESt4pairIKS3_11ChannelDataESt10_Select1stIS7_ESt4lessIS3_ESaIS7_EE8_M_beginEv@Base 1.7-1ubuntu5
 _ZNSt8_Rb_treeIN6TagLib5ID3v219RelativeVolumeFrame11ChannelTypeESt4pairIKS3_11ChannelDataESt10_Select1stIS7_ESt4lessIS3_ESaIS7_EE8_M_eraseEPSt13_Rb_tree_nodeIS7_E@Base 1.4 1
 _ZNSt8_Rb_treeIN6TagLib5ID3v219RelativeVolumeFrame11ChannelTypeESt4pairIKS3_11ChannelDataESt10_Select1stIS7_ESt4lessIS3_ESaIS7_EE8_S_rightEPKSt18_Rb_tree_node_base@Base 1.7-1ubuntu5
 _ZNSt8_Rb_treeIN6TagLib5ID3v219RelativeVolumeFrame11ChannelTypeESt4pairIKS3_11ChannelDataESt10_Select1stIS7_ESt4lessIS3_ESaIS7_EE8_S_rightEPSt18_Rb_tree_node_base@Base 1.7-1ubuntu5
 _ZNSt8_Rb_treeIN6TagLib5ID3v219RelativeVolumeFrame11ChannelTypeESt4pairIKS3_11ChannelDataESt10_Select1stIS7_ESt4lessIS3_ESaIS7_EE8_S_valueEPKSt13_Rb_tree_nodeIS7_E@Base 1.7-1ubuntu5
 _ZNSt8_Rb_treeIN6TagLib5ID3v219RelativeVolumeFrame11ChannelTypeESt4pairIKS3_11ChannelDataESt10_Select1stIS7_ESt4lessIS3_ESaIS7_EE8_S_valueEPKSt18_Rb_tree_node_base@Base 1.7-1ubuntu5
 _ZNSt8_Rb_treeIN6TagLib5ID3v219RelativeVolumeFrame11ChannelTypeESt4pairIKS3_11ChannelDataESt10_Select1stIS7_ESt4lessIS3_ESaIS7_EEC1ERKSD_@Base 1.7-1ubuntu5
 _ZNSt8_Rb_treeIN6TagLib5ID3v219RelativeVolumeFrame11ChannelTypeESt4pairIKS3_11ChannelDataESt10_Select1stIS7_ESt4lessIS3_ESaIS7_EEC1Ev@Base 1.7-1ubuntu5
 _ZNSt8_Rb_treeIN6TagLib5ID3v219RelativeVolumeFrame11ChannelTypeESt4pairIKS3_11ChannelDataESt10_Select1stIS7_ESt4lessIS3_ESaIS7_EEC2ERKSD_@Base 1.7-1ubuntu5
 _ZNSt8_Rb_treeIN6TagLib5ID3v219RelativeVolumeFrame11ChannelTypeESt4pairIKS3_11ChannelDataESt10_Select1stIS7_ESt4lessIS3_ESaIS7_EEC2Ev@Base 1.7-1ubuntu5
 _ZNSt8_Rb_treeIN6TagLib5ID3v219RelativeVolumeFrame11ChannelTypeESt4pairIKS3_11ChannelDataESt10_Select1stIS7_ESt4lessIS3_ESaIS7_EED1Ev@Base 1.7-1ubuntu5
 _ZNSt8_Rb_treeIN6TagLib5ID3v219RelativeVolumeFrame11ChannelTypeESt4pairIKS3_11ChannelDataESt10_Select1stIS7_ESt4lessIS3_ESaIS7_EED2Ev@Base 1.7-1ubuntu5
 _ZNSt8_Rb_treeIN6TagLib6StringESt4pairIKS1_NS0_10StringListEESt10_Select1stIS5_ESt4lessIS1_ESaIS5_EE10_M_insert_EPKSt18_Rb_tree_node_baseSE_RKS5_@Base 1.5
 _ZNSt8_Rb_treeIN6TagLib6StringESt4pairIKS1_NS0_10StringListEESt10_Select1stIS5_ESt4lessIS1_ESaIS5_EE10_S_maximumEPSt18_Rb_tree_node_base@Base 1.7-1ubuntu5
 _ZNSt8_Rb_treeIN6TagLib6StringESt4pairIKS1_NS0_10StringListEESt10_Select1stIS5_ESt4lessIS1_ESaIS5_EE10_S_minimumEPSt18_Rb_tree_node_base@Base 1.7-1ubuntu5
 _ZNSt8_Rb_treeIN6TagLib6StringESt4pairIKS1_NS0_10StringListEESt10_Select1stIS5_ESt4lessIS1_ESaIS5_EE11_M_get_nodeEv@Base 1.7-1ubuntu5
 _ZNSt8_Rb_treeIN6TagLib6StringESt4pairIKS1_NS0_10StringListEESt10_Select1stIS5_ESt4lessIS1_ESaIS5_EE11_M_leftmostEv@Base 1.7-1ubuntu5
 _ZNSt8_Rb_treeIN6TagLib6StringESt4pairIKS1_NS0_10StringListEESt10_Select1stIS5_ESt4lessIS1_ESaIS5_EE11_M_put_nodeEPSt13_Rb_tree_nodeIS5_E@Base 1.7-1ubuntu5
 _ZNSt8_Rb_treeIN6TagLib6StringESt4pairIKS1_NS0_10StringListEESt10_Select1stIS5_ESt4lessIS1_ESaIS5_EE11lower_boundERS3_@Base 1.7-1ubuntu5
 _ZNSt8_Rb_treeIN6TagLib6StringESt4pairIKS1_NS0_10StringListEESt10_Select1stIS5_ESt4lessIS1_ESaIS5_EE12_M_erase_auxESt23_Rb_tree_const_iteratorIS5_E@Base 1.7-1ubuntu5
 _ZNSt8_Rb_treeIN6TagLib6StringESt4pairIKS1_NS0_10StringListEESt10_Select1stIS5_ESt4lessIS1_ESaIS5_EE12_M_rightmostEv@Base 1.7-1ubuntu5
 _ZNSt8_Rb_treeIN6TagLib6StringESt4pairIKS1_NS0_10StringListEESt10_Select1stIS5_ESt4lessIS1_ESaIS5_EE13_M_clone_nodeEPKSt13_Rb_tree_nodeIS5_E@Base 1.7-1ubuntu5
 _ZNSt8_Rb_treeIN6TagLib6StringESt4pairIKS1_NS0_10StringListEESt10_Select1stIS5_ESt4lessIS1_ESaIS5_EE13_Rb_tree_implIS9_Lb0EE13_M_initializeEv@Base 1.7-1ubuntu5
 _ZNSt8_Rb_treeIN6TagLib6StringESt4pairIKS1_NS0_10StringListEESt10_Select1stIS5_ESt4lessIS1_ESaIS5_EE13_Rb_tree_implIS9_Lb0EEC1ERKS9_RKSaISt13_Rb_tree_nodeIS5_EE@Base 1.7-1ubuntu5
 _ZNSt8_Rb_treeIN6TagLib6StringESt4pairIKS1_NS0_10StringListEESt10_Select1stIS5_ESt4lessIS1_ESaIS5_EE13_Rb_tree_implIS9_Lb0EEC1Ev@Base 1.7-1ubuntu5
 _ZNSt8_Rb_treeIN6TagLib6StringESt4pairIKS1_NS0_10StringListEESt10_Select1stIS5_ESt4lessIS1_ESaIS5_EE13_Rb_tree_implIS9_Lb0EEC2ERKS9_RKSaISt13_Rb_tree_nodeIS5_EE@Base 1.7-1ubuntu5
 _ZNSt8_Rb_treeIN6TagLib6StringESt4pairIKS1_NS0_10StringListEESt10_Select1stIS5_ESt4lessIS1_ESaIS5_EE13_Rb_tree_implIS9_Lb0EEC2Ev@Base 1.7-1ubuntu5
 _ZNSt8_Rb_treeIN6TagLib6StringESt4pairIKS1_NS0_10StringListEESt10_Select1stIS5_ESt4lessIS1_ESaIS5_EE13_Rb_tree_implIS9_Lb0EED1Ev@Base 1.7-1ubuntu5
 _ZNSt8_Rb_treeIN6TagLib6StringESt4pairIKS1_NS0_10StringListEESt10_Select1stIS5_ESt4lessIS1_ESaIS5_EE13_Rb_tree_implIS9_Lb0EED2Ev@Base 1.7-1ubuntu5
 _ZNSt8_Rb_treeIN6TagLib6StringESt4pairIKS1_NS0_10StringListEESt10_Select1stIS5_ESt4lessIS1_ESaIS5_EE14_M_create_nodeERKS5_@Base 1.7-1ubuntu5
 _ZNSt8_Rb_treeIN6TagLib6StringESt4pairIKS1_NS0_10StringListEESt10_Select1stIS5_ESt4lessIS1_ESaIS5_EE14_M_lower_boundEPSt13_Rb_tree_nodeIS5_ESE_RS3_@Base 1.7-1ubuntu5
 _ZNSt8_Rb_treeIN6TagLib6StringESt4pairIKS1_NS0_10StringListEESt10_Select1stIS5_ESt4lessIS1_ESaIS5_EE15_M_destroy_nodeEPSt13_Rb_tree_nodeIS5_E@Base 1.7-1ubuntu5
 _ZNSt8_Rb_treeIN6TagLib6StringESt4pairIKS1_NS0_10StringListEESt10_Select1stIS5_ESt4lessIS1_ESaIS5_EE16_M_insert_uniqueERKS5_@Base 1.4 1
 _ZNSt8_Rb_treeIN6TagLib6StringESt4pairIKS1_NS0_10StringListEESt10_Select1stIS5_ESt4lessIS1_ESaIS5_EE17_M_insert_unique_ESt23_Rb_tree_const_iteratorIS5_ERKS5_@Base 1.5
 _ZNSt8_Rb_treeIN6TagLib6StringESt4pairIKS1_NS0_10StringListEESt10_Select1stIS5_ESt4lessIS1_ESaIS5_EE3endEv@Base 1.7-1ubuntu5
 _ZNSt8_Rb_treeIN6TagLib6StringESt4pairIKS1_NS0_10StringListEESt10_Select1stIS5_ESt4lessIS1_ESaIS5_EE4findERS3_@Base 1.7
 _ZNSt8_Rb_treeIN6TagLib6StringESt4pairIKS1_NS0_10StringListEESt10_Select1stIS5_ESt4lessIS1_ESaIS5_EE5beginEv@Base 1.7-1ubuntu5
 _ZNSt8_Rb_treeIN6TagLib6StringESt4pairIKS1_NS0_10StringListEESt10_Select1stIS5_ESt4lessIS1_ESaIS5_EE5eraseESt17_Rb_tree_iteratorIS5_E@Base 1.7-1ubuntu5
 _ZNSt8_Rb_treeIN6TagLib6StringESt4pairIKS1_NS0_10StringListEESt10_Select1stIS5_ESt4lessIS1_ESaIS5_EE6_M_endEv@Base 1.7-1ubuntu5
 _ZNSt8_Rb_treeIN6TagLib6StringESt4pairIKS1_NS0_10StringListEESt10_Select1stIS5_ESt4lessIS1_ESaIS5_EE6_S_keyEPKSt13_Rb_tree_nodeIS5_E@Base 1.7-1ubuntu5
 _ZNSt8_Rb_treeIN6TagLib6StringESt4pairIKS1_NS0_10StringListEESt10_Select1stIS5_ESt4lessIS1_ESaIS5_EE6_S_keyEPKSt18_Rb_tree_node_base@Base 1.7-1ubuntu5
 _ZNSt8_Rb_treeIN6TagLib6StringESt4pairIKS1_NS0_10StringListEESt10_Select1stIS5_ESt4lessIS1_ESaIS5_EE7_M_copyEPKSt13_Rb_tree_nodeIS5_EPSD_@Base 1.4 1
 _ZNSt8_Rb_treeIN6TagLib6StringESt4pairIKS1_NS0_10StringListEESt10_Select1stIS5_ESt4lessIS1_ESaIS5_EE7_M_rootEv@Base 1.7-1ubuntu5
 _ZNSt8_Rb_treeIN6TagLib6StringESt4pairIKS1_NS0_10StringListEESt10_Select1stIS5_ESt4lessIS1_ESaIS5_EE7_S_leftEPKSt18_Rb_tree_node_base@Base 1.7-1ubuntu5
 _ZNSt8_Rb_treeIN6TagLib6StringESt4pairIKS1_NS0_10StringListEESt10_Select1stIS5_ESt4lessIS1_ESaIS5_EE7_S_leftEPSt18_Rb_tree_node_base@Base 1.7-1ubuntu5
 _ZNSt8_Rb_treeIN6TagLib6StringESt4pairIKS1_NS0_10StringListEESt10_Select1stIS5_ESt4lessIS1_ESaIS5_EE8_M_beginEv@Base 1.7-1ubuntu5
 _ZNSt8_Rb_treeIN6TagLib6StringESt4pairIKS1_NS0_10StringListEESt10_Select1stIS5_ESt4lessIS1_ESaIS5_EE8_M_eraseEPSt13_Rb_tree_nodeIS5_E@Base 1.4 1
 _ZNSt8_Rb_treeIN6TagLib6StringESt4pairIKS1_NS0_10StringListEESt10_Select1stIS5_ESt4lessIS1_ESaIS5_EE8_S_rightEPKSt18_Rb_tree_node_base@Base 1.7-1ubuntu5
 _ZNSt8_Rb_treeIN6TagLib6StringESt4pairIKS1_NS0_10StringListEESt10_Select1stIS5_ESt4lessIS1_ESaIS5_EE8_S_rightEPSt18_Rb_tree_node_base@Base 1.7-1ubuntu5
 _ZNSt8_Rb_treeIN6TagLib6StringESt4pairIKS1_NS0_10StringListEESt10_Select1stIS5_ESt4lessIS1_ESaIS5_EE8_S_valueEPKSt13_Rb_tree_nodeIS5_E@Base 1.7-1ubuntu5
 _ZNSt8_Rb_treeIN6TagLib6StringESt4pairIKS1_NS0_10StringListEESt10_Select1stIS5_ESt4lessIS1_ESaIS5_EE8_S_valueEPKSt18_Rb_tree_node_base@Base 1.7-1ubuntu5
 _ZNSt8_Rb_treeIN6TagLib6StringESt4pairIKS1_NS0_10StringListEESt10_Select1stIS5_ESt4lessIS1_ESaIS5_EEC1ERKSB_@Base 1.7-1ubuntu5
 _ZNSt8_Rb_treeIN6TagLib6StringESt4pairIKS1_NS0_10StringListEESt10_Select1stIS5_ESt4lessIS1_ESaIS5_EEC1Ev@Base 1.7-1ubuntu5
 _ZNSt8_Rb_treeIN6TagLib6StringESt4pairIKS1_NS0_10StringListEESt10_Select1stIS5_ESt4lessIS1_ESaIS5_EEC2ERKSB_@Base 1.7-1ubuntu5
 _ZNSt8_Rb_treeIN6TagLib6StringESt4pairIKS1_NS0_10StringListEESt10_Select1stIS5_ESt4lessIS1_ESaIS5_EEC2Ev@Base 1.7-1ubuntu5
 _ZNSt8_Rb_treeIN6TagLib6StringESt4pairIKS1_NS0_10StringListEESt10_Select1stIS5_ESt4lessIS1_ESaIS5_EED1Ev@Base 1.7-1ubuntu5
 _ZNSt8_Rb_treeIN6TagLib6StringESt4pairIKS1_NS0_10StringListEESt10_Select1stIS5_ESt4lessIS1_ESaIS5_EED2Ev@Base 1.7-1ubuntu5
 _ZNSt8_Rb_treeIN6TagLib6StringESt4pairIKS1_NS0_3MP44ItemEESt10_Select1stIS6_ESt4lessIS1_ESaIS6_EE10_M_insert_EPKSt18_Rb_tree_node_baseSF_RKS6_@Base 1.6-2~
 _ZNSt8_Rb_treeIN6TagLib6StringESt4pairIKS1_NS0_3MP44ItemEESt10_Select1stIS6_ESt4lessIS1_ESaIS6_EE10_S_maximumEPSt18_Rb_tree_node_base@Base 1.7-1ubuntu5
 _ZNSt8_Rb_treeIN6TagLib6StringESt4pairIKS1_NS0_3MP44ItemEESt10_Select1stIS6_ESt4lessIS1_ESaIS6_EE10_S_minimumEPSt18_Rb_tree_node_base@Base 1.7-1ubuntu5
 _ZNSt8_Rb_treeIN6TagLib6StringESt4pairIKS1_NS0_3MP44ItemEESt10_Select1stIS6_ESt4lessIS1_ESaIS6_EE11_M_get_nodeEv@Base 1.7-1ubuntu5
 _ZNSt8_Rb_treeIN6TagLib6StringESt4pairIKS1_NS0_3MP44ItemEESt10_Select1stIS6_ESt4lessIS1_ESaIS6_EE11_M_leftmostEv@Base 1.7-1ubuntu5
 _ZNSt8_Rb_treeIN6TagLib6StringESt4pairIKS1_NS0_3MP44ItemEESt10_Select1stIS6_ESt4lessIS1_ESaIS6_EE11_M_put_nodeEPSt13_Rb_tree_nodeIS6_E@Base 1.7-1ubuntu5
 _ZNSt8_Rb_treeIN6TagLib6StringESt4pairIKS1_NS0_3MP44ItemEESt10_Select1stIS6_ESt4lessIS1_ESaIS6_EE11lower_boundERS3_@Base 1.7-1ubuntu5
 _ZNSt8_Rb_treeIN6TagLib6StringESt4pairIKS1_NS0_3MP44ItemEESt10_Select1stIS6_ESt4lessIS1_ESaIS6_EE12_M_rightmostEv@Base 1.7-1ubuntu5
 _ZNSt8_Rb_treeIN6TagLib6StringESt4pairIKS1_NS0_3MP44ItemEESt10_Select1stIS6_ESt4lessIS1_ESaIS6_EE13_M_clone_nodeEPKSt13_Rb_tree_nodeIS6_E@Base 1.7-1ubuntu5
 _ZNSt8_Rb_treeIN6TagLib6StringESt4pairIKS1_NS0_3MP44ItemEESt10_Select1stIS6_ESt4lessIS1_ESaIS6_EE13_Rb_tree_implISA_Lb0EE13_M_initializeEv@Base 1.7-1ubuntu5
 _ZNSt8_Rb_treeIN6TagLib6StringESt4pairIKS1_NS0_3MP44ItemEESt10_Select1stIS6_ESt4lessIS1_ESaIS6_EE13_Rb_tree_implISA_Lb0EEC1ERKSA_RKSaISt13_Rb_tree_nodeIS6_EE@Base 1.7-1ubuntu5
 _ZNSt8_Rb_treeIN6TagLib6StringESt4pairIKS1_NS0_3MP44ItemEESt10_Select1stIS6_ESt4lessIS1_ESaIS6_EE13_Rb_tree_implISA_Lb0EEC1Ev@Base 1.7-1ubuntu5
 _ZNSt8_Rb_treeIN6TagLib6StringESt4pairIKS1_NS0_3MP44ItemEESt10_Select1stIS6_ESt4lessIS1_ESaIS6_EE13_Rb_tree_implISA_Lb0EEC2ERKSA_RKSaISt13_Rb_tree_nodeIS6_EE@Base 1.7-1ubuntu5
 _ZNSt8_Rb_treeIN6TagLib6StringESt4pairIKS1_NS0_3MP44ItemEESt10_Select1stIS6_ESt4lessIS1_ESaIS6_EE13_Rb_tree_implISA_Lb0EEC2Ev@Base 1.7-1ubuntu5
 _ZNSt8_Rb_treeIN6TagLib6StringESt4pairIKS1_NS0_3MP44ItemEESt10_Select1stIS6_ESt4lessIS1_ESaIS6_EE13_Rb_tree_implISA_Lb0EED1Ev@Base 1.7-1ubuntu5
 _ZNSt8_Rb_treeIN6TagLib6StringESt4pairIKS1_NS0_3MP44ItemEESt10_Select1stIS6_ESt4lessIS1_ESaIS6_EE13_Rb_tree_implISA_Lb0EED2Ev@Base 1.7-1ubuntu5
 _ZNSt8_Rb_treeIN6TagLib6StringESt4pairIKS1_NS0_3MP44ItemEESt10_Select1stIS6_ESt4lessIS1_ESaIS6_EE14_M_create_nodeERKS6_@Base 1.7-1ubuntu5
 _ZNSt8_Rb_treeIN6TagLib6StringESt4pairIKS1_NS0_3MP44ItemEESt10_Select1stIS6_ESt4lessIS1_ESaIS6_EE14_M_lower_boundEPSt13_Rb_tree_nodeIS6_ESF_RS3_@Base 1.7-1ubuntu5
 _ZNSt8_Rb_treeIN6TagLib6StringESt4pairIKS1_NS0_3MP44ItemEESt10_Select1stIS6_ESt4lessIS1_ESaIS6_EE15_M_destroy_nodeEPSt13_Rb_tree_nodeIS6_E@Base 1.7-1ubuntu5
 _ZNSt8_Rb_treeIN6TagLib6StringESt4pairIKS1_NS0_3MP44ItemEESt10_Select1stIS6_ESt4lessIS1_ESaIS6_EE16_M_insert_uniqueERKS6_@Base 1.6-2~
 _ZNSt8_Rb_treeIN6TagLib6StringESt4pairIKS1_NS0_3MP44ItemEESt10_Select1stIS6_ESt4lessIS1_ESaIS6_EE17_M_insert_unique_ESt23_Rb_tree_const_iteratorIS6_ERKS6_@Base 1.6-2~
 _ZNSt8_Rb_treeIN6TagLib6StringESt4pairIKS1_NS0_3MP44ItemEESt10_Select1stIS6_ESt4lessIS1_ESaIS6_EE3endEv@Base 1.7-1ubuntu5
 _ZNSt8_Rb_treeIN6TagLib6StringESt4pairIKS1_NS0_3MP44ItemEESt10_Select1stIS6_ESt4lessIS1_ESaIS6_EE4findERS3_@Base 1.7
 _ZNSt8_Rb_treeIN6TagLib6StringESt4pairIKS1_NS0_3MP44ItemEESt10_Select1stIS6_ESt4lessIS1_ESaIS6_EE5beginEv@Base 1.7-1ubuntu5
 _ZNSt8_Rb_treeIN6TagLib6StringESt4pairIKS1_NS0_3MP44ItemEESt10_Select1stIS6_ESt4lessIS1_ESaIS6_EE6_M_endEv@Base 1.7-1ubuntu5
 _ZNSt8_Rb_treeIN6TagLib6StringESt4pairIKS1_NS0_3MP44ItemEESt10_Select1stIS6_ESt4lessIS1_ESaIS6_EE6_S_keyEPKSt13_Rb_tree_nodeIS6_E@Base 1.7-1ubuntu5
 _ZNSt8_Rb_treeIN6TagLib6StringESt4pairIKS1_NS0_3MP44ItemEESt10_Select1stIS6_ESt4lessIS1_ESaIS6_EE6_S_keyEPKSt18_Rb_tree_node_base@Base 1.7-1ubuntu5
 _ZNSt8_Rb_treeIN6TagLib6StringESt4pairIKS1_NS0_3MP44ItemEESt10_Select1stIS6_ESt4lessIS1_ESaIS6_EE7_M_copyEPKSt13_Rb_tree_nodeIS6_EPSE_@Base 1.6-2~
 _ZNSt8_Rb_treeIN6TagLib6StringESt4pairIKS1_NS0_3MP44ItemEESt10_Select1stIS6_ESt4lessIS1_ESaIS6_EE7_M_rootEv@Base 1.7-1ubuntu5
 _ZNSt8_Rb_treeIN6TagLib6StringESt4pairIKS1_NS0_3MP44ItemEESt10_Select1stIS6_ESt4lessIS1_ESaIS6_EE7_S_leftEPKSt18_Rb_tree_node_base@Base 1.7-1ubuntu5
 _ZNSt8_Rb_treeIN6TagLib6StringESt4pairIKS1_NS0_3MP44ItemEESt10_Select1stIS6_ESt4lessIS1_ESaIS6_EE7_S_leftEPSt18_Rb_tree_node_base@Base 1.7-1ubuntu5
 _ZNSt8_Rb_treeIN6TagLib6StringESt4pairIKS1_NS0_3MP44ItemEESt10_Select1stIS6_ESt4lessIS1_ESaIS6_EE8_M_beginEv@Base 1.7-1ubuntu5
 _ZNSt8_Rb_treeIN6TagLib6StringESt4pairIKS1_NS0_3MP44ItemEESt10_Select1stIS6_ESt4lessIS1_ESaIS6_EE8_M_eraseEPSt13_Rb_tree_nodeIS6_E@Base 1.6-2~
 _ZNSt8_Rb_treeIN6TagLib6StringESt4pairIKS1_NS0_3MP44ItemEESt10_Select1stIS6_ESt4lessIS1_ESaIS6_EE8_S_rightEPKSt18_Rb_tree_node_base@Base 1.7-1ubuntu5
 _ZNSt8_Rb_treeIN6TagLib6StringESt4pairIKS1_NS0_3MP44ItemEESt10_Select1stIS6_ESt4lessIS1_ESaIS6_EE8_S_rightEPSt18_Rb_tree_node_base@Base 1.7-1ubuntu5
 _ZNSt8_Rb_treeIN6TagLib6StringESt4pairIKS1_NS0_3MP44ItemEESt10_Select1stIS6_ESt4lessIS1_ESaIS6_EE8_S_valueEPKSt13_Rb_tree_nodeIS6_E@Base 1.7-1ubuntu5
 _ZNSt8_Rb_treeIN6TagLib6StringESt4pairIKS1_NS0_3MP44ItemEESt10_Select1stIS6_ESt4lessIS1_ESaIS6_EE8_S_valueEPKSt18_Rb_tree_node_base@Base 1.7-1ubuntu5
 _ZNSt8_Rb_treeIN6TagLib6StringESt4pairIKS1_NS0_3MP44ItemEESt10_Select1stIS6_ESt4lessIS1_ESaIS6_EEC1ERKSC_@Base 1.7-1ubuntu5
 _ZNSt8_Rb_treeIN6TagLib6StringESt4pairIKS1_NS0_3MP44ItemEESt10_Select1stIS6_ESt4lessIS1_ESaIS6_EEC1Ev@Base 1.7-1ubuntu5
 _ZNSt8_Rb_treeIN6TagLib6StringESt4pairIKS1_NS0_3MP44ItemEESt10_Select1stIS6_ESt4lessIS1_ESaIS6_EEC2ERKSC_@Base 1.7-1ubuntu5
 _ZNSt8_Rb_treeIN6TagLib6StringESt4pairIKS1_NS0_3MP44ItemEESt10_Select1stIS6_ESt4lessIS1_ESaIS6_EEC2Ev@Base 1.7-1ubuntu5
 _ZNSt8_Rb_treeIN6TagLib6StringESt4pairIKS1_NS0_3MP44ItemEESt10_Select1stIS6_ESt4lessIS1_ESaIS6_EED1Ev@Base 1.7-1ubuntu5
 _ZNSt8_Rb_treeIN6TagLib6StringESt4pairIKS1_NS0_3MP44ItemEESt10_Select1stIS6_ESt4lessIS1_ESaIS6_EED2Ev@Base 1.7-1ubuntu5
 _ZNSt8_Rb_treeIN6TagLib6StringESt4pairIKS1_NS0_4ListINS0_3ASF9AttributeEEEESt10_Select1stIS8_ESt4lessIS1_ESaIS8_EE10_M_insert_EPKSt18_Rb_tree_node_baseSH_RKS8_@Base 1.6-2~
 _ZNSt8_Rb_treeIN6TagLib6StringESt4pairIKS1_NS0_4ListINS0_3ASF9AttributeEEEESt10_Select1stIS8_ESt4lessIS1_ESaIS8_EE10_S_maximumEPSt18_Rb_tree_node_base@Base 1.7-1ubuntu5
 _ZNSt8_Rb_treeIN6TagLib6StringESt4pairIKS1_NS0_4ListINS0_3ASF9AttributeEEEESt10_Select1stIS8_ESt4lessIS1_ESaIS8_EE10_S_minimumEPSt18_Rb_tree_node_base@Base 1.7-1ubuntu5
 _ZNSt8_Rb_treeIN6TagLib6StringESt4pairIKS1_NS0_4ListINS0_3ASF9AttributeEEEESt10_Select1stIS8_ESt4lessIS1_ESaIS8_EE11_M_get_nodeEv@Base 1.7-1ubuntu5
 _ZNSt8_Rb_treeIN6TagLib6StringESt4pairIKS1_NS0_4ListINS0_3ASF9AttributeEEEESt10_Select1stIS8_ESt4lessIS1_ESaIS8_EE11_M_leftmostEv@Base 1.7-1ubuntu5
 _ZNSt8_Rb_treeIN6TagLib6StringESt4pairIKS1_NS0_4ListINS0_3ASF9AttributeEEEESt10_Select1stIS8_ESt4lessIS1_ESaIS8_EE11_M_put_nodeEPSt13_Rb_tree_nodeIS8_E@Base 1.7-1ubuntu5
 _ZNSt8_Rb_treeIN6TagLib6StringESt4pairIKS1_NS0_4ListINS0_3ASF9AttributeEEEESt10_Select1stIS8_ESt4lessIS1_ESaIS8_EE11lower_boundERS3_@Base 1.7-1ubuntu5
 _ZNSt8_Rb_treeIN6TagLib6StringESt4pairIKS1_NS0_4ListINS0_3ASF9AttributeEEEESt10_Select1stIS8_ESt4lessIS1_ESaIS8_EE12_M_erase_auxESt23_Rb_tree_const_iteratorIS8_E@Base 1.7-1ubuntu5
 _ZNSt8_Rb_treeIN6TagLib6StringESt4pairIKS1_NS0_4ListINS0_3ASF9AttributeEEEESt10_Select1stIS8_ESt4lessIS1_ESaIS8_EE12_M_rightmostEv@Base 1.7-1ubuntu5
 _ZNSt8_Rb_treeIN6TagLib6StringESt4pairIKS1_NS0_4ListINS0_3ASF9AttributeEEEESt10_Select1stIS8_ESt4lessIS1_ESaIS8_EE13_M_clone_nodeEPKSt13_Rb_tree_nodeIS8_E@Base 1.7-1ubuntu5
 _ZNSt8_Rb_treeIN6TagLib6StringESt4pairIKS1_NS0_4ListINS0_3ASF9AttributeEEEESt10_Select1stIS8_ESt4lessIS1_ESaIS8_EE13_Rb_tree_implISC_Lb0EE13_M_initializeEv@Base 1.7-1ubuntu5
 _ZNSt8_Rb_treeIN6TagLib6StringESt4pairIKS1_NS0_4ListINS0_3ASF9AttributeEEEESt10_Select1stIS8_ESt4lessIS1_ESaIS8_EE13_Rb_tree_implISC_Lb0EEC1ERKSC_RKSaISt13_Rb_tree_nodeIS8_EE@Base 1.7-1ubuntu5
 _ZNSt8_Rb_treeIN6TagLib6StringESt4pairIKS1_NS0_4ListINS0_3ASF9AttributeEEEESt10_Select1stIS8_ESt4lessIS1_ESaIS8_EE13_Rb_tree_implISC_Lb0EEC1Ev@Base 1.7-1ubuntu5
 _ZNSt8_Rb_treeIN6TagLib6StringESt4pairIKS1_NS0_4ListINS0_3ASF9AttributeEEEESt10_Select1stIS8_ESt4lessIS1_ESaIS8_EE13_Rb_tree_implISC_Lb0EEC2ERKSC_RKSaISt13_Rb_tree_nodeIS8_EE@Base 1.7-1ubuntu5
 _ZNSt8_Rb_treeIN6TagLib6StringESt4pairIKS1_NS0_4ListINS0_3ASF9AttributeEEEESt10_Select1stIS8_ESt4lessIS1_ESaIS8_EE13_Rb_tree_implISC_Lb0EEC2Ev@Base 1.7-1ubuntu5
 _ZNSt8_Rb_treeIN6TagLib6StringESt4pairIKS1_NS0_4ListINS0_3ASF9AttributeEEEESt10_Select1stIS8_ESt4lessIS1_ESaIS8_EE13_Rb_tree_implISC_Lb0EED1Ev@Base 1.7-1ubuntu5
 _ZNSt8_Rb_treeIN6TagLib6StringESt4pairIKS1_NS0_4ListINS0_3ASF9AttributeEEEESt10_Select1stIS8_ESt4lessIS1_ESaIS8_EE13_Rb_tree_implISC_Lb0EED2Ev@Base 1.7-1ubuntu5
 _ZNSt8_Rb_treeIN6TagLib6StringESt4pairIKS1_NS0_4ListINS0_3ASF9AttributeEEEESt10_Select1stIS8_ESt4lessIS1_ESaIS8_EE14_M_create_nodeERKS8_@Base 1.7-1ubuntu5
 _ZNSt8_Rb_treeIN6TagLib6StringESt4pairIKS1_NS0_4ListINS0_3ASF9AttributeEEEESt10_Select1stIS8_ESt4lessIS1_ESaIS8_EE14_M_lower_boundEPSt13_Rb_tree_nodeIS8_ESH_RS3_@Base 1.7-1ubuntu5
 _ZNSt8_Rb_treeIN6TagLib6StringESt4pairIKS1_NS0_4ListINS0_3ASF9AttributeEEEESt10_Select1stIS8_ESt4lessIS1_ESaIS8_EE15_M_destroy_nodeEPSt13_Rb_tree_nodeIS8_E@Base 1.7-1ubuntu5
 _ZNSt8_Rb_treeIN6TagLib6StringESt4pairIKS1_NS0_4ListINS0_3ASF9AttributeEEEESt10_Select1stIS8_ESt4lessIS1_ESaIS8_EE16_M_insert_uniqueERKS8_@Base 1.6-2~
 _ZNSt8_Rb_treeIN6TagLib6StringESt4pairIKS1_NS0_4ListINS0_3ASF9AttributeEEEESt10_Select1stIS8_ESt4lessIS1_ESaIS8_EE17_M_insert_unique_ESt23_Rb_tree_const_iteratorIS8_ERKS8_@Base 1.6-2~
 _ZNSt8_Rb_treeIN6TagLib6StringESt4pairIKS1_NS0_4ListINS0_3ASF9AttributeEEEESt10_Select1stIS8_ESt4lessIS1_ESaIS8_EE3endEv@Base 1.7-1ubuntu5
 _ZNSt8_Rb_treeIN6TagLib6StringESt4pairIKS1_NS0_4ListINS0_3ASF9AttributeEEEESt10_Select1stIS8_ESt4lessIS1_ESaIS8_EE4findERS3_@Base 1.7
 _ZNSt8_Rb_treeIN6TagLib6StringESt4pairIKS1_NS0_4ListINS0_3ASF9AttributeEEEESt10_Select1stIS8_ESt4lessIS1_ESaIS8_EE5beginEv@Base 1.7-1ubuntu5
 _ZNSt8_Rb_treeIN6TagLib6StringESt4pairIKS1_NS0_4ListINS0_3ASF9AttributeEEEESt10_Select1stIS8_ESt4lessIS1_ESaIS8_EE5eraseESt17_Rb_tree_iteratorIS8_E@Base 1.7-1ubuntu5
 _ZNSt8_Rb_treeIN6TagLib6StringESt4pairIKS1_NS0_4ListINS0_3ASF9AttributeEEEESt10_Select1stIS8_ESt4lessIS1_ESaIS8_EE6_M_endEv@Base 1.7-1ubuntu5
 _ZNSt8_Rb_treeIN6TagLib6StringESt4pairIKS1_NS0_4ListINS0_3ASF9AttributeEEEESt10_Select1stIS8_ESt4lessIS1_ESaIS8_EE6_S_keyEPKSt13_Rb_tree_nodeIS8_E@Base 1.7-1ubuntu5
 _ZNSt8_Rb_treeIN6TagLib6StringESt4pairIKS1_NS0_4ListINS0_3ASF9AttributeEEEESt10_Select1stIS8_ESt4lessIS1_ESaIS8_EE6_S_keyEPKSt18_Rb_tree_node_base@Base 1.7-1ubuntu5
 _ZNSt8_Rb_treeIN6TagLib6StringESt4pairIKS1_NS0_4ListINS0_3ASF9AttributeEEEESt10_Select1stIS8_ESt4lessIS1_ESaIS8_EE7_M_copyEPKSt13_Rb_tree_nodeIS8_EPSG_@Base 1.6-2~
 _ZNSt8_Rb_treeIN6TagLib6StringESt4pairIKS1_NS0_4ListINS0_3ASF9AttributeEEEESt10_Select1stIS8_ESt4lessIS1_ESaIS8_EE7_M_rootEv@Base 1.7-1ubuntu5
 _ZNSt8_Rb_treeIN6TagLib6StringESt4pairIKS1_NS0_4ListINS0_3ASF9AttributeEEEESt10_Select1stIS8_ESt4lessIS1_ESaIS8_EE7_S_leftEPKSt18_Rb_tree_node_base@Base 1.7-1ubuntu5
 _ZNSt8_Rb_treeIN6TagLib6StringESt4pairIKS1_NS0_4ListINS0_3ASF9AttributeEEEESt10_Select1stIS8_ESt4lessIS1_ESaIS8_EE7_S_leftEPSt18_Rb_tree_node_base@Base 1.7-1ubuntu5
 _ZNSt8_Rb_treeIN6TagLib6StringESt4pairIKS1_NS0_4ListINS0_3ASF9AttributeEEEESt10_Select1stIS8_ESt4lessIS1_ESaIS8_EE8_M_beginEv@Base 1.7-1ubuntu5
 _ZNSt8_Rb_treeIN6TagLib6StringESt4pairIKS1_NS0_4ListINS0_3ASF9AttributeEEEESt10_Select1stIS8_ESt4lessIS1_ESaIS8_EE8_M_eraseEPSt13_Rb_tree_nodeIS8_E@Base 1.6-2~
 _ZNSt8_Rb_treeIN6TagLib6StringESt4pairIKS1_NS0_4ListINS0_3ASF9AttributeEEEESt10_Select1stIS8_ESt4lessIS1_ESaIS8_EE8_S_rightEPKSt18_Rb_tree_node_base@Base 1.7-1ubuntu5
 _ZNSt8_Rb_treeIN6TagLib6StringESt4pairIKS1_NS0_4ListINS0_3ASF9AttributeEEEESt10_Select1stIS8_ESt4lessIS1_ESaIS8_EE8_S_rightEPSt18_Rb_tree_node_base@Base 1.7-1ubuntu5
 _ZNSt8_Rb_treeIN6TagLib6StringESt4pairIKS1_NS0_4ListINS0_3ASF9AttributeEEEESt10_Select1stIS8_ESt4lessIS1_ESaIS8_EE8_S_valueEPKSt13_Rb_tree_nodeIS8_E@Base 1.7-1ubuntu5
 _ZNSt8_Rb_treeIN6TagLib6StringESt4pairIKS1_NS0_4ListINS0_3ASF9AttributeEEEESt10_Select1stIS8_ESt4lessIS1_ESaIS8_EE8_S_valueEPKSt18_Rb_tree_node_base@Base 1.7-1ubuntu5
 _ZNSt8_Rb_treeIN6TagLib6StringESt4pairIKS1_NS0_4ListINS0_3ASF9AttributeEEEESt10_Select1stIS8_ESt4lessIS1_ESaIS8_EEC1ERKSE_@Base 1.7-1ubuntu5
 _ZNSt8_Rb_treeIN6TagLib6StringESt4pairIKS1_NS0_4ListINS0_3ASF9AttributeEEEESt10_Select1stIS8_ESt4lessIS1_ESaIS8_EEC1Ev@Base 1.7-1ubuntu5
 _ZNSt8_Rb_treeIN6TagLib6StringESt4pairIKS1_NS0_4ListINS0_3ASF9AttributeEEEESt10_Select1stIS8_ESt4lessIS1_ESaIS8_EEC2ERKSE_@Base 1.7-1ubuntu5
 _ZNSt8_Rb_treeIN6TagLib6StringESt4pairIKS1_NS0_4ListINS0_3ASF9AttributeEEEESt10_Select1stIS8_ESt4lessIS1_ESaIS8_EEC2Ev@Base 1.7-1ubuntu5
 _ZNSt8_Rb_treeIN6TagLib6StringESt4pairIKS1_NS0_4ListINS0_3ASF9AttributeEEEESt10_Select1stIS8_ESt4lessIS1_ESaIS8_EED1Ev@Base 1.7-1ubuntu5
 _ZNSt8_Rb_treeIN6TagLib6StringESt4pairIKS1_NS0_4ListINS0_3ASF9AttributeEEEESt10_Select1stIS8_ESt4lessIS1_ESaIS8_EED2Ev@Base 1.7-1ubuntu5
 _ZNSt8_Rb_treeIN6TagLib6StringESt4pairIKS1_iESt10_Select1stIS4_ESt4lessIS1_ESaIS4_EE10_M_insert_EPKSt18_Rb_tree_node_baseSD_RKS4_@Base 1.5
 _ZNSt8_Rb_treeIN6TagLib6StringESt4pairIKS1_iESt10_Select1stIS4_ESt4lessIS1_ESaIS4_EE10_S_maximumEPSt18_Rb_tree_node_base@Base 1.7-1ubuntu5
 _ZNSt8_Rb_treeIN6TagLib6StringESt4pairIKS1_iESt10_Select1stIS4_ESt4lessIS1_ESaIS4_EE10_S_minimumEPSt18_Rb_tree_node_base@Base 1.7-1ubuntu5
 _ZNSt8_Rb_treeIN6TagLib6StringESt4pairIKS1_iESt10_Select1stIS4_ESt4lessIS1_ESaIS4_EE11_M_get_nodeEv@Base 1.7-1ubuntu5
 _ZNSt8_Rb_treeIN6TagLib6StringESt4pairIKS1_iESt10_Select1stIS4_ESt4lessIS1_ESaIS4_EE11_M_leftmostEv@Base 1.7-1ubuntu5
 _ZNSt8_Rb_treeIN6TagLib6StringESt4pairIKS1_iESt10_Select1stIS4_ESt4lessIS1_ESaIS4_EE11_M_put_nodeEPSt13_Rb_tree_nodeIS4_E@Base 1.7-1ubuntu5
 _ZNSt8_Rb_treeIN6TagLib6StringESt4pairIKS1_iESt10_Select1stIS4_ESt4lessIS1_ESaIS4_EE11lower_boundERS3_@Base 1.7-1ubuntu5
 _ZNSt8_Rb_treeIN6TagLib6StringESt4pairIKS1_iESt10_Select1stIS4_ESt4lessIS1_ESaIS4_EE12_M_rightmostEv@Base 1.7-1ubuntu5
 _ZNSt8_Rb_treeIN6TagLib6StringESt4pairIKS1_iESt10_Select1stIS4_ESt4lessIS1_ESaIS4_EE13_M_clone_nodeEPKSt13_Rb_tree_nodeIS4_E@Base 1.7-1ubuntu5
 _ZNSt8_Rb_treeIN6TagLib6StringESt4pairIKS1_iESt10_Select1stIS4_ESt4lessIS1_ESaIS4_EE13_Rb_tree_implIS8_Lb0EE13_M_initializeEv@Base 1.7-1ubuntu5
 _ZNSt8_Rb_treeIN6TagLib6StringESt4pairIKS1_iESt10_Select1stIS4_ESt4lessIS1_ESaIS4_EE13_Rb_tree_implIS8_Lb0EEC1ERKS8_RKSaISt13_Rb_tree_nodeIS4_EE@Base 1.7-1ubuntu5
 _ZNSt8_Rb_treeIN6TagLib6StringESt4pairIKS1_iESt10_Select1stIS4_ESt4lessIS1_ESaIS4_EE13_Rb_tree_implIS8_Lb0EEC1Ev@Base 1.7-1ubuntu5
 _ZNSt8_Rb_treeIN6TagLib6StringESt4pairIKS1_iESt10_Select1stIS4_ESt4lessIS1_ESaIS4_EE13_Rb_tree_implIS8_Lb0EEC2ERKS8_RKSaISt13_Rb_tree_nodeIS4_EE@Base 1.7-1ubuntu5
 _ZNSt8_Rb_treeIN6TagLib6StringESt4pairIKS1_iESt10_Select1stIS4_ESt4lessIS1_ESaIS4_EE13_Rb_tree_implIS8_Lb0EEC2Ev@Base 1.7-1ubuntu5
 _ZNSt8_Rb_treeIN6TagLib6StringESt4pairIKS1_iESt10_Select1stIS4_ESt4lessIS1_ESaIS4_EE13_Rb_tree_implIS8_Lb0EED1Ev@Base 1.7-1ubuntu5
 _ZNSt8_Rb_treeIN6TagLib6StringESt4pairIKS1_iESt10_Select1stIS4_ESt4lessIS1_ESaIS4_EE13_Rb_tree_implIS8_Lb0EED2Ev@Base 1.7-1ubuntu5
 _ZNSt8_Rb_treeIN6TagLib6StringESt4pairIKS1_iESt10_Select1stIS4_ESt4lessIS1_ESaIS4_EE14_M_create_nodeERKS4_@Base 1.7-1ubuntu5
 _ZNSt8_Rb_treeIN6TagLib6StringESt4pairIKS1_iESt10_Select1stIS4_ESt4lessIS1_ESaIS4_EE14_M_lower_boundEPSt13_Rb_tree_nodeIS4_ESD_RS3_@Base 1.7-1ubuntu5
 _ZNSt8_Rb_treeIN6TagLib6StringESt4pairIKS1_iESt10_Select1stIS4_ESt4lessIS1_ESaIS4_EE15_M_destroy_nodeEPSt13_Rb_tree_nodeIS4_E@Base 1.7-1ubuntu5
 _ZNSt8_Rb_treeIN6TagLib6StringESt4pairIKS1_iESt10_Select1stIS4_ESt4lessIS1_ESaIS4_EE16_M_insert_uniqueERKS4_@Base 1.4 1
 _ZNSt8_Rb_treeIN6TagLib6StringESt4pairIKS1_iESt10_Select1stIS4_ESt4lessIS1_ESaIS4_EE17_M_insert_unique_ESt23_Rb_tree_const_iteratorIS4_ERKS4_@Base 1.5
 _ZNSt8_Rb_treeIN6TagLib6StringESt4pairIKS1_iESt10_Select1stIS4_ESt4lessIS1_ESaIS4_EE3endEv@Base 1.7-1ubuntu5
 _ZNSt8_Rb_treeIN6TagLib6StringESt4pairIKS1_iESt10_Select1stIS4_ESt4lessIS1_ESaIS4_EE4findERS3_@Base 1.7
 _ZNSt8_Rb_treeIN6TagLib6StringESt4pairIKS1_iESt10_Select1stIS4_ESt4lessIS1_ESaIS4_EE5beginEv@Base 1.7-1ubuntu5
 _ZNSt8_Rb_treeIN6TagLib6StringESt4pairIKS1_iESt10_Select1stIS4_ESt4lessIS1_ESaIS4_EE6_M_endEv@Base 1.7-1ubuntu5
 _ZNSt8_Rb_treeIN6TagLib6StringESt4pairIKS1_iESt10_Select1stIS4_ESt4lessIS1_ESaIS4_EE6_S_keyEPKSt13_Rb_tree_nodeIS4_E@Base 1.7-1ubuntu5
 _ZNSt8_Rb_treeIN6TagLib6StringESt4pairIKS1_iESt10_Select1stIS4_ESt4lessIS1_ESaIS4_EE6_S_keyEPKSt18_Rb_tree_node_base@Base 1.7-1ubuntu5
 _ZNSt8_Rb_treeIN6TagLib6StringESt4pairIKS1_iESt10_Select1stIS4_ESt4lessIS1_ESaIS4_EE7_M_copyEPKSt13_Rb_tree_nodeIS4_EPSC_@Base 1.4 1
 _ZNSt8_Rb_treeIN6TagLib6StringESt4pairIKS1_iESt10_Select1stIS4_ESt4lessIS1_ESaIS4_EE7_M_rootEv@Base 1.7-1ubuntu5
 _ZNSt8_Rb_treeIN6TagLib6StringESt4pairIKS1_iESt10_Select1stIS4_ESt4lessIS1_ESaIS4_EE7_S_leftEPKSt18_Rb_tree_node_base@Base 1.7-1ubuntu5
 _ZNSt8_Rb_treeIN6TagLib6StringESt4pairIKS1_iESt10_Select1stIS4_ESt4lessIS1_ESaIS4_EE7_S_leftEPSt18_Rb_tree_node_base@Base 1.7-1ubuntu5
 _ZNSt8_Rb_treeIN6TagLib6StringESt4pairIKS1_iESt10_Select1stIS4_ESt4lessIS1_ESaIS4_EE8_M_beginEv@Base 1.7-1ubuntu5
 _ZNSt8_Rb_treeIN6TagLib6StringESt4pairIKS1_iESt10_Select1stIS4_ESt4lessIS1_ESaIS4_EE8_M_eraseEPSt13_Rb_tree_nodeIS4_E@Base 1.4 1
 _ZNSt8_Rb_treeIN6TagLib6StringESt4pairIKS1_iESt10_Select1stIS4_ESt4lessIS1_ESaIS4_EE8_S_rightEPKSt18_Rb_tree_node_base@Base 1.7-1ubuntu5
 _ZNSt8_Rb_treeIN6TagLib6StringESt4pairIKS1_iESt10_Select1stIS4_ESt4lessIS1_ESaIS4_EE8_S_rightEPSt18_Rb_tree_node_base@Base 1.7-1ubuntu5
 _ZNSt8_Rb_treeIN6TagLib6StringESt4pairIKS1_iESt10_Select1stIS4_ESt4lessIS1_ESaIS4_EE8_S_valueEPKSt13_Rb_tree_nodeIS4_E@Base 1.7-1ubuntu5
 _ZNSt8_Rb_treeIN6TagLib6StringESt4pairIKS1_iESt10_Select1stIS4_ESt4lessIS1_ESaIS4_EE8_S_valueEPKSt18_Rb_tree_node_base@Base 1.7-1ubuntu5
 _ZNSt8_Rb_treeIN6TagLib6StringESt4pairIKS1_iESt10_Select1stIS4_ESt4lessIS1_ESaIS4_EEC1ERKSA_@Base 1.7-1ubuntu5
 _ZNSt8_Rb_treeIN6TagLib6StringESt4pairIKS1_iESt10_Select1stIS4_ESt4lessIS1_ESaIS4_EEC1Ev@Base 1.7-1ubuntu5
 _ZNSt8_Rb_treeIN6TagLib6StringESt4pairIKS1_iESt10_Select1stIS4_ESt4lessIS1_ESaIS4_EEC2ERKSA_@Base 1.7-1ubuntu5
 _ZNSt8_Rb_treeIN6TagLib6StringESt4pairIKS1_iESt10_Select1stIS4_ESt4lessIS1_ESaIS4_EEC2Ev@Base 1.7-1ubuntu5
 _ZNSt8_Rb_treeIN6TagLib6StringESt4pairIKS1_iESt10_Select1stIS4_ESt4lessIS1_ESaIS4_EED1Ev@Base 1.7-1ubuntu5
 _ZNSt8_Rb_treeIN6TagLib6StringESt4pairIKS1_iESt10_Select1stIS4_ESt4lessIS1_ESaIS4_EED2Ev@Base 1.7-1ubuntu5
 _ZNSt8_Rb_treeIiSt4pairIKiN6TagLib10ByteVectorEESt10_Select1stIS4_ESt4lessIiESaIS4_EE10_M_insert_EPKSt18_Rb_tree_node_baseSD_RKS4_@Base 1.5
 _ZNSt8_Rb_treeIiSt4pairIKiN6TagLib10ByteVectorEESt10_Select1stIS4_ESt4lessIiESaIS4_EE10_S_maximumEPSt18_Rb_tree_node_base@Base 1.7-1ubuntu5
 _ZNSt8_Rb_treeIiSt4pairIKiN6TagLib10ByteVectorEESt10_Select1stIS4_ESt4lessIiESaIS4_EE10_S_minimumEPSt18_Rb_tree_node_base@Base 1.7-1ubuntu5
 _ZNSt8_Rb_treeIiSt4pairIKiN6TagLib10ByteVectorEESt10_Select1stIS4_ESt4lessIiESaIS4_EE11_M_get_nodeEv@Base 1.7-1ubuntu5
 _ZNSt8_Rb_treeIiSt4pairIKiN6TagLib10ByteVectorEESt10_Select1stIS4_ESt4lessIiESaIS4_EE11_M_leftmostEv@Base 1.7-1ubuntu5
 _ZNSt8_Rb_treeIiSt4pairIKiN6TagLib10ByteVectorEESt10_Select1stIS4_ESt4lessIiESaIS4_EE11_M_put_nodeEPSt13_Rb_tree_nodeIS4_E@Base 1.7-1ubuntu5
 _ZNSt8_Rb_treeIiSt4pairIKiN6TagLib10ByteVectorEESt10_Select1stIS4_ESt4lessIiESaIS4_EE11lower_boundERS1_@Base 1.7-1ubuntu5
 _ZNSt8_Rb_treeIiSt4pairIKiN6TagLib10ByteVectorEESt10_Select1stIS4_ESt4lessIiESaIS4_EE12_M_rightmostEv@Base 1.7-1ubuntu5
 _ZNSt8_Rb_treeIiSt4pairIKiN6TagLib10ByteVectorEESt10_Select1stIS4_ESt4lessIiESaIS4_EE13_M_clone_nodeEPKSt13_Rb_tree_nodeIS4_E@Base 1.7-1ubuntu5
 _ZNSt8_Rb_treeIiSt4pairIKiN6TagLib10ByteVectorEESt10_Select1stIS4_ESt4lessIiESaIS4_EE13_Rb_tree_implIS8_Lb0EE13_M_initializeEv@Base 1.7-1ubuntu5
 _ZNSt8_Rb_treeIiSt4pairIKiN6TagLib10ByteVectorEESt10_Select1stIS4_ESt4lessIiESaIS4_EE13_Rb_tree_implIS8_Lb0EEC1ERKS8_RKSaISt13_Rb_tree_nodeIS4_EE@Base 1.7-1ubuntu5
 _ZNSt8_Rb_treeIiSt4pairIKiN6TagLib10ByteVectorEESt10_Select1stIS4_ESt4lessIiESaIS4_EE13_Rb_tree_implIS8_Lb0EEC1Ev@Base 1.7-1ubuntu5
 _ZNSt8_Rb_treeIiSt4pairIKiN6TagLib10ByteVectorEESt10_Select1stIS4_ESt4lessIiESaIS4_EE13_Rb_tree_implIS8_Lb0EEC2ERKS8_RKSaISt13_Rb_tree_nodeIS4_EE@Base 1.7-1ubuntu5
 _ZNSt8_Rb_treeIiSt4pairIKiN6TagLib10ByteVectorEESt10_Select1stIS4_ESt4lessIiESaIS4_EE13_Rb_tree_implIS8_Lb0EEC2Ev@Base 1.7-1ubuntu5
 _ZNSt8_Rb_treeIiSt4pairIKiN6TagLib10ByteVectorEESt10_Select1stIS4_ESt4lessIiESaIS4_EE13_Rb_tree_implIS8_Lb0EED1Ev@Base 1.7-1ubuntu5
 _ZNSt8_Rb_treeIiSt4pairIKiN6TagLib10ByteVectorEESt10_Select1stIS4_ESt4lessIiESaIS4_EE13_Rb_tree_implIS8_Lb0EED2Ev@Base 1.7-1ubuntu5
 _ZNSt8_Rb_treeIiSt4pairIKiN6TagLib10ByteVectorEESt10_Select1stIS4_ESt4lessIiESaIS4_EE14_M_create_nodeERKS4_@Base 1.7-1ubuntu5
 _ZNSt8_Rb_treeIiSt4pairIKiN6TagLib10ByteVectorEESt10_Select1stIS4_ESt4lessIiESaIS4_EE14_M_lower_boundEPSt13_Rb_tree_nodeIS4_ESD_RS1_@Base 1.7-1ubuntu5
 _ZNSt8_Rb_treeIiSt4pairIKiN6TagLib10ByteVectorEESt10_Select1stIS4_ESt4lessIiESaIS4_EE15_M_destroy_nodeEPSt13_Rb_tree_nodeIS4_E@Base 1.7-1ubuntu5
 _ZNSt8_Rb_treeIiSt4pairIKiN6TagLib10ByteVectorEESt10_Select1stIS4_ESt4lessIiESaIS4_EE16_M_insert_uniqueERKS4_@Base 1.4 1
 _ZNSt8_Rb_treeIiSt4pairIKiN6TagLib10ByteVectorEESt10_Select1stIS4_ESt4lessIiESaIS4_EE17_M_insert_unique_ESt23_Rb_tree_const_iteratorIS4_ERKS4_@Base 1.5
 _ZNSt8_Rb_treeIiSt4pairIKiN6TagLib10ByteVectorEESt10_Select1stIS4_ESt4lessIiESaIS4_EE3endEv@Base 1.7-1ubuntu5
 _ZNSt8_Rb_treeIiSt4pairIKiN6TagLib10ByteVectorEESt10_Select1stIS4_ESt4lessIiESaIS4_EE4findERS1_@Base 1.7
 _ZNSt8_Rb_treeIiSt4pairIKiN6TagLib10ByteVectorEESt10_Select1stIS4_ESt4lessIiESaIS4_EE5beginEv@Base 1.7-1ubuntu5
 _ZNSt8_Rb_treeIiSt4pairIKiN6TagLib10ByteVectorEESt10_Select1stIS4_ESt4lessIiESaIS4_EE5clearEv@Base 1.7-1ubuntu5
 _ZNSt8_Rb_treeIiSt4pairIKiN6TagLib10ByteVectorEESt10_Select1stIS4_ESt4lessIiESaIS4_EE6_M_endEv@Base 1.7-1ubuntu5
 _ZNSt8_Rb_treeIiSt4pairIKiN6TagLib10ByteVectorEESt10_Select1stIS4_ESt4lessIiESaIS4_EE6_S_keyEPKSt13_Rb_tree_nodeIS4_E@Base 1.7-1ubuntu5
 _ZNSt8_Rb_treeIiSt4pairIKiN6TagLib10ByteVectorEESt10_Select1stIS4_ESt4lessIiESaIS4_EE6_S_keyEPKSt18_Rb_tree_node_base@Base 1.7-1ubuntu5
 _ZNSt8_Rb_treeIiSt4pairIKiN6TagLib10ByteVectorEESt10_Select1stIS4_ESt4lessIiESaIS4_EE7_M_copyEPKSt13_Rb_tree_nodeIS4_EPSC_@Base 1.4 1
 _ZNSt8_Rb_treeIiSt4pairIKiN6TagLib10ByteVectorEESt10_Select1stIS4_ESt4lessIiESaIS4_EE7_M_rootEv@Base 1.7-1ubuntu5
 _ZNSt8_Rb_treeIiSt4pairIKiN6TagLib10ByteVectorEESt10_Select1stIS4_ESt4lessIiESaIS4_EE7_S_leftEPKSt18_Rb_tree_node_base@Base 1.7-1ubuntu5
 _ZNSt8_Rb_treeIiSt4pairIKiN6TagLib10ByteVectorEESt10_Select1stIS4_ESt4lessIiESaIS4_EE7_S_leftEPSt18_Rb_tree_node_base@Base 1.7-1ubuntu5
 _ZNSt8_Rb_treeIiSt4pairIKiN6TagLib10ByteVectorEESt10_Select1stIS4_ESt4lessIiESaIS4_EE8_M_beginEv@Base 1.7-1ubuntu5
 _ZNSt8_Rb_treeIiSt4pairIKiN6TagLib10ByteVectorEESt10_Select1stIS4_ESt4lessIiESaIS4_EE8_M_eraseEPSt13_Rb_tree_nodeIS4_E@Base 1.4 1
 _ZNSt8_Rb_treeIiSt4pairIKiN6TagLib10ByteVectorEESt10_Select1stIS4_ESt4lessIiESaIS4_EE8_S_rightEPKSt18_Rb_tree_node_base@Base 1.7-1ubuntu5
 _ZNSt8_Rb_treeIiSt4pairIKiN6TagLib10ByteVectorEESt10_Select1stIS4_ESt4lessIiESaIS4_EE8_S_rightEPSt18_Rb_tree_node_base@Base 1.7-1ubuntu5
 _ZNSt8_Rb_treeIiSt4pairIKiN6TagLib10ByteVectorEESt10_Select1stIS4_ESt4lessIiESaIS4_EE8_S_valueEPKSt13_Rb_tree_nodeIS4_E@Base 1.7-1ubuntu5
 _ZNSt8_Rb_treeIiSt4pairIKiN6TagLib10ByteVectorEESt10_Select1stIS4_ESt4lessIiESaIS4_EE8_S_valueEPKSt18_Rb_tree_node_base@Base 1.7-1ubuntu5
 _ZNSt8_Rb_treeIiSt4pairIKiN6TagLib10ByteVectorEESt10_Select1stIS4_ESt4lessIiESaIS4_EEC1ERKSA_@Base 1.7-1ubuntu5
 _ZNSt8_Rb_treeIiSt4pairIKiN6TagLib10ByteVectorEESt10_Select1stIS4_ESt4lessIiESaIS4_EEC1Ev@Base 1.7-1ubuntu5
 _ZNSt8_Rb_treeIiSt4pairIKiN6TagLib10ByteVectorEESt10_Select1stIS4_ESt4lessIiESaIS4_EEC2ERKSA_@Base 1.7-1ubuntu5
 _ZNSt8_Rb_treeIiSt4pairIKiN6TagLib10ByteVectorEESt10_Select1stIS4_ESt4lessIiESaIS4_EEC2Ev@Base 1.7-1ubuntu5
 _ZNSt8_Rb_treeIiSt4pairIKiN6TagLib10ByteVectorEESt10_Select1stIS4_ESt4lessIiESaIS4_EED1Ev@Base 1.7-1ubuntu5
 _ZNSt8_Rb_treeIiSt4pairIKiN6TagLib10ByteVectorEESt10_Select1stIS4_ESt4lessIiESaIS4_EED2Ev@Base 1.7-1ubuntu5
 _ZNSt9_SanitizeILj8EE14_S_do_sanitizeERm@Base 1.7-1ubuntu5
 _ZSt10_ConstructI5ChunkS0_EvPT_RKT0_@Base 1.7-1ubuntu5
 _ZSt10_ConstructIN6TagLib4ListIiEES2_EvPT_RKT0_@Base 1.7-1ubuntu5
 _ZSt10__distanceIN9__gnu_cxx17__normal_iteratorIPKcSt6vectorIcSaIcEEEEENSt15iterator_traitsIT_E15difference_typeES9_S9_St26random_access_iterator_tag@Base 1.7-1ubuntu5
 _ZSt10__distanceIN9__gnu_cxx17__normal_iteratorIPKwSbIwSt11char_traitsIwESaIwEEEEENSt15iterator_traitsIT_E15difference_typeESA_SA_St26random_access_iterator_tag@Base 1.7-1ubuntu5
 _ZSt10__distanceISt20_List_const_iteratorIN6TagLib10ByteVectorEEENSt15iterator_traitsIT_E15difference_typeES5_S5_St18input_iterator_tag@Base 1.7-1ubuntu5
 _ZSt10__distanceISt20_List_const_iteratorIN6TagLib3ASF9AttributeEEENSt15iterator_traitsIT_E15difference_typeES6_S6_St18input_iterator_tag@Base 1.7-1ubuntu5
 _ZSt10__distanceISt20_List_const_iteratorIN6TagLib3MP48CoverArtEEENSt15iterator_traitsIT_E15difference_typeES6_S6_St18input_iterator_tag@Base 1.7-1ubuntu5
 _ZSt10__distanceISt20_List_const_iteratorIN6TagLib6StringEEENSt15iterator_traitsIT_E15difference_typeES5_S5_St18input_iterator_tag@Base 1.7-1ubuntu5
 _ZSt10__distanceISt20_List_const_iteratorIPN6TagLib3ASF4File10BaseObjectEEENSt15iterator_traitsIT_E15difference_typeES8_S8_St18input_iterator_tag@Base 1.7-1ubuntu5
 _ZSt10__distanceISt20_List_const_iteratorIPN6TagLib3MP44AtomEEENSt15iterator_traitsIT_E15difference_typeES7_S7_St18input_iterator_tag@Base 1.7-1ubuntu5
 _ZSt10__distanceISt20_List_const_iteratorIPN6TagLib3Ogg4PageEEENSt15iterator_traitsIT_E15difference_typeES7_S7_St18input_iterator_tag@Base 1.7-1ubuntu5
 _ZSt10__distanceISt20_List_const_iteratorIPN6TagLib4FLAC13MetadataBlockEEENSt15iterator_traitsIT_E15difference_typeES7_S7_St18input_iterator_tag@Base 1.7-1ubuntu5
 _ZSt10__distanceISt20_List_const_iteratorIiEENSt15iterator_traitsIT_E15difference_typeES3_S3_St18input_iterator_tag@Base 1.7-1ubuntu5
 _ZSt10__fill_n_aIPPN6TagLib3TagEjS2_EN9__gnu_cxx11__enable_ifIXsrSt11__is_scalarIT1_E7__valueET_E6__typeES9_T0_RKS7_@Base 1.7-1ubuntu5
 _ZSt10__fill_n_aIjcEN9__gnu_cxx11__enable_ifIXsrSt9__is_byteIT0_E7__valueEPS3_E6__typeES5_T_RKS3_@Base 1.7-1ubuntu5
 _ZSt11__addressofI5ChunkEPT_RS1_@Base 1.7-1ubuntu5
 _ZSt11__addressofIKN6TagLib6StringEEPT_RS3_@Base 1.7-1ubuntu5
 _ZSt11__addressofIKSt4pairIKN6TagLib6StringENS1_3APE4ItemEEEPT_RS8_@Base 1.7-1ubuntu5
 _ZSt11__addressofIKSt4pairIKN6TagLib6StringENS1_4ListINS1_3ASF9AttributeEEEEEPT_RSA_@Base 1.7-1ubuntu5
 _ZSt11__addressofIN6TagLib10ByteVectorEEPT_RS2_@Base 1.7-1ubuntu5
 _ZSt11__addressofIN6TagLib3ASF9AttributeEEPT_RS3_@Base 1.7-1ubuntu5
 _ZSt11__addressofIN6TagLib3MP48CoverArtEEPT_RS3_@Base 1.7-1ubuntu5
 _ZSt11__addressofIN6TagLib4ListIiEEEPT_RS3_@Base 1.7-1ubuntu5
 _ZSt11__addressofIN6TagLib5ID3v219RelativeVolumeFrame11ChannelTypeEEPT_RS4_@Base 1.7-1ubuntu5
 _ZSt11__addressofIN6TagLib6StringEEPT_RS2_@Base 1.7-1ubuntu5
 _ZSt11__addressofIPKN6TagLib7FileRef16FileTypeResolverEEPT_RS5_@Base 1.7-1ubuntu5
 _ZSt11__addressofIPN6TagLib3ASF4File10BaseObjectEEPT_RS5_@Base 1.7-1ubuntu5
 _ZSt11__addressofIPN6TagLib3MP44AtomEEPT_RS4_@Base 1.7-1ubuntu5
 _ZSt11__addressofIPN6TagLib3Ogg4PageEEPT_RS4_@Base 1.7-1ubuntu5
 _ZSt11__addressofIPN6TagLib4FLAC13MetadataBlockEEPT_RS4_@Base 1.7-1ubuntu5
 _ZSt11__addressofIPN6TagLib4FLAC7PictureEEPT_RS4_@Base 1.7-1ubuntu5
 _ZSt11__addressofIPN6TagLib5ID3v25FrameEEPT_RS4_@Base 1.7-1ubuntu5
 _ZSt11__addressofISt4pairIKN6TagLib10ByteVectorENS1_4ListIPNS1_5ID3v25FrameEEEEEPT_RSA_@Base 1.7-1ubuntu5
 _ZSt11__addressofISt4pairIKN6TagLib5ID3v219RelativeVolumeFrame11ChannelTypeE11ChannelDataEEPT_RS8_@Base 1.7-1ubuntu5
 _ZSt11__addressofISt4pairIKN6TagLib6StringENS1_10StringListEEEPT_RS6_@Base 1.7-1ubuntu5
 _ZSt11__addressofISt4pairIKN6TagLib6StringENS1_3APE4ItemEEEPT_RS7_@Base 1.7-1ubuntu5
 _ZSt11__addressofISt4pairIKN6TagLib6StringENS1_3MP44ItemEEEPT_RS7_@Base 1.7-1ubuntu5
 _ZSt11__addressofISt4pairIKN6TagLib6StringENS1_4ListINS1_3ASF9AttributeEEEEEPT_RS9_@Base 1.7-1ubuntu5
 _ZSt11__addressofISt4pairIKN6TagLib6StringEiEEPT_RS5_@Base 1.7-1ubuntu5
 _ZSt11__addressofISt4pairIKiN6TagLib10ByteVectorEEEPT_RS5_@Base 1.7-1ubuntu5
 _ZSt11__addressofIiEPT_RS0_@Base 1.7-1ubuntu5
 _ZSt12__miter_baseIN9__gnu_cxx17__normal_iteratorIPKcSt6vectorIcSaIcEEEEENSt11_Miter_baseIT_E13iterator_typeES9_@Base 1.7-1ubuntu5
 _ZSt12__miter_baseIN9__gnu_cxx17__normal_iteratorIPcSt6vectorIcSaIcEEEEENSt11_Miter_baseIT_E13iterator_typeES8_@Base 1.7-1ubuntu5
 _ZSt12__miter_baseIP5ChunkENSt11_Miter_baseIT_E13iterator_typeES3_@Base 1.7-1ubuntu5
 _ZSt12__miter_baseIPN6TagLib4ListIiEEENSt11_Miter_baseIT_E13iterator_typeES5_@Base 1.7-1ubuntu5
 _ZSt12__miter_baseIPcENSt11_Miter_baseIT_E13iterator_typeES2_@Base 1.7-1ubuntu5
 _ZSt12__niter_baseIN9__gnu_cxx17__normal_iteratorIPKcSt6vectorIcSaIcEEEEENSt11_Niter_baseIT_E13iterator_typeES9_@Base 1.7-1ubuntu5
 _ZSt12__niter_baseIN9__gnu_cxx17__normal_iteratorIPcSt6vectorIcSaIcEEEEENSt11_Niter_baseIT_E13iterator_typeES8_@Base 1.7-1ubuntu5
 _ZSt12__niter_baseIP5ChunkENSt11_Niter_baseIT_E13iterator_typeES3_@Base 1.7-1ubuntu5
 _ZSt12__niter_baseIPN6TagLib4ListIiEEENSt11_Niter_baseIT_E13iterator_typeES5_@Base 1.7-1ubuntu5
 _ZSt12__niter_baseIPPN6TagLib3TagEENSt11_Niter_baseIT_E13iterator_typeES5_@Base 1.7-1ubuntu5
 _ZSt12__niter_baseIPcENSt11_Niter_baseIT_E13iterator_typeES2_@Base 1.7-1ubuntu5
 _ZSt13__copy_move_aILb0EPKcPcET1_T0_S4_S3_@Base 1.7-1ubuntu5
 _ZSt13__copy_move_aILb0EPcS0_ET1_T0_S2_S1_@Base 1.7-1ubuntu5
 _ZSt13copy_backwardIP5ChunkS1_ET0_T_S3_S2_@Base 1.7-1ubuntu5
 _ZSt13copy_backwardIPN6TagLib4ListIiEES3_ET0_T_S5_S4_@Base 1.7-1ubuntu5
 _ZSt13copy_backwardIPcS0_ET0_T_S2_S1_@Base 1.7-1ubuntu5
 _ZSt14__copy_move_a2ILb0EN9__gnu_cxx17__normal_iteratorIPKcSt6vectorIcSaIcEEEENS1_IPcS6_EEET1_T0_SB_SA_@Base 1.7-1ubuntu5
 _ZSt14__copy_move_a2ILb0EN9__gnu_cxx17__normal_iteratorIPKcSt6vectorIcSaIcEEEEPcET1_T0_SA_S9_@Base 1.7-1ubuntu5
 _ZSt14__copy_move_a2ILb0EN9__gnu_cxx17__normal_iteratorIPcSt6vectorIcSaIcEEEES6_ET1_T0_S8_S7_@Base 1.7-1ubuntu5
 _ZSt14__copy_move_a2ILb0EPcS0_ET1_T0_S2_S1_@Base 1.7-1ubuntu5
 _ZSt18uninitialized_copyIN9__gnu_cxx17__normal_iteratorIPKcSt6vectorIcSaIcEEEEPcET0_T_SA_S9_@Base 1.7-1ubuntu5
 _ZSt18uninitialized_copyIP5ChunkS1_ET0_T_S3_S2_@Base 1.7-1ubuntu5
 _ZSt18uninitialized_copyIPN6TagLib4ListIiEES3_ET0_T_S5_S4_@Base 1.7-1ubuntu5
 _ZSt18uninitialized_copyIPcS0_ET0_T_S2_S1_@Base 1.7-1ubuntu5
 _ZSt19__iterator_categoryIN9__gnu_cxx17__normal_iteratorIPKcSt6vectorIcSaIcEEEEENSt15iterator_traitsIT_E17iterator_categoryERKS9_@Base 1.7-1ubuntu5
 _ZSt19__iterator_categoryIN9__gnu_cxx17__normal_iteratorIPKwSbIwSt11char_traitsIwESaIwEEEEENSt15iterator_traitsIT_E17iterator_categoryERKSA_@Base 1.7-1ubuntu5
 _ZSt19__iterator_categoryISt14_List_iteratorIN6TagLib6StringEEENSt15iterator_traitsIT_E17iterator_categoryERKS5_@Base 1.7-1ubuntu5
 _ZSt19__iterator_categoryISt14_List_iteratorIPN6TagLib3MP44AtomEEENSt15iterator_traitsIT_E17iterator_categoryERKS7_@Base 1.7-1ubuntu5
 _ZSt19__iterator_categoryISt14_List_iteratorIPN6TagLib5ID3v25FrameEEENSt15iterator_traitsIT_E17iterator_categoryERKS7_@Base 1.7-1ubuntu5
 _ZSt19__iterator_categoryISt14_List_iteratorIiEENSt15iterator_traitsIT_E17iterator_categoryERKS3_@Base 1.7-1ubuntu5
 _ZSt19__iterator_categoryISt20_List_const_iteratorIN6TagLib10ByteVectorEEENSt15iterator_traitsIT_E17iterator_categoryERKS5_@Base 1.7-1ubuntu5
 _ZSt19__iterator_categoryISt20_List_const_iteratorIN6TagLib3ASF9AttributeEEENSt15iterator_traitsIT_E17iterator_categoryERKS6_@Base 1.7-1ubuntu5
 _ZSt19__iterator_categoryISt20_List_const_iteratorIN6TagLib3MP48CoverArtEEENSt15iterator_traitsIT_E17iterator_categoryERKS6_@Base 1.7-1ubuntu5
 _ZSt19__iterator_categoryISt20_List_const_iteratorIN6TagLib6StringEEENSt15iterator_traitsIT_E17iterator_categoryERKS5_@Base 1.7-1ubuntu5
 _ZSt19__iterator_categoryISt20_List_const_iteratorIPN6TagLib3ASF4File10BaseObjectEEENSt15iterator_traitsIT_E17iterator_categoryERKS8_@Base 1.7-1ubuntu5
 _ZSt19__iterator_categoryISt20_List_const_iteratorIPN6TagLib3MP44AtomEEENSt15iterator_traitsIT_E17iterator_categoryERKS7_@Base 1.7-1ubuntu5
 _ZSt19__iterator_categoryISt20_List_const_iteratorIPN6TagLib3Ogg4PageEEENSt15iterator_traitsIT_E17iterator_categoryERKS7_@Base 1.7-1ubuntu5
 _ZSt19__iterator_categoryISt20_List_const_iteratorIPN6TagLib4FLAC13MetadataBlockEEENSt15iterator_traitsIT_E17iterator_categoryERKS7_@Base 1.7-1ubuntu5
 _ZSt19__iterator_categoryISt20_List_const_iteratorIiEENSt15iterator_traitsIT_E17iterator_categoryERKS3_@Base 1.7-1ubuntu5
 _ZSt20uninitialized_fill_nIPPN6TagLib3TagEjS2_EvT_T0_RKT1_@Base 1.7-1ubuntu5
 _ZSt20uninitialized_fill_nIPcjcEvT_T0_RKT1_@Base 1.7-1ubuntu5
 _ZSt22__copy_move_backward_aILb0EP5ChunkS1_ET1_T0_S3_S2_@Base 1.7-1ubuntu5
 _ZSt22__copy_move_backward_aILb0EPN6TagLib4ListIiEES3_ET1_T0_S5_S4_@Base 1.7-1ubuntu5
 _ZSt22__copy_move_backward_aILb0EPcS0_ET1_T0_S2_S1_@Base 1.7-1ubuntu5
 _ZSt22__uninitialized_copy_aIN9__gnu_cxx17__normal_iteratorIPKcSt6vectorIcSaIcEEEEPccET0_T_SA_S9_RSaIT1_E@Base 1.7-1ubuntu5
 _ZSt22__uninitialized_copy_aIP5ChunkS1_S0_ET0_T_S3_S2_RSaIT1_E@Base 1.7-1ubuntu5
 _ZSt22__uninitialized_copy_aIPN6TagLib4ListIiEES3_S2_ET0_T_S5_S4_RSaIT1_E@Base 1.7-1ubuntu5
 _ZSt22__uninitialized_copy_aIPcS0_cET0_T_S2_S1_RSaIT1_E@Base 1.7-1ubuntu5
 _ZSt22__uninitialized_move_aIP5ChunkS1_SaIS0_EET0_T_S4_S3_RT1_@Base 1.7-1ubuntu5
 _ZSt22__uninitialized_move_aIPN6TagLib4ListIiEES3_SaIS2_EET0_T_S6_S5_RT1_@Base 1.7-1ubuntu5
 _ZSt22__uninitialized_move_aIPcS0_SaIcEET0_T_S3_S2_RT1_@Base 1.7-1ubuntu5
 _ZSt23__copy_move_backward_a2ILb0EP5ChunkS1_ET1_T0_S3_S2_@Base 1.7-1ubuntu5
 _ZSt23__copy_move_backward_a2ILb0EPN6TagLib4ListIiEES3_ET1_T0_S5_S4_@Base 1.7-1ubuntu5
 _ZSt23__copy_move_backward_a2ILb0EPcS0_ET1_T0_S2_S1_@Base 1.7-1ubuntu5
 _ZSt24__uninitialized_fill_n_aIPPN6TagLib3TagEjS2_S2_EvT_T0_RKT1_RSaIT2_E@Base 1.7-1ubuntu5
 _ZSt24__uninitialized_fill_n_aIPcjccEvT_T0_RKT1_RSaIT2_E@Base 1.7-1ubuntu5
 _ZSt3maxIjERKT_S2_S2_@Base 1.7-1ubuntu5
 _ZSt3maxImERKT_S2_S2_@Base 1.7-1ubuntu5
 _ZSt4copyIN9__gnu_cxx17__normal_iteratorIPKcSt6vectorIcSaIcEEEENS1_IPcS6_EEET0_T_SB_SA_@Base 1.7-1ubuntu5
 _ZSt4copyIN9__gnu_cxx17__normal_iteratorIPKcSt6vectorIcSaIcEEEEPcET0_T_SA_S9_@Base 1.7-1ubuntu5
 _ZSt4copyIN9__gnu_cxx17__normal_iteratorIPcSt6vectorIcSaIcEEEES6_ET0_T_S8_S7_@Base 1.7-1ubuntu5
 _ZSt4copyIPcS0_ET0_T_S2_S1_@Base 1.7-1ubuntu5
 _ZSt4fillIPccEvT_S1_RKT0_@Base 1.7-1ubuntu5
 _ZSt4findISt14_List_iteratorIN6TagLib6StringEES2_ET_S4_S4_RKT0_@Base 1.7-1ubuntu5
 _ZSt4findISt14_List_iteratorIPN6TagLib3MP44AtomEES4_ET_S6_S6_RKT0_@Base 1.7-1ubuntu5
 _ZSt4findISt14_List_iteratorIPN6TagLib5ID3v25FrameEES4_ET_S6_S6_RKT0_@Base 1.7-1ubuntu5
 _ZSt4findISt14_List_iteratorIiEiET_S2_S2_RKT0_@Base 1.7-1ubuntu5
 _ZSt6__findISt14_List_iteratorIN6TagLib6StringEES2_ET_S4_S4_RKT0_St18input_iterator_tag@Base 1.7-1ubuntu5
 _ZSt6__findISt14_List_iteratorIPN6TagLib3MP44AtomEES4_ET_S6_S6_RKT0_St18input_iterator_tag@Base 1.7-1ubuntu5
 _ZSt6__findISt14_List_iteratorIPN6TagLib5ID3v25FrameEES4_ET_S6_S6_RKT0_St18input_iterator_tag@Base 1.7-1ubuntu5
 _ZSt6__findISt14_List_iteratorIiEiET_S2_S2_RKT0_St18input_iterator_tag@Base 1.7-1ubuntu5
 _ZSt6fill_nIPPN6TagLib3TagEjS2_ET_S4_T0_RKT1_@Base 1.7-1ubuntu5
 _ZSt6fill_nIPcjcET_S1_T0_RKT1_@Base 1.7-1ubuntu5
 _ZSt7advanceIN9__gnu_cxx17__normal_iteratorIPKcSt6vectorIcSaIcEEEEjEvRT_T0_@Base 1.7-1ubuntu5
 _ZSt8_DestroyI5ChunkEvPT_@Base 1.7-1ubuntu5
 _ZSt8_DestroyIN6TagLib4ListIiEEEvPT_@Base 1.7-1ubuntu5
 _ZSt8_DestroyIP5ChunkEvT_S2_@Base 1.7-1ubuntu5
 _ZSt8_DestroyIP5ChunkS0_EvT_S2_RSaIT0_E@Base 1.7-1ubuntu5
 _ZSt8_DestroyIPN6TagLib4ListIiEEEvT_S4_@Base 1.7-1ubuntu5
 _ZSt8_DestroyIPN6TagLib4ListIiEES2_EvT_S4_RSaIT0_E@Base 1.7-1ubuntu5
 _ZSt8_DestroyIPPN6TagLib3TagEEvT_S4_@Base 1.7-1ubuntu5
 _ZSt8_DestroyIPPN6TagLib3TagES2_EvT_S4_RSaIT0_E@Base 1.7-1ubuntu5
 _ZSt8_DestroyIPcEvT_S1_@Base 1.7-1ubuntu5
 _ZSt8_DestroyIPccEvT_S1_RSaIT0_E@Base 1.7-1ubuntu5
 _ZSt8__fill_aIcEN9__gnu_cxx11__enable_ifIXsrSt9__is_byteIT_E7__valueEvE6__typeEPS3_S7_RKS3_@Base 1.7-1ubuntu5
 _ZSt8distanceIN9__gnu_cxx17__normal_iteratorIPKcSt6vectorIcSaIcEEEEENSt15iterator_traitsIT_E15difference_typeES9_S9_@Base 1.7-1ubuntu5
 _ZSt8distanceIN9__gnu_cxx17__normal_iteratorIPKwSbIwSt11char_traitsIwESaIwEEEEENSt15iterator_traitsIT_E15difference_typeESA_SA_@Base 1.7-1ubuntu5
 _ZSt8distanceISt20_List_const_iteratorIN6TagLib10ByteVectorEEENSt15iterator_traitsIT_E15difference_typeES5_S5_@Base 1.7-1ubuntu5
 _ZSt8distanceISt20_List_const_iteratorIN6TagLib3ASF9AttributeEEENSt15iterator_traitsIT_E15difference_typeES6_S6_@Base 1.7-1ubuntu5
 _ZSt8distanceISt20_List_const_iteratorIN6TagLib3MP48CoverArtEEENSt15iterator_traitsIT_E15difference_typeES6_S6_@Base 1.7-1ubuntu5
 _ZSt8distanceISt20_List_const_iteratorIN6TagLib6StringEEENSt15iterator_traitsIT_E15difference_typeES5_S5_@Base 1.7-1ubuntu5
 _ZSt8distanceISt20_List_const_iteratorIPN6TagLib3ASF4File10BaseObjectEEENSt15iterator_traitsIT_E15difference_typeES8_S8_@Base 1.7-1ubuntu5
 _ZSt8distanceISt20_List_const_iteratorIPN6TagLib3MP44AtomEEENSt15iterator_traitsIT_E15difference_typeES7_S7_@Base 1.7-1ubuntu5
 _ZSt8distanceISt20_List_const_iteratorIPN6TagLib3Ogg4PageEEENSt15iterator_traitsIT_E15difference_typeES7_S7_@Base 1.7-1ubuntu5
 _ZSt8distanceISt20_List_const_iteratorIPN6TagLib4FLAC13MetadataBlockEEENSt15iterator_traitsIT_E15difference_typeES7_S7_@Base 1.7-1ubuntu5
 _ZSt8distanceISt20_List_const_iteratorIiEENSt15iterator_traitsIT_E15difference_typeES3_S3_@Base 1.7-1ubuntu5
 _ZSt9__advanceIN9__gnu_cxx17__normal_iteratorIPKcSt6vectorIcSaIcEEEEiEvRT_T0_St26random_access_iterator_tag@Base 1.7-1ubuntu5
 _ZSteqIwEN9__gnu_cxx11__enable_ifIXsrSt9__is_charIT_E7__valueEbE6__typeERKSbIS3_St11char_traitsIS3_ESaIS3_EESC_@Base 1.7-1ubuntu5
 _ZSteqIwEbRKSaIT_ES3_@Base 1.7-1ubuntu5
 _ZStltIwSt11char_traitsIwESaIwEEbRKSbIT_T0_T1_ES8_@Base 1.7-1ubuntu5
 _ZTIN6TagLib10ByteVectorE@Base 1.4 1
 _ZTIN6TagLib10StringListE@Base 1.4 1
 _ZTIN6TagLib14ByteVectorListE@Base 1.4 1
 _ZTIN6TagLib15AudioPropertiesE@Base 1.4 1
 _ZTIN6TagLib3APE10PropertiesE@Base 1.7
 _ZTIN6TagLib3APE3TagE@Base 1.4 1
 _ZTIN6TagLib3APE4FileE@Base 1.7
 _ZTIN6TagLib3APE4ItemE@Base 1.4 1
 _ZTIN6TagLib3APE6FooterE@Base 1.4 1
 _ZTIN6TagLib3ASF10PropertiesE@Base 1.6-2~
 _ZTIN6TagLib3ASF3TagE@Base 1.6-2~
 _ZTIN6TagLib3ASF4File10BaseObjectE@Base 1.6-2~
 _ZTIN6TagLib3ASF4File13UnknownObjectE@Base 1.6-2~
 _ZTIN6TagLib3ASF4File14MetadataObjectE@Base 1.6-2~
 _ZTIN6TagLib3ASF4File20FilePropertiesObjectE@Base 1.6-2~
 _ZTIN6TagLib3ASF4File21HeaderExtensionObjectE@Base 1.6-2~
 _ZTIN6TagLib3ASF4File21MetadataLibraryObjectE@Base 1.6-2~
 _ZTIN6TagLib3ASF4File22StreamPropertiesObjectE@Base 1.6-2~
 _ZTIN6TagLib3ASF4File24ContentDescriptionObjectE@Base 1.6-2~
 _ZTIN6TagLib3ASF4File32ExtendedContentDescriptionObjectE@Base 1.6-2~
 _ZTIN6TagLib3ASF4FileE@Base 1.6-2~
 _ZTIN6TagLib3ASF7PictureE@Base 1.7
 _ZTIN6TagLib3ASF9AttributeE@Base 1.6-2~
 _ZTIN6TagLib3MP410PropertiesE@Base 1.6-2~
 _ZTIN6TagLib3MP43TagE@Base 1.6-2~
 _ZTIN6TagLib3MP44FileE@Base 1.6-2~
 _ZTIN6TagLib3MPC10PropertiesE@Base 1.4 1
 _ZTIN6TagLib3MPC4FileE@Base 1.4 1
 _ZTIN6TagLib3Ogg10PageHeaderE@Base 1.4 1
 _ZTIN6TagLib3Ogg11XiphCommentE@Base 1.4 1
 _ZTIN6TagLib3Ogg4FLAC4FileE@Base 1.4 1
 _ZTIN6TagLib3Ogg4FileE@Base 1.4 1
 _ZTIN6TagLib3Ogg4PageE@Base 1.4 1
 _ZTIN6TagLib3Ogg5Speex10PropertiesE@Base 1.5
 _ZTIN6TagLib3Ogg5Speex4FileE@Base 1.5
 _ZTIN6TagLib3TagE@Base 1.4 1
 _ZTIN6TagLib4FLAC10PropertiesE@Base 1.4 1
 _ZTIN6TagLib4FLAC13MetadataBlockE@Base 1.7
 _ZTIN6TagLib4FLAC20UnknownMetadataBlockE@Base 1.7
 _ZTIN6TagLib4FLAC4FileE@Base 1.4 1
 _ZTIN6TagLib4FLAC7PictureE@Base 1.7
 _ZTIN6TagLib4FileE@Base 1.4 1
 _ZTIN6TagLib4MPEG10PropertiesE@Base 1.4 1
 _ZTIN6TagLib4MPEG10XingHeaderE@Base 1.4 1
 _ZTIN6TagLib4MPEG4FileE@Base 1.4 1
 _ZTIN6TagLib4MPEG6HeaderE@Base 1.4 1
 _ZTIN6TagLib4RIFF3WAV10PropertiesE@Base 1.6
 _ZTIN6TagLib4RIFF3WAV4FileE@Base 1.6
 _ZTIN6TagLib4RIFF4AIFF10PropertiesE@Base 1.6
 _ZTIN6TagLib4RIFF4AIFF4FileE@Base 1.6
 _ZTIN6TagLib4RIFF4FileE@Base 1.6
 _ZTIN6TagLib5ID3v113StringHandlerE@Base 1.4 1
 _ZTIN6TagLib5ID3v13TagE@Base 1.4 1
 _ZTIN6TagLib5ID3v212FrameFactoryE@Base 1.4 1
 _ZTIN6TagLib5ID3v212PrivateFrameE@Base 1.6
 _ZTIN6TagLib5ID3v212UnknownFrameE@Base 1.4 1
 _ZTIN6TagLib5ID3v212UrlLinkFrameE@Base 1.5
 _ZTIN6TagLib5ID3v213CommentsFrameE@Base 1.4 1
 _ZTIN6TagLib5ID3v214ExtendedHeaderE@Base 1.4 1
 _ZTIN6TagLib5ID3v216UserUrlLinkFrameE@Base 1.5
 _ZTIN6TagLib5ID3v218PopularimeterFrameE@Base 1.6
 _ZTIN6TagLib5ID3v219RelativeVolumeFrameE@Base 1.4 1
 _ZTIN6TagLib5ID3v220AttachedPictureFrameE@Base 1.4 1
 _ZTIN6TagLib5ID3v223AttachedPictureFrameV22E@Base 1.6
 _ZTIN6TagLib5ID3v223TextIdentificationFrameE@Base 1.4 1
 _ZTIN6TagLib5ID3v225UniqueFileIdentifierFrameE@Base 1.4 1
 _ZTIN6TagLib5ID3v225UnsynchronizedLyricsFrameE@Base 1.5
 _ZTIN6TagLib5ID3v227UserTextIdentificationFrameE@Base 1.4 1
 _ZTIN6TagLib5ID3v230GeneralEncapsulatedObjectFrameE@Base 1.5
 _ZTIN6TagLib5ID3v23TagE@Base 1.4 1
 _ZTIN6TagLib5ID3v25Frame6HeaderE@Base 1.4 1
 _ZTIN6TagLib5ID3v25FrameE@Base 1.4 1
 _ZTIN6TagLib5ID3v26FooterE@Base 1.4 1
 _ZTIN6TagLib5ID3v26HeaderE@Base 1.4 1
 _ZTIN6TagLib6StringE@Base 1.4 1
 _ZTIN6TagLib6Vorbis10PropertiesE@Base 1.4 1
 _ZTIN6TagLib6Vorbis4FileE@Base 1.4 1
 _ZTIN6TagLib7FileRefE@Base 1.4 1
 _ZTIN6TagLib7WavPack10PropertiesE@Base 1.5
 _ZTIN6TagLib7WavPack4FileE@Base 1.5
 _ZTIN6TagLib9TrueAudio10PropertiesE@Base 1.5
 _ZTIN6TagLib9TrueAudio4FileE@Base 1.5
 _ZTSN6TagLib10ByteVectorE@Base 1.4 1
 _ZTSN6TagLib10StringListE@Base 1.4 1
 _ZTSN6TagLib14ByteVectorListE@Base 1.4 1
 _ZTSN6TagLib15AudioPropertiesE@Base 1.4 1
 _ZTSN6TagLib3APE10PropertiesE@Base 1.7
 _ZTSN6TagLib3APE3TagE@Base 1.4 1
 _ZTSN6TagLib3APE4FileE@Base 1.7
 _ZTSN6TagLib3APE4ItemE@Base 1.4 1
 _ZTSN6TagLib3APE6FooterE@Base 1.4 1
 _ZTSN6TagLib3ASF10PropertiesE@Base 1.6-2~
 _ZTSN6TagLib3ASF3TagE@Base 1.6-2~
 _ZTSN6TagLib3ASF4File10BaseObjectE@Base 1.6-2~
 _ZTSN6TagLib3ASF4File13UnknownObjectE@Base 1.6-2~
 _ZTSN6TagLib3ASF4File14MetadataObjectE@Base 1.6-2~
 _ZTSN6TagLib3ASF4File20FilePropertiesObjectE@Base 1.6-2~
 _ZTSN6TagLib3ASF4File21HeaderExtensionObjectE@Base 1.6-2~
 _ZTSN6TagLib3ASF4File21MetadataLibraryObjectE@Base 1.6-2~
 _ZTSN6TagLib3ASF4File22StreamPropertiesObjectE@Base 1.6-2~
 _ZTSN6TagLib3ASF4File24ContentDescriptionObjectE@Base 1.6-2~
 _ZTSN6TagLib3ASF4File32ExtendedContentDescriptionObjectE@Base 1.6-2~
 _ZTSN6TagLib3ASF4FileE@Base 1.6-2~
 _ZTSN6TagLib3ASF7PictureE@Base 1.7
 _ZTSN6TagLib3ASF9AttributeE@Base 1.6-2~
 _ZTSN6TagLib3MP410PropertiesE@Base 1.6-2~
 _ZTSN6TagLib3MP43TagE@Base 1.6-2~
 _ZTSN6TagLib3MP44FileE@Base 1.6-2~
 _ZTSN6TagLib3MPC10PropertiesE@Base 1.4 1
 _ZTSN6TagLib3MPC4FileE@Base 1.4 1
 _ZTSN6TagLib3Ogg10PageHeaderE@Base 1.4 1
 _ZTSN6TagLib3Ogg11XiphCommentE@Base 1.4 1
 _ZTSN6TagLib3Ogg4FLAC4FileE@Base 1.4 1
 _ZTSN6TagLib3Ogg4FileE@Base 1.4 1
 _ZTSN6TagLib3Ogg4PageE@Base 1.4 1
 _ZTSN6TagLib3Ogg5Speex10PropertiesE@Base 1.5
 _ZTSN6TagLib3Ogg5Speex4FileE@Base 1.5
 _ZTSN6TagLib3TagE@Base 1.4 1
 _ZTSN6TagLib4FLAC10PropertiesE@Base 1.4 1
 _ZTSN6TagLib4FLAC13MetadataBlockE@Base 1.7
 _ZTSN6TagLib4FLAC20UnknownMetadataBlockE@Base 1.7
 _ZTSN6TagLib4FLAC4FileE@Base 1.4 1
 _ZTSN6TagLib4FLAC7PictureE@Base 1.7
 _ZTSN6TagLib4FileE@Base 1.4 1
 _ZTSN6TagLib4MPEG10PropertiesE@Base 1.4 1
 _ZTSN6TagLib4MPEG10XingHeaderE@Base 1.4 1
 _ZTSN6TagLib4MPEG4FileE@Base 1.4 1
 _ZTSN6TagLib4MPEG6HeaderE@Base 1.4 1
 _ZTSN6TagLib4RIFF3WAV10PropertiesE@Base 1.6
 _ZTSN6TagLib4RIFF3WAV4FileE@Base 1.6
 _ZTSN6TagLib4RIFF4AIFF10PropertiesE@Base 1.6
 _ZTSN6TagLib4RIFF4AIFF4FileE@Base 1.6
 _ZTSN6TagLib4RIFF4FileE@Base 1.6
 _ZTSN6TagLib5ID3v113StringHandlerE@Base 1.4 1
 _ZTSN6TagLib5ID3v13TagE@Base 1.4 1
 _ZTSN6TagLib5ID3v212FrameFactoryE@Base 1.4 1
 _ZTSN6TagLib5ID3v212PrivateFrameE@Base 1.6
 _ZTSN6TagLib5ID3v212UnknownFrameE@Base 1.4 1
 _ZTSN6TagLib5ID3v212UrlLinkFrameE@Base 1.5
 _ZTSN6TagLib5ID3v213CommentsFrameE@Base 1.4 1
 _ZTSN6TagLib5ID3v214ExtendedHeaderE@Base 1.4 1
 _ZTSN6TagLib5ID3v216UserUrlLinkFrameE@Base 1.5
 _ZTSN6TagLib5ID3v218PopularimeterFrameE@Base 1.6
 _ZTSN6TagLib5ID3v219RelativeVolumeFrameE@Base 1.4 1
 _ZTSN6TagLib5ID3v220AttachedPictureFrameE@Base 1.4 1
 _ZTSN6TagLib5ID3v223AttachedPictureFrameV22E@Base 1.6
 _ZTSN6TagLib5ID3v223TextIdentificationFrameE@Base 1.4 1
 _ZTSN6TagLib5ID3v225UniqueFileIdentifierFrameE@Base 1.4 1
 _ZTSN6TagLib5ID3v225UnsynchronizedLyricsFrameE@Base 1.5
 _ZTSN6TagLib5ID3v227UserTextIdentificationFrameE@Base 1.4 1
 _ZTSN6TagLib5ID3v230GeneralEncapsulatedObjectFrameE@Base 1.5
 _ZTSN6TagLib5ID3v23TagE@Base 1.4 1
 _ZTSN6TagLib5ID3v25Frame6HeaderE@Base 1.4 1
 _ZTSN6TagLib5ID3v25FrameE@Base 1.4 1
 _ZTSN6TagLib5ID3v26FooterE@Base 1.4 1
 _ZTSN6TagLib5ID3v26HeaderE@Base 1.4 1
 _ZTSN6TagLib6StringE@Base 1.4 1
 _ZTSN6TagLib6Vorbis10PropertiesE@Base 1.4 1
 _ZTSN6TagLib6Vorbis4FileE@Base 1.4 1
 _ZTSN6TagLib7FileRefE@Base 1.4 1
 _ZTSN6TagLib7WavPack10PropertiesE@Base 1.5
 _ZTSN6TagLib7WavPack4FileE@Base 1.5
 _ZTSN6TagLib9TrueAudio10PropertiesE@Base 1.5
 _ZTSN6TagLib9TrueAudio4FileE@Base 1.5
 _ZTVN6TagLib10ByteVectorE@Base 1.4 1
 _ZTVN6TagLib10StringListE@Base 1.4 1
 _ZTVN6TagLib14ByteVectorListE@Base 1.4 1
 _ZTVN6TagLib15AudioPropertiesE@Base 1.4 1
 _ZTVN6TagLib3APE10PropertiesE@Base 1.7
 _ZTVN6TagLib3APE3TagE@Base 1.4 1
 _ZTVN6TagLib3APE4FileE@Base 1.7
 _ZTVN6TagLib3APE4ItemE@Base 1.4 1
 _ZTVN6TagLib3APE6FooterE@Base 1.4 1
 _ZTVN6TagLib3ASF10PropertiesE@Base 1.6-2~
 _ZTVN6TagLib3ASF3TagE@Base 1.6-2~
 _ZTVN6TagLib3ASF4File10BaseObjectE@Base 1.6-2~
 _ZTVN6TagLib3ASF4File13UnknownObjectE@Base 1.6-2~
 _ZTVN6TagLib3ASF4File14MetadataObjectE@Base 1.6-2~
 _ZTVN6TagLib3ASF4File20FilePropertiesObjectE@Base 1.6-2~
 _ZTVN6TagLib3ASF4File21HeaderExtensionObjectE@Base 1.6-2~
 _ZTVN6TagLib3ASF4File21MetadataLibraryObjectE@Base 1.6-2~
 _ZTVN6TagLib3ASF4File22StreamPropertiesObjectE@Base 1.6-2~
 _ZTVN6TagLib3ASF4File24ContentDescriptionObjectE@Base 1.6-2~
 _ZTVN6TagLib3ASF4File32ExtendedContentDescriptionObjectE@Base 1.6-2~
 _ZTVN6TagLib3ASF4FileE@Base 1.6-2~
 _ZTVN6TagLib3ASF7PictureE@Base 1.7
 _ZTVN6TagLib3ASF9AttributeE@Base 1.6-2~
 _ZTVN6TagLib3MP410PropertiesE@Base 1.6-2~
 _ZTVN6TagLib3MP43TagE@Base 1.6-2~
 _ZTVN6TagLib3MP44FileE@Base 1.6-2~
 _ZTVN6TagLib3MPC10PropertiesE@Base 1.4 1
 _ZTVN6TagLib3MPC4FileE@Base 1.4 1
 _ZTVN6TagLib3Ogg10PageHeaderE@Base 1.4 1
 _ZTVN6TagLib3Ogg11XiphCommentE@Base 1.4 1
 _ZTVN6TagLib3Ogg4FLAC4FileE@Base 1.4 1
 _ZTVN6TagLib3Ogg4FileE@Base 1.4 1
 _ZTVN6TagLib3Ogg4PageE@Base 1.4 1
 _ZTVN6TagLib3Ogg5Speex10PropertiesE@Base 1.5
 _ZTVN6TagLib3Ogg5Speex4FileE@Base 1.5
 _ZTVN6TagLib3TagE@Base 1.4 1
 _ZTVN6TagLib4FLAC10PropertiesE@Base 1.4 1
 _ZTVN6TagLib4FLAC13MetadataBlockE@Base 1.7
 _ZTVN6TagLib4FLAC20UnknownMetadataBlockE@Base 1.7
 _ZTVN6TagLib4FLAC4FileE@Base 1.4 1
 _ZTVN6TagLib4FLAC7PictureE@Base 1.7
 _ZTVN6TagLib4FileE@Base 1.4 1
 _ZTVN6TagLib4MPEG10PropertiesE@Base 1.4 1
 _ZTVN6TagLib4MPEG10XingHeaderE@Base 1.4 1
 _ZTVN6TagLib4MPEG4FileE@Base 1.4 1
 _ZTVN6TagLib4MPEG6HeaderE@Base 1.4 1
 _ZTVN6TagLib4RIFF3WAV10PropertiesE@Base 1.6
 _ZTVN6TagLib4RIFF3WAV4FileE@Base 1.6
 _ZTVN6TagLib4RIFF4AIFF10PropertiesE@Base 1.6
 _ZTVN6TagLib4RIFF4AIFF4FileE@Base 1.6
 _ZTVN6TagLib4RIFF4FileE@Base 1.6
 _ZTVN6TagLib5ID3v113StringHandlerE@Base 1.4 1
 _ZTVN6TagLib5ID3v13TagE@Base 1.4 1
 _ZTVN6TagLib5ID3v212FrameFactoryE@Base 1.4 1
 _ZTVN6TagLib5ID3v212PrivateFrameE@Base 1.6
 _ZTVN6TagLib5ID3v212UnknownFrameE@Base 1.4 1
 _ZTVN6TagLib5ID3v212UrlLinkFrameE@Base 1.5
 _ZTVN6TagLib5ID3v213CommentsFrameE@Base 1.4 1
 _ZTVN6TagLib5ID3v214ExtendedHeaderE@Base 1.4 1
 _ZTVN6TagLib5ID3v216UserUrlLinkFrameE@Base 1.5
 _ZTVN6TagLib5ID3v218PopularimeterFrameE@Base 1.6
 _ZTVN6TagLib5ID3v219RelativeVolumeFrameE@Base 1.4 1
 _ZTVN6TagLib5ID3v220AttachedPictureFrameE@Base 1.4 1
 _ZTVN6TagLib5ID3v223AttachedPictureFrameV22E@Base 1.6
 _ZTVN6TagLib5ID3v223TextIdentificationFrameE@Base 1.4 1
 _ZTVN6TagLib5ID3v225UniqueFileIdentifierFrameE@Base 1.4 1
 _ZTVN6TagLib5ID3v225UnsynchronizedLyricsFrameE@Base 1.5
 _ZTVN6TagLib5ID3v227UserTextIdentificationFrameE@Base 1.4 1
 _ZTVN6TagLib5ID3v230GeneralEncapsulatedObjectFrameE@Base 1.5
 _ZTVN6TagLib5ID3v23TagE@Base 1.4 1
 _ZTVN6TagLib5ID3v25Frame6HeaderE@Base 1.4 1
 _ZTVN6TagLib5ID3v25FrameE@Base 1.4 1
 _ZTVN6TagLib5ID3v26FooterE@Base 1.4 1
 _ZTVN6TagLib5ID3v26HeaderE@Base 1.4 1
 _ZTVN6TagLib6StringE@Base 1.4 1
 _ZTVN6TagLib6Vorbis10PropertiesE@Base 1.4 1
 _ZTVN6TagLib6Vorbis4FileE@Base 1.4 1
 _ZTVN6TagLib7FileRefE@Base 1.4 1
 _ZTVN6TagLib7WavPack10PropertiesE@Base 1.5
 _ZTVN6TagLib7WavPack4FileE@Base 1.5
 _ZTVN6TagLib9TrueAudio10PropertiesE@Base 1.5
 _ZTVN6TagLib9TrueAudio4FileE@Base 1.5
 _ZdlPvS_@Base 1.7-1ubuntu5
 _ZlsRSoRKN6TagLib10ByteVectorE@Base 1.4 1
 _ZlsRSoRKN6TagLib6StringE@Base 1.4 1
 _ZnwjPv@Base 1.7-1ubuntu5
 _ZplPKcRKN6TagLib6StringE@Base 1.4 1
 _ZplRKN6TagLib6StringEPKc@Base 1.4 1
 _ZplRKN6TagLib6StringES2_@Base 1.4 1
